 ui_mp_x86

 Timestamp is 4f8e6d02 (Wed Apr 18 09:28:02 2012)

 Preferred load address is 40000000

 Start         Length     Name                   Class
 0001:00000000 0008ab6aH .text                   CODE
 0001:0008ab70 00000109H .text$x                 CODE
 0002:00000000 00000148H .idata$5                DATA
 0002:00000148 00000004H .CRT$XCA                DATA
 0002:0000014c 00000004H .CRT$XCZ                DATA
 0002:00000150 00000004H .CRT$XIA                DATA
 0002:00000154 00000014H .CRT$XIC                DATA
 0002:00000168 00000004H .CRT$XIZ                DATA
 0002:0000016c 00000004H .CRT$XPA                DATA
 0002:00000170 00000008H .CRT$XPX                DATA
 0002:00000178 00000004H .CRT$XPXA               DATA
 0002:0000017c 00000004H .CRT$XPZ                DATA
 0002:00000180 00000004H .CRT$XTA                DATA
 0002:00000184 00000004H .CRT$XTZ                DATA
 0002:00000190 000183d8H .rdata                  DATA
 0002:00018568 00000038H .rdata$debug            DATA
 0002:000185a0 000001c4H .rdata$r                DATA
 0002:00018770 0000002cH .rdata$sxdata           DATA
 0002:0001879c 00000004H .rtc$IAA                DATA
 0002:000187a0 00000038H .rtc$IMZ                DATA
 0002:000187d8 00000004H .rtc$IZZ                DATA
 0002:000187dc 00000004H .rtc$TAA                DATA
 0002:000187e0 00000038H .rtc$TMZ                DATA
 0002:00018818 00000004H .rtc$TZZ                DATA
 0002:00018820 00000ac8H .xdata$x                DATA
 0002:000192e8 00000014H .idata$2                DATA
 0002:000192fc 00000014H .idata$3                DATA
 0002:00019310 00000148H .idata$4                DATA
 0002:00019458 000005eaH .idata$6                DATA
 0002:00019a50 0000005aH .edata                  DATA
 0003:00000000 00008b34H .data                   DATA
 0003:00008b40 0065524cH .bss                    DATA

  Address         Publics by Value              Rva+Base       Lib:Object

 0000:00000000       __except_list              00000000     <absolute>
 0000:0000000b       ___safe_se_handler_count   0000000b     <absolute>
 0000:00000000       ___ImageBase               40000000     <linker-defined>
 0001:00000000       _BG_AnimParseError         40001000 f   bg_animation.obj
 0001:000000f0       _BG_AnimationForString     400010f0 f   bg_animation.obj
 0001:000001b0       _BG_IndexForString         400011b0 f   bg_animation.obj
 0001:00000280       _BG_CopyStringIntoBuffer   40001280 f   bg_animation.obj
 0001:00000320       _BG_InitWeaponStrings      40001320 f   bg_animation.obj
 0001:00000420       _BG_ParseConditionBits     40001420 f   bg_animation.obj
 0001:00000830       _BG_ParseConditions        40001830 f   bg_animation.obj
 0001:00000ac0       _BG_AnimParseAnimScript    40001ac0 f   bg_animation.obj
 0001:00001b20       _BG_EvaluateConditions     40002b20 f   bg_animation.obj
 0001:00001c60       _BG_FirstValidItem         40002c60 f   bg_animation.obj
 0001:00001cf0       _BG_ClearAnimTimer         40002cf0 f   bg_animation.obj
 0001:00001d60       _BG_PlayAnim               40002d60 f   bg_animation.obj
 0001:00001ef0       _BG_PlayAnimName           40002ef0 f   bg_animation.obj
 0001:00001f60       _BG_ExecuteCommand         40002f60 f   bg_animation.obj
 0001:00002120       _BG_AnimScriptAnimation    40003120 f   bg_animation.obj
 0001:000022a0       _BG_AnimScriptCannedAnimation 400032a0 f   bg_animation.obj
 0001:000023b0       _BG_AnimScriptEvent        400033b0 f   bg_animation.obj
 0001:000024a0       _BG_GetAnimString          400034a0 f   bg_animation.obj
 0001:00002500       _BG_UpdateConditionValue   40003500 f   bg_animation.obj
 0001:000025d0       _BG_GetConditionValue      400035d0 f   bg_animation.obj
 0001:000026b0       _BG_GetConditionBitFlag    400036b0 f   bg_animation.obj
 0001:00002740       _BG_SetConditionBitFlag    40003740 f   bg_animation.obj
 0001:000027a0       _BG_ClearConditionBitFlag  400037a0 f   bg_animation.obj
 0001:00002800       _BG_GetAnimScriptAnimation 40003800 f   bg_animation.obj
 0001:000028f0       _BG_GetAnimScriptEvent     400038f0 f   bg_animation.obj
 0001:000029e0       _BG_GetAnimationForIndex   400039e0 f   bg_animation.obj
 0001:00002a50       _BG_AnimUpdatePlayerStateConditions 40003a50 f   bg_animation.obj
 0001:00002d10       _BG_ClearAnimationPool     40003d10 f   bg_animgroup.obj
 0001:00002d60       _BG_R_RegisterAnimationGroup 40003d60 f   bg_animgroup.obj
 0001:00003630       _BG_LoadCampaignSave       40004630 f   bg_campaign.obj
 0001:00003860       _BG_ParseCharacterFile     40004860 f   bg_character.obj
 0001:00003e00       _BG_GetCharacter           40004e00 f   bg_character.obj
 0001:00003e60       _BG_GetCharacterForPlayerstate 40004e60 f   bg_character.obj
 0001:00003ed0       _BG_ClearCharacterPool     40004ed0 f   bg_character.obj
 0001:00003f30       _BG_FindFreeCharacter      40004f30 f   bg_character.obj
 0001:00004020       _BG_FindCharacter          40005020 f   bg_character.obj
 0001:000040b0       _BG_GetPlayerClassInfo     400050b0 f   bg_classes.obj
 0001:00004120       _BG_PlayerClassForPlayerState 40005120 f   bg_classes.obj
 0001:00004170       _BG_ClassHasWeapon         40005170 f   bg_classes.obj
 0001:000041e0       _BG_WeaponIsPrimaryForClassAndTeam 400051e0 f   bg_classes.obj
 0001:00004280       _BG_ShortClassnameForNumber 40005280 f   bg_classes.obj
 0001:00004300       _BG_ClassnameForNumber     40005300 f   bg_classes.obj
 0001:00004380       _BG_ClassnameForNumber_Filename 40005380 f   bg_classes.obj
 0001:00004400       _BG_ClassLetterForNumber   40005400 f   bg_classes.obj
 0001:00004480       _BG_ClassSkillForClass     40005480 f   bg_classes.obj
 0001:00004530       _BG_StringHashValue        40005530 f   bg_misc.obj
 0001:000045e0       _BG_StringHashValue_Lwr    400055e0 f   bg_misc.obj
 0001:00004660       _BG_GetFromTable           40005660 f   bg_misc.obj
 0001:00004700       _BG_FindItemForWeapon      40005700 f   bg_misc.obj
 0001:000047c0       _BG_FindClipForWeapon      400057c0 f   bg_misc.obj
 0001:00004830       _Init_FindClipForWeapon    40005830 f   bg_misc.obj
 0001:000048a0       _BG_FindAmmoForWeapon      400058a0 f   bg_misc.obj
 0001:00004910       _Init_FindAmmoForWeapon    40005910 f   bg_misc.obj
 0001:00004980       _BG_AkimboFireSequence     40005980 f   bg_misc.obj
 0001:000049f0       _BG_IsAkimboSideArm        400059f0 f   bg_misc.obj
 0001:00004a80       _BG_AkimboSidearm          40005a80 f   bg_misc.obj
 0001:00004b20       _BG_FindItemForAmmo        40005b20 f   bg_misc.obj
 0001:00004bc0       _BG_FindItem               40005bc0 f   bg_misc.obj
 0001:00004c30       _BG_FindItemForClassName   40005c30 f   bg_misc.obj
 0001:00004d50       _BG_PlayerTouchesItem      40005d50 f   bg_misc.obj
 0001:00004e80       _SkillForClass             40005e80 f   bg_misc.obj
 0001:00004f10       _BG_GrenadesForClass       40005f10 f   bg_misc.obj
 0001:00004fc0       _BG_GrenadeTypeForTeam     40005fc0 f   bg_misc.obj
 0001:00005020       _BG_AddMagicAmmo           40006020 f   bg_misc.obj
 0001:000057d0       _BG_CanItemBeGrabbed       400067d0 f   bg_misc.obj
 0001:00005bd0       _BG_CalculateSpline_r      40006bd0 f   bg_misc.obj
 0001:00005f30       _BG_TraverseSpline         40006f30 f   bg_misc.obj
 0001:00006070       _BG_RaySphereIntersection  40007070 f   bg_misc.obj
 0001:000061c0       _BG_LinearPathOrigin2      400071c0 f   bg_misc.obj
 0001:00006640       _BG_ComputeSegments        40007640 f   bg_misc.obj
 0001:00006930       _BG_EvaluateTrajectory     40007930 f   bg_misc.obj
 0001:00007a40       _BG_EvaluateTrajectoryDelta 40008a40 f   bg_misc.obj
 0001:00007e50       _BG_GetMarkDir             40008e50 f   bg_misc.obj
 0001:00008050       _BG_AddPredictableEventToPlayerstate 40009050 f   bg_misc.obj
 0001:00008160       _BG_GetPrimaryWeaponForPlayerState 40009160 f   bg_misc.obj
 0001:00008470       _BG_PlayerStateToEntityState 40009470 f   bg_misc.obj
 0001:00008a30       _BG_DuplicateWeapon        40009a30 f   bg_misc.obj
 0001:00008b00       _BG_ValidStatWeapon        40009b00 f   bg_misc.obj
 0001:00008be0       _BG_Find_PathCorner        40009be0 f   bg_misc.obj
 0001:00008c60       _BG_AddPathCorner          40009c60 f   bg_misc.obj
 0001:00008d20       _BG_Find_Spline            40009d20 f   bg_misc.obj
 0001:00008db0       _BG_AddSplinePath          40009db0 f   bg_misc.obj
 0001:00008eb0       _BG_AddSplineControl       40009eb0 f   bg_misc.obj
 0001:00008f40       _BG_SplineLength           40009f40 f   bg_misc.obj
 0001:000090d0       _BG_BuildSplinePaths       4000a0d0 f   bg_misc.obj
 0001:000092b0       _BG_GetSplineData          4000a2b0 f   bg_misc.obj
 0001:00009320       _BG_ExtraAmmoForWeapon     4000a320 f   bg_misc.obj
 0001:00009580       _BG_MaxAmmoForWeapon       4000a580 f   bg_misc.obj
 0001:00009690       _BG_CreateRotationMatrix   4000a690 f   bg_misc.obj
 0001:000096f0       _BG_RotatePoint            4000a6f0 f   bg_misc.obj
 0001:000097e0       _PC_SourceWarning          4000a7e0 f   bg_misc.obj
 0001:000098e0       _PC_SourceError            4000a8e0 f   bg_misc.obj
 0001:000099e0       _PC_Float_Parse            4000a9e0 f   bg_misc.obj
 0001:00009b00       _PC_Color_Parse            4000ab00 f   bg_misc.obj
 0001:00009ba0       _PC_Vec_Parse              4000aba0 f   bg_misc.obj
 0001:00009c40       _PC_Int_Parse              4000ac40 f   bg_misc.obj
 0001:00009d60       _PC_String_Parse           4000ad60 f   bg_misc.obj
 0001:00009e10       _PC_String_ParseNoAlloc    4000ae10 f   bg_misc.obj
 0001:00009ec0       _WeaponStatsName           4000aec0 f   bg_misc.obj
 0001:00009f30       _BG_simpleWeaponState      4000af30 f   bg_misc.obj
 0001:00009fb0       _BG_drawStrlen             4000afb0 f   bg_misc.obj
 0001:0000a030       _BG_cleanName              4000b030 f   bg_misc.obj
 0001:0000a110       _BG_setCrosshair           4000b110 f   bg_misc.obj
 0001:0000a730       _BG_isLightWeaponSupportingFastReload 4000b730 f   bg_misc.obj
 0001:0000a7e0       _BG_InitLocations          4000b7e0 f   bg_misc.obj
 0001:0000a930       _BG_GetLocationString      4000b930 f   bg_misc.obj
 0001:0000a9e0       _BG_ClipVelocity           4000b9e0 f   bg_misc.obj
 0001:0000aa90       _BG_BBoxCollision          4000ba90 f   bg_misc.obj
 0001:0000ab50       _BG_FootstepForSurface     4000bb50 f   bg_misc.obj
 0001:0000ac20       _BG_ChargeUsage            4000bc20 f   bg_misc.obj
 0001:0000ae20       _BG_CheckCharge            4000be20 f   bg_misc.obj
 0001:0000b3b0       _Q_vsnprintf               4000c3b0 f   bg_misc.obj
 0001:0000b420       _Q_rand                    4000c420 f   q_math.obj
 0001:0000b460       _Q_random                  4000c460 f   q_math.obj
 0001:0000b4d0       _Q_crandom                 4000c4d0 f   q_math.obj
 0001:0000b530       _ClampChar                 4000c530 f   q_math.obj
 0001:0000b570       _ClampShort                4000c570 f   q_math.obj
 0001:0000b5c0       _DirToByte                 4000c5c0 f   q_math.obj
 0001:0000b640       _ByteToDir                 4000c640 f   q_math.obj
 0001:0000b6e0       _DirToByte2                4000c6e0 f   q_math.obj
 0001:0000b7a0       _ByteToDir2                4000c7a0 f   q_math.obj
 0001:0000b830       _ColorBytes3               4000c830 f   q_math.obj
 0001:0000b910       _ColorBytes4               4000c910 f   q_math.obj
 0001:0000ba30       _NormalizeColor            4000ca30 f   q_math.obj
 0001:0000baf0       _PlaneFromPoints           4000caf0 f   q_math.obj
 0001:0000bc30       _RotatePointAroundVector   4000cc30 f   q_math.obj
 0001:0000c1a0       _RotatePointAroundVertex   4000d1a0 f   q_math.obj
 0001:0000c3b0       _RotateAroundDirection     4000d3b0 f   q_math.obj
 0001:0000c4a0       _vectoangles               4000d4a0 f   q_math.obj
 0001:0000c630       _AnglesToAxis              4000d630 f   q_math.obj
 0001:0000c700       _AxisClear                 4000d700 f   q_math.obj
 0001:0000c770       _AxisCopy                  4000d770 f   q_math.obj
 0001:0000c800       _ProjectPointOnPlane       4000d800 f   q_math.obj
 0001:0000c940       _MakeNormalVectors         4000d940 f   q_math.obj
 0001:0000ca30       _VectorRotate              4000da30 f   q_math.obj
 0001:0000cae0       _Q_rsqrt                   4000dae0 f   q_math.obj
 0001:0000cb50       _Q_fabs                    4000db50 f   q_math.obj
 0001:0000cb90       _myftol                    4000db90 f   q_math.obj
 0001:0000cbd0       _LerpAngle                 4000dbd0 f   q_math.obj
 0001:0000cc50       _LerpPosition              4000dc50 f   q_math.obj
 0001:0000cd30       _AngleSubtract             4000dd30 f   q_math.obj
 0001:0000cda0       _AnglesSubtract            4000dda0 f   q_math.obj
 0001:0000ce40       _AngleMod                  4000de40 f   q_math.obj
 0001:0000ceb0       _AngleNormalize2Pi         4000deb0 f   q_math.obj
 0001:0000cf30       _AngleNormalize360         4000df30 f   q_math.obj
 0001:0000cfa0       _AngleNormalizeInt         4000dfa0 f   q_math.obj
 0001:0000d000       _AngleNormalize180         4000e000 f   q_math.obj
 0001:0000d070       _AngleDelta                4000e070 f   q_math.obj
 0001:0000d0c0       _SetPlaneSignbits          4000e0c0 f   q_math.obj
 0001:0000d140       _BoxOnPlaneSide            4000e140 f   q_math.obj
 0001:0000d1e0       _BoxOnPlaneSide_fast       4000e1e0 f i q_math.obj
 0001:0000d420       _RadiusFromBounds          4000e420 f   q_math.obj
 0001:0000d520       _ClearBounds               4000e520 f   q_math.obj
 0001:0000d590       _AddPointToBounds          4000e590 f   q_math.obj
 0001:0000d680       _PointInBounds             4000e680 f   q_math.obj
 0001:0000d740       _VectorCompare             4000e740 f   q_math.obj
 0001:0000d7b0       _VectorNormalize           4000e7b0 f   q_math.obj
 0001:0000d860       _VectorNormalizeFast       4000e860 f   q_math.obj
 0001:0000d900       _VectorNormalize2          4000e900 f   q_math.obj
 0001:0000d9d0       __VectorMA                 4000e9d0 f   q_math.obj
 0001:0000da40       __DotProduct               4000ea40 f   q_math.obj
 0001:0000daa0       __VectorSubtract           4000eaa0 f   q_math.obj
 0001:0000db00       __VectorAdd                4000eb00 f   q_math.obj
 0001:0000db60       __VectorCopy               4000eb60 f   q_math.obj
 0001:0000dbb0       __VectorScale              4000ebb0 f   q_math.obj
 0001:0000dc00       __MatrixMultiply           4000ec00 f   q_math.obj
 0001:0000ddc0       _CrossProduct              4000edc0 f   q_math.obj
 0001:0000de40       _VectorLength              4000ee40 f   q_math.obj
 0001:0000dec0       _VectorLengthSquared       4000eec0 f   q_math.obj
 0001:0000df20       _Distance                  4000ef20 f   q_math.obj
 0001:0000dfd0       _DistanceSquared           4000efd0 f   q_math.obj
 0001:0000e080       _VectorInverse             4000f080 f   q_math.obj
 0001:0000e0d0       _Vector4Scale              4000f0d0 f   q_math.obj
 0001:0000e130       _Q_log2                    4000f130 f   q_math.obj
 0001:0000e180       _MatrixTranspose           4000f180 f   q_math.obj
 0001:0000e210       _AngleVectors              4000f210 f   q_math.obj
 0001:0000e3b0       _PerpendicularVector       4000f3b0 f   q_math.obj
 0001:0000e500       _GetPerpendicularViewVector 4000f500 f   q_math.obj
 0001:0000e620       _ProjectPointOntoVector    4000f620 f   q_math.obj
 0001:0000e760       _ProjectPointOntoVectorBounded 4000f760 f   q_math.obj
 0001:0000e9e0       _DistanceFromLineSquared   4000f9e0 f   q_math.obj
 0001:0000ec00       _DistanceFromVectorSquared 4000fc00 f   q_math.obj
 0001:0000ecd0       _vectoyaw                  4000fcd0 f   q_math.obj
 0001:0000edc0       _AxisToAngles              4000fdc0 f   q_math.obj
 0001:0000ef60       _VectorDistance            4000ff60 f   q_math.obj
 0001:0000f010       _VectorDistanceSquared     40010010 f   q_math.obj
 0001:0000f0c0       _rint                      400100c0 f   q_math.obj
 0001:0000f100       _Com_Clamp                 40010100 f   q_shared.obj
 0001:0000f150       _COM_FixPath               40010150 f   q_shared.obj
 0001:0000f1a0       _COM_SkipPath              400101a0 f   q_shared.obj
 0001:0000f200       _COM_StripExtensionSafe    40010200 f   q_shared.obj
 0001:0000f2a0       _COM_StripFilename         400102a0 f   q_shared.obj
 0001:0000f310       _COM_DefaultExtension      40010310 f   q_shared.obj
 0001:0000f400       _COM_BitCheck              40010400 f   q_shared.obj
 0001:0000f460       _COM_BitSet                40010460 f   q_shared.obj
 0001:0000f4c0       _COM_BitClear              400104c0 f   q_shared.obj
 0001:0000f520       _LittleShort               40010520 f   q_shared.obj
 0001:0000f570       _LittleLong                40010570 f   q_shared.obj
 0001:0000f5c0       _LittleLong64              400105c0 f   q_shared.obj
 0001:0000f610       _LittleFloat               40010610 f   q_shared.obj
 0001:0000f660       _BigShort                  40010660 f   q_shared.obj
 0001:0000f6b0       _BigLong                   400106b0 f   q_shared.obj
 0001:0000f700       _BigLong64                 40010700 f   q_shared.obj
 0001:0000f750       _BigFloat                  40010750 f   q_shared.obj
 0001:0000f7a0       _ShortSwap                 400107a0 f   q_shared.obj
 0001:0000f7f0       _ShortNoSwap               400107f0 f   q_shared.obj
 0001:0000f820       _LongSwap                  40010820 f   q_shared.obj
 0001:0000f8a0       _LongNoSwap                400108a0 f   q_shared.obj
 0001:0000f8d0       _Long64Swap                400108d0 f   q_shared.obj
 0001:0000f960       _Long64NoSwap              40010960 f   q_shared.obj
 0001:0000f990       _FloatSwap                 40010990 f   q_shared.obj
 0001:0000fa20       _FloatNoSwap               40010a20 f   q_shared.obj
 0001:0000fa50       _Swap_Init                 40010a50 f   q_shared.obj
 0001:0000fb60       _COM_BeginParseSession     40010b60 f   q_shared.obj
 0001:0000fbc0       _COM_BackupParseSession    40010bc0 f   q_shared.obj
 0001:0000fc00       _COM_RestoreParseSession   40010c00 f   q_shared.obj
 0001:0000fc40       _COM_SetCurrentParseLine   40010c40 f   q_shared.obj
 0001:0000fc70       _COM_GetCurrentParseLine   40010c70 f   q_shared.obj
 0001:0000fca0       _COM_Parse                 40010ca0 f   q_shared.obj
 0001:0000fce0       _COM_ParseError            40010ce0 f   q_shared.obj
 0001:0000fd60       _COM_ParseWarning          40010d60 f   q_shared.obj
 0001:0000fde0       _COM_Compress              40010de0 f   q_shared.obj
 0001:0000ff80       _COM_ParseExt              40010f80 f   q_shared.obj
 0001:00010370       _COM_MatchToken            40011370 f   q_shared.obj
 0001:000103e0       _SkipBracedSection_Depth   400113e0 f   q_shared.obj
 0001:00010470       _SkipBracedSection         40011470 f   q_shared.obj
 0001:00010500       _SkipRestOfLine            40011500 f   q_shared.obj
 0001:00010590       _Parse1DMatrix             40011590 f   q_shared.obj
 0001:00010630       _Parse2DMatrix             40011630 f   q_shared.obj
 0001:000106c0       _Parse3DMatrix             400116c0 f   q_shared.obj
 0001:00010760       _Com_ParseInfos            40011760 f   q_shared.obj
 0001:00010910       _Q_isprint                 40011910 f   q_shared.obj
 0001:00010950       _Q_islower                 40011950 f   q_shared.obj
 0001:00010990       _Q_isupper                 40011990 f   q_shared.obj
 0001:000109d0       _Q_isalpha                 400119d0 f   q_shared.obj
 0001:00010a20       _Q_isnumeric               40011a20 f   q_shared.obj
 0001:00010a60       _Q_isalphanumeric          40011a60 f   q_shared.obj
 0001:00010ac0       _Q_isforfilename           40011ac0 f   q_shared.obj
 0001:00010b20       _Q_strrchr                 40011b20 f   q_shared.obj
 0001:00010ba0       _Q_strncpyz                40011ba0 f   q_shared.obj
 0001:00010c20       _Q_stricmpn                40011c20 f   q_shared.obj
 0001:00010cf0       _Q_strncmp                 40011cf0 f   q_shared.obj
 0001:00010d80       _Q_stricmp                 40011d80 f   q_shared.obj
 0001:00010df0       _Q_strlwr                  40011df0 f   q_shared.obj
 0001:00010e60       _Q_strupr                  40011e60 f   q_shared.obj
 0001:00010ed0       _Q_strCapitalize           40011ed0 f   q_shared.obj
 0001:00010f30       _Q_strcat                  40011f30 f   q_shared.obj
 0001:00010fb0       _Q_PrintStrlen             40011fb0 f   q_shared.obj
 0001:00011040       _Q_CleanStr                40012040 f   q_shared.obj
 0001:000110f0       _Q_isBadDirChar            400120f0 f   q_shared.obj
 0001:000111f0       _Q_CleanDirName            400121f0 f   q_shared.obj
 0001:00011290       _Com_sprintf               40012290 f   q_shared.obj
 0001:00011310       _va                        40012310 f   q_shared.obj
 0001:000113f0       _tv                        400123f0 f   q_shared.obj
 0001:00011460       _Info_ValueForKey          40012460 f   q_shared.obj
 0001:00011650       _Info_NextPair             40012650 f   q_shared.obj
 0001:00011760       _Info_RemoveKey            40012760 f   q_shared.obj
 0001:00011960       _Info_RemoveKey_Big        40012960 f   q_shared.obj
 0001:00011b50       _Info_Validate             40012b50 f   q_shared.obj
 0001:00011bc0       _Info_SetValueForKey       40012bc0 f   q_shared.obj
 0001:00011da0       _Info_SetValueForKey_Big   40012da0 f   q_shared.obj
 0001:00011f80       _Q_StrReplace              40012f80 f   q_shared.obj
 0001:000121d0       _Com_DPrintf               400131d0 f   ui_atoms.obj
 0001:000122b0       _Com_Error                 400132b0 f   ui_atoms.obj
 0001:00012370       _Com_Printf                40013370 f   ui_atoms.obj
 0001:00012430       _UI_ClampCvar              40013430 f   ui_atoms.obj
 0001:00012480       _UI_Argv                   40013480 f   ui_atoms.obj
 0001:000124d0       _UI_Cvar_VariableString    400134d0 f   ui_atoms.obj
 0001:00012540       _UI_ConsoleCommand         40013540 f   ui_atoms.obj
 0001:000127f0       _UI_Shutdown               400137f0 f   ui_atoms.obj
 0001:00012820       _UI_AdjustFrom640          40013820 f   ui_atoms.obj
 0001:000128d0       _UI_DrawNamedPic           400138d0 f   ui_atoms.obj
 0001:00012970       _UI_DrawHandlePic          40013970 f   ui_atoms.obj
 0001:00012a60       _UI_DrawRotatedPic         40013a60 f   ui_atoms.obj
 0001:00012b00       _UI_FillRect               40013b00 f   ui_atoms.obj
 0001:00012bb0       _UI_DrawSides              40013bb0 f   ui_atoms.obj
 0001:00012ca0       _UI_DrawTopBottom          40013ca0 f   ui_atoms.obj
 0001:00012d90       _UI_DrawRect               40013d90 f   ui_atoms.obj
 0001:00012e20       _UI_SetColor               40013e20 f   ui_atoms.obj
 0001:00012e60       _UI_UpdateScreen           40013e60 f   ui_atoms.obj
 0001:00012ea0       _UI_DrawTextBox            40013ea0 f   ui_atoms.obj
 0001:00012fb0       _UI_CursorInRect           40013fb0 f   ui_atoms.obj
 0001:00013010       _UI_ParseInfos             40014010 f   ui_gameinfo.obj
 0001:00013250       _UI_SortArenas             40014250 f   ui_gameinfo.obj
 0001:00013380       _UI_LoadArenas             40014380 f   ui_gameinfo.obj
 0001:00013bf0       _UI_FindMapInfoByMapname   40014bf0 f   ui_gameinfo.obj
 0001:00013c80       _UI_DescriptionForCampaign 40014c80 f   ui_gameinfo.obj
 0001:00013da0       _UI_NameForCampaign        40014da0 f   ui_gameinfo.obj
 0001:00013ec0       _UI_FindCampaignInCampaignList 40014ec0 f   ui_gameinfo.obj
 0001:00013f50       _UI_SortCampaigns          40014f50 f   ui_gameinfo.obj
 0001:00014090       _UI_LoadCampaigns          40015090 f   ui_gameinfo.obj
 0001:00014ca0       _UI_DrawLoadPanel          40015ca0 f   ui_loadpanel.obj
 0001:00014dd0       _Downloading               40015dd0 f   ui_loadpanel.obj
 0001:00014eb0       _UI_LoadPanel_RenderDownloadingBarBg 40015eb0 f   ui_loadpanel.obj
 0001:00014f00       _UI_LoadPanel_DownloadingBarText 40015f00 f   ui_loadpanel.obj
 0001:00015080       _UI_LoadPanel_RenderDownloadingBar 40016080 f   ui_loadpanel.obj
 0001:00015210       _UI_LoadPanel_RenderPercentageMeter 40016210 f   ui_loadpanel.obj
 0001:00015360       _MiniAngleToAxis           40016360 f   ui_loadpanel.obj
 0001:000153f0       _SetupRotatedThing         400163f0 f   ui_loadpanel.obj
 0001:000155e0       _UI_LoadPanel_RenderHeaderText 400165e0 f   ui_loadpanel.obj
 0001:000156e0       _UI_DownloadInfo           400166e0 f   ui_loadpanel.obj
 0001:00015a60       _UI_LoadPanel_RenderLoadingText 40016a60 f   ui_loadpanel.obj
 0001:00015fd0       _vmMain                    40016fd0 f   ui_main.obj
 0001:00016150       _AssetCache                40017150 f   ui_main.obj
 0001:00016360       __UI_DrawSides             40017360 f   ui_main.obj
 0001:00016450       __UI_DrawTopBottom         40017450 f   ui_main.obj
 0001:00016540       __UI_DrawRect              40017540 f   ui_main.obj
 0001:000165e0       _Text_SetActiveFont        400175e0 f   ui_main.obj
 0001:00016610       _Text_Width_Ext            40017610 f   ui_main.obj
 0001:00016720       _Text_Width                40017720 f   ui_main.obj
 0001:00016780       _Multiline_Text_Width      40017780 f   ui_main.obj
 0001:00016930       _Text_Height_Ext           40017930 f   ui_main.obj
 0001:00016a50       _Text_Height               40017a50 f   ui_main.obj
 0001:00016ab0       _Multiline_Text_Height     40017ab0 f   ui_main.obj
 0001:00016c70       _Text_PaintCharExt         40017c70 f   ui_main.obj
 0001:00016d10       _Text_PaintChar            40017d10 f   ui_main.obj
 0001:00016db0       _Text_Paint_Ext            40017db0 f   ui_main.obj
 0001:00017140       _Text_Paint                40018140 f   ui_main.obj
 0001:000171d0       _Text_AutoWrap_Paint_Chunk 400181d0 f   ui_main.obj
 0001:00017600       _Count_Text_AutoWrap_Paint 40018600 f   ui_main.obj
 0001:000176b0       _Text_AutoWrap_Paint       400186b0 f   ui_main.obj
 0001:00017890       _Text_PaintWithCursor      40018890 f   ui_main.obj
 0001:00017cd0       _UI_ShowPostGame           40018cd0 f   ui_main.obj
 0001:00017d40       _UI_DrawCenteredPic        40018d40 f   ui_main.obj
 0001:00017dc0       __UI_Refresh               40018dc0 f   ui_main.obj
 0001:00018010       __UI_Shutdown              40019010 f   ui_main.obj
 0001:00018050       _GetMenuBuffer             40019050 f   ui_main.obj
 0001:00018160       _Asset_Parse               40019160 f   ui_main.obj
 0001:000186b0       _UI_Report                 400196b0 f   ui_main.obj
 0001:000186f0       _UI_ParseMenu              400196f0 f   ui_main.obj
 0001:00018850       _Load_Menu                 40019850 f   ui_main.obj
 0001:00018950       _UI_LoadMenus              40019950 f   ui_main.obj
 0001:00018b20       _UI_Load                   40019b20 f   ui_main.obj
 0001:00018c50       _UI_DrawMapPreview         40019c50 f   ui_main.obj
 0001:00019ad0       _UI_DrawNetMapPreview      4001aad0 f   ui_main.obj
 0001:00019b80       _UI_DrawCampaignDescription 4001ab80 f   ui_main.obj
 0001:0001a000       _UI_DrawGametypeDescription 4001b000 f   ui_main.obj
 0001:0001a450       _UI_OwnerDrawVisible       4001b450 f   ui_main.obj
 0001:0001a8f0       _UI_ServersSort            4001b8f0 f   ui_main.obj
 0001:0001a9c0       _UI_SortMods               4001b9c0 f   ui_main.obj
 0001:0001aa60       _WM_setItemPic             4001ba60 f   ui_main.obj
 0001:0001aae0       _WM_setVisibility          4001bae0 f   ui_main.obj
 0001:0001ab60       _UI_CheckExecKey           4001bb60 f   ui_main.obj
 0001:0001ac00       _WM_ActivateLimboChat      4001bc00 f   ui_main.obj
 0001:0001acc0       _UI_Update                 4001bcc0 f   ui_main.obj
 0001:0001b040       _UI_RunMenuScript          4001c040 f   ui_main.obj
 0001:00022750       _UI_FeederItemText         40023750 f   ui_main.obj
 0001:00023c50       _UI_FeederSelectionClick   40024c50 f   ui_main.obj
 0001:00024270       __UI_Init                  40025270 f   ui_main.obj
 0001:0002a0c0       __UI_KeyEvent              4002b0c0 f   ui_main.obj
 0001:0002a1b0       __UI_MouseEvent            4002b1b0 f   ui_main.obj
 0001:0002a270       _UI_LoadNonIngame          4002b270 f   ui_main.obj
 0001:0002a2f0       __UI_GetActiveMenu         4002b2f0 f   ui_main.obj
 0001:0002a320       __UI_SetActiveMenu         4002b320 f   ui_main.obj
 0001:0002a980       __UI_IsFullscreen          4002b980 f   ui_main.obj
 0001:0002a9c0       _UI_ReadableSize           4002b9c0 f   ui_main.obj
 0001:0002ab40       _UI_PrintTime              4002bb40 f   ui_main.obj
 0001:0002ac10       _Text_PaintCenter          4002bc10 f   ui_main.obj
 0001:0002acb0       _UI_DrawConnectScreen      4002bcb0 f   ui_main.obj
 0001:0002ae20       _UI_RegisterCvars          4002be20 f   ui_main.obj
 0001:0002af10       _UI_UpdateCvars            4002bf10 f   ui_main.obj
 0001:0002b420       _UI_Campaign_f             4002c420 f   ui_main.obj
 0001:0002b600       _UI_ListCampaigns_f        4002c600 f   ui_main.obj
 0001:0002b700       _RestoreYcoords            4002c700 f   ui_shared.obj
 0001:0002b810       _BackupYcoords             4002c810 f   ui_shared.obj
 0001:0002b920       _Cui_WideRect              4002c920 f   ui_shared.obj
 0001:0002ba00       _Cui_WideX                 4002ca00 f   ui_shared.obj
 0001:0002ba80       _Cui_WideXoffset           4002ca80 f   ui_shared.obj
 0001:0002bb10       _Tooltip_Initialize        4002cb10 f   ui_shared.obj
 0001:0002bc40       _Tooltip_ComputePosition   4002cc40 f   ui_shared.obj
 0001:0002be10       _UI_Alloc                  4002ce10 f   ui_shared.obj
 0001:0002beb0       _UI_InitMemory             4002ceb0 f   ui_shared.obj
 0001:0002bef0       _UI_OutOfMemory            4002cef0 f   ui_shared.obj
 0001:0002bf20       _String_Alloc              4002cf20 f   ui_shared.obj
 0001:0002c130       _String_Report             4002d130 f   ui_shared.obj
 0001:0002c200       _String_Init               4002d200 f   ui_shared.obj
 0001:0002c2b0       _LerpColor                 4002d2b0 f   ui_shared.obj
 0001:0002c360       _Float_Parse               4002d360 f   ui_shared.obj
 0001:0002c3d0       _Color_Parse               4002d3d0 f   ui_shared.obj
 0001:0002c480       _Int_Parse                 4002d480 f   ui_shared.obj
 0001:0002c4f0       _Rect_Parse                4002d4f0 f   ui_shared.obj
 0001:0002c590       _String_Parse              4002d590 f   ui_shared.obj
 0001:0002c600       _PC_Char_Parse             4002d600 f   ui_shared.obj
 0001:0002c6a0       _PC_Script_Parse           4002d6a0 f   ui_shared.obj
 0001:0002c850       _Init_Display              4002d850 f   ui_shared.obj
 0001:0002c880       _GradientBar_Paint         4002d880 f   ui_shared.obj
 0001:0002c930       _Window_Init               4002d930 f   ui_shared.obj
 0001:0002c9b0       _Fade                      4002d9b0 f   ui_shared.obj
 0001:0002ca90       _Window_Paint              4002da90 f   ui_shared.obj
 0001:0002d210       _Item_SetScreenCoords      4002e210 f   ui_shared.obj
 0001:0002d330       _Item_UpdatePosition       4002e330 f   ui_shared.obj
 0001:0002d3b0       _Menu_UpdatePosition       4002e3b0 f   ui_shared.obj
 0001:0002d6f0       _Menu_PostParse            4002e6f0 f   ui_shared.obj
 0001:0002d770       _Menu_ClearFocus           4002e770 f   ui_shared.obj
 0001:0002d8b0       _IsVisible                 4002e8b0 f   ui_shared.obj
 0001:0002d910       _Rect_ContainsPoint        4002e910 f   ui_shared.obj
 0001:0002d9c0       _Menu_ItemsMatchingGroup   4002e9c0 f   ui_shared.obj
 0001:0002db20       _Menu_GetMatchingItemByNumber 4002eb20 f   ui_shared.obj
 0001:0002dcb0       _Script_SetColor           4002ecb0 f   ui_shared.obj
 0001:0002de10       _Script_SetAsset           4002ee10 f   ui_shared.obj
 0001:0002de80       _Script_SetBackground      4002ee80 f   ui_shared.obj
 0001:0002df20       _Menu_FindItemByName       4002ef20 f   ui_shared.obj
 0001:0002dfc0       _Script_SetTeamColor       4002efc0 f   ui_shared.obj
 0001:0002e090       _Script_SetItemColor       4002f090 f   ui_shared.obj
 0001:0002e290       _Script_SetMenuItemColor   4002f290 f   ui_shared.obj
 0001:0002e4f0       _Menu_ShowItemByName       4002f4f0 f   ui_shared.obj
 0001:0002e600       _Menu_FadeItemByName       4002f600 f   ui_shared.obj
 0001:0002e6d0       _Menus_FindByName          4002f6d0 f   ui_shared.obj
 0001:0002e760       _Menus_ShowByName          4002f760 f   ui_shared.obj
 0001:0002e7c0       _Menus_OpenByName          4002f7c0 f   ui_shared.obj
 0001:0002e800       _Menus_CloseByName         4002f800 f   ui_shared.obj
 0001:0002e9f0       _Menus_CloseAll            4002f9f0 f   ui_shared.obj
 0001:0002ea80       _Script_Show               4002fa80 f   ui_shared.obj
 0001:0002eb20       _Script_Hide               4002fb20 f   ui_shared.obj
 0001:0002ebc0       _Script_FadeIn             4002fbc0 f   ui_shared.obj
 0001:0002ec60       _Script_FadeOut            4002fc60 f   ui_shared.obj
 0001:0002ed00       _Script_Open               4002fd00 f   ui_shared.obj
 0001:0002ed90       _Menu_FadeMenuByName       4002fd90 f   ui_shared.obj
 0001:0002ee50       _Script_FadeInMenu         4002fe50 f   ui_shared.obj
 0001:0002eee0       _Script_FadeOutMenu        4002fee0 f   ui_shared.obj
 0001:0002ef70       _Script_ConditionalOpen    4002ff70 f   ui_shared.obj
 0001:0002f150       _Script_ConditionalScript  40030150 f   ui_shared.obj
 0001:00030080       _Script_Close              40031080 f   ui_shared.obj
 0001:00030110       _Script_CloseAll           40031110 f   ui_shared.obj
 0001:00030150       _Script_CloseAllOtherMenus 40031150 f   ui_shared.obj
 0001:00030200       _Script_Clipboard          40031200 f   ui_shared.obj
 0001:00030230       _Script_NotebookShowpage   40031230 f   ui_shared.obj
 0001:00030260       _Menu_TransitionItemByName 40031260 f   ui_shared.obj
 0001:00030410       _Script_Transition         40031410 f   ui_shared.obj
 0001:000305b0       _Menu_OrbitItemByName      400315b0 f   ui_shared.obj
 0001:00030680       _Script_Orbit              40031680 f   ui_shared.obj
 0001:00030800       _Script_SetFocus           40031800 f   ui_shared.obj
 0001:00030940       _Script_ClearFocus         40031940 f   ui_shared.obj
 0001:00030990       _Script_SetPlayerModel     40031990 f   ui_shared.obj
 0001:00030a30       _Script_SetPlayerHead      40031a30 f   ui_shared.obj
 0001:00030ad0       _Script_ClearCvar          40031ad0 f   ui_shared.obj
 0001:00030b70       _Script_SetCvar            40031b70 f   ui_shared.obj
 0001:00030c40       _Script_ToggleCvarBit      40031c40 f   ui_shared.obj
 0001:00030d90       _Script_CopyCvar           40031d90 f   ui_shared.obj
 0001:00030eb0       _Script_Exec               40031eb0 f   ui_shared.obj
 0001:00030f60       _Script_ExecNOW            40031f60 f   ui_shared.obj
 0001:00031010       _Script_Play               40032010 f   ui_shared.obj
 0001:000310d0       _Script_playLooped         400320d0 f   ui_shared.obj
 0001:00031180       _Script_AddListItem        40032180 f   ui_shared.obj
 0001:000312d0       _Script_CheckAutoUpdate    400322d0 f   ui_shared.obj
 0001:00031320       _Script_GetAutoUpdate      40032320 f   ui_shared.obj
 0001:00031370       _Script_SetMenuFocus       40032370 f   ui_shared.obj
 0001:00031430       _FileExists                40032430 f   ui_shared.obj
 0001:000314d0       _Script_CheckProfile       400324d0 f   ui_shared.obj
 0001:00031620       _Script_WriteProfile       40032620 f   ui_shared.obj
 0001:00031770       _Script_ExecWolfConfig     40032770 f   ui_shared.obj
 0001:00031ae0       _Script_SetEditFocus       40032ae0 f   ui_shared.obj
 0001:00031c60       _Script_Abort              40032c60 f   ui_shared.obj
 0001:00031c90       _Item_RunScript            40032c90 f   ui_shared.obj
 0001:00031ee0       _Item_EnableShowViaCvar    40032ee0 f   ui_shared.obj
 0001:00032120       _Item_SettingShow          40033120 f   ui_shared.obj
 0001:00032270       _Item_SetFocus             40033270 f   ui_shared.obj
 0001:00032570       _Item_ListBox_MaxScroll    40033570 f   ui_shared.obj
 0001:00032630       _Item_ListBox_ThumbPosition 40033630 f   ui_shared.obj
 0001:00032760       _Item_ListBox_ThumbDrawPosition 40033760 f   ui_shared.obj
 0001:00032910       _Item_Slider_ThumbPosition 40033910 f   ui_shared.obj
 0001:00032a30       _Item_Slider_OverSlider    40033a30 f   ui_shared.obj
 0001:00032b00       _Item_ListBox_OverLB       40033b00 f   ui_shared.obj
 0001:00032ee0       _Item_ListBox_MouseEnter   40033ee0 f   ui_shared.obj
 0001:00033100       _Item_MouseEnter           40034100 f   ui_shared.obj
 0001:00033360       _Item_MouseLeave           40034360 f   ui_shared.obj
 0001:00033400       _Menu_HitTest              40034400 f   ui_shared.obj
 0001:00033490       _Item_SetMouseOver         40034490 f   ui_shared.obj
 0001:000334f0       _Item_OwnerDraw_HandleKey  400344f0 f   ui_shared.obj
 0001:00033570       _Item_ListBox_HandleKey    40034570 f   ui_shared.obj
 0001:00033ef0       _Item_CheckBox_HandleKey   40034ef0 f   ui_shared.obj
 0001:000340c0       _Item_YesNo_HandleKey      400350c0 f   ui_shared.obj
 0001:00034200       _Item_Multi_CountSettings  40035200 f   ui_shared.obj
 0001:00034250       _Item_Multi_FindCvarByValue 40035250 f   ui_shared.obj
 0001:000343e0       _Item_Multi_Setting        400353e0 f   ui_shared.obj
 0001:000345c0       _Item_Multi_HandleKey      400355c0 f   ui_shared.obj
 0001:000347d0       _Item_TextField_HandleKey  400357d0 f   ui_shared.obj
 0001:00034ef0       _Item_StartCapture         40035ef0 f   ui_shared.obj
 0001:00035620       _Item_StopCapture          40036620 f   ui_shared.obj
 0001:00035650       _Item_Slider_HandleKey     40036650 f   ui_shared.obj
 0001:00035880       _Item_HandleKey            40036880 f   ui_shared.obj
 0001:00035b00       _Item_Action               40036b00 f   ui_shared.obj
 0001:00035b50       _Menu_SetPrevCursorItem    40036b50 f   ui_shared.obj
 0001:00035d00       _Menu_SetNextCursorItem    40036d00 f   ui_shared.obj
 0001:00035eb0       _Menus_Activate            40036eb0 f   ui_shared.obj
 0001:000361c0       _Menus_CaptureFuncActive   400371c0 f   ui_shared.obj
 0001:00036200       _Display_VisibleMenuCount  40037200 f   ui_shared.obj
 0001:00036270       _Menus_HandleOOBClick      40037270 f   ui_shared.obj
 0001:00036400       _Menu_HandleKey            40037400 f   ui_shared.obj
 0001:00036ca0       _ToWindowCoords            40037ca0 f   ui_shared.obj
 0001:00036cf0       _Rect_ToWindowCoords       40037cf0 f   ui_shared.obj
 0001:00036d40       _Item_SetTextExtents       40037d40 f   ui_shared.obj
 0001:000370c0       _Item_TextColor            400380c0 f   ui_shared.obj
 0001:000373b0       _Item_Text_AutoWrapped_Paint 400383b0 f   ui_shared.obj
 0001:00037850       _Item_Text_Wrapped_Paint   40038850 f   ui_shared.obj
 0001:00037b20       _Item_Text_Paint           40038b20 f   ui_shared.obj
 0001:000380c0       _Item_TextField_Paint      400390c0 f   ui_shared.obj
 0001:000385b0       _Item_CheckBox_Paint       400395b0 f   ui_shared.obj
 0001:00038c00       _Item_YesNo_Paint          40039c00 f   ui_shared.obj
 0001:00038f30       _Item_Multi_Paint          40039f30 f   ui_shared.obj
 0001:000391b0       _Controls_GetConfig        4003a1b0 f   ui_shared.obj
 0001:00039250       _Controls_SetConfig        4003a250 f   ui_shared.obj
 0001:00039360       _Controls_SetDefaults      4003a360 f   ui_shared.obj
 0001:00039430       _BindingIDFromName         4003a430 f   ui_shared.obj
 0001:000394b0       _BindingFromName           4003a4b0 f   ui_shared.obj
 0001:00039620       _Item_Slider_Paint         4003a620 f   ui_shared.obj
 0001:00039900       _Item_Bind_Paint           4003a900 f   ui_shared.obj
 0001:00039cc0       _Display_KeyBindPending    4003acc0 f   ui_shared.obj
 0001:00039cf0       _Item_Bind_HandleKey       4003acf0 f   ui_shared.obj
 0001:0003a370       _AdjustFrom640             4003b370 f   ui_shared.obj
 0001:0003a440       _Item_Model_Paint          4003b440 f   ui_shared.obj
 0001:0003aa70       _Item_Image_Paint          4003ba70 f   ui_shared.obj
 0001:0003ab40       _Item_ListBox_Paint        4003bb40 f   ui_shared.obj
 0001:0003b920       _Item_OwnerDraw_Paint      4003c920 f   ui_shared.obj
 0001:0003bf20       _Item_Paint                4003cf20 f   ui_shared.obj
 0001:0003c730       _Menu_Init                 4003d730 f   ui_shared.obj
 0001:0003c7e0       _Menu_GetFocusedItem       4003d7e0 f   ui_shared.obj
 0001:0003c860       _Menu_GetFocused           4003d860 f   ui_shared.obj
 0001:0003c8e0       _Menu_ScrollFeeder         4003d8e0 f   ui_shared.obj
 0001:0003c990       _Menu_SetFeederSelection   4003d990 f   ui_shared.obj
 0001:0003cad0       _Menus_AnyFullScreenVisible 4003dad0 f   ui_shared.obj
 0001:0003cb50       _Menus_ActivateByName      4003db50 f   ui_shared.obj
 0001:0003cc70       _Item_Init                 4003dc70 f   ui_shared.obj
 0001:0003ccf0       _Menu_HandleMouseMove      4003dcf0 f   ui_shared.obj
 0001:0003d030       _Menu_Paint                4003e030 f   ui_shared.obj
 0001:0003d830       _Item_ValidateTypeData     4003e830 f   ui_shared.obj
 0001:0003d980       _Item_ValidateTooltipData  4003e980 f   ui_shared.obj
 0001:0003da20       _KeywordHash_Key           4003ea20 f   ui_shared.obj
 0001:0003dae0       _KeywordHash_Add           4003eae0 f   ui_shared.obj
 0001:0003db40       _KeywordHash_Find          4003eb40 f   ui_shared.obj
 0001:0003dbc0       _ItemParse_name            4003ebc0 f   ui_shared.obj
 0001:0003dc20       _ItemParse_focusSound      4003ec20 f   ui_shared.obj
 0001:0003dcd0       _ItemParse_text            4003ecd0 f   ui_shared.obj
 0001:0003dd30       _ItemParse_textfile        4003ed30 f   ui_shared.obj
 0001:0003de00       _ItemParse_group           4003ee00 f   ui_shared.obj
 0001:0003de60       _ItemParse_asset_model     4003ee60 f   ui_shared.obj
 0001:0003df30       _ItemParse_asset_shader    4003ef30 f   ui_shared.obj
 0001:0003dfe0       _ItemParse_model_origin    4003efe0 f   ui_shared.obj
 0001:0003e080       _ItemParse_model_fovx      4003f080 f   ui_shared.obj
 0001:0003e0f0       _ItemParse_model_fovy      4003f0f0 f   ui_shared.obj
 0001:0003e160       _ItemParse_model_rotation  4003f160 f   ui_shared.obj
 0001:0003e1d0       _ItemParse_model_angle     4003f1d0 f   ui_shared.obj
 0001:0003e240       _ItemParse_model_animplay  4003f240 f   ui_shared.obj
 0001:0003e340       _ItemParse_rect            4003f340 f   ui_shared.obj
 0001:0003e390       _ItemParse_origin          4003f390 f   ui_shared.obj
 0001:0003e460       _ItemParse_style           4003f460 f   ui_shared.obj
 0001:0003e4c0       _ItemParse_decoration      4003f4c0 f   ui_shared.obj
 0001:0003e500       _ItemParse_textasint       4003f500 f   ui_shared.obj
 0001:0003e540       _ItemParse_textasfloat     4003f540 f   ui_shared.obj
 0001:0003e580       _ItemParse_notselectable   4003f580 f   ui_shared.obj
 0001:0003e5f0       _ItemParse_wrapped         4003f5f0 f   ui_shared.obj
 0001:0003e630       _ItemParse_autowrapped     4003f630 f   ui_shared.obj
 0001:0003e670       _ItemParse_bitflag         4003f670 f   ui_shared.obj
 0001:0003e6d0       _ItemParse_horizontalscroll 4003f6d0 f   ui_shared.obj
 0001:0003e710       _ItemParse_type            4003f710 f   ui_shared.obj
 0001:0003e770       _ItemParse_elementwidth    4003f770 f   ui_shared.obj
 0001:0003e7e0       _ItemParse_elementheight   4003f7e0 f   ui_shared.obj
 0001:0003e850       _ItemParse_feeder          4003f850 f   ui_shared.obj
 0001:0003e8b0       _ItemParse_elementtype     4003f8b0 f   ui_shared.obj
 0001:0003e930       _ItemParse_columns         4003f930 f   ui_shared.obj
 0001:0003eae0       _ItemParse_border          4003fae0 f   ui_shared.obj
 0001:0003eb40       _ItemParse_bordersize      4003fb40 f   ui_shared.obj
 0001:0003eba0       _ItemParse_visible         4003fba0 f   ui_shared.obj
 0001:0003ec40       _ItemParse_ownerdraw       4003fc40 f   ui_shared.obj
 0001:0003eca0       _ItemParse_align           4003fca0 f   ui_shared.obj
 0001:0003ed00       _ItemParse_textalign       4003fd00 f   ui_shared.obj
 0001:0003ed60       _ItemParse_textalignx      4003fd60 f   ui_shared.obj
 0001:0003edc0       _ItemParse_textaligny      4003fdc0 f   ui_shared.obj
 0001:0003ee20       _ItemParse_textscale       4003fe20 f   ui_shared.obj
 0001:0003ee80       _ItemParse_textstyle       4003fe80 f   ui_shared.obj
 0001:0003eee0       _ItemParse_textfont        4003fee0 f   ui_shared.obj
 0001:0003ef40       _ItemParse_backcolor       4003ff40 f   ui_shared.obj
 0001:0003eff0       _ItemParse_forecolor       4003fff0 f   ui_shared.obj
 0001:0003f0b0       _ItemParse_bordercolor     400400b0 f   ui_shared.obj
 0001:0003f160       _ItemParse_outlinecolor    40040160 f   ui_shared.obj
 0001:0003f1c0       _ItemParse_background      400401c0 f   ui_shared.obj
 0001:0003f270       _ItemParse_cinematic       40040270 f   ui_shared.obj
 0001:0003f2d0       _ItemParse_doubleClick     400402d0 f   ui_shared.obj
 0001:0003f350       _ItemParse_onEsc           40040350 f   ui_shared.obj
 0001:0003f3b0       _ItemParse_onEnter         400403b0 f   ui_shared.obj
 0001:0003f410       _ItemParse_contextMenu     40040410 f   ui_shared.obj
 0001:0003f490       _ItemParse_onFocus         40040490 f   ui_shared.obj
 0001:0003f4f0       _ItemParse_leaveFocus      400404f0 f   ui_shared.obj
 0001:0003f550       _ItemParse_mouseEnter      40040550 f   ui_shared.obj
 0001:0003f5b0       _ItemParse_mouseExit       400405b0 f   ui_shared.obj
 0001:0003f610       _ItemParse_mouseEnterText  40040610 f   ui_shared.obj
 0001:0003f670       _ItemParse_mouseExitText   40040670 f   ui_shared.obj
 0001:0003f6d0       _ItemParse_action          400406d0 f   ui_shared.obj
 0001:0003f730       _ItemParse_accept          40040730 f   ui_shared.obj
 0001:0003f790       _ItemParse_special         40040790 f   ui_shared.obj
 0001:0003f7f0       _ItemParse_cvarTest        400407f0 f   ui_shared.obj
 0001:0003f850       _ItemParse_cvar            40040850 f   ui_shared.obj
 0001:0003f900       _ItemParse_maxChars        40040900 f   ui_shared.obj
 0001:0003f9c0       _ItemParse_maxPaintChars   400409c0 f   ui_shared.obj
 0001:0003fa80       _ItemParse_cvarFloat       40040a80 f   ui_shared.obj
 0001:0003fb40       _ItemParse_cvarStrList     40040b40 f   ui_shared.obj
 0001:0003fd50       _ItemParse_cvarFloatList   40040d50 f   ui_shared.obj
 0001:0003ff40       _ItemParse_cvarListUndefined 40040f40 f   ui_shared.obj
 0001:00040030       _ParseColorRange           40041030 f   ui_shared.obj
 0001:00040170       _ItemParse_addColorRangeRel 40041170 f   ui_shared.obj
 0001:000401c0       _ItemParse_addColorRange   400411c0 f   ui_shared.obj
 0001:00040210       _ItemParse_ownerdrawFlag   40041210 f   ui_shared.obj
 0001:000402a0       _ItemParse_enableCvar      400412a0 f   ui_shared.obj
 0001:00040310       _ItemParse_disableCvar     40041310 f   ui_shared.obj
 0001:00040380       _ItemParse_noToggle        40041380 f   ui_shared.obj
 0001:000403c0       _ItemParse_showCvar        400413c0 f   ui_shared.obj
 0001:00040430       _ItemParse_hideCvar        40041430 f   ui_shared.obj
 0001:000404a0       _ItemParse_execKey         400414a0 f   ui_shared.obj
 0001:00040550       _ItemParse_settingDisabled 40041550 f   ui_shared.obj
 0001:000405b0       _ItemParse_settingEnabled  400415b0 f   ui_shared.obj
 0001:00040610       _ItemParse_tooltip         40041610 f   ui_shared.obj
 0001:00040690       _ItemParse_tooltipalignx   40041690 f   ui_shared.obj
 0001:00040710       _ItemParse_tooltipaligny   40041710 f   ui_shared.obj
 0001:00040790       _ItemParse_voteFlag        40041790 f   ui_shared.obj
 0001:000407e0       _Item_SetupKeywordHash     400417e0 f   ui_shared.obj
 0001:00040870       _Item_Parse                40041870 f   ui_shared.obj
 0001:000409f0       _Item_InitControls         400419f0 f   ui_shared.obj
 0001:00040a90       _MenuParse_name            40041a90 f   ui_shared.obj
 0001:00040af0       _MenuParse_fullscreen      40041af0 f   ui_shared.obj
 0001:00040b50       _MenuParse_rect            40041b50 f   ui_shared.obj
 0001:00040ba0       _MenuParse_style           40041ba0 f   ui_shared.obj
 0001:00040c60       _MenuParse_visible         40041c60 f   ui_shared.obj
 0001:00040d00       _MenuParse_onOpen          40041d00 f   ui_shared.obj
 0001:00040d60       _MenuParse_onClose         40041d60 f   ui_shared.obj
 0001:00040dc0       _MenuParse_onESC           40041dc0 f   ui_shared.obj
 0001:00040e20       _MenuParse_onEnter         40041e20 f   ui_shared.obj
 0001:00040e80       _MenuParse_onTimeout       40041e80 f   ui_shared.obj
 0001:00040f00       _MenuParse_border          40041f00 f   ui_shared.obj
 0001:00040f60       _MenuParse_borderSize      40041f60 f   ui_shared.obj
 0001:00040fc0       _MenuParse_backcolor       40041fc0 f   ui_shared.obj
 0001:00041070       _MenuParse_forecolor       40042070 f   ui_shared.obj
 0001:00041130       _MenuParse_bordercolor     40042130 f   ui_shared.obj
 0001:000411e0       _MenuParse_focuscolor      400421e0 f   ui_shared.obj
 0001:000412a0       _MenuParse_disablecolor    400422a0 f   ui_shared.obj
 0001:00041350       _MenuParse_outlinecolor    40042350 f   ui_shared.obj
 0001:000413b0       _MenuParse_background      400423b0 f   ui_shared.obj
 0001:00041460       _MenuParse_cinematic       40042460 f   ui_shared.obj
 0001:000414c0       _MenuParse_ownerdrawFlag   400424c0 f   ui_shared.obj
 0001:00041560       _MenuParse_ownerdraw       40042560 f   ui_shared.obj
 0001:000415c0       _MenuParse_popup           400425c0 f   ui_shared.obj
 0001:00041610       _MenuParse_outOfBounds     40042610 f   ui_shared.obj
 0001:00041660       _MenuParse_soundLoop       40042660 f   ui_shared.obj
 0001:000416c0       _MenuParse_fadeClamp       400426c0 f   ui_shared.obj
 0001:00041720       _MenuParse_fadeAmount      40042720 f   ui_shared.obj
 0001:00041780       _MenuParse_fadeCycle       40042780 f   ui_shared.obj
 0001:000417e0       _MenuParse_itemDef         400427e0 f   ui_shared.obj
 0001:00041960       _MenuParse_execKey         40042960 f   ui_shared.obj
 0001:00041a20       _MenuParse_execKeyInt      40042a20 f   ui_shared.obj
 0001:00041ad0       _MenuParse_drawAlwaysOnTop 40042ad0 f   ui_shared.obj
 0001:00041b20       _MenuParse_itemHotkeyMode  40042b20 f   ui_shared.obj
 0001:00041b80       _MenuParse_modal           40042b80 f   ui_shared.obj
 0001:00041bd0       _Menu_SetupKeywordHash     40042bd0 f   ui_shared.obj
 0001:00041c60       _Menu_Parse                40042c60 f   ui_shared.obj
 0001:00041e00       _Menu_New                  40042e00 f   ui_shared.obj
 0001:00041e90       _Menu_Count                40042e90 f   ui_shared.obj
 0001:00041ec0       _Menu_Get                  40042ec0 f   ui_shared.obj
 0001:00041f10       _Menu_PaintAll             40042f10 f   ui_shared.obj
 0001:00042150       _Menu_Reset                40043150 f   ui_shared.obj
 0001:00042180       _Display_GetContext        40043180 f   ui_shared.obj
 0001:000421b0       _Display_CaptureItem       400431b0 f   ui_shared.obj
 0001:00042240       _Display_MouseMove         40043240 f   ui_shared.obj
 0001:00042340       _Display_CursorType        40043340 f   ui_shared.obj
 0001:00042440       _Display_HandleKey         40043440 f   ui_shared.obj
 0001:000424b0       _Display_CacheAll          400434b0 f   ui_shared.obj
 0001:00042840       _PC_String_Parse_Trans     40043840 f   ui_shared.obj
 0001:00042910       _PC_Rect_Parse             40043910 f   ui_shared.obj
 0001:000429b0       _BG_RectContainsPoint      400439b0 f   ui_shared.obj
 0001:00042a20       _BG_CursorInRect           40043a20 f   ui_shared.obj
 0001:00042aa0       _BG_PanelButton_RenderEdit 40043aa0 f   ui_shared.obj
 0001:00042e70       _BG_PanelButton_EditClick  40043e70 f   ui_shared.obj
 0001:000431b0       _BG_PanelButtonsKeyEvent   400441b0 f   ui_shared.obj
 0001:00043390       _BG_PanelButtonsSetup      40044390 f   ui_shared.obj
 0001:00043400       _C_PanelButtonsSetup       40044400 f   ui_shared.obj
 0001:00043470       _BG_PanelButtonsGetHighlightButton 40044470 f   ui_shared.obj
 0001:000434f0       _BG_PanelButtonsRender     400444f0 f   ui_shared.obj
 0001:00043560       _BG_PanelButtonsRender_TextExt 40044560 f   ui_shared.obj
 0001:00043810       _BG_PanelButtonsRender_Text 40044810 f   ui_shared.obj
 0001:00043860       _BG_PanelButtonsRender_Img 40044860 f   ui_shared.obj
 0001:000439e0       _BG_PanelButtons_GetFocusButton 400449e0 f   ui_shared.obj
 0001:00043a10       _BG_PanelButtons_SetFocusButton 40044a10 f   ui_shared.obj
 0001:00043a40       _BG_FitTextToWidth_Ext     40044a40 f   ui_shared.obj
 0001:00043ca0       _dllEntry                  40044ca0 f   ui_syscalls.obj
 0001:00043cd0       _PASSFLOAT                 40044cd0 f   ui_syscalls.obj
 0001:00043d00       _trap_Print                40044d00 f   ui_syscalls.obj
 0001:00043d50       _trap_Error                40044d50 f   ui_syscalls.obj
 0001:00043db0       _trap_Milliseconds         40044db0 f   ui_syscalls.obj
 0001:00043e00       _trap_Cvar_Register        40044e00 f   ui_syscalls.obj
 0001:00043e60       _trap_Cvar_Update          40044e60 f   ui_syscalls.obj
 0001:00043eb0       _trap_Cvar_Set             40044eb0 f   ui_syscalls.obj
 0001:00043f00       _trap_Cvar_VariableValue   40044f00 f   ui_syscalls.obj
 0001:00043f50       _trap_Cvar_VariableStringBuffer 40044f50 f   ui_syscalls.obj
 0001:00043fb0       _trap_Cvar_LatchedVariableStringBuffer 40044fb0 f   ui_syscalls.obj
 0001:00044010       _trap_Cvar_SetValue        40045010 f   ui_syscalls.obj
 0001:00044070       _trap_Cvar_Reset           40045070 f   ui_syscalls.obj
 0001:000440c0       _trap_Cvar_Create          400450c0 f   ui_syscalls.obj
 0001:00044120       _trap_Cvar_InfoStringBuffer 40045120 f   ui_syscalls.obj
 0001:00044180       _trap_Argc                 40045180 f   ui_syscalls.obj
 0001:000441d0       _trap_Argv                 400451d0 f   ui_syscalls.obj
 0001:00044230       _trap_Cmd_ExecuteText      40045230 f   ui_syscalls.obj
 0001:00044280       _trap_AddCommand           40045280 f   ui_syscalls.obj
 0001:000442d0       _trap_FS_FOpenFile         400452d0 f   ui_syscalls.obj
 0001:00044330       _trap_FS_Read              40045330 f   ui_syscalls.obj
 0001:00044390       _trap_FS_Write             40045390 f   ui_syscalls.obj
 0001:000443f0       _trap_FS_FCloseFile        400453f0 f   ui_syscalls.obj
 0001:00044440       _trap_FS_GetFileList       40045440 f   ui_syscalls.obj
 0001:000444a0       _trap_FS_Delete            400454a0 f   ui_syscalls.obj
 0001:000444f0       _trap_R_RegisterModel      400454f0 f   ui_syscalls.obj
 0001:00044540       _trap_R_RegisterSkin       40045540 f   ui_syscalls.obj
 0001:00044590       _trap_R_RegisterShaderNoMip 40045590 f   ui_syscalls.obj
 0001:000445e0       _trap_R_RegisterFont       400455e0 f   ui_syscalls.obj
 0001:00044640       _trap_R_ClearScene         40045640 f   ui_syscalls.obj
 0001:00044690       _trap_R_AddRefEntityToScene 40045690 f   ui_syscalls.obj
 0001:000446e0       _trap_R_AddPolyToScene     400456e0 f   ui_syscalls.obj
 0001:00044740       _trap_R_AddLightToScene    40045740 f   ui_syscalls.obj
 0001:000447f0       _trap_R_AddCoronaToScene   400457f0 f   ui_syscalls.obj
 0001:00044890       _trap_R_RenderScene        40045890 f   ui_syscalls.obj
 0001:000448e0       _trap_R_SetColor           400458e0 f   ui_syscalls.obj
 0001:00044930       _trap_R_Add2dPolys         40045930 f   ui_syscalls.obj
 0001:00044990       _trap_R_DrawStretchPic     40045990 f   ui_syscalls.obj
 0001:00044a60       _trap_R_DrawRotatedPic     40045a60 f   ui_syscalls.obj
 0001:00044b40       _trap_R_ModelBounds        40045b40 f   ui_syscalls.obj
 0001:00044ba0       _trap_UpdateScreen         40045ba0 f   ui_syscalls.obj
 0001:00044bf0       _trap_CM_LerpTag           40045bf0 f   ui_syscalls.obj
 0001:00044c50       _trap_S_StartLocalSound    40045c50 f   ui_syscalls.obj
 0001:00044ca0       _trap_S_RegisterSound      40045ca0 f   ui_syscalls.obj
 0001:00044d00       _trap_S_FadeBackgroundTrack 40045d00 f   ui_syscalls.obj
 0001:00044d60       _trap_S_FadeAllSound       40045d60 f   ui_syscalls.obj
 0001:00044dc0       _trap_Key_KeynumToStringBuf 40045dc0 f   ui_syscalls.obj
 0001:00044e20       _trap_Key_GetBindingBuf    40045e20 f   ui_syscalls.obj
 0001:00044e80       _trap_Key_KeysForBinding   40045e80 f   ui_syscalls.obj
 0001:00044ee0       _trap_Key_SetBinding       40045ee0 f   ui_syscalls.obj
 0001:00044f30       _trap_Key_IsDown           40045f30 f   ui_syscalls.obj
 0001:00044f80       _trap_Key_GetOverstrikeMode 40045f80 f   ui_syscalls.obj
 0001:00044fd0       _trap_Key_SetOverstrikeMode 40045fd0 f   ui_syscalls.obj
 0001:00045020       _trap_Key_ClearStates      40046020 f   ui_syscalls.obj
 0001:00045070       _trap_Key_GetCatcher       40046070 f   ui_syscalls.obj
 0001:000450c0       _trap_Key_SetCatcher       400460c0 f   ui_syscalls.obj
 0001:00045110       _trap_GetClipboardData     40046110 f   ui_syscalls.obj
 0001:00045160       _trap_GetClientState       40046160 f   ui_syscalls.obj
 0001:000451b0       _trap_GetGlconfig          400461b0 f   ui_syscalls.obj
 0001:00045200       _trap_GetConfigString      40046200 f   ui_syscalls.obj
 0001:00045260       _trap_LAN_GetLocalServerCount 40046260 f   ui_syscalls.obj
 0001:000452b0       _trap_LAN_GetLocalServerAddressString 400462b0 f   ui_syscalls.obj
 0001:00045310       _trap_LAN_GetGlobalServerCount 40046310 f   ui_syscalls.obj
 0001:00045360       _trap_LAN_GetGlobalServerAddressString 40046360 f   ui_syscalls.obj
 0001:000453c0       _trap_LAN_GetPingQueueCount 400463c0 f   ui_syscalls.obj
 0001:00045410       _trap_LAN_ClearPing        40046410 f   ui_syscalls.obj
 0001:00045460       _trap_LAN_GetPing          40046460 f   ui_syscalls.obj
 0001:000454c0       _trap_LAN_GetPingInfo      400464c0 f   ui_syscalls.obj
 0001:00045520       _trap_LAN_UpdateVisiblePings 40046520 f   ui_syscalls.obj
 0001:00045570       _trap_LAN_GetServerCount   40046570 f   ui_syscalls.obj
 0001:000455c0       _trap_LAN_CompareServers   400465c0 f   ui_syscalls.obj
 0001:00045620       _trap_LAN_GetServerAddressString 40046620 f   ui_syscalls.obj
 0001:00045680       _trap_LAN_GetServerInfo    40046680 f   ui_syscalls.obj
 0001:000456e0       _trap_LAN_AddServer        400466e0 f   ui_syscalls.obj
 0001:00045740       _trap_LAN_RemoveServer     40046740 f   ui_syscalls.obj
 0001:00045790       _trap_LAN_GetServerPing    40046790 f   ui_syscalls.obj
 0001:000457e0       _trap_LAN_ServerIsVisible  400467e0 f   ui_syscalls.obj
 0001:00045830       _trap_LAN_ServerStatus     40046830 f   ui_syscalls.obj
 0001:00045890       _trap_LAN_ServerIsInFavoriteList 40046890 f   ui_syscalls.obj
 0001:000458e0       _trap_LAN_SaveCachedServers 400468e0 f   ui_syscalls.obj
 0001:00045930       _trap_LAN_LoadCachedServers 40046930 f   ui_syscalls.obj
 0001:00045980       _trap_LAN_MarkServerVisible 40046980 f   ui_syscalls.obj
 0001:000459e0       _trap_SetPbClStatus        400469e0 f   ui_syscalls.obj
 0001:00045a30       _trap_SetPbSvStatus        40046a30 f   ui_syscalls.obj
 0001:00045a80       _trap_LAN_ResetPings       40046a80 f   ui_syscalls.obj
 0001:00045ad0       _trap_MemoryRemaining      40046ad0 f   ui_syscalls.obj
 0001:00045b20       _trap_GetCDKey             40046b20 f   ui_syscalls.obj
 0001:00045b70       _trap_SetCDKey             40046b70 f   ui_syscalls.obj
 0001:00045bc0       _trap_PC_AddGlobalDefine   40046bc0 f   ui_syscalls.obj
 0001:00045c10       _trap_PC_RemoveAllGlobalDefines 40046c10 f   ui_syscalls.obj
 0001:00045c60       _trap_PC_LoadSource        40046c60 f   ui_syscalls.obj
 0001:00045cb0       _trap_PC_FreeSource        40046cb0 f   ui_syscalls.obj
 0001:00045d00       _trap_PC_ReadToken         40046d00 f   ui_syscalls.obj
 0001:00045d50       _trap_PC_SourceFileAndLine 40046d50 f   ui_syscalls.obj
 0001:00045db0       _trap_PC_UnReadToken       40046db0 f   ui_syscalls.obj
 0001:00045e00       _trap_S_StopBackgroundTrack 40046e00 f   ui_syscalls.obj
 0001:00045e50       _trap_S_StartBackgroundTrack 40046e50 f   ui_syscalls.obj
 0001:00045eb0       _trap_RealTime             40046eb0 f   ui_syscalls.obj
 0001:00045f00       _trap_CIN_PlayCinematic    40046f00 f   ui_syscalls.obj
 0001:00045f60       _trap_CIN_StopCinematic    40046f60 f   ui_syscalls.obj
 0001:00045fb0       _trap_CIN_RunCinematic     40046fb0 f   ui_syscalls.obj
 0001:00046000       _trap_CIN_DrawCinematic    40047000 f   ui_syscalls.obj
 0001:00046050       _trap_CIN_SetExtents       40047050 f   ui_syscalls.obj
 0001:000460b0       _trap_R_RemapShader        400470b0 f   ui_syscalls.obj
 0001:00046110       _trap_VerifyCDKey          40047110 f   ui_syscalls.obj
 0001:00046160       _trap_GetLimboString       40047160 f   ui_syscalls.obj
 0001:000461b0       _trap_TranslateString      400471b0 f   ui_syscalls.obj
 0001:00046230       _trap_CheckAutoUpdate      40047230 f   ui_syscalls.obj
 0001:00046280       _trap_GetAutoUpdate        40047280 f   ui_syscalls.obj
 0001:000462d0       _trap_openURL              400472d0 f   ui_syscalls.obj
 0001:00046320       _trap_GetHunkData          40047320 f   ui_syscalls.obj
 0001:00046380       __RTC_CheckEsp             40047380 f   LIBCMTD:_stack_.obj
 0001:000463b0       @_RTC_CheckStackVars@8     400473b0 f   LIBCMTD:_stack_.obj
 0001:00046420       @_RTC_AllocaHelper@12      40047420 f   LIBCMTD:_stack_.obj
 0001:00046460       @_RTC_CheckStackVars2@12   40047460 f   LIBCMTD:_stack_.obj
 0001:00046540       @__security_check_cookie@4 40047540 f   LIBCMTD:secchk.obj
 0001:00046550       __RTC_InitBase             40047550 f   LIBCMTD:_init_.obj
 0001:00046580       __RTC_Shutdown             40047580 f   LIBCMTD:_init_.obj
 0001:000465a0       _strcpy                    400475a0 f   LIBCMTD:strcat.obj
 0001:000465b0       _strcat                    400475b0 f   LIBCMTD:strcat.obj
 0001:000466a0       _strlen                    400476a0 f   LIBCMTD:strlen.obj
 0001:00046730       _memset                    40047730 f   LIBCMTD:memset.obj
 0001:000467b0       _memcpy                    400477b0 f   LIBCMTD:memcpy.obj
 0001:00046b20       _strstr                    40047b20 f   LIBCMTD:strstr.obj
 0001:00046bb0       _atol                      40047bb0 f   LIBCMTD:atox.obj
 0001:00046bd0       __atol_l                   40047bd0 f   LIBCMTD:atox.obj
 0001:00046bf0       _atoi                      40047bf0 f   LIBCMTD:atox.obj
 0001:00046c10       __atoi_l                   40047c10 f   LIBCMTD:atox.obj
 0001:00046c30       __atoi64                   40047c30 f   LIBCMTD:atox.obj
 0001:00046c50       __atoi64_l                 40047c50 f   LIBCMTD:atox.obj
 0001:00046c70       _srand                     40047c70 f   LIBCMTD:rand.obj
 0001:00046c90       _rand                      40047c90 f   LIBCMTD:rand.obj
 0001:00046cd0       __fpmath                   40047cd0 f   LIBCMTD:_fpinit_.obj
 0001:00046cf0       __cfltcvt_init             40047cf0 f   LIBCMTD:_fpinit_.obj
 0001:00046d60       ___setfflag                40047d60 f   LIBCMTD:_fpinit_.obj
 0001:00046d80       __ftol2_sse                40047d80 f   LIBCMTD:ftol2.obj
 0001:00046d89       __ftol2_pentium4           40047d89 f   LIBCMTD:ftol2.obj
 0001:00046d9c       __ftol2_sse_excpt          40047d9c f   LIBCMTD:ftol2.obj
 0001:00046db6       __ftol2                    40047db6 f   LIBCMTD:ftol2.obj
 0001:00046e30       __tolower                  40047e30 f   LIBCMTD:tolower.obj
 0001:00046e40       __tolower_l                40047e40 f   LIBCMTD:tolower.obj
 0001:00047020       ??0_LocaleUpdate@@QAE@PAUlocaleinfo_struct@@@Z 40048020 f i LIBCMTD:tolower.obj
 0001:00047100       ??1_LocaleUpdate@@QAE@XZ   40048100 f i LIBCMTD:tolower.obj
 0001:00047130       ?GetLocaleT@_LocaleUpdate@@QAEPAUlocaleinfo_struct@@XZ 40048130 f i LIBCMTD:tolower.obj
 0001:00047140       _tolower                   40048140 f   LIBCMTD:tolower.obj
 0001:00047190       __CIsqrt                   40048190 f   LIBCMTD:_sqrt_.obj
 0001:000471a4       _sqrt                      400481a4     LIBCMTD:_sqrt_.obj
 0001:00047250       _floor                     40048250 f   LIBCMTD:_floor_pentium4_.obj
 0001:00047290       __floor_pentium4           40048290 f   LIBCMTD:_floor_pentium4_.obj
 0001:00047380       _sin                       40048380 f   LIBCMTD:_sin_.obj
 0001:000473c0       __CIsin                    400483c0 f   LIBCMTD:_sin_.obj
 0001:000473fb       __CIsin_default            400483fb f   LIBCMTD:_sin_.obj
 0001:0004740f       __sin_default              4004840f     LIBCMTD:_sin_.obj
 0001:000474b0       _cos                       400484b0 f   LIBCMTD:_cos_.obj
 0001:000474f0       __CIcos                    400484f0 f   LIBCMTD:_cos_.obj
 0001:0004752b       __CIcos_default            4004852b f   LIBCMTD:_cos_.obj
 0001:0004753f       __cos_default              4004853f     LIBCMTD:_cos_.obj
 0001:000475e0       __atof_l                   400485e0 f   LIBCMTD:atof.obj
 0001:00047720       _atof                      40048720 f   LIBCMTD:atof.obj
 0001:00047740       ___strgtold12              40048740 f   LIBCMTD:atof.obj
 0001:000477a0       ___STRINGTOLD              400487a0 f   LIBCMTD:atof.obj
 0001:000477f0       __vsnprintf_l              400487f0 f   LIBCMTD:vsnprint.obj
 0001:000479b0       __vsnprintf                400489b0 f   LIBCMTD:vsnprint.obj
 0001:000479e0       _atan                      400489e0 f   LIBCMTD:_atan_.obj
 0001:00047a20       __CIatan                   40048a20 f   LIBCMTD:_atan_.obj
 0001:00047a5b       __CIatan_default           40048a5b f   LIBCMTD:_atan_.obj
 0001:00047a6f       __atan_default             40048a6f     LIBCMTD:_atan_.obj
 0001:00047b00       _atan2                     40048b00 f   LIBCMTD:_87ctriga_.obj
 0001:00047b0a       __CIatan2                  40048b0a f   LIBCMTD:_87ctriga_.obj
 0001:00047b20       _strcmp                    40048b20 f   LIBCMTD:strcmp.obj
 0001:00047bb0       _strncpy                   40048bb0 f   LIBCMTD:strncpy.obj
 0001:00047ce0       __vsprintf_l               40048ce0 f   LIBCMTD:vsprintf.obj
 0001:00047e80       _vsprintf                  40048e80 f   LIBCMTD:vsprintf.obj
 0001:00047ea0       __vscprintf_helper         40048ea0 f   LIBCMTD:vsprintf.obj
 0001:00047f80       __vscprintf                40048f80 f   LIBCMTD:vsprintf.obj
 0001:00047fa0       __vscprintf_l              40048fa0 f   LIBCMTD:vsprintf.obj
 0001:00047fc0       __vscprintf_p              40048fc0 f   LIBCMTD:vsprintf.obj
 0001:00047fe0       __vscprintf_p_l            40048fe0 f   LIBCMTD:vsprintf.obj
 0001:00048000       __alloca_probe             40049000     LIBCMTD:chkstk.obj
 0001:00048000       __chkstk                   40049000 f   LIBCMTD:chkstk.obj
 0001:00048030       _memmove                   40049030 f   LIBCMTD:memmove.obj
 0001:000483b0       _strchr                    400493b0 f   LIBCMTD:strchr.obj
 0001:000483b6       ___from_strstr_to_strchr   400493b6     LIBCMTD:strchr.obj
 0001:00048470       _qsort                     40049470 f   LIBCMTD:qsort.obj
 0001:00048a20       __toupper                  40049a20 f   LIBCMTD:toupper.obj
 0001:00048a30       __toupper_l                40049a30 f   LIBCMTD:toupper.obj
 0001:00048c10       _toupper                   40049c10 f   LIBCMTD:toupper.obj
 0001:00048c60       _abs                       40049c60 f   LIBCMTD:abs.obj
 0001:00048c90       __abs64                    40049c90 f   LIBCMTD:abs.obj
 0001:00048ce0       ?_RTC_Failure@@YAXPAXH@Z   40049ce0 f   LIBCMTD:_error_.obj
 0001:00049090       ?_RTC_StackFailure@@YAXPAXPBD@Z 4004a090 f   LIBCMTD:_error_.obj
 0001:00049190       ?_RTC_AllocaFailure@@YAXPAXPAU_RTC_ALLOCA_NODE@@H@Z 4004a190 f   LIBCMTD:_error_.obj
 0001:00049340       __RTC_UninitUse            4004a340 f   LIBCMTD:_error_.obj
 0001:00049430       __cinit                    4004a430 f   LIBCMTD:crt0dat.obj
 0001:000494d0       _exit                      4004a4d0 f   LIBCMTD:crt0dat.obj
 0001:000494f0       __exit                     4004a4f0 f   LIBCMTD:crt0dat.obj
 0001:00049510       __cexit                    4004a510 f   LIBCMTD:crt0dat.obj
 0001:00049530       __c_exit                   4004a530 f   LIBCMTD:crt0dat.obj
 0001:00049550       __amsg_exit                4004a550 f   LIBCMTD:crt0dat.obj
 0001:00049580       ___freeCrtMemory           4004a580 f   LIBCMTD:crt0dat.obj
 0001:000498c0       ___crtCorExitProcess       4004a8c0 f   LIBCMTD:crt0dat.obj
 0001:00049900       ___crtExitProcess          4004a900 f   LIBCMTD:crt0dat.obj
 0001:00049920       __lockexit                 4004a920 f   LIBCMTD:crt0dat.obj
 0001:00049940       __unlockexit               4004a940 f   LIBCMTD:crt0dat.obj
 0001:00049960       __init_pointers            4004a960 f   LIBCMTD:crt0dat.obj
 0001:000499f0       __initterm_e               4004a9f0 f   LIBCMTD:crt0dat.obj
 0001:00049a30       __get_wpgmptr              4004aa30 f   LIBCMTD:crt0dat.obj
 0001:00049b20       __get_pgmptr               4004ab20 f   LIBCMTD:crt0dat.obj
 0001:00049c10       __CRT_INIT@12              4004ac10 f   LIBCMTD:dllcrt0.obj
 0001:00049e30       __DllMainCRTStartup@12     4004ae30 f   LIBCMTD:dllcrt0.obj
 0001:0004a020       ___report_gsfailure        4004b020 f   LIBCMTD:gs_report.obj
 0001:0004a130       __RTC_NumErrors            4004b130 f   LIBCMTD:_userapi_.obj
 0001:0004a140       __RTC_GetErrDesc           4004b140 f   LIBCMTD:_userapi_.obj
 0001:0004a160       __RTC_SetErrorType         4004b160 f   LIBCMTD:_userapi_.obj
 0001:0004a190       __RTC_SetErrorFunc         4004b190 f   LIBCMTD:_userapi_.obj
 0001:0004a1b0       __RTC_SetErrorFuncW        4004b1b0 f   LIBCMTD:_userapi_.obj
 0001:0004a1d0       ?_RTC_GetErrorFunc@@YAP6AHHPBDH00ZZPBX@Z 4004b1d0 f   LIBCMTD:_userapi_.obj
 0001:0004a1e0       ?_RTC_GetErrorFuncW@@YAP6AHHPB_WH00ZZPBX@Z 4004b1e0 f   LIBCMTD:_userapi_.obj
 0001:0004a1f0       __chkesp                   4004b1f0 f   LIBCMTD:chkesp.obj
 0001:0004a230       __CRT_RTC_INIT             4004b230 f   LIBCMTD:chkesp.obj
 0001:0004a240       __CRT_RTC_INITW            4004b240 f   LIBCMTD:chkesp.obj
 0001:0004a250       __VEC_memzero              4004b250 f   LIBCMTD:p4_memset.obj
 0001:0004a310       ___sse2_available_init     4004b310 f   LIBCMTD:cpu_disp.obj
 0001:0004a330       __VEC_memcpy               4004b330 f   LIBCMTD:p4_memcpy.obj
 0001:0004a440       _strtol                    4004b440 f   LIBCMTD:strtol.obj
 0001:0004a970       __strtol_l                 4004b970 f   LIBCMTD:strtol.obj
 0001:0004a9a0       _strtoul                   4004b9a0 f   LIBCMTD:strtol.obj
 0001:0004a9f0       __strtoul_l                4004b9f0 f   LIBCMTD:strtol.obj
 0001:0004aa20       __strtoi64                 4004ba20 f   LIBCMTD:strtoq.obj
 0001:0004af90       __strtoi64_l               4004bf90 f   LIBCMTD:strtoq.obj
 0001:0004afc0       __strtoui64                4004bfc0 f   LIBCMTD:strtoq.obj
 0001:0004b010       __strtoui64_l              4004c010 f   LIBCMTD:strtoq.obj
 0001:0004b040       __encoded_null             4004c040 f   LIBCMTD:tidtable.obj
 0001:0004b050       ___crtTlsAlloc@4           4004c050 f   LIBCMTD:tidtable.obj
 0001:0004b060       ___fls_getvalue@4          4004c060 f   LIBCMTD:tidtable.obj
 0001:0004b080       ___get_flsindex            4004c080 f   LIBCMTD:tidtable.obj
 0001:0004b090       ___set_flsgetvalue         4004c090 f   LIBCMTD:tidtable.obj
 0001:0004b0e0       ___fls_setvalue@8          4004c0e0 f   LIBCMTD:tidtable.obj
 0001:0004b100       __mtinit                   4004c100 f   LIBCMTD:tidtable.obj
 0001:0004b300       __mtterm                   4004c300 f   LIBCMTD:tidtable.obj
 0001:0004b360       __initptd                  4004c360 f   LIBCMTD:tidtable.obj
 0001:0004b490       __getptd_noexit            4004c490 f   LIBCMTD:tidtable.obj
 0001:0004b550       __getptd                   4004c550 f   LIBCMTD:tidtable.obj
 0001:0004b580       __freefls@4                4004c580 f   LIBCMTD:tidtable.obj
 0001:0004b790       __freeptd                  4004c790 f   LIBCMTD:tidtable.obj
 0001:0004b810       ___threadid                4004c810 f   LIBCMTD:tidtable.obj
 0001:0004b820       ___threadhandle            4004c820 f   LIBCMTD:tidtable.obj
 0001:0004b830       __setdefaultprecision      4004c830 f   LIBCMTD:fp8.obj
 0001:0004b870       __invoke_watson_if_error   4004c870 f i LIBCMTD:fp8.obj
 0001:0004b8a0       __forcdecpt                4004c8a0 f   LIBCMTD:cvt.obj
 0001:0004b8c0       __forcdecpt_l              4004c8c0 f   LIBCMTD:cvt.obj
 0001:0004b980       __cropzeros                4004c980 f   LIBCMTD:cvt.obj
 0001:0004b9a0       __cropzeros_l              4004c9a0 f   LIBCMTD:cvt.obj
 0001:0004bab0       __positive                 4004cab0 f   LIBCMTD:cvt.obj
 0001:0004bae0       __fassign_l                4004cae0 f   LIBCMTD:cvt.obj
 0001:0004bb40       __fassign                  4004cb40 f   LIBCMTD:cvt.obj
 0001:0004bb60       __cftoe_l                  4004cb60 f   LIBCMTD:cvt.obj
 0001:0004c0b0       __cftoe                    4004d0b0 f   LIBCMTD:cvt.obj
 0001:0004c0e0       __cftoa_l                  4004d0e0 f   LIBCMTD:cvt.obj
 0001:0004c8c0       ?strrchr@@YAPADPADH@Z      4004d8c0 f i LIBCMTD:cvt.obj
 0001:0004c8e0       __cftoa                    4004d8e0 f   LIBCMTD:cvt.obj
 0001:0004c910       __cftof_l                  4004d910 f   LIBCMTD:cvt.obj
 0001:0004cd20       __cftof                    4004dd20 f   LIBCMTD:cvt.obj
 0001:0004cd50       __cftog_l                  4004dd50 f   LIBCMTD:cvt.obj
 0001:0004cf80       __cftog                    4004df80 f   LIBCMTD:cvt.obj
 0001:0004cfb0       __cfltcvt_l                4004dfb0 f   LIBCMTD:cvt.obj
 0001:0004d070       __cfltcvt                  4004e070 f   LIBCMTD:cvt.obj
 0001:0004d0d0       __initp_misc_cfltcvt_tab   4004e0d0 f   LIBCMTD:cmiscdat.obj
 0001:0004d110       ___crtLCMapStringA         4004e110 f   LIBCMTD:a_map.obj
 0001:0004d400       __MarkAllocaS              4004e400 f i LIBCMTD:a_map.obj
 0001:0004d430       __freea                    4004e430 f i LIBCMTD:a_map.obj
 0001:0004d4f0       __dosmaperr                4004e4f0 f   LIBCMTD:dosmap.obj
 0001:0004d520       __get_errno_from_oserr     4004e520 f   LIBCMTD:dosmap.obj
 0001:0004d5a0       __set_errno                4004e5a0 f   LIBCMTD:dosmap.obj
 0001:0004d5d0       __get_errno                4004e5d0 f   LIBCMTD:dosmap.obj
 0001:0004d650       __set_doserrno             4004e650 f   LIBCMTD:dosmap.obj
 0001:0004d680       __get_doserrno             4004e680 f   LIBCMTD:dosmap.obj
 0001:0004d700       __errno                    4004e700 f   LIBCMTD:dosmap.obj
 0001:0004d730       ___doserrno                4004e730 f   LIBCMTD:dosmap.obj
 0001:0004d760       __isleadbyte_l             4004e760 f i LIBCMTD:_wctype.obj
 0001:0004d7b0       _isleadbyte                4004e7b0 f i LIBCMTD:_wctype.obj
 0001:0004d7d0       __iswalpha_l               4004e7d0 f i LIBCMTD:_wctype.obj
 0001:0004d7f0       _iswalpha                  4004e7f0 f i LIBCMTD:_wctype.obj
 0001:0004d810       __iswupper_l               4004e810 f i LIBCMTD:_wctype.obj
 0001:0004d830       _iswupper                  4004e830 f i LIBCMTD:_wctype.obj
 0001:0004d850       __iswlower_l               4004e850 f i LIBCMTD:_wctype.obj
 0001:0004d870       _iswlower                  4004e870 f i LIBCMTD:_wctype.obj
 0001:0004d890       __iswdigit_l               4004e890 f i LIBCMTD:_wctype.obj
 0001:0004d8b0       _iswdigit                  4004e8b0 f i LIBCMTD:_wctype.obj
 0001:0004d8d0       __iswxdigit_l              4004e8d0 f i LIBCMTD:_wctype.obj
 0001:0004d8f0       _iswxdigit                 4004e8f0 f i LIBCMTD:_wctype.obj
 0001:0004d910       __iswspace_l               4004e910 f i LIBCMTD:_wctype.obj
 0001:0004d930       _iswspace                  4004e930 f i LIBCMTD:_wctype.obj
 0001:0004d950       __iswpunct_l               4004e950 f i LIBCMTD:_wctype.obj
 0001:0004d970       _iswpunct                  4004e970 f i LIBCMTD:_wctype.obj
 0001:0004d990       __iswalnum_l               4004e990 f i LIBCMTD:_wctype.obj
 0001:0004d9b0       _iswalnum                  4004e9b0 f i LIBCMTD:_wctype.obj
 0001:0004d9d0       __iswprint_l               4004e9d0 f i LIBCMTD:_wctype.obj
 0001:0004d9f0       _iswprint                  4004e9f0 f i LIBCMTD:_wctype.obj
 0001:0004da10       __iswgraph_l               4004ea10 f i LIBCMTD:_wctype.obj
 0001:0004da30       _iswgraph                  4004ea30 f i LIBCMTD:_wctype.obj
 0001:0004da50       __iswcntrl_l               4004ea50 f i LIBCMTD:_wctype.obj
 0001:0004da70       _iswcntrl                  4004ea70 f i LIBCMTD:_wctype.obj
 0001:0004da90       _iswascii                  4004ea90 f i LIBCMTD:_wctype.obj
 0001:0004dab0       __iswcsym_l                4004eab0 f i LIBCMTD:_wctype.obj
 0001:0004daf0       ___iswcsym                 4004eaf0 f i LIBCMTD:_wctype.obj
 0001:0004db30       __iswcsymf_l               4004eb30 f i LIBCMTD:_wctype.obj
 0001:0004db70       ___iswcsymf                4004eb70 f i LIBCMTD:_wctype.obj
 0001:0004dbb0       __chvalidator              4004ebb0 f   LIBCMTD:isctype.obj
 0001:0004dc00       __chvalidator_l            4004ec00 f   LIBCMTD:isctype.obj
 0001:0004dcb0       __isctype_l                4004ecb0 f   LIBCMTD:isctype.obj
 0001:0004ddd0       __isctype                  4004edd0 f   LIBCMTD:isctype.obj
 0001:0004de10       ___updatetmbcinfo          4004ee10 f   LIBCMTD:mbctype.obj
 0001:0004df20       __setmbcp                  4004ef20 f   LIBCMTD:mbctype.obj
 0001:0004e2d0       __setmbcp_nolock           4004f2d0 f   LIBCMTD:mbctype.obj
 0001:0004eac0       __getmbcp                  4004fac0 f   LIBCMTD:mbctype.obj
 0001:0004eb30       ___initmbctable            4004fb30 f   LIBCMTD:mbctype.obj
 0001:0004eb60       ___addlocaleref            4004fb60 f   LIBCMTD:localref.obj
 0001:0004ec80       ___removelocaleref         4004fc80 f   LIBCMTD:localref.obj
 0001:0004edb0       ___freetlocinfo            4004fdb0 f   LIBCMTD:localref.obj
 0001:0004f090       __updatetlocinfoEx_nolock  40050090 f   LIBCMTD:localref.obj
 0001:0004f110       ___updatetlocinfo          40050110 f   LIBCMTD:localref.obj
 0001:0004f1e0       ____setlc_active_func      400501e0 f   LIBCMTD:setlocal.obj
 0001:0004f1f0       ____unguarded_readlc_active_add_func 400501f0 f   LIBCMTD:setlocal.obj
 0001:0004f200       __configthreadlocale       40050200 f   LIBCMTD:setlocal.obj
 0001:0004f310       __locterm                  40050310 f   LIBCMTD:setlocal.obj
 0001:0004f3b0       __free_locale              400503b0 f   LIBCMTD:setlocal.obj
 0001:0004f4f0       ___free_locale             400504f0 f   LIBCMTD:setlocal.obj
 0001:0004f510       __create_locale            40050510 f   LIBCMTD:setlocal.obj
 0001:0004f740       ___create_locale           40050740 f   LIBCMTD:setlocal.obj
 0001:0004f760       __get_current_locale       40050760 f   LIBCMTD:setlocal.obj
 0001:0004f880       ___get_current_locale      40050880 f   LIBCMTD:setlocal.obj
 0001:0004f890       _setlocale                 40050890 f   LIBCMTD:setlocal.obj
 0001:00050740       __expandlocale             40051740 f   LIBCMTD:setlocal.obj
 0001:000509f0       ___init_dummy              400519f0 f   LIBCMTD:setlocal.obj
 0001:00050a00       __strcats                  40051a00 f   LIBCMTD:setlocal.obj
 0001:00050a80       ___lc_strtolc              40051a80 f   LIBCMTD:setlocal.obj
 0001:00050c80       ___lc_lctostr              40051c80 f   LIBCMTD:setlocal.obj
 0001:00050d20       __trandisp1                40051d20 f   LIBCMTD:_87disp_.obj
 0001:00050d87       __trandisp2                40051d87 f   LIBCMTD:_87disp_.obj
 0001:00050e13       __rttospopde               40051e13     LIBCMTD:_87disp_.obj
 0001:00050e18       __rttospop                 40051e18     LIBCMTD:_87disp_.obj
 0001:00050e1a       __rtnospop                 40051e1a     LIBCMTD:_87disp_.obj
 0001:00050e1c       __rttosnpop                40051e1c     LIBCMTD:_87disp_.obj
 0001:00050e1d       __rtnospopde               40051e1d     LIBCMTD:_87disp_.obj
 0001:00050e24       __rtzeropop                40051e24     LIBCMTD:_87disp_.obj
 0001:00050e26       __rtzeronpop               40051e26     LIBCMTD:_87disp_.obj
 0001:00050e2b       __rtonepop                 40051e2b     LIBCMTD:_87disp_.obj
 0001:00050e2d       __rtonenpop                40051e2d     LIBCMTD:_87disp_.obj
 0001:00050e32       __tosnan1                  40051e32     LIBCMTD:_87disp_.obj
 0001:00050e5d       __nosnan2                  40051e5d     LIBCMTD:_87disp_.obj
 0001:00050e5f       __tosnan2                  40051e5f     LIBCMTD:_87disp_.obj
 0001:00050e87       __nan2                     40051e87     LIBCMTD:_87disp_.obj
 0001:00050ec6       __rtindfpop                40051ec6     LIBCMTD:_87disp_.obj
 0001:00050ec8       __rtindfnpop               40051ec8     LIBCMTD:_87disp_.obj
 0001:00050ed9       __rttosnpopde              40051ed9     LIBCMTD:_87disp_.obj
 0001:00050ee3       __rtchsifneg               40051ee3     LIBCMTD:_87disp_.obj
 0001:00050ef0       __startTwoArgErrorHandling 40051ef0 f   LIBCMTD:_genexcep_.obj
 0001:00050f07       __startOneArgErrorHandling 40051f07 f   LIBCMTD:_genexcep_.obj
 0001:00050f50       __twoToTOS                 40051f50 f   LIBCMTD:_common_.obj
 0001:00050f65       __load_CW                  40051f65 f   LIBCMTD:_common_.obj
 0001:00050f7c       __convertTOStoQNaN         40051f7c f   LIBCMTD:_common_.obj
 0001:00050f95       __fload_withFB             40051f95 f   LIBCMTD:_common_.obj
 0001:00050fd8       __checkTOS_withFB          40051fd8 f   LIBCMTD:_common_.obj
 0001:00050fee       __fast_exit                40051fee f   LIBCMTD:_common_.obj
 0001:00050ffb       __math_exit                40051ffb f   LIBCMTD:_common_.obj
 0001:00051025       __check_overflow_exit      40052025 f   LIBCMTD:_common_.obj
 0001:00051039       __check_range_exit         40052039 f   LIBCMTD:_common_.obj
 0001:000510e0       ___libm_setusermatherr     400520e0 f   LIBCMTD:_libm_error_.obj
 0001:00051120       ___libm_error_support      40052120 f   LIBCMTD:_libm_error_.obj
 0001:00051c50       __set_SSE2_enable          40052c50 f   LIBCMTD:_mathfcns_.obj
 0001:00051c70       __sse2_mathfcns_init       40052c70 f   LIBCMTD:_mathfcns_.obj
 0001:00051c90       __floor_default            40052c90 f   LIBCMTD:_floor_.obj
 0001:00051dd0       __CIsin_pentium4           40052dd0 f   LIBCMTD:_sin_pentium4_.obj
 0001:00051de8       __sin_pentium4             40052de8     LIBCMTD:_sin_pentium4_.obj
 0001:00051fa0       __CIcos_pentium4           40052fa0 f   LIBCMTD:_cos_pentium4_.obj
 0001:00051fb8       __cos_pentium4             40052fb8     LIBCMTD:_cos_pentium4_.obj
 0001:00052150       __fltin2                   40053150 f   LIBCMTD:_cfin_.obj
 0001:00052230       __initp_misc_invarg        40053230 f   LIBCMTD:invarg.obj
 0001:00052240       __invalid_parameter        40053240 f   LIBCMTD:invarg.obj
 0001:000522a0       __invoke_watson            400532a0 f   LIBCMTD:invarg.obj
 0001:000522d0       __call_reportfault         400532d0 f   LIBCMTD:invarg.obj
 0001:00052420       __set_invalid_parameter_handler 40053420 f   LIBCMTD:invarg.obj
 0001:00052460       __get_invalid_parameter_handler 40053460 f   LIBCMTD:invarg.obj
 0001:00052490       ?_invalid_parameter@@YAXPBG00II@Z 40053490 f   LIBCMTD:invarg.obj
 0001:000524c0       ?_invoke_watson@@YAXPBG00II@Z 400534c0 f   LIBCMTD:invarg.obj
 0001:000524e0       __CrtSetReportHookW2       400534e0 f   LIBCMTD:dbgrptw.obj
 0001:00052810       __CrtDbgReportW            40053810 f   LIBCMTD:dbgrptw.obj
 0001:00052850       __CrtDbgReportWV           40053850 f i LIBCMTD:dbgrptw.obj
 0001:00052880       ___crtMessageWindowW       40053880 f   LIBCMTD:dbgrptw.obj
 0001:00052c80       __invoke_watson_if_oneof   40053c80 f i LIBCMTD:dbgrptw.obj
 0001:00052cc0       ?_CrtDbgReportW@@YAHHPBGH00ZZ 40053cc0 f   LIBCMTD:dbgrptw.obj
 0001:00052d00       ___strgtold12_l            40053d00 f   LIBCMTD:_strgtold_.obj
 0001:000537b0       ___multtenpow12            400547b0 f i LIBCMTD:_strgtold_.obj
 0001:00053890       ___ld12mul                 40054890 f i LIBCMTD:_strgtold_.obj
 0001:00053c90       ___addl                    40054c90 f i LIBCMTD:_strgtold_.obj
 0001:00053cd0       ___shl_12                  40054cd0 f i LIBCMTD:_strgtold_.obj
 0001:00053d40       ___shr_12                  40054d40 f i LIBCMTD:_strgtold_.obj
 0001:00053db0       ___STRINGTOLD_L            40054db0 f   LIBCMTD:_strgtold_.obj
 0001:00053e20       __flsbuf                   40054e20 f   LIBCMTD:_flsbuf.obj
 0001:000540e0       __output_l                 400550e0 f   LIBCMTD:output.obj
 0001:00055550       _get_int_arg               40056550 f i LIBCMTD:output.obj
 0001:00055570       _get_int64_arg             40056570 f i LIBCMTD:output.obj
 0001:00055590       _get_short_arg             40056590 f i LIBCMTD:output.obj
 0001:000555b0       __CIatan_pentium4          400565b0 f   LIBCMTD:_atan_pentium4_.obj
 0001:000555c8       __atan_pentium4            400565c8     LIBCMTD:_atan_pentium4_.obj
 0001:000558bc       __fFATN2                   400568bc     LIBCMTD:_87triga_.obj
 0001:0005590c       __rtpiby2                  4005690c     LIBCMTD:_87triga_.obj
 0001:00055950       __cintrindisp2             40056950 f   LIBCMTD:_87cdisp_.obj
 0001:0005598e       __cintrindisp1             4005698e f   LIBCMTD:_87cdisp_.obj
 0001:000559cb       __ctrandisp2               400569cb f   LIBCMTD:_87cdisp_.obj
 0001:00055b5a       __ctrandisp1               40056b5a f   LIBCMTD:_87cdisp_.obj
 0001:00055b8d       __fload                    40056b8d f   LIBCMTD:_87cdisp_.obj
 0001:00055bd0       __validate_param_reuseA    40056bd0 f   LIBCMTD:outputp.obj
 0001:00055e40       __output_p_l               40056e40 f   LIBCMTD:outputp.obj
 0001:00059a50       _get_crtdouble_arg         4005aa50 f i LIBCMTD:outputp.obj
 0001:00059a70       ?_RTC_GetSrcLine@@YAHPAEPA_WKPAH1K@Z 4005aa70 f   LIBCMTD:_pdblkup_.obj
 0001:0005a0c0       __except_handler4          4005b0c0 f   LIBCMTD:chandler4.obj
 0001:0005a2e0       __onexit                   4005b2e0 f   LIBCMTD:onexit.obj
 0001:0005a4b0       _atexit                    4005b4b0 f   LIBCMTD:onexit.obj
 0001:0005a4d0       ___onexitinit              4005b4d0 f   LIBCMTD:onexit.obj
 0001:0005a530       __RTC_Initialize           4005b530 f   LIBCMTD:_initsect_.obj
 0001:0005a560       __RTC_Terminate            4005b560 f   LIBCMTD:_initsect_.obj
 0001:0005a590       __ValidateImageBase        4005b590 f   LIBCMTD:pesect.obj
 0001:0005a5f0       __FindPESection            4005b5f0 f   LIBCMTD:pesect.obj
 0001:0005a670       __IsNonwritableInCurrentImage 4005b670 f   LIBCMTD:pesect.obj
 0001:0005a790       __FF_MSGBANNER             4005b790 f   LIBCMTD:crt0msg.obj
 0001:0005a7e0       __GET_RTERRMSG             4005b7e0 f   LIBCMTD:crt0msg.obj
 0001:0005a830       __NMSG_WRITE               4005b830 f   LIBCMTD:crt0msg.obj
 0001:0005ab70       __malloc_dbg               4005bb70 f   LIBCMTD:dbgheap.obj
 0001:0005aba0       __nh_malloc                4005bba0 f   LIBCMTD:dbgheap.obj
 0001:0005abc0       __nh_malloc_dbg            4005bbc0 f   LIBCMTD:dbgheap.obj
 0001:0005aca0       __heap_alloc               4005bca0 f   LIBCMTD:dbgheap.obj
 0001:0005b080       __heap_alloc_dbg           4005c080 f   LIBCMTD:dbgheap.obj
 0001:0005b0e0       __calloc_dbg_impl          4005c0e0 f   LIBCMTD:dbgheap.obj
 0001:0005b160       __calloc_dbg               4005c160 f   LIBCMTD:dbgheap.obj
 0001:0005b1c0       __recalloc                 4005c1c0 f   LIBCMTD:dbgheap.obj
 0001:0005b1f0       __realloc_dbg              4005c1f0 f   LIBCMTD:dbgheap.obj
 0001:0005b890       __recalloc_dbg             4005c890 f   LIBCMTD:dbgheap.obj
 0001:0005b940       __expand                   4005c940 f   LIBCMTD:dbgheap.obj
 0001:0005b970       __expand_dbg               4005c970 f   LIBCMTD:dbgheap.obj
 0001:0005ba80       __free_nolock              4005ca80 f   LIBCMTD:dbgheap.obj
 0001:0005baa0       __free_dbg                 4005caa0 f   LIBCMTD:dbgheap.obj
 0001:0005bb20       __free_dbg_nolock          4005cb20 f   LIBCMTD:dbgheap.obj
 0001:0005c000       __msize                    4005d000 f   LIBCMTD:dbgheap.obj
 0001:0005c020       __msize_dbg                4005d020 f   LIBCMTD:dbgheap.obj
 0001:0005c210       __CrtSetBreakAlloc         4005d210 f   LIBCMTD:dbgheap.obj
 0001:0005c230       __CrtSetDbgBlockType       4005d230 f   LIBCMTD:dbgheap.obj
 0001:0005c320       __CrtSetAllocHook          4005d320 f   LIBCMTD:dbgheap.obj
 0001:0005c340       __CrtGetAllocHook          4005d340 f   LIBCMTD:dbgheap.obj
 0001:0005c390       __CrtCheckMemory           4005d390 f   LIBCMTD:dbgheap.obj
 0001:0005c7f0       __CrtSetDbgFlag            4005d7f0 f   LIBCMTD:dbgheap.obj
 0001:0005c940       __CrtDoForAllClientObjects 4005d940 f   LIBCMTD:dbgheap.obj
 0001:0005ca60       __CrtIsValidPointer        4005da60 f   LIBCMTD:dbgheap.obj
 0001:0005ca70       __CrtIsValidHeapPointer    4005da70 f   LIBCMTD:dbgheap.obj
 0001:0005cac0       __CrtIsMemoryBlock         4005dac0 f   LIBCMTD:dbgheap.obj
 0001:0005cc30       __CrtReportBlockType       4005dc30 f   LIBCMTD:dbgheap.obj
 0001:0005cc60       __CrtSetDumpClient         4005dc60 f   LIBCMTD:dbgheap.obj
 0001:0005cc80       __CrtGetDumpClient         4005dc80 f   LIBCMTD:dbgheap.obj
 0001:0005cc90       __CrtMemCheckpoint         4005dc90 f   LIBCMTD:dbgheap.obj
 0001:0005ceb0       __CrtMemDifference         4005deb0 f   LIBCMTD:dbgheap.obj
 0001:0005d0d0       __CrtMemDumpAllObjectsSince 4005e0d0 f   LIBCMTD:dbgheap.obj
 0001:0005d5c0       __CrtDumpMemoryLeaks       4005e5c0 f   LIBCMTD:dbgheap.obj
 0001:0005d640       __CrtMemDumpStatistics     4005e640 f   LIBCMTD:dbgheap.obj
 0001:0005d750       __aligned_malloc           4005e750 f   LIBCMTD:dbgheap.obj
 0001:0005d770       __aligned_malloc_dbg       4005e770 f   LIBCMTD:dbgheap.obj
 0001:0005d7a0       __aligned_realloc          4005e7a0 f   LIBCMTD:dbgheap.obj
 0001:0005d7d0       __aligned_recalloc         4005e7d0 f   LIBCMTD:dbgheap.obj
 0001:0005d800       __aligned_realloc_dbg      4005e800 f   LIBCMTD:dbgheap.obj
 0001:0005d830       __aligned_recalloc_dbg     4005e830 f   LIBCMTD:dbgheap.obj
 0001:0005d860       __aligned_offset_malloc    4005e860 f   LIBCMTD:dbgheap.obj
 0001:0005d880       __aligned_offset_malloc_dbg 4005e880 f   LIBCMTD:dbgheap.obj
 0001:0005da40       __aligned_offset_realloc   4005ea40 f   LIBCMTD:dbgheap.obj
 0001:0005da70       __aligned_offset_recalloc  4005ea70 f   LIBCMTD:dbgheap.obj
 0001:0005daa0       __aligned_offset_realloc_dbg 4005eaa0 f   LIBCMTD:dbgheap.obj
 0001:0005dd90       __aligned_offset_recalloc_dbg 4005ed90 f   LIBCMTD:dbgheap.obj
 0001:0005de50       __aligned_free             4005ee50 f   LIBCMTD:dbgheap.obj
 0001:0005de70       __aligned_free_dbg         4005ee70 f   LIBCMTD:dbgheap.obj
 0001:0005df20       __CrtSetDebugFillThreshold 4005ef20 f   LIBCMTD:dbgheap.obj
 0001:0005df40       __CrtSetCheckCount         4005ef40 f   LIBCMTD:dbgheap.obj
 0001:0005df60       __CrtGetCheckCount         4005ef60 f   LIBCMTD:dbgheap.obj
 0001:0005df70       __aligned_msize            4005ef70 f   LIBCMTD:dbgheap.obj
 0001:0005df90       __aligned_msize_dbg        4005ef90 f   LIBCMTD:dbgheap.obj
 0001:0005e0a0       __mtinitlocks              4005f0a0 f   LIBCMTD:mlock.obj
 0001:0005e130       __mtdeletelocks            4005f130 f   LIBCMTD:mlock.obj
 0001:0005e1f0       __mtinitlocknum            4005f1f0 f   LIBCMTD:mlock.obj
 0001:0005e340       __lock                     4005f340 f   LIBCMTD:mlock.obj
 0001:0005e380       __unlock                   4005f380 f   LIBCMTD:mlock.obj
 0001:0005e3a0       __lockerr_exit             4005f3a0 f   LIBCMTD:mlock.obj
 0001:0005e3c0       __initp_eh_hooks           4005f3c0 f   LIBCMTD:hooks.obj
 0001:0005e3e0       ?terminate@@YAXXZ          4005f3e0 f   LIBCMTD:hooks.obj
 0001:0005e460       ?unexpected@@YAXXZ         4005f460 f   LIBCMTD:hooks.obj
 0001:0005e490       ?_inconsistency@@YAXXZ     4005f490 f   LIBCMTD:hooks.obj
 0001:0005e520       __initp_misc_winsig        4005f520 f   LIBCMTD:winsig.obj
 0001:0005e550       _signal                    4005f550 f   LIBCMTD:winsig.obj
 0001:0005e9f0       _raise                     4005f9f0 f   LIBCMTD:winsig.obj
 0001:0005ed60       ___get_sigabrt             4005fd60 f   LIBCMTD:winsig.obj
 0001:0005ed80       ___fpecode                 4005fd80 f   LIBCMTD:winsig.obj
 0001:0005ed90       ___pxcptinfoptrs           4005fd90 f   LIBCMTD:winsig.obj
 0001:0005eda0       __initp_misc_rand_s        4005fda0 f   LIBCMTD:rand_s.obj
 0001:0005edb0       _rand_s                    4005fdb0 f   LIBCMTD:rand_s.obj
 0001:0005efd0       ___getlocaleinfo           4005ffd0 f   LIBCMTD:inithelp.obj
 0001:0005f2b0       __initp_misc_purevirt      400602b0 f   LIBCMTD:inithelp.obj
 0001:0005f2c0       __initp_heap_handler       400602c0 f   LIBCMTD:handler.obj
 0001:0005f2d0       ?_set_new_handler@@YAP6AHI@ZP6AHI@Z@Z 400602d0 f   LIBCMTD:handler.obj
 0001:0005f310       ?_set_new_handler@@YAP6AHI@ZH@Z 40060310 f   LIBCMTD:handler.obj
 0001:0005f350       ?_query_new_handler@@YAP6AHI@ZXZ 40060350 f   LIBCMTD:handler.obj
 0001:0005f370       __callnewh                 40060370 f   LIBCMTD:handler.obj
 0001:0005f3b0       __ioinit                   400603b0 f   LIBCMTD:ioinit.obj
 0001:0005f7c0       __ioterm                   400607c0 f   LIBCMTD:ioinit.obj
 0001:0005f860       __setenvp                  40060860 f   LIBCMTD:stdenvp.obj
 0001:0005fa00       __setargv                  40060a00 f   LIBCMTD:stdargv.obj
 0001:0005fb20       __set_pgmptr               40060b20 f i LIBCMTD:stdargv.obj
 0001:0005fe90       ___crtGetEnvironmentStringsA 40060e90 f   LIBCMTD:a_env.obj
 0001:0005ff90       __heap_init                40060f90 f   LIBCMTD:heapinit.obj
 0001:0005ffd0       __heap_term                40060fd0 f   LIBCMTD:heapinit.obj
 0001:0005fff0       __get_heap_handle          40060ff0 f   LIBCMTD:heapinit.obj
 0001:00060030       ___security_init_cookie    40061030 f   LIBCMTD:gs_support.obj
 0001:00060110       ___CppXcptFilter           40061110 f   LIBCMTD:winxfltr.obj
 0001:00060140       __XcptFilter               40061140 f   LIBCMTD:winxfltr.obj
 0001:000603a0       _DllMain@12                400613a0 f   LIBCMTD:dllmain.obj
 0001:000603b0       __CrtDefaultAllocHook      400613b0 f   LIBCMTD:dbghook.obj
 0001:000603c0       __crt_debugger_hook        400613c0 f   LIBCMTD:dbghook.obj
 0001:000603e0       __CrtSetReportHook2        400613e0 f   LIBCMTD:dbgrpt.obj
 0001:00060710       __CrtDbgReport             40061710 f   LIBCMTD:dbgrpt.obj
 0001:00060750       __CrtDbgReportV            40061750 f i LIBCMTD:dbgrpt.obj
 0001:00060780       ___crtMessageWindowA       40061780 f   LIBCMTD:dbgrpt.obj
 0001:00060b80       ?_JumpToContinuation@@YGXPAXPAUEHRegistrationNode@@@Z 40061b80 f   LIBCMTD:_trnsctrl_.obj
 0001:00060bc0       ?_CallMemberFunction0@@YGXPAX0@Z 40061bc0 f   LIBCMTD:_trnsctrl_.obj
 0001:00060bd0       ?_CallMemberFunction1@@YGXPAX00@Z 40061bd0 f   LIBCMTD:_trnsctrl_.obj
 0001:00060be0       ?_CallMemberFunction2@@YGXPAX00H@Z 40061be0 f   LIBCMTD:_trnsctrl_.obj
 0001:00060bf0       ?_UnwindNestedFrames@@YGXPAUEHRegistrationNode@@PAUEHExceptionRecord@@@Z 40061bf0 f   LIBCMTD:_trnsctrl_.obj
 0001:00060c50       ___CxxFrameHandler         40061c50 f   LIBCMTD:_trnsctrl_.obj
 0001:00060c90       ___CxxFrameHandler3        40061c90 f   LIBCMTD:_trnsctrl_.obj
 0001:00060cd0       ___CxxFrameHandler2        40061cd0 f   LIBCMTD:_trnsctrl_.obj
 0001:00060d10       ___CxxLongjmpUnwind@4      40061d10 f   LIBCMTD:_trnsctrl_.obj
 0001:00060d40       ?_CallCatchBlock2@@YAPAXPAUEHRegistrationNode@@PBU_s_FuncInfo@@PAXHK@Z 40061d40 f   LIBCMTD:_trnsctrl_.obj
 0001:00060e00       ?_CallSETranslator@@YAHPAUEHExceptionRecord@@PAUEHRegistrationNode@@PAX2PBU_s_FuncInfo@@H1@Z 40061e00 f   LIBCMTD:_trnsctrl_.obj
 0001:00060fa0       ?_GetRangeOfTrysToCheck@@YAPBU_s_TryBlockMapEntry@@PBU_s_FuncInfo@@HHPAI1@Z 40061fa0 f   LIBCMTD:_trnsctrl_.obj
 0001:00061020       __CreateFrameInfo          40062020 f   LIBCMTD:_trnsctrl_.obj
 0001:00061050       __IsExceptionObjectToBeDestroyed 40062050 f   LIBCMTD:_trnsctrl_.obj
 0001:00061080       __FindAndUnlinkFrame       40062080 f   LIBCMTD:_trnsctrl_.obj
 0001:000610e0       __allmul                   400620e0 f   LIBCMTD:llmul.obj
 0001:00061120       __aullrem                  40062120 f   LIBCMTD:ullrem.obj
 0001:000611a0       __aulldiv                  400621a0 f   LIBCMTD:ulldiv.obj
 0001:00061210       __controlfp_s              40062210 f   LIBCMTD:_contrlfp_.obj
 0001:000612f0       __isalpha_l                400622f0 f i LIBCMTD:_ctype.obj
 0001:00061380       _isalpha                   40062380 f i LIBCMTD:_ctype.obj
 0001:000613c0       __isupper_l                400623c0 f i LIBCMTD:_ctype.obj
 0001:00061440       _isupper                   40062440 f i LIBCMTD:_ctype.obj
 0001:00061470       __islower_l                40062470 f i LIBCMTD:_ctype.obj
 0001:000614f0       _islower                   400624f0 f i LIBCMTD:_ctype.obj
 0001:00061520       __isdigit_l                40062520 f i LIBCMTD:_ctype.obj
 0001:000615a0       _isdigit                   400625a0 f i LIBCMTD:_ctype.obj
 0001:000615d0       __isxdigit_l               400625d0 f i LIBCMTD:_ctype.obj
 0001:00061660       _isxdigit                  40062660 f i LIBCMTD:_ctype.obj
 0001:000616a0       __isspace_l                400626a0 f i LIBCMTD:_ctype.obj
 0001:00061720       _isspace                   40062720 f i LIBCMTD:_ctype.obj
 0001:00061750       __ispunct_l                40062750 f i LIBCMTD:_ctype.obj
 0001:000617d0       _ispunct                   400627d0 f i LIBCMTD:_ctype.obj
 0001:00061800       __isalnum_l                40062800 f i LIBCMTD:_ctype.obj
 0001:00061890       _isalnum                   40062890 f i LIBCMTD:_ctype.obj
 0001:000618d0       __isprint_l                400628d0 f i LIBCMTD:_ctype.obj
 0001:00061960       _isprint                   40062960 f i LIBCMTD:_ctype.obj
 0001:000619a0       __isgraph_l                400629a0 f i LIBCMTD:_ctype.obj
 0001:00061a30       _isgraph                   40062a30 f i LIBCMTD:_ctype.obj
 0001:00061a70       __iscntrl_l                40062a70 f i LIBCMTD:_ctype.obj
 0001:00061af0       _iscntrl                   40062af0 f i LIBCMTD:_ctype.obj
 0001:00061b20       ___isascii                 40062b20 f i LIBCMTD:_ctype.obj
 0001:00061b40       ___toascii                 40062b40 f i LIBCMTD:_ctype.obj
 0001:00061b50       __iscsymf_l                40062b50 f i LIBCMTD:_ctype.obj
 0001:00061b90       ___iscsymf                 40062b90 f i LIBCMTD:_ctype.obj
 0001:00061bd0       __iscsym_l                 40062bd0 f i LIBCMTD:_ctype.obj
 0001:00061c10       ___iscsym                  40062c10 f i LIBCMTD:_ctype.obj
 0001:00061c50       __atodbl_l                 40062c50 f   LIBCMTD:atodbl.obj
 0001:00061d60       __atodbl                   40062d60 f   LIBCMTD:atodbl.obj
 0001:00061d80       __atoldbl_l                40062d80 f   LIBCMTD:atodbl.obj
 0001:00061e90       __atoldbl                  40062e90 f   LIBCMTD:atodbl.obj
 0001:00061eb0       __atoflt_l                 40062eb0 f   LIBCMTD:atodbl.obj
 0001:00061fc0       __atoflt                   40062fc0 f   LIBCMTD:atodbl.obj
 0001:00061fe0       __fptostr                  40062fe0 f   LIBCMTD:_fptostr.obj
 0001:00062290       __fltout2                  40063290 f   LIBCMTD:_cfout_.obj
 0001:00062340       ___dtold                   40063340 f   LIBCMTD:_cfout_.obj
 0001:000624a0       __set_output_format        400634a0 f   LIBCMTD:outputformat.obj
 0001:00062520       __get_output_format        40063520 f   LIBCMTD:outputformat.obj
 0001:00062530       _strcpy_s                  40063530 f   LIBCMTD:strcpy_s.obj
 0001:00062810       __allrem                   40063810 f   LIBCMTD:llrem.obj
 0001:000628d0       __alldiv                   400638d0 f   LIBCMTD:lldiv.obj
 0001:00062980       __allshl                   40063980 f   LIBCMTD:llshl.obj
 0001:000629a0       __aullshr                  400639a0 f   LIBCMTD:ullshr.obj
 0001:000629c0       _strrchr                   400639c0 f   LIBCMTD:strrchr.obj
 0001:000629f0       __fptrap                   400639f0 f   LIBCMTD:crt0fp.obj
 0001:00062a10       _malloc                    40063a10 f   LIBCMTD:dbgmalloc.obj
 0001:00062a40       _free                      40063a40 f   LIBCMTD:dbgfree.obj
 0001:00062a60       __iswctype_l               40063a60 f   LIBCMTD:iswctype.obj
 0001:00062a80       _iswctype                  40063a80 f   LIBCMTD:iswctype.obj
 0001:00062ae0       _is_wctype                 40063ae0 f   LIBCMTD:iswctype.obj
 0001:00062b00       ___crtGetStringTypeA       40063b00 f   LIBCMTD:a_str.obj
 0001:00062c70       ___init_time               40063c70 f   LIBCMTD:inittime.obj
 0001:000639a0       ___free_lc_time            400649a0 f   LIBCMTD:inittime.obj
 0001:00064010       ___init_numeric            40065010 f   LIBCMTD:initnum.obj
 0001:000643c0       ___free_lconv_num          400653c0 f   LIBCMTD:initnum.obj
 0001:00064470       ___init_monetary           40065470 f   LIBCMTD:initmon.obj
 0001:00064a60       ___free_lconv_mon          40065a60 f   LIBCMTD:initmon.obj
 0001:00064c10       _localeconv                40065c10 f   LIBCMTD:lconv.obj
 0001:00064c60       ___pwctype_func            40065c60 f   LIBCMTD:ctype.obj
 0001:00064c70       ___pctype_func             40065c70 f   LIBCMTD:ctype.obj
 0001:00064cc0       ___init_ctype              40065cc0 f   LIBCMTD:initctyp.obj
 0001:00065270       ____mb_cur_max_func        40066270 f   LIBCMTD:initctyp.obj
 0001:000652c0       ____mb_cur_max_l_func      400662c0 f   LIBCMTD:initctyp.obj
 0001:000652f0       ____lc_codepage_func       400662f0 f   LIBCMTD:initctyp.obj
 0001:00065340       ____lc_collate_cp_func     40066340 f   LIBCMTD:initctyp.obj
 0001:00065390       ____lc_handle_func         40066390 f   LIBCMTD:initctyp.obj
 0001:000653e0       ___init_collate            400663e0 f   LIBCMTD:initcoll.obj
 0001:000653f0       _strncpy_s                 400663f0 f   LIBCMTD:strncpy_s.obj
 0001:000657e0       _strcspn                   400667e0 f   LIBCMTD:strcspn.obj
 0001:00065830       _strncmp                   40066830 f   LIBCMTD:strncmp.obj
 0001:000659b0       _strpbrk                   400669b0 f   LIBCMTD:strpbrk.obj
 0001:000659f0       _memcmp                    400669f0 f   LIBCMTD:memcmp.obj
 0001:00066460       _strcat_s                  40067460 f   LIBCMTD:strcat_s.obj
 0001:00066840       ___get_qualified_locale    40067840 f   LIBCMTD:getqloc.obj
 0001:000676a0       __87except                 400686a0 f   LIBCMTD:_87except_.obj
 0001:00067850       __matherr                  40068850 f   LIBCMTD:_matherr_.obj
 0001:00067860       __frnd                     40068860 f   LIBCMTD:_frnd_.obj
 0001:00067880       __handle_qnan1             40068880 f   LIBCMTD:_fpexcept_.obj
 0001:000678e0       __handle_qnan2             400688e0 f   LIBCMTD:_fpexcept_.obj
 0001:00067950       __except1                  40068950 f   LIBCMTD:_fpexcept_.obj
 0001:00067a50       __except2                  40068a50 f   LIBCMTD:_fpexcept_.obj
 0001:00067b60       __raise_exc_ex             40068b60 f   LIBCMTD:_fpexcept_.obj
 0001:00068090       __raise_exc                40069090 f   LIBCMTD:_fpexcept_.obj
 0001:000680c0       __raise_excf               400690c0 f   LIBCMTD:_fpexcept_.obj
 0001:000680f0       __handle_exc               400690f0 f   LIBCMTD:_fpexcept_.obj
 0001:00068400       __umatherr                 40069400 f   LIBCMTD:_fpexcept_.obj
 0001:000684a0       __set_errno_from_matherr   400694a0 f   LIBCMTD:_fpexcept_.obj
 0001:00068530       __errcode                  40069530 f   LIBCMTD:_fpexcept_.obj
 0001:000685a0       __set_exp                  400695a0 f   LIBCMTD:_util_.obj
 0001:000685e0       __get_exp                  400695e0 f   LIBCMTD:_util_.obj
 0001:00068610       __add_exp                  40069610 f   LIBCMTD:_util_.obj
 0001:00068650       __set_bexp                 40069650 f   LIBCMTD:_util_.obj
 0001:00068680       __sptype                   40069680 f   LIBCMTD:_util_.obj
 0001:00068700       __decomp                   40069700 f   LIBCMTD:_util_.obj
 0001:00068830       __statfp                   40069830 f   LIBCMTD:_fpctrl_.obj
 0001:00068850       __clrfp                    40069850 f   LIBCMTD:_fpctrl_.obj
 0001:00068870       __ctrlfp                   40069870 f   LIBCMTD:_fpctrl_.obj
 0001:000688a0       __set_statfp               400698a0 f   LIBCMTD:_fpctrl_.obj
 0001:00068910       ___get_fpsr_sse2           40069910 f   LIBCMTD:_fpctrl_.obj
 0001:00068940       ___set_fpsr_sse2           40069940 f   LIBCMTD:_fpctrl_.obj
 0001:00068a20       ___fclrf_sse2              40069a20 f   LIBCMTD:_fpctrl_.obj
 0001:00068a40       ___statfp_sse2             40069a40 f   LIBCMTD:_fpctrl_.obj
 0001:00068a70       ___clrfp_sse2              40069a70 f   LIBCMTD:_fpctrl_.obj
 0001:00068ab0       ___ctrlfp_sse2             40069ab0 f   LIBCMTD:_fpctrl_.obj
 0001:00068b10       ___set_statfp_sse2         40069b10 f   LIBCMTD:_fpctrl_.obj
 0001:00068b40       __ld12tod                  40069b40 f   LIBCMTD:_intrncvt_.obj
 0001:00068b60       __ld12cvt                  40069b60 f i LIBCMTD:_intrncvt_.obj
 0001:00068dc0       __RoundMan                 40069dc0 f i LIBCMTD:_intrncvt_.obj
 0001:00068ea0       __ZeroTail                 40069ea0 f i LIBCMTD:_intrncvt_.obj
 0001:00068f30       __IncMan                   40069f30 f i LIBCMTD:_intrncvt_.obj
 0001:00068fe0       __CopyMan                  40069fe0 f i LIBCMTD:_intrncvt_.obj
 0001:00069030       __FillZeroMan              4006a030 f i LIBCMTD:_intrncvt_.obj
 0001:00069070       __IsZeroMan                4006a070 f i LIBCMTD:_intrncvt_.obj
 0001:000690b0       __ShrMan                   4006a0b0 f i LIBCMTD:_intrncvt_.obj
 0001:000691a0       __ld12tof                  4006a1a0 f   LIBCMTD:_intrncvt_.obj
 0001:000691c0       __ld12told                 4006a1c0 f   LIBCMTD:_intrncvt_.obj
 0001:00069290       __CrtDbgBreak              4006a290 f   LIBCMTD:dbgrptt.obj
 0001:000692a0       __CrtSetReportMode         4006a2a0 f   LIBCMTD:dbgrptt.obj
 0001:000693e0       __CrtSetReportFile         4006a3e0 f   LIBCMTD:dbgrptt.obj
 0001:000694e0       __CrtSetReportHook         4006a4e0 f   LIBCMTD:dbgrptt.obj
 0001:00069500       __CrtGetReportHook         4006a500 f   LIBCMTD:dbgrptt.obj
 0001:00069510       __VCrtDbgReportA           4006a510 f   LIBCMTD:dbgrptt.obj
 0001:00069d40       __VCrtDbgReportW           4006ad40 f   LIBCMTD:dbgrptt.obj
 0001:0006a670       ___crtMessageBoxW          4006b670 f   LIBCMTD:crtmboxw.obj
 0001:0006a890       __swprintf                 4006b890 f   LIBCMTD:swprintf.obj
 0001:0006aa90       ___swprintf_l              4006ba90 f   LIBCMTD:swprintf.obj
 0001:0006aac0       _swprintf_s                4006bac0 f   LIBCMTD:swprintf.obj
 0001:0006aaf0       __snwprintf_s              4006baf0 f   LIBCMTD:swprintf.obj
 0001:0006ab20       __swprintf_p               4006bb20 f   LIBCMTD:swprintf.obj
 0001:0006ab50       __swprintf_s_l             4006bb50 f   LIBCMTD:swprintf.obj
 0001:0006ab80       __snwprintf_s_l            4006bb80 f   LIBCMTD:swprintf.obj
 0001:0006abb0       __swprintf_p_l             4006bbb0 f   LIBCMTD:swprintf.obj
 0001:0006abe0       __scwprintf                4006bbe0 f   LIBCMTD:swprintf.obj
 0001:0006ac00       __scwprintf_p              4006bc00 f   LIBCMTD:swprintf.obj
 0001:0006ac20       __scwprintf_l              4006bc20 f   LIBCMTD:swprintf.obj
 0001:0006ac50       __scwprintf_p_l            4006bc50 f   LIBCMTD:swprintf.obj
 0001:0006ac80       _memcpy_s                  4006bc80 f   LIBCMTD:memcpy_s.obj
 0001:0006ae10       _wcslen                    4006be10 f   LIBCMTD:wcslen.obj
 0001:0006ae40       _wcscpy_s                  4006be40 f   LIBCMTD:wcscpy_s.obj
 0001:0006b120       ___mtold12                 4006c120 f   LIBCMTD:_mantold_.obj
 0001:0006b280       ___add_12                  4006c280 f i LIBCMTD:_mantold_.obj
 0001:0006b330       __lseeki64                 4006c330 f   LIBCMTD:lseeki64.obj
 0001:0006b580       __lseeki64_nolock          4006c580 f   LIBCMTD:lseeki64.obj
 0001:0006b670       __write                    4006c670 f   LIBCMTD:write.obj
 0001:0006b8a0       __write_nolock             4006c8a0 f   LIBCMTD:write.obj
 0001:0006c3e0       __getbuf                   4006d3e0 f   LIBCMTD:_getbuf.obj
 0001:0006c4b0       __isatty                   4006d4b0 f   LIBCMTD:isatty.obj
 0001:0006c570       ___iob_func                4006d570 f   LIBCMTD:_file.obj
 0001:0006c580       ___initstdio               4006d580 f   LIBCMTD:_file.obj
 0001:0006c6d0       ___endstdio                4006d6d0 f   LIBCMTD:_file.obj
 0001:0006c700       __lock_file                4006d700 f   LIBCMTD:_file.obj
 0001:0006c760       __lock_file2               4006d760 f   LIBCMTD:_file.obj
 0001:0006c7a0       __unlock_file              4006d7a0 f   LIBCMTD:_file.obj
 0001:0006c800       __unlock_file2             4006d800 f   LIBCMTD:_file.obj
 0001:0006c840       __fileno                   4006d840 f   LIBCMTD:fileno.obj
 0001:0006c8c0       _printf                    4006d8c0 f   LIBCMTD:printf.obj
 0001:0006ca00       __printf_l                 4006da00 f   LIBCMTD:printf.obj
 0001:0006ca30       __printf_s_l               4006da30 f   LIBCMTD:printf.obj
 0001:0006ca60       _printf_s                  4006da60 f   LIBCMTD:printf.obj
 0001:0006ca90       __printf_p_l               4006da90 f   LIBCMTD:printf.obj
 0001:0006cac0       __printf_p                 4006dac0 f   LIBCMTD:printf.obj
 0001:0006caf0       __set_printf_count_output  4006daf0 f   LIBCMTD:printf.obj
 0001:0006cb40       __get_printf_count_output  4006db40 f   LIBCMTD:printf.obj
 0001:0006cb60       __wctomb_s_l               4006db60 f   LIBCMTD:wctomb.obj
 0001:0006ce60       _wctomb_s                  4006de60 f   LIBCMTD:wctomb.obj
 0001:0006ce90       __wctomb_l                 4006de90 f   LIBCMTD:wctomb.obj
 0001:0006cf10       _wctomb                    4006df10 f   LIBCMTD:wctomb.obj
 0001:0006cf60       __output_s_l               4006df60 f   LIBCMTD:outputs.obj
 0001:0006e530       __wmakepath_s              4006f530 f   LIBCMTD:wmakepath_s.obj
 0001:0006e8e0       __wsplitpath_s             4006f8e0 f   LIBCMTD:wsplitpath_s.obj
 0001:0006ef10       __local_unwind4            4006ff10 f   LIBCMTD:exsup4.obj
 0001:0006efe6       __seh_longjmp_unwind4@4    4006ffe6 f   LIBCMTD:exsup4.obj
 0001:0006f002       @_EH4_CallFilterFunc@8     40070002 f   LIBCMTD:exsup4.obj
 0001:0006f019       @_EH4_TransferToHandler@8  40070019 f   LIBCMTD:exsup4.obj
 0001:0006f032       @_EH4_GlobalUnwind2@8      40070032 f   LIBCMTD:exsup4.obj
 0001:0006f04b       @_EH4_LocalUnwind@16       4007004b f   LIBCMTD:exsup4.obj
 0001:0006f070       __set_error_mode           40070070 f   LIBCMTD:errmode.obj
 0001:0006f130       ___set_app_type            40070130 f   LIBCMTD:errmode.obj
 0001:0006f140       _wcscat_s                  40070140 f   LIBCMTD:wcscat_s.obj
 0001:0006f530       _wcsncpy_s                 40070530 f   LIBCMTD:wcsncpy_s.obj
 0001:0006f940       __malloc_base              40070940 f   LIBCMTD:malloc.obj
 0001:0006f9d0       __heap_alloc_base          400709d0 f i LIBCMTD:malloc.obj
 0001:0006fa30       __expand_base              40070a30 f   LIBCMTD:expand.obj
 0001:0006fb90       __realloc_base             40070b90 f   LIBCMTD:realloc.obj
 0001:0006fc90       __free_base                40070c90 f   LIBCMTD:free.obj
 0001:0006fce0       __heapchk                  40070ce0 f   LIBCMTD:heapchk.obj
 0001:0006fd10       __heapset                  40070d10 f   LIBCMTD:heapchk.obj
 0001:0006fd20       _sprintf                   40070d20 f   LIBCMTD:sprintf.obj
 0001:0006fec0       __sprintf_l                40070ec0 f   LIBCMTD:sprintf.obj
 0001:0006fef0       _sprintf_s                 40070ef0 f   LIBCMTD:sprintf.obj
 0001:0006ff20       __sprintf_s_l              40070f20 f   LIBCMTD:sprintf.obj
 0001:0006ff50       __snprintf_s               40070f50 f   LIBCMTD:sprintf.obj
 0001:0006ff80       __snprintf_s_l             40070f80 f   LIBCMTD:sprintf.obj
 0001:0006ffb0       __sprintf_p                40070fb0 f   LIBCMTD:sprintf.obj
 0001:0006ffe0       __sprintf_p_l              40070fe0 f   LIBCMTD:sprintf.obj
 0001:00070010       __scprintf                 40071010 f   LIBCMTD:sprintf.obj
 0001:00070030       __scprintf_p               40071030 f   LIBCMTD:sprintf.obj
 0001:00070050       __scprintf_l               40071050 f   LIBCMTD:sprintf.obj
 0001:00070080       __scprintf_p_l             40071080 f   LIBCMTD:sprintf.obj
 0001:000700b0       _abort                     400710b0 f   LIBCMTD:abort.obj
 0001:00070110       __set_abort_behavior       40071110 f   LIBCMTD:abort.obj
 0001:00070140       ___crtGetLocaleInfoA       40071140 f   LIBCMTD:a_loc.obj
 0001:000702a0       __ismbbkalnum_l            400712a0 f   LIBCMTD:ismbbyte.obj
 0001:000702c0       __ismbbkalnum              400712c0 f   LIBCMTD:ismbbyte.obj
 0001:000702e0       __ismbbkprint_l            400712e0 f   LIBCMTD:ismbbyte.obj
 0001:00070300       __ismbbkprint              40071300 f   LIBCMTD:ismbbyte.obj
 0001:00070320       __ismbbkpunct_l            40071320 f   LIBCMTD:ismbbyte.obj
 0001:00070340       __ismbbkpunct              40071340 f   LIBCMTD:ismbbyte.obj
 0001:00070360       __ismbbalnum_l             40071360 f   LIBCMTD:ismbbyte.obj
 0001:00070380       __ismbbalnum               40071380 f   LIBCMTD:ismbbyte.obj
 0001:000703a0       __ismbbalpha_l             400713a0 f   LIBCMTD:ismbbyte.obj
 0001:000703c0       __ismbbalpha               400713c0 f   LIBCMTD:ismbbyte.obj
 0001:000703e0       __ismbbgraph_l             400713e0 f   LIBCMTD:ismbbyte.obj
 0001:00070400       __ismbbgraph               40071400 f   LIBCMTD:ismbbyte.obj
 0001:00070420       __ismbbprint_l             40071420 f   LIBCMTD:ismbbyte.obj
 0001:00070440       __ismbbprint               40071440 f   LIBCMTD:ismbbyte.obj
 0001:00070460       __ismbbpunct_l             40071460 f   LIBCMTD:ismbbyte.obj
 0001:00070480       __ismbbpunct               40071480 f   LIBCMTD:ismbbyte.obj
 0001:000704a0       __ismbblead_l              400714a0 f   LIBCMTD:ismbbyte.obj
 0001:000704c0       __ismbblead                400714c0 f   LIBCMTD:ismbbyte.obj
 0001:000704e0       __ismbbtrail_l             400714e0 f   LIBCMTD:ismbbyte.obj
 0001:00070500       __ismbbtrail               40071500 f   LIBCMTD:ismbbyte.obj
 0001:00070520       __ismbbkana_l              40071520 f   LIBCMTD:ismbbyte.obj
 0001:00070590       __ismbbkana                40071590 f   LIBCMTD:ismbbyte.obj
 0001:00070680       ___crtMessageBoxA          40071680 f   LIBCMTD:crtmbox.obj
 0001:000708a0       ___InternalCxxFrameHandler 400718a0 f   LIBCMTD:frame.obj
 0001:00070ea0       ??0bad_exception@std@@QAE@PBD@Z 40071ea0 f i LIBCMTD:frame.obj
 0001:00070ed0       ??1bad_exception@std@@UAE@XZ 40071ed0 f i LIBCMTD:frame.obj
 0001:00070ef0       ??_Gbad_exception@std@@UAEPAXI@Z 40071ef0 f i LIBCMTD:frame.obj
 0001:00070ef0       ??_Ebad_exception@std@@UAEPAXI@Z 40071ef0 f i LIBCMTD:frame.obj
 0001:00070f20       ??0bad_exception@std@@QAE@ABV01@@Z 40071f20 f i LIBCMTD:frame.obj
 0001:000710e0       ___TypeMatch               400720e0 f   LIBCMTD:frame.obj
 0001:00071190       ___FrameUnwindFilter       40072190 f   LIBCMTD:frame.obj
 0001:00071210       ___FrameUnwindToState      40072210 f   LIBCMTD:frame.obj
 0001:00071750       ___BuildCatchObjectHelper  40072750 f   LIBCMTD:frame.obj
 0001:000719c0       ___BuildCatchObject        400729c0 f   LIBCMTD:frame.obj
 0001:00071ad0       ___DestructExceptionObject 40072ad0 f   LIBCMTD:frame.obj
 0001:00071b80       ___AdjustPointer           40072b80 f   LIBCMTD:frame.obj
 0001:00071bd0       ?__uncaught_exception@@YA_NXZ 40072bd0 f   LIBCMTD:frame.obj
 0001:00071bf0       ___CxxExceptionFilter      40072bf0 f   LIBCMTD:frame.obj
 0001:00071df0       ___CxxRegisterExceptionObject 40072df0 f   LIBCMTD:frame.obj
 0001:00071f20       ___CxxDetectRethrow        40072f20 f   LIBCMTD:frame.obj
 0001:00071fb0       ___CxxUnregisterExceptionObject 40072fb0 f   LIBCMTD:frame.obj
 0001:00072130       ___CxxQueryExceptionSize   40073130 f   LIBCMTD:frame.obj
 0001:00072140       ___CxxCallUnwindDtor       40073140 f   LIBCMTD:frame.obj
 0001:000721c0       ___CxxCallUnwindDelDtor    400731c0 f   LIBCMTD:frame.obj
 0001:00072240       ___CxxCallUnwindStdDelDtor 40073240 f   LIBCMTD:frame.obj
 0001:000722c0       ___CxxCallUnwindVecDtor    400732c0 f   LIBCMTD:frame.obj
 0001:000724f0       ?_is_exception_typeof@@YAHABVtype_info@@PAU_EXCEPTION_POINTERS@@@Z 400734f0 f   LIBCMTD:frame.obj
 0001:000725d0       __CallSettingFrame@12      400735d0 f   LIBCMTD:lowhelpr.obj
 0001:000725f7       __NLG_Return               400735f7     LIBCMTD:lowhelpr.obj
 0001:00072620       __statusfp2                40073620 f   LIBCMTD:_ieee87_.obj
 0001:00072660       __statusfp                 40073660 f   LIBCMTD:_ieee87_.obj
 0001:000726b0       __clearfp                  400736b0 f   LIBCMTD:_ieee87_.obj
 0001:00072700       ___control87_2             40073700 f   LIBCMTD:_ieee87_.obj
 0001:000727b0       __controlfp                400737b0 f   LIBCMTD:_ieee87_.obj
 0001:000727d0       __control87                400737d0 f i LIBCMTD:_ieee87_.obj
 0001:00072880       __set_controlfp            40073880 f   LIBCMTD:_ieee87_.obj
 0001:00072910       __fpreset                  40073910 f   LIBCMTD:_ieee87_.obj
 0001:000730d0       _$I10_OUTPUT               400740d0 f   LIBCMTD:_x10fout_.obj
 0001:00073680       __itoa_s                   40074680 f   LIBCMTD:xtoas.obj
 0001:00073a50       __ltoa_s                   40074a50 f   LIBCMTD:xtoas.obj
 0001:00073a90       __ultoa_s                  40074a90 f   LIBCMTD:xtoas.obj
 0001:00073ab0       __i64toa_s                 40074ab0 f   LIBCMTD:xtoas.obj
 0001:00073eb0       __ui64toa_s                40074eb0 f   LIBCMTD:xtoas.obj
 0001:00073ed0       __stricmp_l                40074ed0 f   LIBCMTD:stricmp.obj
 0001:00074080       ___ascii_stricmp           40075080 f   LIBCMTD:stricmp.obj
 0001:00074100       __stricmp                  40075100 f   LIBCMTD:stricmp.obj
 0001:00074210       __strnicmp_l               40075210 f   LIBCMTD:strnicmp.obj
 0001:00074450       __strnicmp                 40075450 f   LIBCMTD:strnicmp.obj
 0001:000745e0       __mbstowcs_l_helper        400755e0 f   LIBCMTD:mbstowcs.obj
 0001:00074930       __mbstowcs_l               40075930 f   LIBCMTD:mbstowcs.obj
 0001:00074950       _mbstowcs                  40075950 f   LIBCMTD:mbstowcs.obj
 0001:000749a0       __mbstowcs_s_l             400759a0 f   LIBCMTD:mbstowcs.obj
 0001:00074d20       _mbstowcs_s                40075d20 f   LIBCMTD:mbstowcs.obj
 0001:00074d50       __vsnprintf_helper         40075d50 f   LIBCMTD:vsnprnc.obj
 0001:00074f40       __vsnprintf_c              40075f40 f   LIBCMTD:vsnprnc.obj
 0001:00074f90       __vsnprintf_c_l            40075f90 f   LIBCMTD:vsnprnc.obj
 0001:00074fe0       __vsprintf_s_l             40075fe0 f   LIBCMTD:vsnprnc.obj
 0001:00075250       _vsprintf_s                40076250 f   LIBCMTD:vsnprnc.obj
 0001:00075280       __vsnprintf_s_l            40076280 f   LIBCMTD:vsnprnc.obj
 0001:00075620       __vsnprintf_s              40076620 f   LIBCMTD:vsnprnc.obj
 0001:00075650       __vsprintf_p               40076650 f   LIBCMTD:vsnprnc.obj
 0001:000756a0       __vsprintf_p_l             400766a0 f   LIBCMTD:vsnprnc.obj
 0001:000756f0       __wcstombs_l_helper        400766f0 f   LIBCMTD:wcstombs.obj
 0001:00075c30       __wcstombs_l               40076c30 f   LIBCMTD:wcstombs.obj
 0001:00075c50       _wcstombs                  40076c50 f   LIBCMTD:wcstombs.obj
 0001:00075c70       __wcstombs_s_l             40076c70 f   LIBCMTD:wcstombs.obj
 0001:00075fa0       _wcstombs_s                40076fa0 f   LIBCMTD:wcstombs.obj
 0001:00075fd0       __vswprintf_helper         40076fd0 f   LIBCMTD:vswprnc.obj
 0001:00076230       __vswprintf_c              40077230 f   LIBCMTD:vswprnc.obj
 0001:00076280       __vswprintf_c_l            40077280 f   LIBCMTD:vswprnc.obj
 0001:000762d0       __vswprintf_s_l            400772d0 f   LIBCMTD:vswprnc.obj
 0001:00076540       _vswprintf_s               40077540 f   LIBCMTD:vswprnc.obj
 0001:00076570       __vsnwprintf_s_l           40077570 f   LIBCMTD:vswprnc.obj
 0001:00076920       __vsnwprintf_s             40077920 f   LIBCMTD:vswprnc.obj
 0001:00076950       __vswprintf_p              40077950 f   LIBCMTD:vswprnc.obj
 0001:000769a0       __vswprintf_p_l            400779a0 f   LIBCMTD:vswprnc.obj
 0001:000769f0       __itow_s                   400779f0 f   LIBCMTD:xtows.obj
 0001:00076dd0       __ltow_s                   40077dd0 f   LIBCMTD:xtows.obj
 0001:00076e10       __ultow_s                  40077e10 f   LIBCMTD:xtows.obj
 0001:00076e30       __i64tow_s                 40077e30 f   LIBCMTD:xtows.obj
 0001:00077250       __ui64tow_s                40078250 f   LIBCMTD:xtows.obj
 0001:00077270       __woutput_l                40078270 f   LIBCMTD:woutput.obj
 0001:00078470       __vswprintf_l              40079470 f   LIBCMTD:vswprint.obj
 0001:00078660       __vswprintf                40079660 f   LIBCMTD:vswprint.obj
 0001:00078680       ___vswprintf_l             40079680 f   LIBCMTD:vswprint.obj
 0001:000786a0       __vscwprintf_helper        400796a0 f   LIBCMTD:vswprint.obj
 0001:00078780       __vscwprintf               40079780 f   LIBCMTD:vswprint.obj
 0001:000787a0       __vscwprintf_l             400797a0 f   LIBCMTD:vswprint.obj
 0001:000787c0       __vscwprintf_p             400797c0 f   LIBCMTD:vswprint.obj
 0001:000787e0       __vscwprintf_p_l           400797e0 f   LIBCMTD:vswprint.obj
 0001:00078800       __alloc_osfhnd             40079800 f   LIBCMTD:osfinfo.obj
 0001:00078ab0       __set_osfhnd               40079ab0 f   LIBCMTD:osfinfo.obj
 0001:00078b80       __free_osfhnd              40079b80 f   LIBCMTD:osfinfo.obj
 0001:00078c70       __get_osfhandle            40079c70 f   LIBCMTD:osfinfo.obj
 0001:00078de0       __open_osfhandle           40079de0 f   LIBCMTD:osfinfo.obj
 0001:00079010       ___lock_fhandle            4007a010 f   LIBCMTD:osfinfo.obj
 0001:00079110       __unlock_fhandle           4007a110 f   LIBCMTD:osfinfo.obj
 0001:00079140       __putwch                   4007a140 f   LIBCMTD:putwch.obj
 0001:000791d0       __putwch_nolock            4007a1d0 f   LIBCMTD:putwch.obj
 0001:00079220       __mbtowc_l                 4007a220 f   LIBCMTD:mbtowc.obj
 0001:00079440       _mbtowc                    4007a440 f   LIBCMTD:mbtowc.obj
 0001:00079460       __fcloseall                4007a460 f   LIBCMTD:closeall.obj
 0001:00079590       _fflush                    4007a590 f   LIBCMTD:fflush.obj
 0001:00079630       __fflush_nolock            4007a630 f   LIBCMTD:fflush.obj
 0001:00079690       __flush                    4007a690 f   LIBCMTD:fflush.obj
 0001:00079750       __flushall                 4007a750 f   LIBCMTD:fflush.obj
 0001:00079920       __stbuf                    4007a920 f   LIBCMTD:_sftbuf.obj
 0001:00079a80       __ftbuf                    4007aa80 f   LIBCMTD:_sftbuf.obj
 0001:00079b10       _vprintf_helper            4007ab10 f   LIBCMTD:vprintf.obj
 0001:00079c30       __vprintf_l                4007ac30 f   LIBCMTD:vprintf.obj
 0001:00079c50       __vprintf_s_l              4007ac50 f   LIBCMTD:vprintf.obj
 0001:00079c70       __vprintf_p_l              4007ac70 f   LIBCMTD:vprintf.obj
 0001:00079c90       _vprintf                   4007ac90 f   LIBCMTD:vprintf.obj
 0001:00079cb0       _vprintf_s                 4007acb0 f   LIBCMTD:vprintf.obj
 0001:00079cd0       __vprintf_p                4007acd0 f   LIBCMTD:vprintf.obj
 0001:00079cf0       __global_unwind2           4007acf0 f   LIBCMTD:exsup.obj
 0001:00079d55       __local_unwind2            4007ad55 f   LIBCMTD:exsup.obj
 0001:00079dd9       __abnormal_termination     4007add9 f   LIBCMTD:exsup.obj
 0001:00079dfc       __NLG_Notify1              4007adfc f   LIBCMTD:exsup.obj
 0001:00079e05       __NLG_Notify               4007ae05 f   LIBCMTD:exsup.obj
 0001:00079e1c       __NLG_Dispatch2            4007ae1c     LIBCMTD:exsup.obj
 0001:00079e1c       __NLG_Dispatch             4007ae1c     LIBCMTD:exsup.obj
 0001:00079e24       __NLG_Call                 4007ae24 f   LIBCMTD:exsup.obj
 0001:00079e26       __NLG_Return2              4007ae26     LIBCMTD:exsup.obj
 0001:00079e30       ?_ValidateRead@@YAHPBXI@Z  4007ae30 f   LIBCMTD:validate.obj
 0001:00079e60       ?_ValidateWrite@@YAHPAXI@Z 4007ae60 f   LIBCMTD:validate.obj
 0001:00079e90       ?_ValidateExecute@@YAHP6GHXZ@Z 4007ae90 f   LIBCMTD:validate.obj
 0001:00079ec0       __CxxThrowException@8      4007aec0 f   LIBCMTD:throw.obj
 0001:00079f20       ?name@type_info@@QBEPBDPAU__type_info_node@@@Z 4007af20 f   LIBCMTD:typinfo.obj
 0001:00079f40       ??1type_info@@UAE@XZ       4007af40 f   LIBCMTD:typinfo.obj
 0001:00079f70       ??_Gtype_info@@UAEPAXI@Z   4007af70 f i LIBCMTD:typinfo.obj
 0001:00079f70       ??_Etype_info@@UAEPAXI@Z   4007af70 f i LIBCMTD:typinfo.obj
 0001:00079fa0       ?_name_internal_method@type_info@@QBEPBDPAU__type_info_node@@@Z 4007afa0 f   LIBCMTD:typinfo.obj
 0001:00079fc0       ?_type_info_dtor_internal_method@type_info@@QAEXXZ 4007afc0 f   LIBCMTD:typinfo.obj
 0001:00079fe0       ??8type_info@@QBE_NABV0@@Z 4007afe0 f   LIBCMTD:typinfo.obj
 0001:0007a010       ??9type_info@@QBE_NABV0@@Z 4007b010 f   LIBCMTD:typinfo.obj
 0001:0007a040       ?before@type_info@@QBEHABV1@@Z 4007b040 f   LIBCMTD:typinfo.obj
 0001:0007a070       ?raw_name@type_info@@QBEPBDXZ 4007b070 f   LIBCMTD:typinfo.obj
 0001:0007a090       ??0type_info@@AAE@ABV0@@Z  4007b090 f   LIBCMTD:typinfo.obj
 0001:0007a0b0       ??4type_info@@AAEAAV0@ABV0@@Z 4007b0b0 f   LIBCMTD:typinfo.obj
 0001:0007a0d0       ??0exception@std@@QAE@XZ   4007b0d0 f   LIBCMTD:stdexcpt.obj
 0001:0007a100       ??_Gexception@std@@UAEPAXI@Z 4007b100 f i LIBCMTD:stdexcpt.obj
 0001:0007a100       ??_Eexception@std@@UAEPAXI@Z 4007b100 f i LIBCMTD:stdexcpt.obj
 0001:0007a130       ??0exception@std@@QAE@ABQBD@Z 4007b130 f   LIBCMTD:stdexcpt.obj
 0001:0007a170       ??0exception@std@@QAE@ABQBDH@Z 4007b170 f   LIBCMTD:stdexcpt.obj
 0001:0007a1a0       ??0exception@std@@QAE@ABV01@@Z 4007b1a0 f   LIBCMTD:stdexcpt.obj
 0001:0007a1e0       ??4exception@std@@QAEAAV01@ABV01@@Z 4007b1e0 f   LIBCMTD:stdexcpt.obj
 0001:0007a230       ??1exception@std@@UAE@XZ   4007b230 f   LIBCMTD:stdexcpt.obj
 0001:0007a250       ?what@exception@std@@UBEPBDXZ 4007b250 f   LIBCMTD:stdexcpt.obj
 0001:0007a280       ?_Copy_str@exception@std@@AAEXPBD@Z 4007b280 f   LIBCMTD:stdexcpt.obj
 0001:0007a2f0       ?_Tidy@exception@std@@AAEXXZ 4007b2f0 f   LIBCMTD:stdexcpt.obj
 0001:0007a330       ??0bad_cast@std@@QAE@PBD@Z 4007b330 f   LIBCMTD:stdexcpt.obj
 0001:0007a360       ??_Gbad_cast@std@@UAEPAXI@Z 4007b360 f i LIBCMTD:stdexcpt.obj
 0001:0007a360       ??_Ebad_cast@std@@UAEPAXI@Z 4007b360 f i LIBCMTD:stdexcpt.obj
 0001:0007a390       ??0bad_cast@std@@QAE@ABV01@@Z 4007b390 f   LIBCMTD:stdexcpt.obj
 0001:0007a3c0       ??1bad_cast@std@@UAE@XZ    4007b3c0 f   LIBCMTD:stdexcpt.obj
 0001:0007a3e0       ??0bad_typeid@std@@QAE@PBD@Z 4007b3e0 f   LIBCMTD:stdexcpt.obj
 0001:0007a410       ??_Gbad_typeid@std@@UAEPAXI@Z 4007b410 f i LIBCMTD:stdexcpt.obj
 0001:0007a410       ??_Ebad_typeid@std@@UAEPAXI@Z 4007b410 f i LIBCMTD:stdexcpt.obj
 0001:0007a440       ??0bad_typeid@std@@QAE@ABV01@@Z 4007b440 f   LIBCMTD:stdexcpt.obj
 0001:0007a470       ??1bad_typeid@std@@UAE@XZ  4007b470 f   LIBCMTD:stdexcpt.obj
 0001:0007a490       ??0__non_rtti_object@std@@QAE@PBD@Z 4007b490 f   LIBCMTD:stdexcpt.obj
 0001:0007a4c0       ??_E__non_rtti_object@std@@UAEPAXI@Z 4007b4c0 f i LIBCMTD:stdexcpt.obj
 0001:0007a4c0       ??_G__non_rtti_object@std@@UAEPAXI@Z 4007b4c0 f i LIBCMTD:stdexcpt.obj
 0001:0007a4f0       ??0__non_rtti_object@std@@QAE@ABV01@@Z 4007b4f0 f   LIBCMTD:stdexcpt.obj
 0001:0007a520       ??1__non_rtti_object@std@@UAE@XZ 4007b520 f   LIBCMTD:stdexcpt.obj
 0001:0007a540       ??3@YAXPAX@Z               4007b540 f   LIBCMTD:dbgdel.obj
 0001:0007a630       ___ascii_strnicmp          4007b630 f   LIBCMTD:_strnicm.obj
 0001:0007a6a0       __woutput_s_l              4007b6a0 f   LIBCMTD:woutputs.obj
 0001:0007b9f0       __validate_param_reuseW    4007c9f0 f   LIBCMTD:woutputp.obj
 0001:0007bc60       __woutput_p_l              4007cc60 f   LIBCMTD:woutputp.obj
 0001:0007f3f0       _fputwc                    400803f0 f   LIBCMTD:fputwc.obj
 0001:0007f4f0       __fputwc_nolock            400804f0 f   LIBCMTD:fputwc.obj
 0001:0007f7e0       _putwc                     400807e0 f   LIBCMTD:fputwc.obj
 0001:0007f800       ___initconout              40080800 f   LIBCMTD:initcon.obj
 0001:0007f830       ___termconout              40080830 f   LIBCMTD:initcon.obj
 0001:0007f860       _fclose                    40080860 f   LIBCMTD:fclose.obj
 0001:0007f970       __fclose_nolock            40080970 f   LIBCMTD:fclose.obj
 0001:0007fa70       __commit                   40080a70 f   LIBCMTD:commit.obj
 0001:0007fc90       ?_Type_info_dtor@type_info@@CAXPAV1@@Z 40080c90 f   LIBCMTD:typname.obj
 0001:0007fda0       ?_Name_base@type_info@@CAPBDPBV1@PAU__type_info_node@@@Z 40080da0 f   LIBCMTD:typname.obj
 0001:0007ff50       ?_Type_info_dtor_internal@type_info@@CAXPAV1@@Z 40080f50 f   LIBCMTD:typname.obj
 0001:00080060       ___unDNameHelper           40081060 f   LIBCMTD:typname.obj
 0001:000800a0       ?_Name_base_internal@type_info@@CAPBDPBV1@PAU__type_info_node@@@Z 400810a0 f   LIBCMTD:typname.obj
 0001:00080260       ___clean_type_info_names_internal 40081260 f   LIBCMTD:typname.obj
 0001:00080320       _wcstol                    40081320 f   LIBCMTD:wcstol.obj
 0001:000806f0       __wcstol_l                 400816f0 f   LIBCMTD:wcstol.obj
 0001:00080710       _wcstoul                   40081710 f   LIBCMTD:wcstol.obj
 0001:00080730       __wcstoul_l                40081730 f   LIBCMTD:wcstol.obj
 0001:00080750       __flswbuf                  40081750 f   LIBCMTD:_flswbuf.obj
 0001:00080a30       __close                    40081a30 f   LIBCMTD:close.obj
 0001:00080c40       __close_nolock             40081c40 f   LIBCMTD:close.obj
 0001:00080d10       __freebuf                  40081d10 f   LIBCMTD:_freebuf.obj
 0001:00080da0       ___unDName                 40081da0 f   LIBCMTD:undname.obj
 0001:00080e80       ?Constructor@_HeapManager@@QAEXP6APAXI@ZP6AXPAX@Z@Z 40081e80 f i LIBCMTD:undname.obj
 0001:00080ec0       ?Destructor@_HeapManager@@QAEXXZ 40081ec0 f i LIBCMTD:undname.obj
 0001:00080f10       ___unDNameEx               40081f10 f   LIBCMTD:undname.obj
 0001:00080ff0       ??0UnDecorator@@QAE@PADPBDHP6APADJ@ZK@Z 40081ff0 f i LIBCMTD:undname.obj
 0001:00081090       ??BUnDecorator@@QAEPADXZ   40082090 f i LIBCMTD:undname.obj
 0001:000812c0       ?dbGetString@DName@@QBEPADXZ 400822c0 f   LIBCMTD:undname.obj
 0001:000812f0       ?getDecoratedName@UnDecorator@@CA?AVDName@@XZ 400822f0 f   LIBCMTD:undname.obj
 0001:00081600       ?getSymbolName@UnDecorator@@CA?AVDName@@XZ 40082600 f i LIBCMTD:undname.obj
 0001:00081680       ?getZName@UnDecorator@@CA?AVDName@@_N0@Z 40082680 f   LIBCMTD:undname.obj
 0001:00081920       ?getOperatorName@UnDecorator@@CA?AVDName@@_NPA_N@Z 40082920 f i LIBCMTD:undname.obj
 0001:00082290       ?getStringEncoding@UnDecorator@@CA?AVDName@@PADH@Z 40083290 f   LIBCMTD:undname.obj
 0001:00082390       ?getScope@UnDecorator@@CA?AVDName@@XZ 40083390 f   LIBCMTD:undname.obj
 0001:00082770       ?getSignedDimension@UnDecorator@@CA?AVDName@@XZ 40083770 f   LIBCMTD:undname.obj
 0001:000827f0       ?getDimension@UnDecorator@@CA?AVDName@@_N@Z 400837f0 f   LIBCMTD:undname.obj
 0001:00082aa0       ?getNumberOfDimensions@UnDecorator@@CAHXZ 40083aa0 f   LIBCMTD:undname.obj
 0001:00082ba0       ?getTemplateName@UnDecorator@@CA?AVDName@@_N@Z 40083ba0 f   LIBCMTD:undname.obj
 0001:00082d60       ?getTemplateArgumentList@UnDecorator@@CA?AVDName@@XZ 40083d60 f   LIBCMTD:undname.obj
 0001:00082fe0       ?getTemplateConstant@UnDecorator@@CA?AVDName@@XZ 40083fe0 f   LIBCMTD:undname.obj
 0001:00083470       ?composeDeclaration@UnDecorator@@CA?AVDName@@ABV2@@Z 40084470 f i LIBCMTD:undname.obj
 0001:00084a70       ?getTypeEncoding@UnDecorator@@CAHXZ 40085a70 f i LIBCMTD:undname.obj
 0001:000854b0       ?getBasedType@UnDecorator@@CA?AVDName@@XZ 400864b0 f   LIBCMTD:undname.obj
 0001:00085570       ?getScopedName@UnDecorator@@CA?AVDName@@XZ 40086570 f   LIBCMTD:undname.obj
 0001:00085690       ?getCallingConvention@UnDecorator@@CA?AVDName@@XZ 40086690 f   LIBCMTD:undname.obj
 0001:00085810       ?getReturnType@UnDecorator@@CA?AVDName@@PAV2@@Z 40086810 f   LIBCMTD:undname.obj
 0001:00085860       ?getDataType@UnDecorator@@CA?AVDName@@PAV2@@Z 40086860 f   LIBCMTD:undname.obj
 0001:00085980       ?getPrimaryDataType@UnDecorator@@CA?AVDName@@ABV2@@Z 40086980 f   LIBCMTD:undname.obj
 0001:00085d20       ?getArgumentTypes@UnDecorator@@CA?AVDName@@XZ 40086d20 f   LIBCMTD:undname.obj
 0001:00085e80       ?getArgumentList@UnDecorator@@CA?AVDName@@XZ 40086e80 f   LIBCMTD:undname.obj
 0001:00085fd0       ?getThrowTypes@UnDecorator@@CA?AVDName@@XZ 40086fd0 f   LIBCMTD:undname.obj
 0001:00086080       ?getBasicDataType@UnDecorator@@CA?AVDName@@ABV2@@Z 40087080 f   LIBCMTD:undname.obj
 0001:00086640       ?getECSUDataType@UnDecorator@@CA?AVDName@@XZ 40087640 f   LIBCMTD:undname.obj
 0001:00086810       ?getECSUName@UnDecorator@@CA?AVDName@@XZ 40087810 f i LIBCMTD:undname.obj
 0001:00086830       ?getEnumType@UnDecorator@@CA?AVDName@@XZ 40087830 f i LIBCMTD:undname.obj
 0001:00086980       ?getFunctionIndirectType@UnDecorator@@CA?AVDName@@ABV2@@Z 40087980 f   LIBCMTD:undname.obj
 0001:00086dc0       ?getPtrRefType@UnDecorator@@CA?AVDName@@ABV2@0PBD@Z 40087dc0 f   LIBCMTD:undname.obj
 0001:00086f20       ?getExtendedDataIndirectType@UnDecorator@@CA?AVDName@@AAPBDAA_NH@Z 40087f20 f   LIBCMTD:undname.obj
 0001:00087140       ?getDataIndirectType@UnDecorator@@CA?AVDName@@ABV2@PBD0H@Z 40088140 f   LIBCMTD:undname.obj
 0001:00087840       ?getPtrRefDataType@UnDecorator@@CA?AVDName@@ABV2@H@Z 40088840 f i LIBCMTD:undname.obj
 0001:00087980       ?getArrayType@UnDecorator@@CA?AVDName@@ABV2@@Z 40088980 f i LIBCMTD:undname.obj
 0001:00087bb0       ?getLexicalFrame@UnDecorator@@CA?AVDName@@XZ 40088bb0 f i LIBCMTD:undname.obj
 0001:00087bf0       ?getThisType@UnDecorator@@CA?AVDName@@XZ 40088bf0 f i LIBCMTD:undname.obj
 0001:00087c30       ?getPointerType@UnDecorator@@CA?AVDName@@ABV2@0@Z 40088c30 f i LIBCMTD:undname.obj
 0001:00087c60       ?getPointerTypeArray@UnDecorator@@CA?AVDName@@ABV2@0@Z 40088c60 f i LIBCMTD:undname.obj
 0001:00087c90       ?getReferenceType@UnDecorator@@CA?AVDName@@ABV2@0PBD@Z 40088c90 f i LIBCMTD:undname.obj
 0001:00087cc0       ?getDisplacement@UnDecorator@@CA?AVDName@@XZ 40088cc0 f i LIBCMTD:undname.obj
 0001:00087ce0       ?getCallIndex@UnDecorator@@CA?AVDName@@XZ 40088ce0 f i LIBCMTD:undname.obj
 0001:00087d00       ?getGuardNumber@UnDecorator@@CA?AVDName@@XZ 40088d00 f i LIBCMTD:undname.obj
 0001:00087d20       ?getVbTableType@UnDecorator@@CA?AVDName@@ABV2@@Z 40088d20 f i LIBCMTD:undname.obj
 0001:00087d40       ?getVCallThunkType@UnDecorator@@CA?AVDName@@XZ 40088d40 f i LIBCMTD:undname.obj
 0001:00087da0       ?getVfTableType@UnDecorator@@CA?AVDName@@ABV2@@Z 40088da0 f i LIBCMTD:undname.obj
 0001:00087f60       ?getStorageConvention@UnDecorator@@CA?AVDName@@XZ 40088f60 f i LIBCMTD:undname.obj
 0001:00087f80       ?getDataIndirectType@UnDecorator@@CA?AVDName@@XZ 40088f80 f i LIBCMTD:undname.obj
 0001:00087fc0       ?getVdispMapType@UnDecorator@@CA?AVDName@@ABV2@@Z 40088fc0 f i LIBCMTD:undname.obj
 0001:00088030       ?getExternalDataType@UnDecorator@@CA?AVDName@@ABV2@@Z 40089030 f i LIBCMTD:undname.obj
 0001:000880c0       ?doMSKeywords@UnDecorator@@SAHXZ 400890c0 f i LIBCMTD:undname.obj
 0001:000880e0       ?doPtr64@UnDecorator@@SAHXZ 400890e0 f i LIBCMTD:undname.obj
 0001:00088100       ?doFunctionReturns@UnDecorator@@SAHXZ 40089100 f i LIBCMTD:undname.obj
 0001:00088120       ?doAllocationModel@UnDecorator@@SAHXZ 40089120 f i LIBCMTD:undname.obj
 0001:00088140       ?doAllocationLanguage@UnDecorator@@SAHXZ 40089140 f i LIBCMTD:undname.obj
 0001:00088160       ?doThisTypes@UnDecorator@@SAHXZ 40089160 f i LIBCMTD:undname.obj
 0001:00088180       ?doAccessSpecifiers@UnDecorator@@SAHXZ 40089180 f i LIBCMTD:undname.obj
 0001:000881a0       ?doThrowTypes@UnDecorator@@SAHXZ 400891a0 f i LIBCMTD:undname.obj
 0001:000881c0       ?doMemberTypes@UnDecorator@@SAHXZ 400891c0 f i LIBCMTD:undname.obj
 0001:000881e0       ?doNameOnly@UnDecorator@@SAHXZ 400891e0 f i LIBCMTD:undname.obj
 0001:00088200       ?doTypeOnly@UnDecorator@@SAHXZ 40089200 f i LIBCMTD:undname.obj
 0001:00088220       ?haveTemplateParameters@UnDecorator@@SAHXZ 40089220 f i LIBCMTD:undname.obj
 0001:00088240       ?doEcsu@UnDecorator@@SAHXZ 40089240 f i LIBCMTD:undname.obj
 0001:00088260       ?doEllipsis@UnDecorator@@SAHXZ 40089260 f i LIBCMTD:undname.obj
 0001:00088280       ?UScore@UnDecorator@@SAPBDW4Tokens@@@Z 40089280 f   LIBCMTD:undname.obj
 0001:000882b0       ?doUnderScore@UnDecorator@@SAHXZ 400892b0 f i LIBCMTD:undname.obj
 0001:000882d0       ??2@YAPAXIAAV_HeapManager@@H@Z 400892d0 f i LIBCMTD:undname.obj
 0001:000882f0       ?getMemory@_HeapManager@@QAEPAXIH@Z 400892f0 f   LIBCMTD:undname.obj
 0001:00088400       ??0Block@_HeapManager@@QAE@XZ 40089400 f i LIBCMTD:undname.obj
 0001:00088420       ??H@YA?AVDName@@DABV0@@Z   40089420 f i LIBCMTD:undname.obj
 0001:00088450       ??H@YA?AVDName@@W4DNameStatus@@ABV0@@Z 40089450 f i LIBCMTD:undname.obj
 0001:00088480       ??H@YA?AVDName@@PBDABV0@@Z 40089480 f i LIBCMTD:undname.obj
 0001:000884b0       ??0DName@@QAE@XZ           400894b0 f i LIBCMTD:undname.obj
 0001:00088570       ??0DName@@QAE@D@Z          40089570 f   LIBCMTD:undname.obj
 0001:00088650       ??0DName@@QAE@ABV0@@Z      40089650 f i LIBCMTD:undname.obj
 0001:00088680       ??0DName@@QAE@PAV0@@Z      40089680 f   LIBCMTD:undname.obj
 0001:000887b0       ??0DName@@QAE@PBD@Z        400897b0 f   LIBCMTD:undname.obj
 0001:000888a0       ??0DName@@QAE@AAPBDD@Z     400898a0 f   LIBCMTD:undname.obj
 0001:00088b60       ?doNoIdentCharCheck@UnDecorator@@SAHXZ 40089b60 f i LIBCMTD:undname.obj
 0001:00088b80       ??0DName@@QAE@_K@Z         40089b80 f   LIBCMTD:undname.obj
 0001:00088cc0       ??0DName@@QAE@_J@Z         40089cc0 f   LIBCMTD:undname.obj
 0001:00088e40       ??0DName@@QAE@W4DNameStatus@@@Z 40089e40 f   LIBCMTD:undname.obj
 0001:00088f60       ?isValid@DName@@QBEHXZ     40089f60 f i LIBCMTD:undname.obj
 0001:00088f90       ?isEmpty@DName@@QBEHXZ     40089f90 f i LIBCMTD:undname.obj
 0001:00088fb0       ?status@DName@@QBE?AW4DNameStatus@@XZ 40089fb0 f i LIBCMTD:undname.obj
 0001:00088fd0       ?setPtrRef@DName@@QAEAAV1@XZ 40089fd0 f i LIBCMTD:undname.obj
 0001:00089000       ?isPtrRef@DName@@QBEHXZ    4008a000 f i LIBCMTD:undname.obj
 0001:00089020       ?isUDC@DName@@QBEHXZ       4008a020 f i LIBCMTD:undname.obj
 0001:00089060       ?setIsUDC@DName@@QAEXXZ    4008a060 f i LIBCMTD:undname.obj
 0001:00089090       ?isUDTThunk@DName@@QBEHXZ  4008a090 f i LIBCMTD:undname.obj
 0001:000890d0       ?setIsArray@DName@@QAEXXZ  4008a0d0 f i LIBCMTD:undname.obj
 0001:000890f0       ?isArray@DName@@QBEHXZ     4008a0f0 f i LIBCMTD:undname.obj
 0001:00089110       ?isNoTE@DName@@QBEHXZ      4008a110 f i LIBCMTD:undname.obj
 0001:00089130       ?setIsNoTE@DName@@QAEXXZ   4008a130 f i LIBCMTD:undname.obj
 0001:00089150       ?isPinPtr@DName@@QBEHXZ    4008a150 f i LIBCMTD:undname.obj
 0001:00089170       ?setIsPinPtr@DName@@QAEXXZ 4008a170 f i LIBCMTD:undname.obj
 0001:00089190       ?isComArray@DName@@QBEHXZ  4008a190 f i LIBCMTD:undname.obj
 0001:000891b0       ?setIsComArray@DName@@QAEXXZ 4008a1b0 f i LIBCMTD:undname.obj
 0001:000891d0       ?isVCallThunk@DName@@QBEHXZ 4008a1d0 f i LIBCMTD:undname.obj
 0001:000891f0       ?setIsVCallThunk@DName@@QAEXXZ 4008a1f0 f i LIBCMTD:undname.obj
 0001:00089210       ?length@DName@@QBEHXZ      4008a210 f i LIBCMTD:undname.obj
 0001:00089240       ?getLastChar@DName@@QBEDXZ 4008a240 f i LIBCMTD:undname.obj
 0001:00089270       ?getString@DName@@QBEPADPADH@Z 4008a270 f i LIBCMTD:undname.obj
 0001:00089300       ?getString@DName@@QBEPADPAD0@Z 4008a300 f i LIBCMTD:undname.obj
 0001:00089340       ??HDName@@QBE?AV0@D@Z      4008a340 f   LIBCMTD:undname.obj
 0001:00089380       ??HDName@@QBE?AV0@PBD@Z    4008a380 f   LIBCMTD:undname.obj
 0001:000893c0       ??HDName@@QBE?AV0@ABV0@@Z  4008a3c0 f   LIBCMTD:undname.obj
 0001:00089400       ??HDName@@QBE?AV0@PAV0@@Z  4008a400 f   LIBCMTD:undname.obj
 0001:00089440       ??HDName@@QBE?AV0@W4DNameStatus@@@Z 4008a440 f   LIBCMTD:undname.obj
 0001:00089480       ?append@DName@@AAEXPAVDNameNode@@@Z 4008a480 f   LIBCMTD:undname.obj
 0001:00089510       ??YDName@@QAEAAV0@D@Z      4008a510 f   LIBCMTD:undname.obj
 0001:000895a0       ??YDName@@QAEAAV0@PBD@Z    4008a5a0 f   LIBCMTD:undname.obj
 0001:00089640       ??YDName@@QAEAAV0@ABV0@@Z  4008a640 f   LIBCMTD:undname.obj
 0001:000896b0       ??YDName@@QAEAAV0@PAV0@@Z  4008a6b0 f   LIBCMTD:undname.obj
 0001:00089770       ??YDName@@QAEAAV0@W4DNameStatus@@@Z 4008a770 f   LIBCMTD:undname.obj
 0001:000897e0       ??_5DName@@QAEAAV0@ABV0@@Z 4008a7e0 f   LIBCMTD:undname.obj
 0001:00089840       ??4DName@@QAEAAV0@D@Z      4008a840 f i LIBCMTD:undname.obj
 0001:00089920       ??4DName@@QAEAAV0@PBD@Z    4008a920 f   LIBCMTD:undname.obj
 0001:00089a00       ??4DName@@QAEAAV0@ABV0@@Z  4008aa00 f   LIBCMTD:undname.obj
 0001:00089a30       ??4DName@@QAEAAV0@PAV0@@Z  4008aa30 f   LIBCMTD:undname.obj
 0001:00089b70       ??4DName@@QAEAAV0@W4DNameStatus@@@Z 4008ab70 f   LIBCMTD:undname.obj
 0001:00089c70       ?doPchar@DName@@AAEXPBDH@Z 4008ac70 f   LIBCMTD:undname.obj
 0001:00089db0       ?isFull@Replicator@@QBEHXZ 4008adb0 f i LIBCMTD:undname.obj
 0001:00089dd0       ??0Replicator@@QAE@XZ      4008add0 f i LIBCMTD:undname.obj
 0001:00089df0       ??YReplicator@@QAEAAV0@ABVDName@@@Z 4008adf0 f   LIBCMTD:undname.obj
 0001:00089e80       ??AReplicator@@QBE?AVDName@@H@Z 4008ae80 f   LIBCMTD:undname.obj
 0001:00089ef0       ??0DNameNode@@IAE@XZ       4008aef0 f   LIBCMTD:undname.obj
 0001:00089f10       ??0charNode@@QAE@D@Z       4008af10 f   LIBCMTD:undname.obj
 0001:00089f40       ?length@charNode@@UBEHXZ   4008af40 f i LIBCMTD:undname.obj
 0001:00089f60       ?getLastChar@charNode@@UBEDXZ 4008af60 f i LIBCMTD:undname.obj
 0001:00089f80       ?getString@charNode@@UBEPADPAD0@Z 4008af80 f i LIBCMTD:undname.obj
 0001:00089fb0       ??0pcharNode@@QAE@PBDH@Z   4008afb0 f   LIBCMTD:undname.obj
 0001:0008a040       ?length@pcharNode@@UBEHXZ  4008b040 f i LIBCMTD:undname.obj
 0001:0008a060       ?getLastChar@pcharNode@@UBEDXZ 4008b060 f i LIBCMTD:undname.obj
 0001:0008a0a0       ?getString@pcharNode@@UBEPADPAD0@Z 4008b0a0 f i LIBCMTD:undname.obj
 0001:0008a0d0       ?getStringHelper@@YAPADPAD00H@Z 4008b0d0 f i LIBCMTD:undname.obj
 0001:0008a110       ??0pDNameNode@@QAE@PAVDName@@@Z 4008b110 f   LIBCMTD:undname.obj
 0001:0008a170       ?length@pDNameNode@@UBEHXZ 4008b170 f i LIBCMTD:undname.obj
 0001:0008a1b0       ?getLastChar@pDNameNode@@UBEDXZ 4008b1b0 f i LIBCMTD:undname.obj
 0001:0008a1e0       ?getString@pDNameNode@@UBEPADPAD0@Z 4008b1e0 f i LIBCMTD:undname.obj
 0001:0008a220       ??0DNameStatusNode@@AAE@W4DNameStatus@@@Z 4008b220 f   LIBCMTD:undname.obj
 0001:0008a270       ?length@DNameStatusNode@@UBEHXZ 4008b270 f i LIBCMTD:undname.obj
 0001:0008a290       ?getLastChar@DNameStatusNode@@UBEDXZ 4008b290 f i LIBCMTD:undname.obj
 0001:0008a2b0       ?getString@DNameStatusNode@@UBEPADPAD0@Z 4008b2b0 f i LIBCMTD:undname.obj
 0001:0008a2f0       ?make@DNameStatusNode@@SAPAV1@W4DNameStatus@@@Z 4008b2f0 f i LIBCMTD:undname.obj
 0001:0008a3a0       ??0pairNode@@QAE@PAVDNameNode@@0@Z 4008b3a0 f   LIBCMTD:undname.obj
 0001:0008a3e0       ?length@pairNode@@UBEHXZ   4008b3e0 f i LIBCMTD:undname.obj
 0001:0008a430       ?getLastChar@pairNode@@UBEDXZ 4008b430 f i LIBCMTD:undname.obj
 0001:0008a480       ?getString@pairNode@@UBEPADPAD0@Z 4008b480 f i LIBCMTD:undname.obj
 0001:0008a5c0       __wchartodigit             4008b5c0 f   LIBCMTD:wchtodig.obj
 0001:0008a8f0       __purecall                 4008b8f0 f   LIBCMTD:purevirt.obj
 0001:0008a930       __set_purecall_handler     4008b930 f   LIBCMTD:purevirt.obj
 0001:0008a970       __get_purecall_handler     4008b970 f   LIBCMTD:purevirt.obj
 0001:0008a984       _WideCharToMultiByte@32    4008b984 f   kernel32:KERNEL32.dll
 0001:0008a98a       _IsDebuggerPresent@0       4008b98a f   kernel32:KERNEL32.dll
 0001:0008a990       _MultiByteToWideChar@24    4008b990 f   kernel32:KERNEL32.dll
 0001:0008a996       _RaiseException@16         4008b996 f   kernel32:KERNEL32.dll
 0001:0008a99c       _lstrlenA@4                4008b99c f   kernel32:KERNEL32.dll
 0001:0008a9a2       _GetProcAddress@8          4008b9a2 f   kernel32:KERNEL32.dll
 0001:0008a9a8       _LoadLibraryW@4            4008b9a8 f   kernel32:KERNEL32.dll
 0001:0008a9ae       _InterlockedIncrement@4    4008b9ae f   kernel32:KERNEL32.dll
 0001:0008a9b4       _InterlockedDecrement@4    4008b9b4 f   kernel32:KERNEL32.dll
 0001:0008a9ba       _DecodePointer@4           4008b9ba f   kernel32:KERNEL32.dll
 0001:0008a9c0       _GetModuleHandleW@4        4008b9c0 f   kernel32:KERNEL32.dll
 0001:0008a9c6       _ExitProcess@4             4008b9c6 f   kernel32:KERNEL32.dll
 0001:0008a9cc       _GetCurrentThreadId@0      4008b9cc f   kernel32:KERNEL32.dll
 0001:0008a9d2       _GetCommandLineA@0         4008b9d2 f   kernel32:KERNEL32.dll
 0001:0008a9d8       _TerminateProcess@8        4008b9d8 f   kernel32:KERNEL32.dll
 0001:0008a9de       _GetCurrentProcess@0       4008b9de f   kernel32:KERNEL32.dll
 0001:0008a9e4       _UnhandledExceptionFilter@4 4008b9e4 f   kernel32:KERNEL32.dll
 0001:0008a9ea       _SetUnhandledExceptionFilter@4 4008b9ea f   kernel32:KERNEL32.dll
 0001:0008a9f0       _IsProcessorFeaturePresent@4 4008b9f0 f   kernel32:KERNEL32.dll
 0001:0008a9f6       _EncodePointer@4           4008b9f6 f   kernel32:KERNEL32.dll
 0001:0008a9fc       _TlsAlloc@0                4008b9fc f   kernel32:KERNEL32.dll
 0001:0008aa02       _TlsGetValue@4             4008ba02 f   kernel32:KERNEL32.dll
 0001:0008aa08       _TlsSetValue@8             4008ba08 f   kernel32:KERNEL32.dll
 0001:0008aa0e       _TlsFree@4                 4008ba0e f   kernel32:KERNEL32.dll
 0001:0008aa14       _SetLastError@4            4008ba14 f   kernel32:KERNEL32.dll
 0001:0008aa1a       _GetLastError@0            4008ba1a f   kernel32:KERNEL32.dll
 0001:0008aa20       _GetCurrentThread@0        4008ba20 f   kernel32:KERNEL32.dll
 0001:0008aa26       _LCMapStringW@24           4008ba26 f   kernel32:KERNEL32.dll
 0001:0008aa2c       _GetACP@0                  4008ba2c f   kernel32:KERNEL32.dll
 0001:0008aa32       _GetOEMCP@0                4008ba32 f   kernel32:KERNEL32.dll
 0001:0008aa38       _GetCPInfo@8               4008ba38 f   kernel32:KERNEL32.dll
 0001:0008aa3e       _IsValidCodePage@4         4008ba3e f   kernel32:KERNEL32.dll
 0001:0008aa44       _GetModuleFileNameW@12     4008ba44 f   kernel32:KERNEL32.dll
 0001:0008aa4a       _HeapFree@12               4008ba4a f   kernel32:KERNEL32.dll
 0001:0008aa50       _HeapAlloc@12              4008ba50 f   kernel32:KERNEL32.dll
 0001:0008aa56       _GetProcessHeap@0          4008ba56 f   kernel32:KERNEL32.dll
 0001:0008aa5c       _VirtualQuery@12           4008ba5c f   kernel32:KERNEL32.dll
 0001:0008aa62       _FreeLibrary@4             4008ba62 f   kernel32:KERNEL32.dll
 0001:0008aa68       _WriteFile@20              4008ba68 f   kernel32:KERNEL32.dll
 0001:0008aa6e       _GetStdHandle@4            4008ba6e f   kernel32:KERNEL32.dll
 0001:0008aa74       _HeapValidate@12           4008ba74 f   kernel32:KERNEL32.dll
 0001:0008aa7a       _IsBadReadPtr@8            4008ba7a f   kernel32:KERNEL32.dll
 0001:0008aa80       _InitializeCriticalSectionAndSpinCount@8 4008ba80 f   kernel32:KERNEL32.dll
 0001:0008aa86       _DeleteCriticalSection@4   4008ba86 f   kernel32:KERNEL32.dll
 0001:0008aa8c       _EnterCriticalSection@4    4008ba8c f   kernel32:KERNEL32.dll
 0001:0008aa92       _LeaveCriticalSection@4    4008ba92 f   kernel32:KERNEL32.dll
 0001:0008aa98       _FatalAppExitA@8           4008ba98 f   kernel32:KERNEL32.dll
 0001:0008aa9e       _SetConsoleCtrlHandler@8   4008ba9e f   kernel32:KERNEL32.dll
 0001:0008aaa4       _InterlockedExchange@8     4008baa4 f   kernel32:KERNEL32.dll
 0001:0008aaaa       _GetLocaleInfoW@16         4008baaa f   kernel32:KERNEL32.dll
 0001:0008aab0       _SetHandleCount@4          4008bab0 f   kernel32:KERNEL32.dll
 0001:0008aab6       _GetFileType@4             4008bab6 f   kernel32:KERNEL32.dll
 0001:0008aabc       _GetStartupInfoW@4         4008babc f   kernel32:KERNEL32.dll
 0001:0008aac2       _GetModuleFileNameA@12     4008bac2 f   kernel32:KERNEL32.dll
 0001:0008aac8       _FreeEnvironmentStringsW@4 4008bac8 f   kernel32:KERNEL32.dll
 0001:0008aace       _GetEnvironmentStringsW@0  4008bace f   kernel32:KERNEL32.dll
 0001:0008aad4       _HeapCreate@12             4008bad4 f   kernel32:KERNEL32.dll
 0001:0008aada       _HeapDestroy@4             4008bada f   kernel32:KERNEL32.dll
 0001:0008aae0       _QueryPerformanceCounter@4 4008bae0 f   kernel32:KERNEL32.dll
 0001:0008aae6       _GetTickCount@0            4008bae6 f   kernel32:KERNEL32.dll
 0001:0008aaec       _GetCurrentProcessId@0     4008baec f   kernel32:KERNEL32.dll
 0001:0008aaf2       _GetSystemTimeAsFileTime@4 4008baf2 f   kernel32:KERNEL32.dll
 0001:0008aaf8       _RtlUnwind@16              4008baf8 f   kernel32:KERNEL32.dll
 0001:0008aafe       _GetStringTypeW@16         4008bafe f   kernel32:KERNEL32.dll
 0001:0008ab04       _GetLocaleInfoA@16         4008bb04 f   kernel32:KERNEL32.dll
 0001:0008ab0a       _IsValidLocale@8           4008bb0a f   kernel32:KERNEL32.dll
 0001:0008ab10       _EnumSystemLocalesA@8      4008bb10 f   kernel32:KERNEL32.dll
 0001:0008ab16       _GetUserDefaultLCID@0      4008bb16 f   kernel32:KERNEL32.dll
 0001:0008ab1c       _OutputDebugStringA@4      4008bb1c f   kernel32:KERNEL32.dll
 0001:0008ab22       _WriteConsoleW@20          4008bb22 f   kernel32:KERNEL32.dll
 0001:0008ab28       _OutputDebugStringW@4      4008bb28 f   kernel32:KERNEL32.dll
 0001:0008ab2e       _SetFilePointer@16         4008bb2e f   kernel32:KERNEL32.dll
 0001:0008ab34       _GetConsoleCP@0            4008bb34 f   kernel32:KERNEL32.dll
 0001:0008ab3a       _GetConsoleMode@8          4008bb3a f   kernel32:KERNEL32.dll
 0001:0008ab40       _HeapReAlloc@16            4008bb40 f   kernel32:KERNEL32.dll
 0001:0008ab46       _HeapSize@12               4008bb46 f   kernel32:KERNEL32.dll
 0001:0008ab4c       _HeapQueryInformation@20   4008bb4c f   kernel32:KERNEL32.dll
 0001:0008ab52       _SetStdHandle@8            4008bb52 f   kernel32:KERNEL32.dll
 0001:0008ab58       _CreateFileW@28            4008bb58 f   kernel32:KERNEL32.dll
 0001:0008ab5e       _CloseHandle@4             4008bb5e f   kernel32:KERNEL32.dll
 0001:0008ab64       _FlushFileBuffers@4        4008bb64 f   kernel32:KERNEL32.dll
 0002:00000000       __imp__WideCharToMultiByte@32 4008c000     kernel32:KERNEL32.dll
 0002:00000004       __imp__IsDebuggerPresent@0 4008c004     kernel32:KERNEL32.dll
 0002:00000008       __imp__MultiByteToWideChar@24 4008c008     kernel32:KERNEL32.dll
 0002:0000000c       __imp__RaiseException@16   4008c00c     kernel32:KERNEL32.dll
 0002:00000010       __imp__lstrlenA@4          4008c010     kernel32:KERNEL32.dll
 0002:00000014       __imp__GetProcAddress@8    4008c014     kernel32:KERNEL32.dll
 0002:00000018       __imp__LoadLibraryW@4      4008c018     kernel32:KERNEL32.dll
 0002:0000001c       __imp__InterlockedIncrement@4 4008c01c     kernel32:KERNEL32.dll
 0002:00000020       __imp__InterlockedDecrement@4 4008c020     kernel32:KERNEL32.dll
 0002:00000024       __imp__DecodePointer@4     4008c024     kernel32:KERNEL32.dll
 0002:00000028       __imp__GetModuleHandleW@4  4008c028     kernel32:KERNEL32.dll
 0002:0000002c       __imp__ExitProcess@4       4008c02c     kernel32:KERNEL32.dll
 0002:00000030       __imp__GetCurrentThreadId@0 4008c030     kernel32:KERNEL32.dll
 0002:00000034       __imp__GetCommandLineA@0   4008c034     kernel32:KERNEL32.dll
 0002:00000038       __imp__TerminateProcess@8  4008c038     kernel32:KERNEL32.dll
 0002:0000003c       __imp__GetCurrentProcess@0 4008c03c     kernel32:KERNEL32.dll
 0002:00000040       __imp__UnhandledExceptionFilter@4 4008c040     kernel32:KERNEL32.dll
 0002:00000044       __imp__SetUnhandledExceptionFilter@4 4008c044     kernel32:KERNEL32.dll
 0002:00000048       __imp__IsProcessorFeaturePresent@4 4008c048     kernel32:KERNEL32.dll
 0002:0000004c       __imp__EncodePointer@4     4008c04c     kernel32:KERNEL32.dll
 0002:00000050       __imp__TlsAlloc@0          4008c050     kernel32:KERNEL32.dll
 0002:00000054       __imp__TlsGetValue@4       4008c054     kernel32:KERNEL32.dll
 0002:00000058       __imp__TlsSetValue@8       4008c058     kernel32:KERNEL32.dll
 0002:0000005c       __imp__TlsFree@4           4008c05c     kernel32:KERNEL32.dll
 0002:00000060       __imp__SetLastError@4      4008c060     kernel32:KERNEL32.dll
 0002:00000064       __imp__GetLastError@0      4008c064     kernel32:KERNEL32.dll
 0002:00000068       __imp__GetCurrentThread@0  4008c068     kernel32:KERNEL32.dll
 0002:0000006c       __imp__LCMapStringW@24     4008c06c     kernel32:KERNEL32.dll
 0002:00000070       __imp__GetACP@0            4008c070     kernel32:KERNEL32.dll
 0002:00000074       __imp__GetOEMCP@0          4008c074     kernel32:KERNEL32.dll
 0002:00000078       __imp__GetCPInfo@8         4008c078     kernel32:KERNEL32.dll
 0002:0000007c       __imp__IsValidCodePage@4   4008c07c     kernel32:KERNEL32.dll
 0002:00000080       __imp__GetModuleFileNameW@12 4008c080     kernel32:KERNEL32.dll
 0002:00000084       __imp__HeapFree@12         4008c084     kernel32:KERNEL32.dll
 0002:00000088       __imp__HeapAlloc@12        4008c088     kernel32:KERNEL32.dll
 0002:0000008c       __imp__GetProcessHeap@0    4008c08c     kernel32:KERNEL32.dll
 0002:00000090       __imp__VirtualQuery@12     4008c090     kernel32:KERNEL32.dll
 0002:00000094       __imp__FreeLibrary@4       4008c094     kernel32:KERNEL32.dll
 0002:00000098       __imp__WriteFile@20        4008c098     kernel32:KERNEL32.dll
 0002:0000009c       __imp__GetStdHandle@4      4008c09c     kernel32:KERNEL32.dll
 0002:000000a0       __imp__HeapValidate@12     4008c0a0     kernel32:KERNEL32.dll
 0002:000000a4       __imp__IsBadReadPtr@8      4008c0a4     kernel32:KERNEL32.dll
 0002:000000a8       __imp__InitializeCriticalSectionAndSpinCount@8 4008c0a8     kernel32:KERNEL32.dll
 0002:000000ac       __imp__DeleteCriticalSection@4 4008c0ac     kernel32:KERNEL32.dll
 0002:000000b0       __imp__EnterCriticalSection@4 4008c0b0     kernel32:KERNEL32.dll
 0002:000000b4       __imp__LeaveCriticalSection@4 4008c0b4     kernel32:KERNEL32.dll
 0002:000000b8       __imp__FatalAppExitA@8     4008c0b8     kernel32:KERNEL32.dll
 0002:000000bc       __imp__SetConsoleCtrlHandler@8 4008c0bc     kernel32:KERNEL32.dll
 0002:000000c0       __imp__InterlockedExchange@8 4008c0c0     kernel32:KERNEL32.dll
 0002:000000c4       __imp__GetLocaleInfoW@16   4008c0c4     kernel32:KERNEL32.dll
 0002:000000c8       __imp__SetHandleCount@4    4008c0c8     kernel32:KERNEL32.dll
 0002:000000cc       __imp__GetFileType@4       4008c0cc     kernel32:KERNEL32.dll
 0002:000000d0       __imp__GetStartupInfoW@4   4008c0d0     kernel32:KERNEL32.dll
 0002:000000d4       __imp__GetModuleFileNameA@12 4008c0d4     kernel32:KERNEL32.dll
 0002:000000d8       __imp__FreeEnvironmentStringsW@4 4008c0d8     kernel32:KERNEL32.dll
 0002:000000dc       __imp__GetEnvironmentStringsW@0 4008c0dc     kernel32:KERNEL32.dll
 0002:000000e0       __imp__HeapCreate@12       4008c0e0     kernel32:KERNEL32.dll
 0002:000000e4       __imp__HeapDestroy@4       4008c0e4     kernel32:KERNEL32.dll
 0002:000000e8       __imp__QueryPerformanceCounter@4 4008c0e8     kernel32:KERNEL32.dll
 0002:000000ec       __imp__GetTickCount@0      4008c0ec     kernel32:KERNEL32.dll
 0002:000000f0       __imp__GetCurrentProcessId@0 4008c0f0     kernel32:KERNEL32.dll
 0002:000000f4       __imp__GetSystemTimeAsFileTime@4 4008c0f4     kernel32:KERNEL32.dll
 0002:000000f8       __imp__RtlUnwind@16        4008c0f8     kernel32:KERNEL32.dll
 0002:000000fc       __imp__GetStringTypeW@16   4008c0fc     kernel32:KERNEL32.dll
 0002:00000100       __imp__GetLocaleInfoA@16   4008c100     kernel32:KERNEL32.dll
 0002:00000104       __imp__IsValidLocale@8     4008c104     kernel32:KERNEL32.dll
 0002:00000108       __imp__EnumSystemLocalesA@8 4008c108     kernel32:KERNEL32.dll
 0002:0000010c       __imp__GetUserDefaultLCID@0 4008c10c     kernel32:KERNEL32.dll
 0002:00000110       __imp__OutputDebugStringA@4 4008c110     kernel32:KERNEL32.dll
 0002:00000114       __imp__WriteConsoleW@20    4008c114     kernel32:KERNEL32.dll
 0002:00000118       __imp__OutputDebugStringW@4 4008c118     kernel32:KERNEL32.dll
 0002:0000011c       __imp__SetFilePointer@16   4008c11c     kernel32:KERNEL32.dll
 0002:00000120       __imp__GetConsoleCP@0      4008c120     kernel32:KERNEL32.dll
 0002:00000124       __imp__GetConsoleMode@8    4008c124     kernel32:KERNEL32.dll
 0002:00000128       __imp__HeapReAlloc@16      4008c128     kernel32:KERNEL32.dll
 0002:0000012c       __imp__HeapSize@12         4008c12c     kernel32:KERNEL32.dll
 0002:00000130       __imp__HeapQueryInformation@20 4008c130     kernel32:KERNEL32.dll
 0002:00000134       __imp__SetStdHandle@8      4008c134     kernel32:KERNEL32.dll
 0002:00000138       __imp__CreateFileW@28      4008c138     kernel32:KERNEL32.dll
 0002:0000013c       __imp__CloseHandle@4       4008c13c     kernel32:KERNEL32.dll
 0002:00000140       __imp__FlushFileBuffers@4  4008c140     kernel32:KERNEL32.dll
 0002:00000144       \177KERNEL32_NULL_THUNK_DATA 4008c144     kernel32:KERNEL32.dll
 0002:00000148       ___xc_a                    4008c148     LIBCMTD:crt0init.obj
 0002:0000014c       ___xc_z                    4008c14c     LIBCMTD:crt0init.obj
 0002:00000150       ___xi_a                    4008c150     LIBCMTD:crt0init.obj
 0002:00000168       ___xi_z                    4008c168     LIBCMTD:crt0init.obj
 0002:0000016c       ___xp_a                    4008c16c     LIBCMTD:crt0init.obj
 0002:0000017c       ___xp_z                    4008c17c     LIBCMTD:crt0init.obj
 0002:00000180       ___xt_a                    4008c180     LIBCMTD:crt0init.obj
 0002:00000184       ___xt_z                    4008c184     LIBCMTD:crt0init.obj
 0002:000001ac       ??_C@_06LLKHDPKL@events?$AA@ 4008c1ac     bg_animation.obj
 0002:000001b4       ??_C@_0N@EHJNOHAA@statechanges?$AA@ 4008c1b4     bg_animation.obj
 0002:000001c4       ??_C@_0BC@LGKLMCNI@canned_animations?$AA@ 4008c1c4     bg_animation.obj
 0002:000001d8       ??_C@_0L@HNGMIHEN@animations?$AA@ 4008c1d8     bg_animation.obj
 0002:000001e4       ??_C@_07MMIKLHCA@defines?$AA@ 4008c1e4     bg_animation.obj
 0002:000001ec       ??_C@_07CMODMDGJ@AISTATE?$AA@ 4008c1ec     bg_animation.obj
 0002:000001f4       ??_C@_0M@KPHDKAHE@GEN_BITFLAG?$AA@ 4008c1f4     bg_animation.obj
 0002:00000200       ??_C@_0O@JKDLABHB@FLAILING_TYPE?$AA@ 4008c200     bg_animation.obj
 0002:00000210       ??_C@_0N@KMEIFE@HEALTH_LEVEL?$AA@ 4008c210     bg_animation.obj
 0002:00000220       ??_C@_0M@NGLGCLLM@PLAYERCLASS?$AA@ 4008c220     bg_animation.obj
 0002:0000022c       ??_C@_08GOFIDABM@CHARGING?$AA@ 4008c22c     bg_animation.obj
 0002:00000238       ??_C@_09GCNACFAF@PARACHUTE?$AA@ 4008c238     bg_animation.obj
 0002:00000244       ??_C@_0L@ILMKFMCE@ENEMY_TEAM?$AA@ 4008c244     bg_animation.obj
 0002:00000250       ??_C@_0P@GHDHBNEG@SHORT_REACTION?$AA@ 4008c250     bg_animation.obj
 0002:00000260       ??_C@_06MOMMJHC@FIRING?$AA@ 4008c260     bg_animation.obj
 0002:00000268       ??_C@_07LEOBIMFP@STUNNED?$AA@ 4008c268     bg_animation.obj
 0002:00000270       ??_C@_09HGGDFBHO@CROUCHING?$AA@ 4008c270     bg_animation.obj
 0002:0000027c       ??_C@_0N@BKJFJGHI@IMPACT_POINT?$AA@ 4008c27c     bg_animation.obj
 0002:0000028c       ??_C@_07PCDLPMLE@LEANING?$AA@ 4008c28c     bg_animation.obj
 0002:00000294       ??_C@_09KIADLDO@UNDERHAND?$AA@ 4008c294     bg_animation.obj
 0002:000002a0       ??_C@_08EDCCCEMB@MOVETYPE?$AA@ 4008c2a0     bg_animation.obj
 0002:000002ac       ??_C@_07IHKNNAIJ@MOUNTED?$AA@ 4008c2ac     bg_animation.obj
 0002:000002b4       ??_C@_0L@IFAAMPME@UNDERWATER?$AA@ 4008c2b4     bg_animation.obj
 0002:000002c0       ??_C@_0N@BFJCEKBK@ENEMY_WEAPON?$AA@ 4008c2c0     bg_animation.obj
 0002:000002d0       ??_C@_0P@JIMGNOCO@ENEMY_POSITION?$AA@ 4008c2d0     bg_animation.obj
 0002:000002e0       ??_C@_07HPPHAKD@WEAPONS?$AA@ 4008c2e0     bg_animation.obj
 0002:000002e8       ??_C@_09FPCBOPNI@COVERTOPS?$AA@ 4008c2e8     bg_animation.obj
 0002:000002f4       ??_C@_08HPCLEOBG@FIELDOPS?$AA@ 4008c2f4     bg_animation.obj
 0002:00000300       ??_C@_08KNMKFDEP@ENGINEER?$AA@ 4008c300     bg_animation.obj
 0002:0000030c       ??_C@_05NNIBPFDE@MEDIC?$AA@ 4008c30c     bg_animation.obj
 0002:00000314       ??_C@_07DOBOICPH@SOLDIER?$AA@ 4008c314     bg_animation.obj
 0002:0000031c       ??_C@_07CECPKGHP@HOLDING?$AA@ 4008c31c     bg_animation.obj
 0002:00000324       ??_C@_07JBDFIAPG@ZOOMING?$AA@ 4008c324     bg_animation.obj
 0002:0000032c       ??_C@_06KLJKJFEK@HCRASH?$AA@ 4008c32c     bg_animation.obj
 0002:00000334       ??_C@_06JMHLHCNJ@VCRASH?$AA@ 4008c334     bg_animation.obj
 0002:0000033c       ??_C@_05FFMHFFBB@INAIR?$AA@ 4008c33c     bg_animation.obj
 0002:00000344       ??_C@_01EKENIIDA@3?$AA@    4008c344     bg_animation.obj
 0002:00000348       ??_C@_01FDFGLJHB@2?$AA@    4008c348     bg_animation.obj
 0002:0000034c       ??_C@_01HIHLOKLC@1?$AA@    4008c34c     bg_animation.obj
 0002:00000350       ??_C@_07GNLJHKAP@NEUTRAL?$AA@ 4008c350     bg_animation.obj
 0002:00000358       ??_C@_06LFMMNBFA@SPARE4?$AA@ 4008c358     bg_animation.obj
 0002:00000360       ??_C@_06PKINEHJH@SPARE3?$AA@ 4008c360     bg_animation.obj
 0002:00000368       ??_C@_06ODJGHGNG@SPARE2?$AA@ 4008c368     bg_animation.obj
 0002:00000370       ??_C@_06MILLCFBF@SPARE1?$AA@ 4008c370     bg_animation.obj
 0002:00000378       ??_C@_07GKFEMEDF@MONSTER?$AA@ 4008c378     bg_animation.obj
 0002:00000380       ??_C@_06GEKNHHBI@ALLIES?$AA@ 4008c380     bg_animation.obj
 0002:00000388       ??_C@_04LNCGIOLI@NAZI?$AA@ 4008c388     bg_animation.obj
 0002:00000390       ??_C@_09HNOAOLFL@KNEE_LEFT?$AA@ 4008c390     bg_animation.obj
 0002:0000039c       ??_C@_0L@HDLPEDFM@KNEE_RIGHT?$AA@ 4008c39c     bg_animation.obj
 0002:000003a8       ??_C@_0O@GNKADMCK@SHOULDER_LEFT?$AA@ 4008c3a8     bg_animation.obj
 0002:000003b8       ??_C@_0P@FEKNECCB@SHOULDER_RIGHT?$AA@ 4008c3b8     bg_animation.obj
 0002:000003c8       ??_C@_05MMHFGEIM@GROIN?$AA@ 4008c3c8     bg_animation.obj
 0002:000003d0       ??_C@_03GMNIDEGM@GUT?$AA@  4008c3d0     bg_animation.obj
 0002:000003d4       ??_C@_05LDJFJFKA@CHEST?$AA@ 4008c3d4     bg_animation.obj
 0002:000003dc       ??_C@_04BINJNOJD@HEAD?$AA@ 4008c3dc     bg_animation.obj
 0002:000003e4       ??_C@_04FBGPONKD@MG42?$AA@ 4008c3e4     bg_animation.obj
 0002:000003ec       ??_C@_04KCNEHMIH@LEFT?$AA@ 4008c3ec     bg_animation.obj
 0002:000003f4       ??_C@_05PMAFOJDE@RIGHT?$AA@ 4008c3f4     bg_animation.obj
 0002:000003fc       ??_C@_07EEENPCFP@INFRONT?$AA@ 4008c3fc     bg_animation.obj
 0002:00000404       ??_C@_06IOBMPBPK@BEHIND?$AA@ 4008c404     bg_animation.obj
 0002:0000040c       ??_C@_04ILIMAIMB@BOTH?$AA@ 4008c40c     bg_animation.obj
 0002:00000414       ??_C@_05HLJONPCP@TORSO?$AA@ 4008c414     bg_animation.obj
 0002:0000041c       ??_C@_04OMFHIAHH@LEGS?$AA@ 4008c41c     bg_animation.obj
 0002:00000424       ??_C@_0BB@HABODNHA@FIREWEAPON3PRONE?$AA@ 4008c424     bg_animation.obj
 0002:00000438       ??_C@_0M@CHEKCHEF@FIREWEAPON3?$AA@ 4008c438     bg_animation.obj
 0002:00000444       ??_C@_05GPAALKEH@RAISE?$AA@ 4008c444     bg_animation.obj
 0002:0000044c       ??_C@_0BD@OOFDCPAE@RELOADPRONE_SG_END?$AA@ 4008c44c     bg_animation.obj
 0002:00000460       ??_C@_0BE@EMBCAJH@RELOADPRONE_SG_LOOP?$AA@ 4008c460     bg_animation.obj
 0002:00000474       ??_C@_0BF@KGGMGMIN@RELOADPRONE_SG_BEGIN?$AA@ 4008c474     bg_animation.obj
 0002:0000048c       ??_C@_0O@LOKCHADH@RELOAD_SG_END?$AA@ 4008c48c     bg_animation.obj
 0002:0000049c       ??_C@_0P@LLEBLANO@RELOAD_SG_LOOP?$AA@ 4008c49c     bg_animation.obj
 0002:000004ac       ??_C@_0BA@KJNDBFCJ@RELOAD_SG_BEGIN?$AA@ 4008c4ac     bg_animation.obj
 0002:000004bc       ??_C@_0BC@IHKJANIM@DEATH_FROM_BEHIND?$AA@ 4008c4bc     bg_animation.obj
 0002:000004d0       ??_C@_06DDMBHNJG@SALUTE?$AA@ 4008c4d0     bg_animation.obj
 0002:000004d8       ??_C@_07GKKCHFFA@NOPOWER?$AA@ 4008c4d8     bg_animation.obj
 0002:000004e0       ??_C@_0M@FJILDHPC@RELOADPRONE?$AA@ 4008c4e0     bg_animation.obj
 0002:000004ec       ??_C@_0BB@BNBDJHJF@RAISEWEAPONPRONE?$AA@ 4008c4ec     bg_animation.obj
 0002:00000500       ??_C@_0BB@NGGJDGME@FIREWEAPON2PRONE?$AA@ 4008c500     bg_animation.obj
 0002:00000514       ??_C@_0BA@MGJKFIDA@FIREWEAPONPRONE?$AA@ 4008c514     bg_animation.obj
 0002:00000524       ??_C@_0BL@CEMEHHOJ@UNDO_ALT_WEAPON_MODE_PRONE?$AA@ 4008c524     bg_animation.obj
 0002:00000540       ??_C@_0BJ@IKEGMMLP@DO_ALT_WEAPON_MODE_PRONE?$AA@ 4008c540     bg_animation.obj
 0002:0000055c       ??_C@_0BF@LHJBOFNN@UNDO_ALT_WEAPON_MODE?$AA@ 4008c55c     bg_animation.obj
 0002:00000574       ??_C@_0BD@DCLLNKHA@DO_ALT_WEAPON_MODE?$AA@ 4008c574     bg_animation.obj
 0002:00000588       ??_C@_0BA@ILLJBFHJ@PRONE_TO_CROUCH?$AA@ 4008c588     bg_animation.obj
 0002:00000598       ??_C@_04JHINAIJO@DIVE?$AA@ 4008c598     bg_animation.obj
 0002:000005a0       ??_C@_06DNDMIHFO@REVIVE?$AA@ 4008c5a0     bg_animation.obj
 0002:000005a8       ??_C@_04JBLDNDFK@KICK?$AA@ 4008c5a8     bg_animation.obj
 0002:000005b0       ??_C@_06DCHFNDBF@RELOAD?$AA@ 4008c5b0     bg_animation.obj
 0002:000005b8       ??_C@_0O@IIAGBLJB@CLIMBDISMOUNT?$AA@ 4008c5b8     bg_animation.obj
 0002:000005c8       ??_C@_0L@HNAMMBMD@CLIMBMOUNT?$AA@ 4008c5c8     bg_animation.obj
 0002:000005d4       ??_C@_0M@JOEDMLH@RAISEWEAPON?$AA@ 4008c5d4     bg_animation.obj
 0002:000005e0       ??_C@_0L@BJEANHNA@DROPWEAPON?$AA@ 4008c5e0     bg_animation.obj
 0002:000005ec       ??_C@_04GJGHKIDJ@LAND?$AA@ 4008c5ec     bg_animation.obj
 0002:000005f4       ??_C@_06NFFGMPMI@JUMPBK?$AA@ 4008c5f4     bg_animation.obj
 0002:000005fc       ??_C@_04BFLEPEFN@JUMP?$AA@ 4008c5fc     bg_animation.obj
 0002:00000604       ??_C@_0M@DOFBBGAE@FIREWEAPON2?$AA@ 4008c604     bg_animation.obj
 0002:00000610       ??_C@_0L@PHLGIOGH@FIREWEAPON?$AA@ 4008c610     bg_animation.obj
 0002:0000061c       ??_C@_05DKFKLNCG@DEATH?$AA@ 4008c61c     bg_animation.obj
 0002:00000624       ??_C@_04DDNHCMLF@PAIN?$AA@ 4008c624     bg_animation.obj
 0002:0000062c       ??_C@_04NNCJDDJC@DEAD?$AA@ 4008c62c     bg_animation.obj
 0002:00000634       ??_C@_0L@LIBNAPII@RADIOPRONE?$AA@ 4008c634     bg_animation.obj
 0002:00000640       ??_C@_07JHKOJMIG@RADIOCR?$AA@ 4008c640     bg_animation.obj
 0002:00000648       ??_C@_05HGDEKMLG@RADIO?$AA@ 4008c648     bg_animation.obj
 0002:00000650       ??_C@_0O@KEEMELMC@RESUSCITATION?$AA@ 4008c650     bg_animation.obj
 0002:00000660       ??_C@_08LOEELIOA@FLAILING?$AA@ 4008c660     bg_animation.obj
 0002:0000066c       ??_C@_09OPIFKDCJ@IDLEPRONE?$AA@ 4008c66c     bg_animation.obj
 0002:00000678       ??_C@_07KOCFBCDA@PRONEBK?$AA@ 4008c678     bg_animation.obj
 0002:00000680       ??_C@_05DEBNJJOB@PRONE?$AA@ 4008c680     bg_animation.obj
 0002:00000688       ??_C@_06NFCGMGGG@FALLEN?$AA@ 4008c688     bg_animation.obj
 0002:00000690       ??_C@_09GJMNFBHN@CLIMBDOWN?$AA@ 4008c690     bg_animation.obj
 0002:0000069c       ??_C@_07NHIBBMHA@CLIMBUP?$AA@ 4008c69c     bg_animation.obj
 0002:000006a4       ??_C@_08DBJPOBGO@TURNLEFT?$AA@ 4008c6a4     bg_animation.obj
 0002:000006b0       ??_C@_09CFEAPIHF@TURNRIGHT?$AA@ 4008c6b0     bg_animation.obj
 0002:000006bc       ??_C@_0L@JPAPNHHO@STRAFELEFT?$AA@ 4008c6bc     bg_animation.obj
 0002:000006c8       ??_C@_0M@DIFJHICH@STRAFERIGHT?$AA@ 4008c6c8     bg_animation.obj
 0002:000006d4       ??_C@_06DNCLJOFM@SWIMBK?$AA@ 4008c6d4     bg_animation.obj
 0002:000006dc       ??_C@_04CKCIANOF@SWIM?$AA@ 4008c6dc     bg_animation.obj
 0002:000006e4       ??_C@_05OENAFHHF@RUNBK?$AA@ 4008c6e4     bg_animation.obj
 0002:000006ec       ??_C@_03LLDCGJBK@RUN?$AA@  4008c6ec     bg_animation.obj
 0002:000006f0       ??_C@_08BCACMKOP@WALKCRBK?$AA@ 4008c6f0     bg_animation.obj
 0002:000006fc       ??_C@_06GLKCEIEK@WALKCR?$AA@ 4008c6fc     bg_animation.obj
 0002:00000704       ??_C@_06PBGAILGF@WALKBK?$AA@ 4008c704     bg_animation.obj
 0002:0000070c       ??_C@_04PKELMGAL@WALK?$AA@ 4008c70c     bg_animation.obj
 0002:00000714       ??_C@_06OMFBEJFJ@IDLECR?$AA@ 4008c714     bg_animation.obj
 0002:0000071c       ??_C@_04IMMGDCFE@IDLE?$AA@ 4008c71c     bg_animation.obj
 0002:00000724       ??_C@_0N@EDMDHGIH@?$CK?$CK?5UNUSED?5?$CK?$CK?$AA@ 4008c724     bg_animation.obj
 0002:00000734       ??_C@_06NHIPIEDF@COMBAT?$AA@ 4008c734     bg_animation.obj
 0002:0000073c       ??_C@_05KBPPIFM@ALERT?$AA@ 4008c73c     bg_animation.obj
 0002:00000744       ??_C@_05NBJHHBHJ@QUERY?$AA@ 4008c744     bg_animation.obj
 0002:0000074c       ??_C@_07GKBJNHHK@RELAXED?$AA@ 4008c74c     bg_animation.obj
 0002:00000754       ??_C@_02DKCKIIND@?$CFs?$AA@ 4008c754     bg_animation.obj
 0002:00000758       ??_C@_0BC@PIFFBBDC@?$CFs?3?5?$CI?$CFs?0?5line?5?$CFi?$CJ?$AA@ 4008c758     bg_animation.obj
 0002:00000770       ??_C@_0EH@EMOEPACF@BG_AnimationForString?3?5unknown?5a@ 4008c770     bg_animation.obj
 0002:000007b8       ??_C@_0CG@HKIPDKP@BG_IndexForString?3?5unknown?5token@ 4008c7b8     bg_animation.obj
 0002:000007e0       ??_C@_0CN@DMHLIKB@BG_CopyStringIntoBuffer?3?5out?5of?5@ 4008c7e0     bg_animation.obj
 0002:00000810       ??_C@_09GPGAJHPD@?$CIunknown?$CJ?$AA@ 4008c810     bg_animation.obj
 0002:0000081c       ??_C@_03NFKEKGGK@all?$AA@  4008c81c     bg_animation.obj
 0002:00000820       ??_C@_0CI@BCJNBAAM@BG_AnimParseAnimScript?3?5unexpect@ 4008c820     bg_animation.obj
 0002:00000848       ??_C@_0DE@OMHOPKAI@BG_AnimParseAnimScript?3?5unexpect@ 4008c848     bg_animation.obj
 0002:0000087c       ??_C@_01CLKCMJKC@?5?$AA@   4008c87c     bg_animation.obj
 0002:00000880       ??_C@_03BDACDFHA@AND?$AA@  4008c880     bg_animation.obj
 0002:00000884       ??_C@_05CIDCLABE@MINUS?$AA@ 4008c884     bg_animation.obj
 0002:0000088c       ??_C@_03GBFNEA@NOT?$AA@    4008c88c     bg_animation.obj
 0002:00000890       ??_C@_05MLHFDCLP@none?0?$AA@ 4008c890     bg_animation.obj
 0002:00000898       ??_C@_04CGFJFPFD@none?$AA@ 4008c898     bg_animation.obj
 0002:000008a0       ??_C@_01IHBHIGKO@?0?$AA@   4008c8a0     bg_animation.obj
 0002:000008a4       ??_C@_0CI@KLGMJPNH@BG_ParseConditions?3?5no?5condition@ 4008c8a4     bg_animation.obj
 0002:000008d0       ??_C@_0EE@NMBANDPE@BG_AnimParseAnimScript?3?5expected@ 4008c8d0     bg_animation.obj
 0002:00000914       ??_C@_07DLHCIBDH@default?$AA@ 4008c914     bg_animation.obj
 0002:0000091c       ??_C@_0DL@CKDAIKPD@BG_AnimParseAnimScript?3?5exceeded@ 4008c91c     bg_animation.obj
 0002:00000958       ??_C@_0DP@JNENAFJB@BG_AnimParseAnimScript?3?5exceeded@ 4008c958     bg_animation.obj
 0002:00000998       ??_C@_0CH@FDBPNPON@BG_AnimParseAnimScript?3?5internal@ 4008c998     bg_animation.obj
 0002:000009c0       ??_C@_0CF@FDLDJDHC@BG_AnimParseAnimScript?3?5expected@ 4008c9c0     bg_animation.obj
 0002:000009e8       ??_C@_0CM@FKBIFPHE@BG_AnimParseAnimScript?3?5expected@ 4008c9e8     bg_animation.obj
 0002:00000a14       ??_C@_0CJ@GOMKHFCN@BG_AnimParseAnimScript?3?5expected@ 4008ca14     bg_animation.obj
 0002:00000a40       ??_C@_05HDBKIDE@state?$AA@ 4008ca40     bg_animation.obj
 0002:00000a48       ??_C@_01CELHOKLL@?$HN?$AA@ 4008ca48     bg_animation.obj
 0002:00000a4c       ??_C@_01HCONENDN@?$HL?$AA@ 4008ca4c     bg_animation.obj
 0002:00000a50       ??_C@_0DB@IIJMNBOP@BG_AnimParseAnimScript?3?5expected@ 4008ca50     bg_animation.obj
 0002:00000a84       ??_C@_01NEMOKFLO@?$DN?$AA@ 4008ca84     bg_animation.obj
 0002:00000a88       ??_C@_0DI@DOJNJINO@BG_AnimParseAnimScript?3?5expected@ 4008ca88     bg_animation.obj
 0002:00000ac0       ??_C@_0DJ@INDHDBJB@BG_AnimParseAnimScript?3?5expected@ 4008cac0     bg_animation.obj
 0002:00000afc       ??_C@_0DH@PMLCNFHH@BG_AnimParseAnimScript?3?5expected@ 4008cafc     bg_animation.obj
 0002:00000b34       ??_C@_03KCHOJKKI@set?$AA@  4008cb34     bg_animation.obj
 0002:00000b38       ??_C@_0DD@MDBCOIMN@BG_AnimParseAnimScript?3?5unexpect@ 4008cb38     bg_animation.obj
 0002:00000b6c       ??_C@_0BH@ECCOOEHL@BG_AnimParseAnimScript?$AA@ 4008cb6c     bg_animation.obj
 0002:00000b84       ??_C@_0CJ@NDJEIEDA@BG_ParseCommands?3?5unknown?5parame@ 4008cb84     bg_animation.obj
 0002:00000bb0       ??_C@_0DO@BILKBJDJ@BG_ParseCommands?3?5wav?5files?5not?5@ 4008cbb0     bg_animation.obj
 0002:00000bf0       ??_C@_04IBLEHOMF@?4wav?$AA@ 4008cbf0     bg_animation.obj
 0002:00000bf8       ??_C@_0CB@KJJHKKAM@BG_ParseCommands?3?5expected?5sound@ 4008cbf8     bg_animation.obj
 0002:00000c1c       ??_C@_05MHNANJII@sound?$AA@ 4008cc1c     bg_animation.obj
 0002:00000c24       ??_C@_0CK@OFKPAMJN@BG_ParseCommands?3?5expected?5durat@ 4008cc24     bg_animation.obj
 0002:00000c50       ??_C@_08LGBPINEC@duration?$AA@ 4008cc50     bg_animation.obj
 0002:00000c5c       ??_C@_0CF@IDKLLOPB@BG_ParseCommands?3?5expected?5anima@ 4008cc5c     bg_animation.obj
 0002:00000c84       ??_C@_0DN@PHOKFKLF@BG_ParseCommands?3?5exceeded?5maxim@ 4008cc84     bg_animation.obj
 0002:00000cc8       ??_C@_0EI@KHABFLEN@BG_AnimationIndexForString?3?5unkn@ 4008ccc8     bg_animation.obj
 0002:00000d10       ??_C@_0CN@JCKPMIAD@BG_GetAnimString?3?5anim?5index?5is?5@ 4008cd10     bg_animation.obj
 0002:00000d40       ??_C@_0EK@LAFIIABA@BG_GetConditionBitFlag?3?5animatio@ 4008cd40     bg_animation.obj
 0002:00000d8c       ??_C@_0CN@DLEGEFJG@BG_GetAnimationForIndex?3?5index?5o@ 4008cd8c     bg_animation.obj
 0002:00000dc0       __real@0000000000000000    4008cdc0     bg_animation.obj
 0002:00000dc8       ??_C@_0BD@KLLJFPMA@unknown?5token?5?8?$CFs?8?$AA@ 4008cdc8     bg_animgroup.obj
 0002:00000ddc       ??_C@_08DENAEOEP@animfile?$AA@ 4008cddc     bg_animgroup.obj
 0002:00000de8       ??_C@_0N@HBKHDLKP@expected?5?8?$HL?8?$AA@ 4008cde8     bg_animgroup.obj
 0002:00000df8       ??_C@_0BF@ENDGGKLH@expected?5?8animgroup?8?$AA@ 4008cdf8     bg_animgroup.obj
 0002:00000e10       ??_C@_09BLJHIMBB@animgroup?$AA@ 4008ce10     bg_animgroup.obj
 0002:00000e1c       ??_C@_0BK@OKFEFFGN@?$FO1ERROR?3?5?$CFs?0?5line?5?$CFd?3?5?$CFs?6?$AA@ 4008ce1c     bg_animgroup.obj
 0002:00000e38       ??_C@_0BP@JILEJOJD@out?5of?5animation?5storage?5space?$AA@ 4008ce38     bg_animgroup.obj
 0002:00000e58       ??_C@_0P@BFDGOIGG@unexpected?5EOF?$AA@ 4008ce58     bg_animgroup.obj
 0002:00000e68       ??_C@_0BC@JLAEEEKF@failed?5to?5load?5?$CFs?$AA@ 4008ce68     bg_animgroup.obj
 0002:00000e7c       ??_C@_0BG@PFGCPLLN@expected?5mdx?5filename?$AA@ 4008ce7c     bg_animgroup.obj
 0002:00000e94       ??_C@_06IMHBHKA@firing?$AA@ 4008ce94     bg_animgroup.obj
 0002:00000e9c       ??_C@_05MNHFFADL@climb?$AA@ 4008ce9c     bg_animgroup.obj
 0002:00000ea4       ??_C@_0BK@FLIAOMB@expected?5reversed?5integer?$AA@ 4008cea4     bg_animgroup.obj
 0002:00000ec0       ??_C@_0BM@BFEFIFBI@expected?5transition?5integer?$AA@ 4008cec0     bg_animgroup.obj
 0002:00000edc       ??_C@_0BM@HDALPJFB@expected?5move?5speed?5integer?$AA@ 4008cedc     bg_animgroup.obj
 0002:00000ef8       __real@408f400000000000    4008cef8     bg_animgroup.obj
 0002:00000f00       ??_C@_0BF@IDODNCCM@expected?5fps?5integer?$AA@ 4008cf00     bg_animgroup.obj
 0002:00000f18       ??_C@_0BJ@PJOBADON@expected?5looping?5integer?$AA@ 4008cf18     bg_animgroup.obj
 0002:00000f34       ??_C@_0BI@ODMPOCFA@expected?5length?5integer?$AA@ 4008cf34     bg_animgroup.obj
 0002:00000f4c       ??_C@_0BN@HLFFIMPM@expected?5first?5frame?5integer?$AA@ 4008cf4c     bg_animgroup.obj
 0002:00000f70       ??_C@_0EF@ONHLMGCC@?$FO1WARNING?3?5BG_LoadCampaignSave?3?5@ 4008cf70     bg_campaign.obj
 0002:00000fb8       ??_C@_0DC@BKHMNABP@?$FO1ERROR?3?5BG_LoadCampaignSave?3?5no@ 4008cfb8     bg_campaign.obj
 0002:00000fec       ??_C@_0BP@FLJCIJJ@expected?5hudheadanims?5filename?$AA@ 4008cfec     bg_character.obj
 0002:0000100c       ??_C@_0N@KIHKDELA@hudheadanims?$AA@ 4008d00c     bg_character.obj
 0002:0000101c       ??_C@_0BO@DKHKELON@expected?5hudheadskin?5filename?$AA@ 4008d01c     bg_character.obj
 0002:0000103c       ??_C@_0M@NCDEKCDI@hudheadskin?$AA@ 4008d03c     bg_character.obj
 0002:00001048       ??_C@_0BK@EJMCICHM@expected?5hudhead?5filename?$AA@ 4008d048     bg_character.obj
 0002:00001064       ??_C@_07FJNIBNFB@hudhead?$AA@ 4008d064     bg_character.obj
 0002:0000106c       ??_C@_0BH@JECGHBI@expected?5skin?5filename?$AA@ 4008d06c     bg_character.obj
 0002:00001084       ??_C@_04NHPAFEHJ@skin?$AA@ 4008d084     bg_character.obj
 0002:0000108c       ??_C@_0BH@FABHMNJK@expected?5mesh?5filename?$AA@ 4008d08c     bg_character.obj
 0002:000010a4       ??_C@_04KPBEILIJ@mesh?$AA@ 4008d0a4     bg_character.obj
 0002:000010ac       ??_C@_0CG@MEMANCED@expected?5undressedCorpseSkin?5fil@ 4008d0ac     bg_character.obj
 0002:000010d4       ??_C@_0BE@PKNBBHON@undressedCorpseSkin?$AA@ 4008d0d4     bg_character.obj
 0002:000010e8       ??_C@_0CH@JAPNHCPA@expected?5undressedCorpseModel?5fi@ 4008d0e8     bg_character.obj
 0002:00001110       ??_C@_0BF@CFGKJJGO@undressedCorpseModel?$AA@ 4008d110     bg_character.obj
 0002:00001128       ??_C@_0CC@BJHLMGJK@expected?5animationScript?5filenam@ 4008d128     bg_character.obj
 0002:0000114c       ??_C@_0BA@JAPCLMGJ@animationScript?$AA@ 4008d14c     bg_character.obj
 0002:0000115c       ??_C@_0CB@LKKCFNPJ@expected?5animationGroup?5filename@ 4008d15c     bg_character.obj
 0002:00001180       ??_C@_0P@GIEBGGMD@animationGroup?$AA@ 4008d180     bg_character.obj
 0002:00001190       ??_C@_0BI@BDKHJKHJ@expected?5?8characterDef?8?$AA@ 4008d190     bg_character.obj
 0002:000011a8       ??_C@_0N@LBLHOIAH@characterDef?$AA@ 4008d1a8     bg_character.obj
 0002:000011b8       ??_C@_0BJ@MEABGLAC@ui?1assets?1mp_spy_red?4tga?$AA@ 4008d1b8     bg_classes.obj
 0002:000011d4       ??_C@_0CF@LADOJIJE@characters?1temperate?1axis?1cvops?4@ 4008d1d4     bg_classes.obj
 0002:000011fc       ??_C@_0BK@JLOKNMIC@ui?1assets?1mp_ammo_red?4tga?$AA@ 4008d1fc     bg_classes.obj
 0002:00001218       ??_C@_0CI@EJJKLOOH@characters?1temperate?1axis?1fieldo@ 4008d218     bg_classes.obj
 0002:00001240       ??_C@_0BM@EEHPCACN@ui?1assets?1mp_wrench_red?4tga?$AA@ 4008d240     bg_classes.obj
 0002:0000125c       ??_C@_0CI@MFMEIBBF@characters?1temperate?1axis?1engine@ 4008d25c     bg_classes.obj
 0002:00001284       ??_C@_0BM@PMKFMPBC@ui?1assets?1mp_health_red?4tga?$AA@ 4008d284     bg_classes.obj
 0002:000012a0       ??_C@_0CF@KIKOKBGK@characters?1temperate?1axis?1medic?4@ 4008d2a0     bg_classes.obj
 0002:000012c8       ??_C@_0BL@PHEMDMKB@ui?1assets?1mp_arrow_red?4tga?$AA@ 4008d2c8     bg_classes.obj
 0002:000012e4       ??_C@_0BJ@HPDKILFC@ui?1assets?1mp_gun_red?4tga?$AA@ 4008d2e4     bg_classes.obj
 0002:00001300       ??_C@_0CH@DNCBOENF@characters?1temperate?1axis?1soldie@ 4008d300     bg_classes.obj
 0002:00001328       ??_C@_0BK@LBBHFNIH@ui?1assets?1mp_spy_blue?4tga?$AA@ 4008d328     bg_classes.obj
 0002:00001344       ??_C@_0CH@DLEALHFC@characters?1temperate?1allied?1cvop@ 4008d344     bg_classes.obj
 0002:0000136c       ??_C@_0BL@FMPADFBA@ui?1assets?1mp_ammo_blue?4tga?$AA@ 4008d36c     bg_classes.obj
 0002:00001388       ??_C@_0CK@HJBJDAMI@characters?1temperate?1allied?1fiel@ 4008d388     bg_classes.obj
 0002:000013b4       ??_C@_0BN@BKEGBOJF@ui?1assets?1mp_wrench_blue?4tga?$AA@ 4008d3b4     bg_classes.obj
 0002:000013d4       ??_C@_0CK@PFEHAPDK@characters?1temperate?1allied?1engi@ 4008d3d4     bg_classes.obj
 0002:00001400       ??_C@_0BN@KMJIOJEH@ui?1assets?1mp_health_blue?4tga?$AA@ 4008d400     bg_classes.obj
 0002:00001420       ??_C@_0CH@CDNAIOKM@characters?1temperate?1allied?1medi@ 4008d420     bg_classes.obj
 0002:00001448       ??_C@_0BM@POPLOCIC@ui?1assets?1mp_arrow_blue?4tga?$AA@ 4008d448     bg_classes.obj
 0002:00001464       ??_C@_0BK@NKMHDHJD@ui?1assets?1mp_gun_blue?4tga?$AA@ 4008d464     bg_classes.obj
 0002:00001480       ??_C@_0CJ@LFACCDK@characters?1temperate?1allied?1sold@ 4008d480     bg_classes.obj
 0002:000014ac       ??_C@_07FLGMFKPC@?$FO1ERROR?$AA@ 4008d4ac     bg_classes.obj
 0002:000014b4       ??_C@_07JPHEEIGE@?$FOwCvOps?$AA@ 4008d4b4     bg_classes.obj
 0002:000014bc       ??_C@_07NFJJBNDF@?$FOwFdOps?$AA@ 4008d4bc     bg_classes.obj
 0002:000014c4       ??_C@_06BMCFBOMK@?$FOwEngr?$AA@ 4008d4c4     bg_classes.obj
 0002:000014cc       ??_C@_07KMDIGGNH@?$FOwMedic?$AA@ 4008d4cc     bg_classes.obj
 0002:000014d4       ??_C@_07EBOBIFDB@?$FOwSoldr?$AA@ 4008d4d4     bg_classes.obj
 0002:000014dc       ??_C@_0L@FJJNNBFP@Covert?5Ops?$AA@ 4008d4dc     bg_classes.obj
 0002:000014e8       ??_C@_09GKDMDHJJ@Field?5Ops?$AA@ 4008d4e8     bg_classes.obj
 0002:000014f4       ??_C@_08FAJHOPML@Engineer?$AA@ 4008d4f4     bg_classes.obj
 0002:00001500       ??_C@_05BBLLBHEM@Medic?$AA@ 4008d500     bg_classes.obj
 0002:00001508       ??_C@_07DKDFFMCF@Soldier?$AA@ 4008d508     bg_classes.obj
 0002:00001510       ??_C@_05MBDEGLCK@ERROR?$AA@ 4008d510     bg_classes.obj
 0002:00001518       ??_C@_09CAINNBPP@Covertops?$AA@ 4008d518     bg_classes.obj
 0002:00001524       ??_C@_08ICHGPCJC@Fieldops?$AA@ 4008d524     bg_classes.obj
 0002:00001530       ??_C@_03FNMOGMJF@?$FO1E?$AA@ 4008d530     bg_classes.obj
 0002:00001534       ??_C@_01GFHCPBMG@C?$AA@    4008d534     bg_classes.obj
 0002:00001538       ??_C@_01BIAFAFID@F?$AA@    4008d538     bg_classes.obj
 0002:0000153c       ??_C@_01DDCIFGEA@E?$AA@    4008d53c     bg_classes.obj
 0002:00001540       ??_C@_01PLPBNMEI@M?$AA@    4008d540     bg_classes.obj
 0002:00001544       ??_C@_01CPLAODJH@S?$AA@    4008d544     bg_classes.obj
 0002:00001548       ??_C@_05EBJGJMAL@brown?$AA@ 4008d548     bg_misc.obj
 0002:00001550       ??_C@_05BIMBDNDC@black?$AA@ 4008d550     bg_misc.obj
 0002:00001558       ??_C@_06CFJMLPNA@dkgrey?$AA@ 4008d558     bg_misc.obj
 0002:00001560       ??_C@_06EBFCEING@mdgrey?$AA@ 4008d560     bg_misc.obj
 0002:00001568       ??_C@_06OEPDEBPJ@ltgrey?$AA@ 4008d568     bg_misc.obj
 0002:00001570       ??_C@_06MDCFBJCH@mdblue?$AA@ 4008d570     bg_misc.obj
 0002:00001578       ??_C@_08PBNGCPKP@mdorange?$AA@ 4008d578     bg_misc.obj
 0002:00001584       ??_C@_08MPHFJJCJ@mdyellow?$AA@ 4008d584     bg_misc.obj
 0002:00001590       ??_C@_06GBFJEFFN@mdcyan?$AA@ 4008d590     bg_misc.obj
 0002:00001598       ??_C@_07GILEFCFG@dkgreen?$AA@ 4008d598     bg_misc.obj
 0002:000015a0       ??_C@_07IBLDDJJE@mdgreen?$AA@ 4008d5a0     bg_misc.obj
 0002:000015a8       ??_C@_05BIFOFMCK@mdred?$AA@ 4008d5a8     bg_misc.obj
 0002:000015b0       ??_C@_06HDDOCMMN@orange?$AA@ 4008d5b0     bg_misc.obj
 0002:000015b8       ??_C@_04EDBDANFH@cyan?$AA@ 4008d5b8     bg_misc.obj
 0002:000015c0       ??_C@_07EMDGAPCI@magenta?$AA@ 4008d5c0     bg_misc.obj
 0002:000015c8       ??_C@_06ENJNJKEL@yellow?$AA@ 4008d5c8     bg_misc.obj
 0002:000015d0       ??_C@_04OBGPFBCN@blue?$AA@ 4008d5d0     bg_misc.obj
 0002:000015d8       ??_C@_05GBEEJKMC@green?$AA@ 4008d5d8     bg_misc.obj
 0002:000015e0       ??_C@_03FAAAOPJM@red?$AA@  4008d5e0     bg_misc.obj
 0002:000015e4       ??_C@_05PMAELIEO@white?$AA@ 4008d5e4     bg_misc.obj
 0002:000015ec       ??_C@_04PIJKLOJC@JOHN?$AA@ 4008d5ec     bg_misc.obj
 0002:000015f4       ??_C@_09LPNOPLMG@Foot?5Kick?$AA@ 4008d5f4     bg_misc.obj
 0002:00001600       ??_C@_04IIAILPMN@FOOT?$AA@ 4008d600     bg_misc.obj
 0002:00001608       ??_C@_06ONLJKEMD@Poison?$AA@ 4008d608     bg_misc.obj
 0002:00001610       ??_C@_04CMGEDHJK@POIS?$AA@ 4008d610     bg_misc.obj
 0002:00001618       ??_C@_04BNJHALAE@VENM?$AA@ 4008d618     bg_misc.obj
 0002:00001620       ??_C@_04MMOJLDFH@BAZ?5?$AA@ 4008d620     bg_misc.obj
 0002:00001628       ??_C@_04MCPKOCOP@BAR?5?$AA@ 4008d628     bg_misc.obj
 0002:00001630       ??_C@_06DCLEAJKA@StG?544?$AA@ 4008d630     bg_misc.obj
 0002:00001638       ??_C@_04MKPLCFAD@MP44?$AA@ 4008d638     bg_misc.obj
 0002:00001640       ??_C@_0M@OPPJBMIL@Browning?5MG?$AA@ 4008d640     bg_misc.obj
 0002:0000164c       ??_C@_04LPNGLNOK@BRNG?$AA@ 4008d64c     bg_misc.obj
 0002:00001654       ??_C@_04LNNPJPIG@SHOT?$AA@ 4008d654     bg_misc.obj
 0002:0000165c       ??_C@_04JDKPDOCF@K?943?$AA@ 4008d65c     bg_misc.obj
 0002:00001664       ??_C@_04PBGECLLG@GARN?$AA@ 4008d664     bg_misc.obj
 0002:0000166c       ??_C@_09NEGJIGCF@MG?942?5Gun?$AA@ 4008d66c     bg_misc.obj
 0002:00001678       ??_C@_04MJKNOOLM@LNMN?$AA@ 4008d678     bg_misc.obj
 0002:00001680       ??_C@_09HGGAMOMN@G?4Launchr?$AA@ 4008d680     bg_misc.obj
 0002:0000168c       ??_C@_04KFHAFNLN@GRLN?$AA@ 4008d68c     bg_misc.obj
 0002:00001694       ??_C@_07FLFCCDCE@Satchel?$AA@ 4008d694     bg_misc.obj
 0002:0000169c       ??_C@_04EIHNNDJI@STCH?$AA@ 4008d69c     bg_misc.obj
 0002:000016a4       ??_C@_04DNIGNOED@ARTY?$AA@ 4008d6a4     bg_misc.obj
 0002:000016ac       ??_C@_09KHLPGPGB@Airstrike?$AA@ 4008d6ac     bg_misc.obj
 0002:000016b8       ??_C@_04INGHLGIL@ARST?$AA@ 4008d6b8     bg_misc.obj
 0002:000016c0       ??_C@_08FNEIIMLN@Dynamite?$AA@ 4008d6c0     bg_misc.obj
 0002:000016cc       ??_C@_04LBMNGIMN@DYNA?$AA@ 4008d6cc     bg_misc.obj
 0002:000016d4       ??_C@_04BLICOKIJ@MRTR?$AA@ 4008d6d4     bg_misc.obj
 0002:000016dc       ??_C@_04FMBLGBFJ@GRND?$AA@ 4008d6dc     bg_misc.obj
 0002:000016e4       ??_C@_09FEKCIACN@F?4Thrower?$AA@ 4008d6e4     bg_misc.obj
 0002:000016f0       ??_C@_04LCDJEDB@FLAM?$AA@  4008d6f0     bg_misc.obj
 0002:000016f8       ??_C@_06PDHLIOKC@Panzer?$AA@ 4008d6f8     bg_misc.obj
 0002:00001700       ??_C@_04JDKDHMJH@PNZR?$AA@ 4008d700     bg_misc.obj
 0002:00001708       ??_C@_05OBKFFNKK@FG?942?$AA@ 4008d708     bg_misc.obj
 0002:00001710       ??_C@_04CGLPNMLC@FG42?$AA@ 4008d710     bg_misc.obj
 0002:00001718       ??_C@_04BKKKAIKM@STEN?$AA@ 4008d718     bg_misc.obj
 0002:00001720       ??_C@_04GABKMBCO@TMPS?$AA@ 4008d720     bg_misc.obj
 0002:00001728       ??_C@_05GLJEIEHJ@MP?940?$AA@ 4008d728     bg_misc.obj
 0002:00001730       ??_C@_04ECKOIOOE@COLT?$AA@ 4008d730     bg_misc.obj
 0002:00001738       ??_C@_04KFFFOGKJ@LUGR?$AA@ 4008d738     bg_misc.obj
 0002:00001740       ??_C@_04LEFNBAHI@KNIF?$AA@ 4008d740     bg_misc.obj
 0002:00001748       ??_C@_0BG@BFOKKGJA@vote_allow_maprestart?$AA@ 4008d748     bg_misc.obj
 0002:00001760       ??_C@_0BA@IONFABE@vote_allow_poll?$AA@ 4008d760     bg_misc.obj
 0002:00001770       ??_C@_0BI@DHIOBPN@vote_allow_nextcampaign?$AA@ 4008d770     bg_misc.obj
 0002:00001788       ??_C@_0BL@KHEHEHLP@vote_allow_restartcampaign?$AA@ 4008d788     bg_misc.obj
 0002:000017a4       ??_C@_0BF@CCONGFFD@vote_allow_surrender?$AA@ 4008d7a4     bg_misc.obj
 0002:000017bc       ??_C@_0BC@OODKGFIE@vote_allow_muting?$AA@ 4008d7bc     bg_misc.obj
 0002:000017d0       ??_C@_0BJ@NHFEAGDG@vote_allow_balancedteams?$AA@ 4008d7d0     bg_misc.obj
 0002:000017ec       ??_C@_0BD@FMHFOJHO@vote_allow_antilag?$AA@ 4008d7ec     bg_misc.obj
 0002:00001800       ??_C@_0BI@NLJBAGJA@vote_allow_warmupdamage?$AA@ 4008d800     bg_misc.obj
 0002:00001818       ??_C@_0BF@DKEANCDI@vote_allow_timelimit?$AA@ 4008d818     bg_misc.obj
 0002:00001830       ??_C@_0BI@PFABBADB@vote_allow_friendlyfire?$AA@ 4008d830     bg_misc.obj
 0002:00001848       ??_C@_0BF@PGDMBKNA@vote_allow_swapteams?$AA@ 4008d848     bg_misc.obj
 0002:00001860       ??_C@_0CE@CJDEKLPI@vote_allow_shuffleteamsxp_norest@ 4008d860     bg_misc.obj
 0002:00001884       ??_C@_0BK@OALPDKPA@vote_allow_shuffleteamsxp?$AA@ 4008d884     bg_misc.obj
 0002:000018a0       ??_C@_0BD@KCFBCPCP@vote_allow_referee?$AA@ 4008d8a0     bg_misc.obj
 0002:000018b4       ??_C@_0P@ELFLBPBG@vote_allow_pub?$AA@ 4008d8b4     bg_misc.obj
 0002:000018c4       ??_C@_0BD@NFNPNPJD@vote_allow_nextmap?$AA@ 4008d8c4     bg_misc.obj
 0002:000018d8       ??_C@_0BF@NAOJJNDM@vote_allow_mutespecs?$AA@ 4008d8d8     bg_misc.obj
 0002:000018f0       ??_C@_0BG@OMGFOAJP@vote_allow_matchreset?$AA@ 4008d8f0     bg_misc.obj
 0002:00001908       ??_C@_0P@IKPDOLCL@vote_allow_map?$AA@ 4008d908     bg_misc.obj
 0002:00001918       ??_C@_0BA@HOKLHIKB@vote_allow_kick?$AA@ 4008d918     bg_misc.obj
 0002:00001928       ??_C@_0BE@FMIBNCLG@vote_allow_gametype?$AA@ 4008d928     bg_misc.obj
 0002:0000193c       ??_C@_0BA@MIBIIKCM@vote_allow_comp?$AA@ 4008d93c     bg_misc.obj
 0002:0000194c       ??_C@_07CKBMEGKL@Foxtrot?$AA@ 4008d94c     bg_misc.obj
 0002:00001954       ??_C@_04CEPMGKMG@Echo?$AA@ 4008d954     bg_misc.obj
 0002:0000195c       ??_C@_05NFMIDMMK@Delta?$AA@ 4008d95c     bg_misc.obj
 0002:00001964       ??_C@_07OLFAKPLM@Charlie?$AA@ 4008d964     bg_misc.obj
 0002:0000196c       ??_C@_05LODMLFHI@Bravo?$AA@ 4008d96c     bg_misc.obj
 0002:00001974       ??_C@_05IHOGHNDL@Alpha?$AA@ 4008d974     bg_misc.obj
 0002:0000197c       ??_C@_03HCJBLCDO@GoA?$AA@  4008d97c     bg_misc.obj
 0002:00001980       ??_C@_03OKKLIIDB@GLt?$AA@  4008d980     bg_misc.obj
 0002:00001984       ??_C@_03DPCINNNJ@GMj?$AA@  4008d984     bg_misc.obj
 0002:00001988       ??_C@_03GBANGNDJ@BGn?$AA@  4008d988     bg_misc.obj
 0002:0000198c       ??_C@_03NMBLBFLB@Cnl?$AA@  4008d98c     bg_misc.obj
 0002:00001990       ??_C@_03IHNFBLCM@LtC?$AA@  4008d990     bg_misc.obj
 0002:00001994       ??_C@_03GBMCICDJ@Maj?$AA@  4008d994     bg_misc.obj
 0002:00001998       ??_C@_03EILIADJC@Cpt?$AA@  4008d998     bg_misc.obj
 0002:0000199c       ??_C@_03FCBHOPFE@FLt?$AA@  4008d99c     bg_misc.obj
 0002:000019a0       ??_C@_03DFNAEIPJ@SLt?$AA@  4008d9a0     bg_misc.obj
 0002:000019a4       ??_C@_03OAFDBNBB@SMj?$AA@  4008d9a4     bg_misc.obj
 0002:000019a8       ??_C@_03PDIDMNIK@MSg?$AA@  4008d9a8     bg_misc.obj
 0002:000019ac       ??_C@_03KIEAGNBL@SFC?$AA@  4008d9ac     bg_misc.obj
 0002:000019b0       ??_C@_03EDEFONCG@SSg?$AA@  4008d9b0     bg_misc.obj
 0002:000019b4       ??_C@_03BMIOBPI@Sgt?$AA@   4008d9b4     bg_misc.obj
 0002:000019b8       ??_C@_03MKKDJLML@Cpl?$AA@  4008d9b8     bg_misc.obj
 0002:000019bc       ??_C@_03LKPFMCPF@PFC?$AA@  4008d9bc     bg_misc.obj
 0002:000019c0       ??_C@_03OJJIHFB@Pvt?$AA@   4008d9c0     bg_misc.obj
 0002:000019c4       ??_C@_03PPEJFBBE@Fdm?$AA@  4008d9c4     bg_misc.obj
 0002:000019c8       ??_C@_03GNBKAPIF@Gen?$AA@  4008d9c8     bg_misc.obj
 0002:000019cc       ??_C@_03ODLJNOCI@LtG?$AA@  4008d9cc     bg_misc.obj
 0002:000019d0       ??_C@_03HGFJLDJ@Gmj?$AA@   4008d9d0     bg_misc.obj
 0002:000019d4       ??_C@_03FJEACLNJ@Bgn?$AA@  4008d9d4     bg_misc.obj
 0002:000019d8       ??_C@_03FCINFNPD@Obs?$AA@  4008d9d8     bg_misc.obj
 0002:000019dc       ??_C@_03JPNHFDGN@Obl?$AA@  4008d9dc     bg_misc.obj
 0002:000019e0       ??_C@_03OPIMPFIB@Mjr?$AA@  4008d9e0     bg_misc.obj
 0002:000019e4       ??_C@_03JPLJIEJD@Hpt?$AA@  4008d9e4     bg_misc.obj
 0002:000019e8       ??_C@_03BHFCOGDO@Olt?$AA@  4008d9e8     bg_misc.obj
 0002:000019ec       ??_C@_03KHPPEBMD@Ltn?$AA@  4008d9ec     bg_misc.obj
 0002:000019f0       ??_C@_03HINMHCKA@Osf?$AA@  4008d9f0     bg_misc.obj
 0002:000019f4       ??_C@_03CLCHNIAM@Sfw?$AA@  4008d9f4     bg_misc.obj
 0002:000019f8       ??_C@_03KMDPAIJC@Hfw?$AA@  4008d9f8     bg_misc.obj
 0002:000019fc       ??_C@_03DBOIDACL@Ofw?$AA@  4008d9fc     bg_misc.obj
 0002:00001a00       ??_C@_03GGLBFAPC@Fwb?$AA@  4008da00     bg_misc.obj
 0002:00001a04       ??_C@_03IJCLOMIB@Gfr?$AA@  4008da04     bg_misc.obj
 0002:00001a08       ??_C@_03JLOEDJHI@Otz?$AA@  4008da08     bg_misc.obj
 0002:00001a0c       ??_C@_03IBCLNBFP@Stz?$AA@  4008da0c     bg_misc.obj
 0002:00001a10       ??_C@_0BE@HJKGCJPJ@General?5of?5the?5Army?$AA@ 4008da10     bg_misc.obj
 0002:00001a24       ??_C@_0BD@NBFGKOJI@Lieutenant?5General?$AA@ 4008da24     bg_misc.obj
 0002:00001a38       ??_C@_0O@KCPHOANC@Major?5General?$AA@ 4008da38     bg_misc.obj
 0002:00001a48       ??_C@_0BC@EJAMAKDN@Brigadier?5General?$AA@ 4008da48     bg_misc.obj
 0002:00001a5c       ??_C@_07HIMIFLHJ@Colonel?$AA@ 4008da5c     bg_misc.obj
 0002:00001a64       ??_C@_0BD@OLNCAGHN@Lieutenant?5Colonel?$AA@ 4008da64     bg_misc.obj
 0002:00001a78       ??_C@_07CIJMMPOH@Captain?$AA@ 4008da78     bg_misc.obj
 0002:00001a80       ??_C@_0BB@JNIIPJGA@First?5Lieutenant?$AA@ 4008da80     bg_misc.obj
 0002:00001a94       ??_C@_0BC@BJHNOCHG@Second?5Lieutenant?$AA@ 4008da94     bg_misc.obj
 0002:00001aa8       ??_C@_0P@EIPJLBOK@Sergeant?5Major?$AA@ 4008daa8     bg_misc.obj
 0002:00001ab8       ??_C@_0BA@BMJEPCHL@Master?5Sergeant?$AA@ 4008dab8     bg_misc.obj
 0002:00001ac8       ??_C@_0BF@KHKABHOI@Sergeant?5First?5Class?$AA@ 4008dac8     bg_misc.obj
 0002:00001ae0       ??_C@_0P@MBLNMEJK@Staff?5Sergeant?$AA@ 4008dae0     bg_misc.obj
 0002:00001af0       ??_C@_08HPHGPEFO@Sergeant?$AA@ 4008daf0     bg_misc.obj
 0002:00001afc       ??_C@_08NNPOKHHA@Corporal?$AA@ 4008dafc     bg_misc.obj
 0002:00001b08       ??_C@_0BC@IMKFBNMP@Private?51st?5Class?$AA@ 4008db08     bg_misc.obj
 0002:00001b1c       ??_C@_07CFINJGKH@Private?$AA@ 4008db1c     bg_misc.obj
 0002:00001b24       ??_C@_0O@DJHPBGIM@Feldmarschall?$AA@ 4008db24     bg_misc.obj
 0002:00001b34       ??_C@_07ECEMPDJM@General?$AA@ 4008db34     bg_misc.obj
 0002:00001b3c       ??_C@_0BA@NHCNCPGC@Generalleutnant?$AA@ 4008db3c     bg_misc.obj
 0002:00001b4c       ??_C@_0N@CBMLOIAM@Generalmajor?$AA@ 4008db4c     bg_misc.obj
 0002:00001b5c       ??_C@_0P@OKLJIMGI@Brigadegeneral?$AA@ 4008db5c     bg_misc.obj
 0002:00001b6c       ??_C@_06BIOMHBJB@Oberst?$AA@ 4008db6c     bg_misc.obj
 0002:00001b74       ??_C@_0P@DIBOAHOM@Oberstleutnant?$AA@ 4008db74     bg_misc.obj
 0002:00001b84       ??_C@_05FDLAJJBN@Major?$AA@ 4008db84     bg_misc.obj
 0002:00001b8c       ??_C@_09BJGEMGKL@Hauptmann?$AA@ 4008db8c     bg_misc.obj
 0002:00001b98       ??_C@_0N@NNBNAPAN@Oberleutnant?$AA@ 4008db98     bg_misc.obj
 0002:00001ba8       ??_C@_08DLDKAGFE@Leutnant?$AA@ 4008dba8     bg_misc.obj
 0002:00001bb4       ??_C@_0BD@OBOCDBBK@Oberstabsfeldwebel?$AA@ 4008dbb4     bg_misc.obj
 0002:00001bc8       ??_C@_0P@FHPJDBMB@Stabsfeldwebel?$AA@ 4008dbc8     bg_misc.obj
 0002:00001bd8       ??_C@_0P@JCNIPANN@Hauptfeldwebel?$AA@ 4008dbd8     bg_misc.obj
 0002:00001be8       ??_C@_0O@CCEHOAHC@Oberfeldwebel?$AA@ 4008dbe8     bg_misc.obj
 0002:00001bf8       ??_C@_09DABGCOCL@Feldwebel?$AA@ 4008dbf8     bg_misc.obj
 0002:00001c04       ??_C@_09GAMHIJCE@Gefreiter?$AA@ 4008dc04     bg_misc.obj
 0002:00001c10       ??_C@_0M@MPFLHNKD@Oberschutze?$AA@ 4008dc10     bg_misc.obj
 0002:00001c1c       ??_C@_07ILAOCFOM@Schutze?$AA@ 4008dc1c     bg_misc.obj
 0002:00001c24       ??_C@_0BM@IOBMNPPG@axis_hq_promo_feldmarschall?$AA@ 4008dc24     bg_misc.obj
 0002:00001c40       ??_C@_0BG@CCKHFHD@axis_hq_promo_general?$AA@ 4008dc40     bg_misc.obj
 0002:00001c58       ??_C@_0CB@FFBKJAK@axis_hq_promo_general_lieutenant@ 4008dc58     bg_misc.obj
 0002:00001c7c       ??_C@_0BO@NEINGNBL@axis_hq_promo_general_brigade?$AA@ 4008dc7c     bg_misc.obj
 0002:00001c9c       ??_C@_0BM@LPDDNAMN@axis_hq_promo_general_major?$AA@ 4008dc9c     bg_misc.obj
 0002:00001cb8       ??_C@_0BG@DIKONNJG@axis_hq_promo_colonel?$AA@ 4008dcb8     bg_misc.obj
 0002:00001cd0       ??_C@_0BP@DDAIMHOJ@axis_hq_promo_colonel_leutnant?$AA@ 4008dcd0     bg_misc.obj
 0002:00001cf0       ??_C@_0BE@LIONHKGL@axis_hq_promo_major?$AA@ 4008dcf0     bg_misc.obj
 0002:00001d04       ??_C@_0BG@GIPKEJAI@axis_hq_promo_captain?$AA@ 4008dd04     bg_misc.obj
 0002:00001d1c       ??_C@_0BO@ENKGKBCB@axis_hq_promo_lieutenant_ober?$AA@ 4008dd1c     bg_misc.obj
 0002:00001d3c       ??_C@_0BJ@BALGLEKA@axis_hq_promo_lieutenant?$AA@ 4008dd3c     bg_misc.obj
 0002:00001d58       ??_C@_0CB@FCBGCEMB@axis_hq_promo_sergeant_oberstabs@ 4008dd58     bg_misc.obj
 0002:00001d7c       ??_C@_0BN@LCAMLBPP@axis_hq_promo_sergeant_stabs?$AA@ 4008dd7c     bg_misc.obj
 0002:00001d9c       ??_C@_0BN@PMIFHKEE@axis_hq_promo_sergeant_haupt?$AA@ 4008dd9c     bg_misc.obj
 0002:00001dbc       ??_C@_0BM@OFBPDPHC@axis_hq_promo_sergeant_ober?$AA@ 4008ddbc     bg_misc.obj
 0002:00001dd8       ??_C@_0BH@EPIDGNDB@axis_hq_promo_sergeant?$AA@ 4008ddd8     bg_misc.obj
 0002:00001df0       ??_C@_0BH@ONALDOBP@axis_hq_promo_corporal?$AA@ 4008ddf0     bg_misc.obj
 0002:00001e08       ??_C@_0BG@GFOLBAEI@axis_hq_promo_private?$AA@ 4008de08     bg_misc.obj
 0002:00001e20       ??_C@_0BP@CEIKGCDA@allies_hq_promo_general_ofarmy?$AA@ 4008de20     bg_misc.obj
 0002:00001e40       ??_C@_0BI@KCOFOFBP@allies_hq_promo_general?$AA@ 4008de40     bg_misc.obj
 0002:00001e58       ??_C@_0CD@FDAHAOAJ@allies_hq_promo_general_lieutena@ 4008de58     bg_misc.obj
 0002:00001e7c       ??_C@_0CC@GGJFIPMA@allies_hq_promo_general_brigadie@ 4008de7c     bg_misc.obj
 0002:00001ea0       ??_C@_0BO@OGFFJLMM@allies_hq_promo_general_major?$AA@ 4008dea0     bg_misc.obj
 0002:00001ec0       ??_C@_0BI@JIGBENPK@allies_hq_promo_colonel?$AA@ 4008dec0     bg_misc.obj
 0002:00001ed8       ??_C@_0CD@JAFOFFDP@allies_hq_promo_colonel_lieutena@ 4008ded8     bg_misc.obj
 0002:00001efc       ??_C@_0BG@HAMCCEND@allies_hq_promo_major?$AA@ 4008defc     bg_misc.obj
 0002:00001f14       ??_C@_0BI@MIDFNJGE@allies_hq_promo_captain?$AA@ 4008df14     bg_misc.obj
 0002:00001f2c       ??_C@_0BL@CLOBNDHP@allies_hq_promo_lieutenant?$AA@ 4008df2c     bg_misc.obj
 0002:00001f48       ??_C@_0CC@BLLNBPGH@allies_hq_promo_lieutenant_secon@ 4008df48     bg_misc.obj
 0002:00001f6c       ??_C@_0BP@JCEMLJCI@allies_hq_promo_sergeant_major?$AA@ 4008df6c     bg_misc.obj
 0002:00001f8c       ??_C@_0CA@NLKPGPKP@allies_hq_promo_sergeant_master?$AA@ 4008df8c     bg_misc.obj
 0002:00001fac       ??_C@_0BM@GPIEALI@allies_hq_promo_sergeant_fc?$AA@ 4008dfac     bg_misc.obj
 0002:00001fc8       ??_C@_0BP@PFOOKJOK@allies_hq_promo_sergeant_staff?$AA@ 4008dfc8     bg_misc.obj
 0002:00001fe8       ??_C@_0BJ@LCHIPNC@allies_hq_promo_sergeant?$AA@ 4008dfe8     bg_misc.obj
 0002:00002004       ??_C@_0BJ@KJKPNMPM@allies_hq_promo_corporal?$AA@ 4008e004     bg_misc.obj
 0002:00002020       ??_C@_0BI@MFCEIACE@allies_hq_promo_private?$AA@ 4008e020     bg_misc.obj
 0002:00002038       ??_C@_0O@PIOJMJPP@EV_MAX_EVENTS?$AA@ 4008e038     bg_misc.obj
 0002:00002048       ??_C@_0BC@BFCJOJEG@EV_MISSIONMESSAGE?$AA@ 4008e048     bg_misc.obj
 0002:0000205c       ??_C@_0BB@MMKEHNAA@EV_ARTY_DETECTED?$AA@ 4008e05c     bg_misc.obj
 0002:00002070       ??_C@_0BB@EKNOKLJJ@EV_SHOTGUN_FIRED?$AA@ 4008e070     bg_misc.obj
 0002:00002084       ??_C@_0BD@NENMDPPO@EV_PRIVATE_MESSAGE?$AA@ 4008e084     bg_misc.obj
 0002:00002098       ??_C@_0L@BLLOOGLJ@EV_WEAPALT?$AA@ 4008e098     bg_misc.obj
 0002:000020a4       ??_C@_0P@JPGPHKEL@EV_SHOVE_SOUND?$AA@ 4008e0a4     bg_misc.obj
 0002:000020b4       ??_C@_0O@JOOGPEAN@EV_THROWKNIFE?$AA@ 4008e0b4     bg_misc.obj
 0002:000020c4       ??_C@_0BF@DPHHPLGK@EV_WOLFKICK_HIT_WALL?$AA@ 4008e0c4     bg_misc.obj
 0002:000020dc       ??_C@_0BG@MPJAIEPI@EV_WOLFKICK_HIT_FLESH?$AA@ 4008e0dc     bg_misc.obj
 0002:000020f4       ??_C@_0BB@LMDAAPJO@EV_WOLFKICK_MISS?$AA@ 4008e0f4     bg_misc.obj
 0002:00002108       ??_C@_07OOBDFBAI@EV_KICK?$AA@ 4008e108     bg_misc.obj
 0002:00002110       ??_C@_0BA@JNKHJAHG@EV_BOUNCE_SOUND?$AA@ 4008e110     bg_misc.obj
 0002:00002120       ??_C@_0L@MPBMBGK@EV_BODY_DP?$AA@ 4008e120     bg_misc.obj
 0002:0000212c       ??_C@_0BA@KFBPNFLB@EV_SHOTGUN_PUMP?$AA@ 4008e12c     bg_misc.obj
 0002:0000213c       ??_C@_0O@ENLBJNBO@EV_MEDIC_CALL?$AA@ 4008e13c     bg_misc.obj
 0002:0000214c       ??_C@_0BE@NHFHPENA@EV_AIRSTRIKEMESSAGE?$AA@ 4008e14c     bg_misc.obj
 0002:00002160       ??_C@_0P@EPAIEIBJ@EV_ARTYMESSAGE?$AA@ 4008e160     bg_misc.obj
 0002:00002170       ??_C@_0BA@OECEDLO@EV_POPUPMESSAGE?$AA@ 4008e170     bg_misc.obj
 0002:00002180       ??_C@_0BB@MABFGLCH@EV_ALERT_SPEAKER?$AA@ 4008e180     bg_misc.obj
 0002:00002194       ??_C@_09KLJDDMJG@EV_DEBRIS?$AA@ 4008e194     bg_misc.obj
 0002:000021a0       ??_C@_0BG@MJHCOBPG@EV_BUILDDECAYED_SOUND?$AA@ 4008e1a0     bg_misc.obj
 0002:000021b8       ??_C@_0BC@OENCMDHH@EV_DISGUISE_SOUND?$AA@ 4008e1b8     bg_misc.obj
 0002:000021cc       ??_C@_08PLNHEBOO@EV_SHAKE?$AA@ 4008e1cc     bg_misc.obj
 0002:000021d8       ??_C@_0BH@GFPAIABB@EV_MG42BULLET_HIT_WALL?$AA@ 4008e1d8     bg_misc.obj
 0002:000021f0       ??_C@_0BI@IBNKLDH@EV_MG42BULLET_HIT_FLESH?$AA@ 4008e1f0     bg_misc.obj
 0002:00002208       ??_C@_0BH@BPCINDIK@EV_FLAMETHROWER_EFFECT?$AA@ 4008e208     bg_misc.obj
 0002:00002220       ??_C@_0N@OHOAKEEP@EV_GUNSPARKS?$AA@ 4008e220     bg_misc.obj
 0002:00002230       ??_C@_0O@PLJGGILF@EV_RUMBLE_EFX?$AA@ 4008e230     bg_misc.obj
 0002:00002240       ??_C@_07KHPAIDBA@EV_DUST?$AA@ 4008e240     bg_misc.obj
 0002:00002248       ??_C@_0O@PJMOJJEP@EV_SNOWFLURRY?$AA@ 4008e248     bg_misc.obj
 0002:00002258       ??_C@_0BC@DAKMMNLM@EV_OILSLICKREMOVE?$AA@ 4008e258     bg_misc.obj
 0002:0000226c       ??_C@_0M@NAPIEEDO@EV_OILSLICK?$AA@ 4008e26c     bg_misc.obj
 0002:00002278       ??_C@_0BA@MAJPOFCN@EV_OILPARTICLES?$AA@ 4008e278     bg_misc.obj
 0002:00002288       ??_C@_0L@DBFAIBIB@EV_EMITTER?$AA@ 4008e288     bg_misc.obj
 0002:00002294       ??_C@_07MBGEADMM@EV_JUNK?$AA@ 4008e294     bg_misc.obj
 0002:0000229c       ??_C@_08PBDLOIFA@EV_SHARD?$AA@ 4008e29c     bg_misc.obj
 0002:000022a8       ??_C@_0P@EMPGNDEH@EV_MORTAR_MISS?$AA@ 4008e2a8     bg_misc.obj
 0002:000022b8       ??_C@_0BB@NOIHDOFC@EV_MORTAR_IMPACT?$AA@ 4008e2b8     bg_misc.obj
 0002:000022cc       ??_C@_0BG@HBPPKNFD@EV_MISSILE_MISS_LARGE?$AA@ 4008e2cc     bg_misc.obj
 0002:000022e4       ??_C@_0BG@NJLEFMMF@EV_MISSILE_MISS_SMALL?$AA@ 4008e2e4     bg_misc.obj
 0002:000022fc       ??_C@_09JPPNNBP@EV_SPINUP?$AA@ 4008e2fc     bg_misc.obj
 0002:00002308       ??_C@_0N@OOLHPPFB@EV_MORTAREFX?$AA@ 4008e308     bg_misc.obj
 0002:00002318       ??_C@_09PBOIJPHL@EV_EFFECT?$AA@ 4008e318     bg_misc.obj
 0002:00002324       ??_C@_09OGABLHFK@EV_RUBBLE?$AA@ 4008e324     bg_misc.obj
 0002:00002330       ??_C@_0L@PDKGIDMH@EV_EXPLODE?$AA@ 4008e330     bg_misc.obj
 0002:0000233c       ??_C@_0BD@PCIMGPJ@EV_SPARKS_ELECTRIC?$AA@ 4008e33c     bg_misc.obj
 0002:00002350       ??_C@_09BONFKDEA@EV_SPARKS?$AA@ 4008e350     bg_misc.obj
 0002:0000235c       ??_C@_08NDOILJKN@EV_SMOKE?$AA@ 4008e35c     bg_misc.obj
 0002:00002368       ??_C@_0BE@OHJHDFJH@EV_STOPLOOPINGSOUND?$AA@ 4008e368     bg_misc.obj
 0002:0000237c       ??_C@_0O@JLGFLKBE@EV_GIB_PLAYER?$AA@ 4008e37c     bg_misc.obj
 0002:0000238c       ??_C@_0BG@JGKJADKH@EV_STOPSTREAMINGSOUND?$AA@ 4008e38c     bg_misc.obj
 0002:000023a4       ??_C@_0M@PPLCDPP@EV_OBITUARY?$AA@ 4008e3a4     bg_misc.obj
 0002:000023b0       ??_C@_09OCCGIOMN@EV_DEATH4?$AA@ 4008e3b0     bg_misc.obj
 0002:000023bc       ??_C@_09KNGHBIAK@EV_DEATH3?$AA@ 4008e3bc     bg_misc.obj
 0002:000023c8       ??_C@_09LEHMCJEL@EV_DEATH2?$AA@ 4008e3c8     bg_misc.obj
 0002:000023d4       ??_C@_09JPFBHKII@EV_DEATH1?$AA@ 4008e3d4     bg_misc.obj
 0002:000023e0       ??_C@_07EMHHKOOH@EV_PAIN?$AA@ 4008e3e0     bg_misc.obj
 0002:000023e8       ??_C@_0M@DKCBCMBK@EV_LOSE_HAT?$AA@ 4008e3e8     bg_misc.obj
 0002:000023f4       ??_C@_09ICDIPKFJ@EV_BULLET?$AA@ 4008e3f4     bg_misc.obj
 0002:00002400       ??_C@_0N@HMLLJFGF@EV_RAILTRAIL?$AA@ 4008e400     bg_misc.obj
 0002:00002410       ??_C@_0BA@CAHALNAE@EV_MISSILE_MISS?$AA@ 4008e410     bg_misc.obj
 0002:00002420       ??_C@_0P@JFMFNBMO@EV_MISSILE_HIT?$AA@ 4008e420     bg_misc.obj
 0002:00002430       ??_C@_0BD@MFLMCLPN@EV_BULLET_HIT_WALL?$AA@ 4008e430     bg_misc.obj
 0002:00002444       ??_C@_0BE@KBABEJMP@EV_BULLET_HIT_FLESH?$AA@ 4008e444     bg_misc.obj
 0002:00002458       ??_C@_0M@EIFDFIOI@EV_FX_SOUND?$AA@ 4008e458     bg_misc.obj
 0002:00002464       ??_C@_0BF@DDOIKLHD@EV_GLOBAL_TEAM_SOUND?$AA@ 4008e464     bg_misc.obj
 0002:0000247c       ??_C@_0BH@IDPCELGG@EV_GLOBAL_CLIENT_SOUND?$AA@ 4008e47c     bg_misc.obj
 0002:00002494       ??_C@_0BA@JAMKLOPJ@EV_GLOBAL_SOUND?$AA@ 4008e494     bg_misc.obj
 0002:000024a4       ??_C@_0BI@HKIIFDIJ@EV_GENERAL_SOUND_VOLUME?$AA@ 4008e4a4     bg_misc.obj
 0002:000024bc       ??_C@_0BB@LJGGMAII@EV_GENERAL_SOUND?$AA@ 4008e4bc     bg_misc.obj
 0002:000024d0       ??_C@_0BC@ECIIAFLJ@EV_GRENADE_BOUNCE?$AA@ 4008e4d0     bg_misc.obj
 0002:000024e4       ??_C@_0M@ECGFPIMP@EV_ITEM_POP?$AA@ 4008e4e4     bg_misc.obj
 0002:000024f0       ??_C@_0BA@GJNCODNG@EV_ITEM_RESPAWN?$AA@ 4008e4f0     bg_misc.obj
 0002:00002500       ??_C@_0BL@HGJDFKEH@EV_FIRE_WEAPON_MOUNTEDMG42?$AA@ 4008e500     bg_misc.obj
 0002:0000251c       ??_C@_0BE@BGCCOODJ@EV_FIRE_WEAPON_MG42?$AA@ 4008e51c     bg_misc.obj
 0002:00002530       ??_C@_0BF@ELKDIJEM@EV_NOFIRE_UNDERWATER?$AA@ 4008e530     bg_misc.obj
 0002:00002548       ??_C@_0BI@LIJDKNHM@EV_FIRE_WEAPON_LASTSHOT?$AA@ 4008e548     bg_misc.obj
 0002:00002560       ??_C@_0BA@BBGMEGHJ@EV_FIRE_WEAPONB?$AA@ 4008e560     bg_misc.obj
 0002:00002570       ??_C@_0P@PFJPAFGH@EV_FIRE_WEAPON?$AA@ 4008e570     bg_misc.obj
 0002:00002580       ??_C@_0BD@MABEALLM@EV_CHANGE_WEAPON_2?$AA@ 4008e580     bg_misc.obj
 0002:00002594       ??_C@_0BB@ENKPHJLP@EV_CHANGE_WEAPON?$AA@ 4008e594     bg_misc.obj
 0002:000025a8       ??_C@_0BB@JPDLIBL@EV_WEAP_OVERHEAT?$AA@ 4008e5a8     bg_misc.obj
 0002:000025bc       ??_C@_0N@ICJMNDPK@EV_FILL_CLIP?$AA@ 4008e5bc     bg_misc.obj
 0002:000025cc       ??_C@_0BC@NFCFBFAA@EV_WEAPONSWITCHED?$AA@ 4008e5cc     bg_misc.obj
 0002:000025e0       ??_C@_09NMIICG@EV_NOAMMO?$AA@ 4008e5e0     bg_misc.obj
 0002:000025ec       ??_C@_0BG@KFILGAMN@EV_GLOBAL_ITEM_PICKUP?$AA@ 4008e5ec     bg_misc.obj
 0002:00002604       ??_C@_0BF@KPFIMFLK@EV_ITEM_PICKUP_QUIET?$AA@ 4008e604     bg_misc.obj
 0002:0000261c       ??_C@_0P@BGIOEPCB@EV_ITEM_PICKUP?$AA@ 4008e61c     bg_misc.obj
 0002:0000262c       ??_C@_0P@NIPCJOBG@EV_WATER_CLEAR?$AA@ 4008e62c     bg_misc.obj
 0002:0000263c       ??_C@_0P@MIAIODEJ@EV_WATER_UNDER?$AA@ 4008e63c     bg_misc.obj
 0002:0000264c       ??_C@_0P@LHDMOIIG@EV_WATER_LEAVE?$AA@ 4008e64c     bg_misc.obj
 0002:0000265c       ??_C@_0P@GCDBKPMP@EV_WATER_TOUCH?$AA@ 4008e65c     bg_misc.obj
 0002:0000266c       ??_C@_0P@FPAELLBE@EV_FALL_DMG_50?$AA@ 4008e66c     bg_misc.obj
 0002:0000267c       ??_C@_0P@CHDMFJNE@EV_FALL_DMG_25?$AA@ 4008e67c     bg_misc.obj
 0002:0000268c       ??_C@_0P@CFHKOHIN@EV_FALL_DMG_15?$AA@ 4008e68c     bg_misc.obj
 0002:0000269c       ??_C@_0P@FIANBDMI@EV_FALL_DMG_10?$AA@ 4008e69c     bg_misc.obj
 0002:000026ac       ??_C@_0N@DDNFHLKI@EV_FALL_NDIE?$AA@ 4008e6ac     bg_misc.obj
 0002:000026bc       ??_C@_0M@LKJJNJOM@EV_FALL_FAR?$AA@ 4008e6bc     bg_misc.obj
 0002:000026c8       ??_C@_0P@MGFLMCKC@EV_FALL_MEDIUM?$AA@ 4008e6c8     bg_misc.obj
 0002:000026d8       ??_C@_0O@EAFDHAJM@EV_FALL_SHORT?$AA@ 4008e6d8     bg_misc.obj
 0002:000026e8       ??_C@_0L@HOOIOPKF@EV_STEP_16?$AA@ 4008e6e8     bg_misc.obj
 0002:000026f4       ??_C@_0L@BKIECKKB@EV_STEP_12?$AA@ 4008e6f4     bg_misc.obj
 0002:00002700       ??_C@_09EHOLDGNN@EV_STEP_8?$AA@ 4008e700     bg_misc.obj
 0002:0000270c       ??_C@_09OLFOHJNB@EV_STEP_4?$AA@ 4008e70c     bg_misc.obj
 0002:00002718       ??_C@_07FFIIIPLH@EV_SWIM?$AA@ 4008e718     bg_misc.obj
 0002:00002720       ??_C@_0O@HLJHKIDH@EV_FOOTSPLASH?$AA@ 4008e720     bg_misc.obj
 0002:00002730       ??_C@_0M@HLKBOJPO@EV_FOOTSTEP?$AA@ 4008e730     bg_misc.obj
 0002:0000273c       ??_C@_07JFMDDPHJ@EV_NONE?$AA@ 4008e73c     bg_misc.obj
 0002:00002744       ??_C@_09MDBFHCAB@Blue?5Flag?$AA@ 4008e744     bg_misc.obj
 0002:00002750       ??_C@_0BC@NLKCOFAB@team_CTF_blueflag?$AA@ 4008e750     bg_misc.obj
 0002:00002764       ??_C@_09BFBOLFMF@Objective?$AA@ 4008e764     bg_misc.obj
 0002:00002770       ??_C@_0BB@JNMMCIHG@team_CTF_redflag?$AA@ 4008e770     bg_misc.obj
 0002:00002784       ??_C@_0N@BCPMGCMF@Johnson?5Clip?$AA@ 4008e784     bg_misc.obj
 0002:00002794       ??_C@_0N@LMFLNMAH@ammo_johnson?$AA@ 4008e794     bg_misc.obj
 0002:000027a4       ??_C@_0BM@FEICAMDO@models?1ammo?1panzerfaust?4md3?$AA@ 4008e7a4     bg_misc.obj
 0002:000027c0       ??_C@_0BB@HPGOOBBD@ammo_panzerfaust?$AA@ 4008e7c0     bg_misc.obj
 0002:000027d4       ??_C@_0P@KDLJFGAP@Bazooka?5Rocket?$AA@ 4008e7d4     bg_misc.obj
 0002:000027e4       ??_C@_0BI@PPLLOMGH@models?1ammo?1bazooka?4md3?$AA@ 4008e7e4     bg_misc.obj
 0002:000027fc       ??_C@_0N@NGKBGKPL@ammo_bazooka?$AA@ 4008e7fc     bg_misc.obj
 0002:0000280c       ??_C@_0N@MEPFBIJM@Mortar?5Shell?$AA@ 4008e80c     bg_misc.obj
 0002:0000281c       ??_C@_0BH@MBKBNNIG@models?1ammo?1mortar?4md3?$AA@ 4008e81c     bg_misc.obj
 0002:00002834       ??_C@_0M@KHMIEMLK@ammo_mortar?$AA@ 4008e834     bg_misc.obj
 0002:00002840       ??_C@_0BA@GOCMNNCC@Venom?5Ammo?5Belt?$AA@ 4008e840     bg_misc.obj
 0002:00002850       ??_C@_0L@JEMJMKLH@ammo_venom?$AA@ 4008e850     bg_misc.obj
 0002:0000285c       ??_C@_0L@BIFLFAKA@Kar43?5Clip?$AA@ 4008e85c     bg_misc.obj
 0002:00002868       ??_C@_0L@GLDDGOAG@ammo_kar98?$AA@ 4008e868     bg_misc.obj
 0002:00002874       ??_C@_08NMALHCIO@K43?5Clip?$AA@ 4008e874     bg_misc.obj
 0002:00002880       ??_C@_0BE@OEMBEPAF@models?1ammo?1k43?4md3?$AA@ 4008e880     bg_misc.obj
 0002:00002894       ??_C@_08ILKOFLBC@ammo_k43?$AA@ 4008e894     bg_misc.obj
 0002:000028a0       ??_C@_09KBKNEHDB@Sten?5Clip?$AA@ 4008e8a0     bg_misc.obj
 0002:000028ac       ??_C@_0BF@POJFPBLD@models?1ammo?1sten?4md3?$AA@ 4008e8ac     bg_misc.obj
 0002:000028c4       ??_C@_09KLPJEPEG@ammo_sten?$AA@ 4008e8c4     bg_misc.obj
 0002:000028d0       ??_C@_09FDDLGJHN@MP34?5Clip?$AA@ 4008e8d0     bg_misc.obj
 0002:000028dc       ??_C@_0BF@PDMNJBLG@models?1ammo?1mp34?4md3?$AA@ 4008e8dc     bg_misc.obj
 0002:000028f4       ??_C@_09NDCOBGCO@ammo_mp34?$AA@ 4008e8f4     bg_misc.obj
 0002:00002900       ??_C@_09KGPIBBB@FG42?5Clip?$AA@ 4008e900     bg_misc.obj
 0002:0000290c       ??_C@_0BF@BEBIOKMK@models?1ammo?1fg42?4md3?$AA@ 4008e90c     bg_misc.obj
 0002:00002924       ??_C@_09DKCFPJBK@ammo_fg42?$AA@ 4008e924     bg_misc.obj
 0002:00002930       ??_C@_08LJNJBMHA@BAR?5Clip?$AA@ 4008e930     bg_misc.obj
 0002:0000293c       ??_C@_0BE@EOGHELPH@models?1ammo?1bar?4md3?$AA@ 4008e93c     bg_misc.obj
 0002:00002950       ??_C@_08HFLDIGIH@ammo_bar?$AA@ 4008e950     bg_misc.obj
 0002:0000295c       ??_C@_0L@OOBJAGDC@Stg44?5Clip?$AA@ 4008e95c     bg_misc.obj
 0002:00002968       ??_C@_0BG@MKJINHKI@models?1ammo?1stg44?4md3?$AA@ 4008e968     bg_misc.obj
 0002:00002980       ??_C@_0L@OPBMINPA@ammo_stg44?$AA@ 4008e980     bg_misc.obj
 0002:0000298c       ??_C@_0P@LOIGJEFL@Pack?5of?5Shells?$AA@ 4008e98c     bg_misc.obj
 0002:0000299c       ??_C@_0BL@KLCDMAII@models?1ammo?1winchester?4md3?$AA@ 4008e99c     bg_misc.obj
 0002:000029b8       ??_C@_0N@ODJHJBHM@ammo_shotgun?$AA@ 4008e9b8     bg_misc.obj
 0002:000029c8       ??_C@_0BB@BJCCABDG@Browning?5Ammobox?$AA@ 4008e9c8     bg_misc.obj
 0002:000029dc       ??_C@_0O@LEGHNEMP@ammo_browning?$AA@ 4008e9dc     bg_misc.obj
 0002:000029ec       ??_C@_0P@EKFOAMDO@MG42?5Ammo?5Belt?$AA@ 4008e9ec     bg_misc.obj
 0002:000029fc       ??_C@_0BJ@LJBBLCJB@models?1ammo?1ammoBelt?4md3?$AA@ 4008e9fc     bg_misc.obj
 0002:00002a18       ??_C@_09ENPFMIAL@ammo_mg42?$AA@ 4008ea18     bg_misc.obj
 0002:00002a24       ??_C@_0M@FDIBNCGH@Garand?5Clip?$AA@ 4008ea24     bg_misc.obj
 0002:00002a30       ??_C@_0N@EJAEHEIK@ammo_carbine?$AA@ 4008ea30     bg_misc.obj
 0002:00002a40       ??_C@_0BD@PCGHCLIM@Garand?5Sniper?5Clip?$AA@ 4008ea40     bg_misc.obj
 0002:00002a54       ??_C@_0BH@CKFLBLJB@models?1ammo?1garand?4md3?$AA@ 4008ea54     bg_misc.obj
 0002:00002a6c       ??_C@_0M@EJLBCHMD@ammo_garand?$AA@ 4008ea6c     bg_misc.obj
 0002:00002a78       ??_C@_07JNNBFIJM@syringe?$AA@ 4008ea78     bg_misc.obj
 0002:00002a80       ??_C@_0N@IEFIKFCP@ammo_syringe?$AA@ 4008ea80     bg_misc.obj
 0002:00002a90       ??_C@_09HEHHMCNO@Colt?5Clip?$AA@ 4008ea90     bg_misc.obj
 0002:00002a9c       ??_C@_0BF@EEFBPKJB@models?1ammo?1colt?4md3?$AA@ 4008ea9c     bg_misc.obj
 0002:00002ab4       ??_C@_09PDPNMJAO@ammo_colt?$AA@ 4008eab4     bg_misc.obj
 0002:00002ac0       ??_C@_0O@GGLFFGAJ@smoke?5grenade?$AA@ 4008eac0     bg_misc.obj
 0002:00002ad0       ??_C@_0BD@OGPDMOHE@ammo_smoke_grenade?$AA@ 4008ead0     bg_misc.obj
 0002:00002ae4       ??_C@_0L@ICICOOBK@Luger?5Clip?$AA@ 4008eae4     bg_misc.obj
 0002:00002af0       ??_C@_0BG@FHOFBCPM@models?1ammo?1luger?4md3?$AA@ 4008eaf0     bg_misc.obj
 0002:00002b08       ??_C@_0L@OLKBLIAK@ammo_luger?$AA@ 4008eb08     bg_misc.obj
 0002:00002b14       ??_C@_0P@PLCJINDF@satchel?5charge?$AA@ 4008eb14     bg_misc.obj
 0002:00002b24       ??_C@_0BE@KHCPJLAF@ammo_satchel_charge?$AA@ 4008eb24     bg_misc.obj
 0002:00002b38       ??_C@_08IKEDDBIN@landmine?$AA@ 4008eb38     bg_misc.obj
 0002:00002b44       ??_C@_0O@NIDCFKEG@ammo_landmine?$AA@ 4008eb44     bg_misc.obj
 0002:00002b54       ??_C@_0BD@HNMJIHCO@airstrike?5canister?$AA@ 4008eb54     bg_misc.obj
 0002:00002b68       ??_C@_0P@OEAGAGOC@ammo_airstrike?$AA@ 4008eb68     bg_misc.obj
 0002:00002b78       ??_C@_08CGINOLOA@disguise?$AA@ 4008eb78     bg_misc.obj
 0002:00002b84       ??_C@_0O@HEPMIACL@ammo_disguise?$AA@ 4008eb84     bg_misc.obj
 0002:00002b94       ??_C@_08NPLJAOBO@dynamite?$AA@ 4008eb94     bg_misc.obj
 0002:00002ba0       ??_C@_0O@INMIGFNF@ammo_dynamite?$AA@ 4008eba0     bg_misc.obj
 0002:00002bb0       ??_C@_09KNLBEEHH@MP40?5Clip?$AA@ 4008ebb0     bg_misc.obj
 0002:00002bbc       ??_C@_0BF@KNPLONCO@models?1ammo?1mp40?4md3?$AA@ 4008ebbc     bg_misc.obj
 0002:00002bd4       ??_C@_09LCANMFKP@ammo_mp40?$AA@ 4008ebd4     bg_misc.obj
 0002:00002be0       ??_C@_0O@GJIGPKKB@Thompson?5Clip?$AA@ 4008ebe0     bg_misc.obj
 0002:00002bf0       ??_C@_0BJ@PNLFFCCM@models?1ammo?1thompson?4md3?$AA@ 4008ebf0     bg_misc.obj
 0002:00002c0c       ??_C@_0BH@DPAADLFH@sound?1misc?1am_pkup?4wav?$AA@ 4008ec0c     bg_misc.obj
 0002:00002c24       ??_C@_0O@BEPPKMEM@ammo_thompson?$AA@ 4008ec24     bg_misc.obj
 0002:00002c34       ??_C@_07LJACAEOJ@Dog?5Tag?$AA@ 4008ec34     bg_misc.obj
 0002:00002c3c       ??_C@_0CG@EHNDIEDE@models?1multiplayer?1dogtags?1dogta@ 4008ec3c     bg_misc.obj
 0002:00002c64       ??_C@_0P@BBCFBOAJ@weapon_dogtags?$AA@ 4008ec64     bg_misc.obj
 0002:00002c74       ??_C@_05INBJFEEM@Venom?$AA@ 4008ec74     bg_misc.obj
 0002:00002c7c       ??_C@_0BC@MCLFPOGK@icons?1iconw_venom?$AA@ 4008ec7c     bg_misc.obj
 0002:00002c90       ??_C@_0CC@DOIOBJAI@models?1weapons2?1venom?1v_venom?4md@ 4008ec90     bg_misc.obj
 0002:00002cb4       ??_C@_0CD@MCCBKGGI@models?1weapons2?1venom?1pu_venom?4m@ 4008ecb4     bg_misc.obj
 0002:00002cd8       ??_C@_0N@LHEAHOFN@weapon_venom?$AA@ 4008ecd8     bg_misc.obj
 0002:00002ce8       ??_C@_04MPLEDDIG@MP34?$AA@ 4008ece8     bg_misc.obj
 0002:00002cf0       ??_C@_0CA@DPLDKGKF@models?1weapons2?1mp34?1v_mp34?4md3?$AA@ 4008ecf0     bg_misc.obj
 0002:00002d10       ??_C@_0CC@JJPLOKNN@models?1weapons2?1mp34?1mp34_3rd?4md@ 4008ed10     bg_misc.obj
 0002:00002d34       ??_C@_0M@IDPNEDNJ@weapon_mp34?$AA@ 4008ed34     bg_misc.obj
 0002:00002d40       ??_C@_07DGFOPFBO@Bazooka?$AA@ 4008ed40     bg_misc.obj
 0002:00002d48       ??_C@_0CK@MLNENNLB@models?1weapons2?1panzerfaust?1v_ba@ 4008ed48     bg_misc.obj
 0002:00002d74       ??_C@_0CM@KGFIEPBF@models?1weapons2?1panzerfaust?1bazo@ 4008ed74     bg_misc.obj
 0002:00002da0       ??_C@_0P@LODMCFIB@weapon_bazooka?$AA@ 4008eda0     bg_misc.obj
 0002:00002db0       ??_C@_0O@FHHLJPCJ@Johnson?5Scope?$AA@ 4008edb0     bg_misc.obj
 0002:00002dc0       ??_C@_0BF@JLPDOJEM@weapon_Johnson_Scope?$AA@ 4008edc0     bg_misc.obj
 0002:00002dd8       ??_C@_07FMKEEDOC@Johnson?$AA@ 4008edd8     bg_misc.obj
 0002:00002de0       ??_C@_0BG@JHEHDEGP@icons?1iconw_johnson_1?$AA@ 4008ede0     bg_misc.obj
 0002:00002df8       ??_C@_0CE@PGOJIGJO@models?1weapons2?1johnson?1johnson?4@ 4008edf8     bg_misc.obj
 0002:00002e1c       ??_C@_0P@CNLAPBCL@weapon_Johnson?$AA@ 4008ee1c     bg_misc.obj
 0002:00002e2c       ??_C@_03BGHDGIHE@BAR?$AA@  4008ee2c     bg_misc.obj
 0002:00002e30       ??_C@_0BP@DPKGONBI@models?1weapons2?1bar?1bar3rd?4md3?$AA@ 4008ee30     bg_misc.obj
 0002:00002e50       ??_C@_0L@KOGMIAIL@weapon_BAR?$AA@ 4008ee50     bg_misc.obj
 0002:00002e5c       ??_C@_09GIPKKGAO@BAR?5Bipod?$AA@ 4008ee5c     bg_misc.obj
 0002:00002e68       ??_C@_0BC@IHNIAHMI@icons?1iconw_bar_1?$AA@ 4008ee68     bg_misc.obj
 0002:00002e7c       ??_C@_0BO@MNLFBAPA@models?1weapons2?1bar?1v_bar?4md3?$AA@ 4008ee7c     bg_misc.obj
 0002:00002e9c       ??_C@_0CF@CJPFKDM@models?1weapons2?1bar?1bar3rd_bipod@ 4008ee9c     bg_misc.obj
 0002:00002ec4       ??_C@_0P@OFMNGCKP@weapon_BAR_set?$AA@ 4008eec4     bg_misc.obj
 0002:00002ed4       ??_C@_05FGPOLMDF@StG44?$AA@ 4008eed4     bg_misc.obj
 0002:00002edc       ??_C@_0BE@DDCKIGJI@icons?1iconw_stg44_1?$AA@ 4008eedc     bg_misc.obj
 0002:00002ef0       ??_C@_0CB@ECJMKPOI@models?1weapons2?1StG44?1v_mp44?4md3@ 4008eef0     bg_misc.obj
 0002:00002f14       ??_C@_0BP@CAHBPCIA@models?1weapons2?1StG44?1mp44?4md3?$AA@ 4008ef14     bg_misc.obj
 0002:00002f34       ??_C@_0N@GLALJDBC@weapon_StG44?$AA@ 4008ef34     bg_misc.obj
 0002:00002f44       ??_C@_0BA@PIIENDJA@Mobile?5Browning?$AA@ 4008ef44     bg_misc.obj
 0002:00002f54       ??_C@_0BH@OEPOHPDM@weapon_mobile_browning?$AA@ 4008ef54     bg_misc.obj
 0002:00002f6c       ??_C@_0BG@DKPFBFCL@Mobile?5Browning?5Bipod?$AA@ 4008ef6c     bg_misc.obj
 0002:00002f84       ??_C@_0BH@NDEHLIOM@icons?1iconw_browning_1?$AA@ 4008ef84     bg_misc.obj
 0002:00002f9c       ??_C@_0CK@GDGFFID@models?1weapons2?1browning?1v_brown@ 4008ef9c     bg_misc.obj
 0002:00002fc8       ??_C@_0CM@HKOGNKMA@models?1weapons2?1browning?1brown30@ 4008efc8     bg_misc.obj
 0002:00002ff4       ??_C@_0BL@OIOGAHH@weapon_mobile_browning_set?$AA@ 4008eff4     bg_misc.obj
 0002:00003010       ??_C@_06LLGHBMJN@Ka?9Bar?$AA@ 4008f010     bg_misc.obj
 0002:00003018       ??_C@_0CK@IEBHMPIP@models?1multiplayer?1knife_kbar?1v_@ 4008f018     bg_misc.obj
 0002:00003044       ??_C@_0CI@GBDAPBJN@models?1multiplayer?1knife_kbar?1kn@ 4008f044     bg_misc.obj
 0002:0000306c       ??_C@_0BD@FHDEJFDP@weapon_knife_kabar?$AA@ 4008f06c     bg_misc.obj
 0002:00003080       ??_C@_07DGIAOJJ@Shotgun?$AA@ 4008f080     bg_misc.obj
 0002:00003088       ??_C@_0BL@GKIMENNF@icons?1iconw_shotgun_1_wide?$AA@ 4008f088     bg_misc.obj
 0002:000030a4       ??_C@_0CM@FBIDENAC@models?1weapons2?1winchester?1v_win@ 4008f0a4     bg_misc.obj
 0002:000030d0       ??_C@_0CO@FIBEEMLF@models?1weapons2?1winchester?1winch@ 4008f0d0     bg_misc.obj
 0002:00003100       ??_C@_0P@ILAKNOAG@weapon_shotgun?$AA@ 4008f100     bg_misc.obj
 0002:00003110       ??_C@_05NLIPEJCP@BLANK?$AA@ 4008f110     bg_misc.obj
 0002:00003118       ??_C@_0N@KGCBOGJK@weapon_dummy?$AA@ 4008f118     bg_misc.obj
 0002:00003128       ??_C@_0L@ILFOJDGJ@sp5?5pistol?$AA@ 4008f128     bg_misc.obj
 0002:00003134       ??_C@_0BH@NFOOGGLB@icons?1iconw_silencer_1?$AA@ 4008f134     bg_misc.obj
 0002:0000314c       ??_C@_0CJ@PJFJNNPK@models?1weapons2?1silencer?1pu_sile@ 4008f14c     bg_misc.obj
 0002:00003178       ??_C@_0CI@MKOIFLDA@models?1weapons2?1silencer?1v_silen@ 4008f178     bg_misc.obj
 0002:000031a0       ??_C@_0CG@CGPGGACN@models?1weapons2?1silencer?1silence@ 4008f1a0     bg_misc.obj
 0002:000031c8       ??_C@_0BA@LFBOPKHB@weapon_silencer?$AA@ 4008f1c8     bg_misc.obj
 0002:000031d8       ??_C@_0BC@KGGIDFDB@Mobile?5MG42?5Bipod?$AA@ 4008f1d8     bg_misc.obj
 0002:000031ec       ??_C@_0BH@LPAECBIO@weapon_mobile_mg42_set?$AA@ 4008f1ec     bg_misc.obj
 0002:00003204       ??_C@_0M@PNMMDIAD@Mobile?5MG42?$AA@ 4008f204     bg_misc.obj
 0002:00003210       ??_C@_0BD@CPMCGCNO@icons?1iconw_mg42_1?$AA@ 4008f210     bg_misc.obj
 0002:00003224       ??_C@_0CD@HEBMOGN@models?1multiplayer?1mg42?1v_mg42?4m@ 4008f224     bg_misc.obj
 0002:00003248       ??_C@_0CF@OCGIPJGL@models?1multiplayer?1mg42?1mg42_3rd@ 4008f248     bg_misc.obj
 0002:00003270       ??_C@_0BD@LKEJMBNI@weapon_mobile_mg42?$AA@ 4008f270     bg_misc.obj
 0002:00003284       ??_C@_0L@NHPGFDDA@Smoke?5Bomb?$AA@ 4008f284     bg_misc.obj
 0002:00003290       ??_C@_0CN@DGNMGPJI@models?1multiplayer?1smokebomb?1v_s@ 4008f290     bg_misc.obj
 0002:000032c0       ??_C@_0CL@HDONIDIH@models?1multiplayer?1smokebomb?1smo@ 4008f2c0     bg_misc.obj
 0002:000032ec       ??_C@_0BB@NMEAKGJN@weapon_smokebomb?$AA@ 4008f2ec     bg_misc.obj
 0002:00003300       ??_C@_0BJ@HJKDBKOJ@Satchel?5Charge?5Detonator?$AA@ 4008f300     bg_misc.obj
 0002:0000331c       ??_C@_0BE@JAHNMEBI@icons?1iconw_radio_1?$AA@ 4008f31c     bg_misc.obj
 0002:00003330       ??_C@_0CF@MBEIHOMH@models?1multiplayer?1satchel?1radio@ 4008f330     bg_misc.obj
 0002:00003358       ??_C@_0BI@HPCONGBI@weapon_satchelDetonator?$AA@ 4008f358     bg_misc.obj
 0002:00003370       ??_C@_0P@LMFBIKDH@Satchel?5Charge?$AA@ 4008f370     bg_misc.obj
 0002:00003380       ??_C@_0BG@EHFFCCAJ@icons?1iconw_satchel_1?$AA@ 4008f380     bg_misc.obj
 0002:00003398       ??_C@_0CJ@KIJCLGLG@models?1multiplayer?1satchel?1v_sat@ 4008f398     bg_misc.obj
 0002:000033c4       ??_C@_0CH@BPJCFOGJ@models?1multiplayer?1satchel?1satch@ 4008f3c4     bg_misc.obj
 0002:000033ec       ??_C@_0P@NDDAPDLL@weapon_satchel?$AA@ 4008f3ec     bg_misc.obj
 0002:000033fc       ??_C@_08ILCLDCO@Landmine?$AA@ 4008f3fc     bg_misc.obj
 0002:00003408       ??_C@_0BH@DDAGFJJM@icons?1iconw_landmine_1?$AA@ 4008f408     bg_misc.obj
 0002:00003420       ??_C@_0CL@CNGCMFFG@models?1multiplayer?1landmine?1v_la@ 4008f420     bg_misc.obj
 0002:0000344c       ??_C@_0CJ@DNFPCDBG@models?1multiplayer?1landmine?1land@ 4008f44c     bg_misc.obj
 0002:00003478       ??_C@_0BA@GIIKFPCL@weapon_landmine?$AA@ 4008f478     bg_misc.obj
 0002:00003488       ??_C@_0BF@NCDFOIGH@Mounted?5Granatwerfer?$AA@ 4008f488     bg_misc.obj
 0002:000034a0       ??_C@_0BD@ICLJMJCJ@weapon_mortar2_set?$AA@ 4008f4a0     bg_misc.obj
 0002:000034b4       ??_C@_0N@HKMODPNA@Granatwerfer?$AA@ 4008f4b4     bg_misc.obj
 0002:000034c4       ??_C@_0P@KOPOIJNF@weapon_mortar2?$AA@ 4008f4c4     bg_misc.obj
 0002:000034d4       ??_C@_0P@MMMJHFLN@Mounted?5Mortar?$AA@ 4008f4d4     bg_misc.obj
 0002:000034e4       ??_C@_0BC@CGGBACNL@weapon_mortar_set?$AA@ 4008f4e4     bg_misc.obj
 0002:000034f8       ??_C@_06INLOLHLA@Mortar?$AA@ 4008f4f8     bg_misc.obj
 0002:00003500       ??_C@_0BF@KHDFOKKL@icons?1iconw_mortar_1?$AA@ 4008f500     bg_misc.obj
 0002:00003518       ??_C@_0CH@GPOCMLDJ@models?1multiplayer?1mortar?1v_mort@ 4008f518     bg_misc.obj
 0002:00003540       ??_C@_0CJ@KFBPFJHI@models?1multiplayer?1mortar?1mortar@ 4008f540     bg_misc.obj
 0002:0000356c       ??_C@_0O@OHDEMOGI@weapon_mortar?$AA@ 4008f56c     bg_misc.obj
 0002:0000357c       ??_C@_0L@NGNNBKAH@FG42?5Scope?$AA@ 4008f57c     bg_misc.obj
 0002:00003588       ??_C@_0BB@IFLIELIJ@weapon_fg42scope?$AA@ 4008f588     bg_misc.obj
 0002:0000359c       ??_C@_0BF@NEOIPKLD@FG42?5Paratroop?5Rifle?$AA@ 4008f59c     bg_misc.obj
 0002:000035b4       ??_C@_0M@NNHMELIL@icons?1ammo5?$AA@ 4008f5b4     bg_misc.obj
 0002:000035c0       ??_C@_0BD@CNMFDGCE@icons?1iconw_fg42_1?$AA@ 4008f5c0     bg_misc.obj
 0002:000035d4       ??_C@_0CB@JHNGGBL@models?1weapons2?1fg42?1pu_fg42?4md3@ 4008f5d4     bg_misc.obj
 0002:000035f8       ??_C@_0CA@JIPGBDCM@models?1weapons2?1fg42?1v_fg42?4md3?$AA@ 4008f5f8     bg_misc.obj
 0002:00003618       ??_C@_0BO@DPAGMCPJ@models?1weapons2?1fg42?1fg42?4md3?$AA@ 4008f618     bg_misc.obj
 0002:00003638       ??_C@_0M@GKPGKMON@weapon_fg42?$AA@ 4008f638     bg_misc.obj
 0002:00003644       ??_C@_0BA@BDCBJLMI@M1?5Garand?5Scope?$AA@ 4008f644     bg_misc.obj
 0002:00003654       ??_C@_0BI@EGHKLNHO@weapon_garandRifleScope?$AA@ 4008f654     bg_misc.obj
 0002:0000366c       ??_C@_06GDMHNMMJ@Garand?$AA@ 4008f66c     bg_misc.obj
 0002:00003674       ??_C@_0BD@BMNLELGG@weapon_garandRifle?$AA@ 4008f674     bg_misc.obj
 0002:00003688       ??_C@_09LGFJFBBG@M1?5Garand?$AA@ 4008f688     bg_misc.obj
 0002:00003694       ??_C@_0BG@NOMJHDMG@weapon_M1CarbineRifle?$AA@ 4008f694     bg_misc.obj
 0002:000036ac       ??_C@_06LHCCBDPK@GPG40A?$AA@ 4008f6ac     bg_misc.obj
 0002:000036b4       ??_C@_0BI@LDODFNDJ@icons?1iconw_m1_garand_1?$AA@ 4008f6b4     bg_misc.obj
 0002:000036cc       ??_C@_0CN@JHAAHIHP@models?1multiplayer?1m1_garand?1v_m@ 4008f6cc     bg_misc.obj
 0002:000036fc       ??_C@_0CP@GBEAIANM@models?1multiplayer?1m1_garand?1m1_@ 4008f6fc     bg_misc.obj
 0002:0000372c       ??_C@_0BE@GEGCCGLD@weapon_gpg40_allied?$AA@ 4008f72c     bg_misc.obj
 0002:00003740       ??_C@_05JOJELAHI@GPG40?$AA@ 4008f740     bg_misc.obj
 0002:00003748       ??_C@_0N@MFDOBKFD@weapon_gpg40?$AA@ 4008f748     bg_misc.obj
 0002:00003758       ??_C@_03EFKHNHKD@K43?$AA@  4008f758     bg_misc.obj
 0002:0000375c       ??_C@_0BE@EIMPPHEO@icons?1iconw_kar98_1?$AA@ 4008f75c     bg_misc.obj
 0002:00003770       ??_C@_0BC@MGMKHEFB@weapon_kar98Rifle?$AA@ 4008f770     bg_misc.obj
 0002:00003784       ??_C@_0BA@PEIEBNAM@K43?5Rifle?5Scope?$AA@ 4008f784     bg_misc.obj
 0002:00003794       ??_C@_0BD@KLCHMOMN@weapon_kar43_scope?$AA@ 4008f794     bg_misc.obj
 0002:000037a8       ??_C@_09FPGDCOLL@K43?5Rifle?$AA@ 4008f7a8     bg_misc.obj
 0002:000037b4       ??_C@_0M@ILCGOMAN@icons?1ammo3?$AA@ 4008f7b4     bg_misc.obj
 0002:000037c0       ??_C@_0BF@JPJNFAGP@icons?1iconw_mauser_1?$AA@ 4008f7c0     bg_misc.obj
 0002:000037d8       ??_C@_0CM@FCENNCEI@models?1multiplayer?1mauser?1mauser@ 4008f7d8     bg_misc.obj
 0002:00003804       ??_C@_0CF@BDODAJEP@models?1multiplayer?1kar98?1v_kar98@ 4008f804     bg_misc.obj
 0002:0000382c       ??_C@_0CH@POCOCE@models?1multiplayer?1kar98?1kar98_3@ 4008f82c     bg_misc.obj
 0002:00003854       ??_C@_0N@KDJGJAHE@weapon_kar43?$AA@ 4008f854     bg_misc.obj
 0002:00003864       ??_C@_0L@MHEKHPIN@Binoculars?$AA@ 4008f864     bg_misc.obj
 0002:00003870       ??_C@_0BC@BDIBEFKD@weapon_binoculars?$AA@ 4008f870     bg_misc.obj
 0002:00003884       ??_C@_0P@JMIGMAIG@Huge?5Ammo?5Pack?$AA@ 4008f884     bg_misc.obj
 0002:00003894       ??_C@_0BC@PCBEOHOO@weapon_magicammo3?$AA@ 4008f894     bg_misc.obj
 0002:000038a8       ??_C@_0P@MKLFHJBO@Mega?5Ammo?5Pack?$AA@ 4008f8a8     bg_misc.obj
 0002:000038b8       ??_C@_0CH@IJHLDMOA@models?1multiplayer?1binocs?1v_bino@ 4008f8b8     bg_misc.obj
 0002:000038e0       ??_C@_0BC@OLAPNGKP@weapon_magicammo2?$AA@ 4008f8e0     bg_misc.obj
 0002:000038f4       ??_C@_09IGIMIJAM@Ammo?5Pack?$AA@ 4008f8f4     bg_misc.obj
 0002:00003900       ??_C@_0BH@HEFMBIGH@icons?1iconw_ammopack_1?$AA@ 4008f900     bg_misc.obj
 0002:00003918       ??_C@_0DA@BNKGGEGK@models?1multiplayer?1ammopack?1ammo@ 4008f918     bg_misc.obj
 0002:00003948       ??_C@_0CL@GLBHEPKK@models?1multiplayer?1ammopack?1v_am@ 4008f948     bg_misc.obj
 0002:00003974       ??_C@_0CJ@NEHCKBJG@models?1multiplayer?1ammopack?1ammo@ 4008f974     bg_misc.obj
 0002:000039a0       ??_C@_0BB@MJDHMBEF@weapon_magicammo?$AA@ 4008f9a0     bg_misc.obj
 0002:000039b4       ??_C@_0BD@HGCEKHJD@Adrenaline?5Syringe?$AA@ 4008f9b4     bg_misc.obj
 0002:000039c8       ??_C@_0BI@IHBCJDIP@weapon_medic_adrenaline?$AA@ 4008f9c8     bg_misc.obj
 0002:000039e0       ??_C@_0P@NGMHGOIF@Poison?5Syringe?$AA@ 4008f9e0     bg_misc.obj
 0002:000039f0       ??_C@_0BF@CHJJOBEH@icons?1iconw_poison_1?$AA@ 4008f9f0     bg_misc.obj
 0002:00003a08       ??_C@_0BG@MAAKKANE@weapon_poison_syringe?$AA@ 4008fa08     bg_misc.obj
 0002:00003a20       ??_C@_07GEKHDKMK@Syringe?$AA@ 4008fa20     bg_misc.obj
 0002:00003a28       ??_C@_0BF@EAONHALE@weapon_medic_syringe?$AA@ 4008fa28     bg_misc.obj
 0002:00003a40       ??_C@_09DOIKKMF@Artillery?$AA@ 4008fa40     bg_misc.obj
 0002:00003a4c       ??_C@_0BG@ODMDGLFO@icons?1iconw_syringe_1?$AA@ 4008fa4c     bg_misc.obj
 0002:00003a64       ??_C@_0CJ@MCHDJPCA@models?1multiplayer?1syringe?1v_syr@ 4008fa64     bg_misc.obj
 0002:00003a90       ??_C@_0CH@JGJKKKDO@models?1multiplayer?1syringe?1syrin@ 4008fa90     bg_misc.obj
 0002:00003ab8       ??_C@_0M@NMAGMMFO@weapon_arty?$AA@ 4008fab8     bg_misc.obj
 0002:00003ac4       ??_C@_07ONMEKKNJ@Special?$AA@ 4008fac4     bg_misc.obj
 0002:00003acc       ??_C@_0BF@EGJKNLFD@icons?1iconw_pliers_1?$AA@ 4008facc     bg_misc.obj
 0002:00003ae4       ??_C@_0CH@CCAPEGPE@models?1multiplayer?1pliers?1v_plie@ 4008fae4     bg_misc.obj
 0002:00003b0c       ??_C@_0CF@KHODGCJJ@models?1multiplayer?1pliers?1pliers@ 4008fb0c     bg_misc.obj
 0002:00003b34       ??_C@_0BF@HGNENFHI@weapon_class_special?$AA@ 4008fb34     bg_misc.obj
 0002:00003b4c       ??_C@_0N@LDKIPHF@Flamethrower?$AA@ 4008fb4c     bg_misc.obj
 0002:00003b5c       ??_C@_0N@KCPILIMM@icons?1ammo10?$AA@ 4008fb5c     bg_misc.obj
 0002:00003b6c       ??_C@_0BL@DKJBHHMJ@icons?1iconw_flamethrower_1?$AA@ 4008fb6c     bg_misc.obj
 0002:00003b88       ??_C@_0DB@MEFGGOBE@models?1weapons2?1flamethrower?1pu_@ 4008fb88     bg_misc.obj
 0002:00003bbc       ??_C@_0DA@OLBDONLO@models?1weapons2?1flamethrower?1v_f@ 4008fbbc     bg_misc.obj
 0002:00003bec       ??_C@_0CO@NOBDPJNE@models?1weapons2?1flamethrower?1fla@ 4008fbec     bg_misc.obj
 0002:00003c1c       ??_C@_0BE@MGDBILCA@weapon_flamethrower?$AA@ 4008fc1c     bg_misc.obj
 0002:00003c30       ??_C@_0BA@EJJBCBOH@Dynamite?5Weapon?$AA@ 4008fc30     bg_misc.obj
 0002:00003c40       ??_C@_0M@HBMJAEIH@icons?1ammo9?$AA@ 4008fc40     bg_misc.obj
 0002:00003c4c       ??_C@_0BH@NPAMPIIC@icons?1iconw_dynamite_1?$AA@ 4008fc4c     bg_misc.obj
 0002:00003c64       ??_C@_0CI@HOBCNAON@models?1weapons2?1dynamite?1v_dynam@ 4008fc64     bg_misc.obj
 0002:00003c8c       ??_C@_0CN@CCNMCHIK@models?1multiplayer?1dynamite?1dyna@ 4008fc8c     bg_misc.obj
 0002:00003cbc       ??_C@_0BA@DNHAGALI@weapon_dynamite?$AA@ 4008fcbc     bg_misc.obj
 0002:00003ccc       ??_C@_09MPJALICA@medicheal?$AA@ 4008fccc     bg_misc.obj
 0002:00003cd8       ??_C@_0BG@BEHMBCJB@icons?1iconw_medheal_1?$AA@ 4008fcd8     bg_misc.obj
 0002:00003cf0       ??_C@_0CJ@KMLLGJEP@models?1multiplayer?1medpack?1v_med@ 4008fcf0     bg_misc.obj
 0002:00003d1c       ??_C@_0CH@HJGJPBFB@models?1multiplayer?1medpack?1medpa@ 4008fd1c     bg_misc.obj
 0002:00003d44       ??_C@_0BC@MGOLNGIC@weapon_medic_heal?$AA@ 4008fd44     bg_misc.obj
 0002:00003d58       ??_C@_0L@BJKNNJNH@smokeTrail?$AA@ 4008fd58     bg_misc.obj
 0002:00003d64       ??_C@_0BC@EMFGGJBI@weapon_smoketrail?$AA@ 4008fd64     bg_misc.obj
 0002:00003d78       ??_C@_0N@EPMNKMAI@smokeGrenade?$AA@ 4008fd78     bg_misc.obj
 0002:00003d88       ??_C@_0BL@MFPPHILJ@icons?1iconw_smokegrenade_1?$AA@ 4008fd88     bg_misc.obj
 0002:00003da4       ??_C@_0DD@NPJGCFLG@models?1multiplayer?1smokegrenade?1@ 4008fda4     bg_misc.obj
 0002:00003dd8       ??_C@_0DB@IBDPDLGI@models?1multiplayer?1smokegrenade?1@ 4008fdd8     bg_misc.obj
 0002:00003e0c       ??_C@_0BE@MOMMPDAI@weapon_grenadesmoke?$AA@ 4008fe0c     bg_misc.obj
 0002:00003e20       ??_C@_09EBEMMGPP@Pineapple?$AA@ 4008fe20     bg_misc.obj
 0002:00003e2c       ??_C@_0BG@BHAOAJFD@icons?1icona_pineapple?$AA@ 4008fe2c     bg_misc.obj
 0002:00003e44       ??_C@_0BI@NHIHLINI@icons?1iconw_pineapple_1?$AA@ 4008fe44     bg_misc.obj
 0002:00003e5c       ??_C@_0CI@NAFKGHJD@models?1weapons2?1grenade?1v_pineap@ 4008fe5c     bg_misc.obj
 0002:00003e84       ??_C@_0CG@NEBNAIOM@models?1weapons2?1grenade?1pineappl@ 4008fe84     bg_misc.obj
 0002:00003eac       ??_C@_0BI@BDNAKMLM@weapon_grenadepineapple?$AA@ 4008feac     bg_misc.obj
 0002:00003ec4       ??_C@_07GIIHBBNN@Grenade?$AA@ 4008fec4     bg_misc.obj
 0002:00003ecc       ??_C@_0BE@LHOKGGAM@icons?1icona_grenade?$AA@ 4008fecc     bg_misc.obj
 0002:00003ee0       ??_C@_0BG@EKPMBKKI@icons?1iconw_grenade_1?$AA@ 4008fee0     bg_misc.obj
 0002:00003ef8       ??_C@_0CG@HPDANMDK@models?1weapons2?1grenade?1v_grenad@ 4008fef8     bg_misc.obj
 0002:00003f20       ??_C@_0CE@DPFMPDPO@models?1weapons2?1grenade?1grenade?4@ 4008ff20     bg_misc.obj
 0002:00003f44       ??_C@_0BH@DGCCJPLM@weapon_grenadelauncher?$AA@ 4008ff44     bg_misc.obj
 0002:00003f5c       ??_C@_0M@FLKOLANO@Panzerfaust?$AA@ 4008ff5c     bg_misc.obj
 0002:00003f68       ??_C@_0M@PGFBBIEI@icons?1ammo6?$AA@ 4008ff68     bg_misc.obj
 0002:00003f74       ??_C@_0BK@BNNIJHHA@icons?1iconw_panzerfaust_1?$AA@ 4008ff74     bg_misc.obj
 0002:00003f90       ??_C@_0CF@INJNBKLK@models?1weapons2?1panzerfaust?1v_pf@ 4008ff90     bg_misc.obj
 0002:00003fb8       ??_C@_0CD@KLGINFIC@models?1weapons2?1panzerfaust?1pf?4m@ 4008ffb8     bg_misc.obj
 0002:00003fdc       ??_C@_0BD@IHKMHGCL@weapon_panzerfaust?$AA@ 4008ffdc     bg_misc.obj
 0002:00003ff0       ??_C@_05BPFOPNCG@Knife?$AA@ 4008fff0     bg_misc.obj
 0002:00003ff8       ??_C@_0BE@FELCPKJK@icons?1iconw_knife_1?$AA@ 4008fff8     bg_misc.obj
 0002:0000400c       ??_C@_0CF@CCDIOFP@models?1multiplayer?1knife?1v_knife@ 4009000c     bg_misc.obj
 0002:00004034       ??_C@_0CD@EKBJCGJD@models?1multiplayer?1knife?1knife?4m@ 40090034     bg_misc.obj
 0002:00004058       ??_C@_0N@CFAHNHDH@weapon_knife?$AA@ 40090058     bg_misc.obj
 0002:00004068       ??_C@_0BF@JGCLIJOB@Silenced?5Akimbo?5Colt?$AA@ 40090068     bg_misc.obj
 0002:00004080       ??_C@_0BK@LILPLFOO@weapon_akimbosilencedcolt?$AA@ 40090080     bg_misc.obj
 0002:0000409c       ??_C@_0M@ECNDEPLM@Akimbo?5Colt?$AA@ 4009009c     bg_misc.obj
 0002:000040a8       ??_C@_0CO@LNDDIOPH@models?1weapons2?1akimbo_colt?1v_ak@ 400900a8     bg_misc.obj
 0002:000040d8       ??_C@_0BC@JHJOELDN@weapon_akimbocolt?$AA@ 400900d8     bg_misc.obj
 0002:000040ec       ??_C@_04EPFFEDJI@Colt?$AA@ 400900ec     bg_misc.obj
 0002:000040f4       ??_C@_0CA@HEFFIJDL@models?1weapons2?1colt?1v_colt?4md3?$AA@ 400900f4     bg_misc.obj
 0002:00004114       ??_C@_0M@KDCOJMPJ@weapon_colt?$AA@ 40090114     bg_misc.obj
 0002:00004120       ??_C@_04BHFBMFNA@Sten?$AA@ 40090120     bg_misc.obj
 0002:00004128       ??_C@_0BD@BJMJKDBJ@icons?1iconw_sten_1?$AA@ 40090128     bg_misc.obj
 0002:0000413c       ??_C@_0CA@JCCOLKIK@models?1weapons2?1sten?1v_sten?4md3?$AA@ 4009013c     bg_misc.obj
 0002:0000415c       ??_C@_0BO@OLCNBIBF@models?1weapons2?1sten?1sten?4md3?$AA@ 4009015c     bg_misc.obj
 0002:0000417c       ??_C@_0M@PLCKBKLB@weapon_sten?$AA@ 4009017c     bg_misc.obj
 0002:00004188       ??_C@_0O@MMIFKCPM@Silenced?5Colt?$AA@ 40090188     bg_misc.obj
 0002:00004198       ??_C@_0DD@BKIOEAL@models?1multiplayer?1silencedcolt?1@ 40090198     bg_misc.obj
 0002:000041cc       ??_C@_0BO@LFGFJAPM@models?1weapons2?1colt?1colt?4md3?$AA@ 400901cc     bg_misc.obj
 0002:000041ec       ??_C@_0BE@GGFMMMNL@weapon_silencedcolt?$AA@ 400901ec     bg_misc.obj
 0002:00004200       ??_C@_05PCHBCGPB@Luger?$AA@ 40090200     bg_misc.obj
 0002:00004208       ??_C@_0CC@EKFIEFML@models?1weapons2?1luger?1v_luger?4md@ 40090208     bg_misc.obj
 0002:0000422c       ??_C@_0N@MICIAMOA@weapon_luger?$AA@ 4009022c     bg_misc.obj
 0002:0000423c       ??_C@_0BG@NLHBJBKD@Silenced?5Akimbo?5Luger?$AA@ 4009023c     bg_misc.obj
 0002:00004254       ??_C@_0BL@ELOABIAO@weapon_akimbosilencedluger?$AA@ 40090254     bg_misc.obj
 0002:00004270       ??_C@_0N@MOHPEECM@Akimbo?5Luger?$AA@ 40090270     bg_misc.obj
 0002:00004280       ??_C@_0BD@CFLCBIAF@icons?1iconw_colt_1?$AA@ 40090280     bg_misc.obj
 0002:00004294       ??_C@_0DA@JAPIIIBB@models?1weapons2?1akimbo_luger?1v_a@ 40090294     bg_misc.obj
 0002:000042c4       ??_C@_0CA@JCGGEPBC@models?1weapons2?1luger?1luger?4md3?$AA@ 400902c4     bg_misc.obj
 0002:000042e4       ??_C@_0BD@FEBFLKJO@weapon_akimboluger?$AA@ 400902e4     bg_misc.obj
 0002:000042f8       ??_C@_08MEHPEFCE@Thompson?$AA@ 400902f8     bg_misc.obj
 0002:00004304       ??_C@_0BH@JNDHCKPC@icons?1iconw_thompson_1?$AA@ 40090304     bg_misc.obj
 0002:0000431c       ??_C@_0CI@KCIHJEOK@models?1weapons2?1thompson?1v_thomp@ 4009031c     bg_misc.obj
 0002:00004344       ??_C@_0CG@LDIIPHD@models?1weapons2?1thompson?1thompso@ 40090344     bg_misc.obj
 0002:0000436c       ??_C@_0BA@KEEHKJCB@weapon_thompson?$AA@ 4009036c     bg_misc.obj
 0002:0000437c       ??_C@_04KOJHOAAH@MP40?$AA@ 4009037c     bg_misc.obj
 0002:00004384       ??_C@_0M@JCDNNNEM@icons?1ammo2?$AA@ 40090384     bg_misc.obj
 0002:00004390       ??_C@_0BD@JLBIJIHG@icons?1iconw_mp40_1?$AA@ 40090390     bg_misc.obj
 0002:000043a4       ??_C@_0CA@MEPBBKGL@models?1weapons2?1mp40?1v_mp40?4md3?$AA@ 400903a4     bg_misc.obj
 0002:000043c4       ??_C@_0BO@FIMFOHLD@models?1weapons2?1mp40?1mp40?4md3?$AA@ 400903c4     bg_misc.obj
 0002:000043e4       ??_C@_0BG@BBKFHONL@sound?1misc?1w_pkup?4wav?$AA@ 400903e4     bg_misc.obj
 0002:000043fc       ??_C@_0M@OCNOJAFI@weapon_mp40?$AA@ 400903fc     bg_misc.obj
 0002:00004408       ??_C@_0BB@ONKJGELP@item_health_wall?$AA@ 40090408     bg_misc.obj
 0002:0000441c       ??_C@_09DJPFKDBO@Cold?5Meal?$AA@ 4009041c     bg_misc.obj
 0002:00004428       ??_C@_0CF@PNLILMOB@models?1powerups?1health?1health_b1@ 40090428     bg_misc.obj
 0002:00004450       ??_C@_0CF@HLCMMOEP@models?1powerups?1health?1health_b2@ 40090450     bg_misc.obj
 0002:00004478       ??_C@_0CF@LAHABNOK@models?1powerups?1health?1health_b3@ 40090478     bg_misc.obj
 0002:000044a0       ??_C@_0BM@MFEDMPAO@sound?1items?1cold_pickup?4wav?$AA@ 400904a0     bg_misc.obj
 0002:000044bc       ??_C@_0BJ@PIFLNDBE@item_health_breadandmeat?$AA@ 400904bc     bg_misc.obj
 0002:000044d8       ??_C@_08EGDKBHCC@Hot?5Meal?$AA@ 400904d8     bg_misc.obj
 0002:000044e4       ??_C@_0CF@PJLGBFBF@models?1powerups?1health?1health_t1@ 400904e4     bg_misc.obj
 0002:0000450c       ??_C@_0CF@HPCCGHLL@models?1powerups?1health?1health_t2@ 4009050c     bg_misc.obj
 0002:00004534       ??_C@_0CF@LEHOLEBO@models?1powerups?1health?1health_t3@ 40090534     bg_misc.obj
 0002:0000455c       ??_C@_0BL@NGOPHJBM@sound?1items?1hot_pickup?4wav?$AA@ 4009055c     bg_misc.obj
 0002:00004578       ??_C@_0BD@HCMLHKKB@item_health_turkey?$AA@ 40090578     bg_misc.obj
 0002:0000458c       ??_C@_0N@OPDFKAFG@Small?5Health?$AA@ 4009058c     bg_misc.obj
 0002:0000459c       ??_C@_0BJ@OLHMCLBI@sound?1items?1n_health?4wav?$AA@ 4009059c     bg_misc.obj
 0002:000045b8       ??_C@_0BC@DOHAFEBI@item_health_small?$AA@ 400905b8     bg_misc.obj
 0002:000045cc       ??_C@_0BC@JGDLKFIO@item_health_large?$AA@ 400905cc     bg_misc.obj
 0002:000045e0       ??_C@_0L@ECDAPFKD@Med?5Health?$AA@ 400905e0     bg_misc.obj
 0002:000045ec       ??_C@_0CO@LAKDKKND@models?1multiplayer?1medpack?1medpa@ 400905ec     bg_misc.obj
 0002:0000461c       ??_C@_0M@KCNAKNNL@item_health?$AA@ 4009061c     bg_misc.obj
 0002:00004628       ??_C@_06GGDALCBD@Health?$AA@ 40090628     bg_misc.obj
 0002:00004630       ??_C@_0BN@FIAHAEDN@sound?1misc?1health_pickup?4wav?$AA@ 40090630     bg_misc.obj
 0002:00004650       ??_C@_0BE@LEDEOIPH@item_health_cabinet?$AA@ 40090650     bg_misc.obj
 0002:00004664       ??_C@_0BK@JLBLEBFC@Allied?5Covert?5Ops?5Uniform?$AA@ 40090664     bg_misc.obj
 0002:00004680       ??_C@_0CN@LBNDOIJE@models?1powerups?1uniforms?1alliedC@ 40090680     bg_misc.obj
 0002:000046b0       ??_C@_0BM@EEJJLNCC@item_alliedCovertOpsUniform?$AA@ 400906b0     bg_misc.obj
 0002:000046cc       ??_C@_0BJ@NFABKMOF@Allied?5Field?5Ops?5Uniform?$AA@ 400906cc     bg_misc.obj
 0002:000046e8       ??_C@_0CM@DCAJJBKO@models?1powerups?1uniforms?1alliedF@ 400906e8     bg_misc.obj
 0002:00004714       ??_C@_0BL@INOJHLCB@item_alliedFieldOpsUniform?$AA@ 40090714     bg_misc.obj
 0002:00004730       ??_C@_0BI@BMADAEND@Allied?5Engineer?5Uniform?$AA@ 40090730     bg_misc.obj
 0002:00004748       ??_C@_0CM@EGDMPCKG@models?1powerups?1uniforms?1alliedE@ 40090748     bg_misc.obj
 0002:00004774       ??_C@_0BO@JBBJKGEN@item_alliedEngineerOpsUniform?$AA@ 40090774     bg_misc.obj
 0002:00004794       ??_C@_0BF@BJFHFDAO@Allied?5Medic?5Uniform?$AA@ 40090794     bg_misc.obj
 0002:000047ac       ??_C@_0CJ@NAHOMBK@models?1powerups?1uniforms?1alliedM@ 400907ac     bg_misc.obj
 0002:000047d8       ??_C@_0BI@OCKLKIHI@item_alliedMedicUniform?$AA@ 400907d8     bg_misc.obj
 0002:000047f0       ??_C@_0BH@MAFMNJFJ@Allied?5Soldier?5Uniform?$AA@ 400907f0     bg_misc.obj
 0002:00004808       ??_C@_0CL@FLOHCLPK@models?1powerups?1uniforms?1alliedS@ 40090808     bg_misc.obj
 0002:00004834       ??_C@_0BK@MPFCGFCB@item_alliedSoldierUniform?$AA@ 40090834     bg_misc.obj
 0002:00004850       ??_C@_0BI@PBFMIMAN@Axis?5Covert?5Ops?5Uniform?$AA@ 40090850     bg_misc.obj
 0002:00004868       ??_C@_0CL@ICNMCKJB@models?1powerups?1uniforms?1axisCov@ 40090868     bg_misc.obj
 0002:00004894       ??_C@_0BK@CDMAJJFM@item_axisCovertOpsUniform?$AA@ 40090894     bg_misc.obj
 0002:000048b0       ??_C@_0BH@CCOMABPE@Axis?5Field?5Ops?5Uniform?$AA@ 400908b0     bg_misc.obj
 0002:000048c8       ??_C@_0CK@DONGHBMD@models?1powerups?1uniforms?1axisFie@ 400908c8     bg_misc.obj
 0002:000048f4       ??_C@_0BJ@JIHMJLK@item_axisFieldOpsUniform?$AA@ 400908f4     bg_misc.obj
 0002:00004910       ??_C@_0BG@JDPJEIEH@Axis?5Engineer?5Uniform?$AA@ 40090910     bg_misc.obj
 0002:00004928       ??_C@_0CK@EKODBCML@models?1powerups?1uniforms?1axisEng@ 40090928     bg_misc.obj
 0002:00004954       ??_C@_0BM@BMKGHBLN@item_axisEngineerOpsUniform?$AA@ 40090954     bg_misc.obj
 0002:00004970       ??_C@_0BD@ELMKPOBL@Axis?5Medic?5Uniform?$AA@ 40090970     bg_misc.obj
 0002:00004984       ??_C@_0CH@PIMLAFAA@models?1powerups?1uniforms?1axisMed@ 40090984     bg_misc.obj
 0002:000049ac       ??_C@_0BG@LILANAPF@item_axisMedicUniform?$AA@ 400909ac     bg_misc.obj
 0002:000049c4       ??_C@_0BF@FPIOLCIF@Axis?5Soldier?5Uniform?$AA@ 400909c4     bg_misc.obj
 0002:000049dc       ??_C@_0CJ@DCBMHODB@models?1powerups?1uniforms?1axisSol@ 400909dc     bg_misc.obj
 0002:00004a08       ??_C@_0CC@KKABMBOC@sound?1pickup?1powerups?1uniform?4wa@ 40090a08     bg_misc.obj
 0002:00004a2c       ??_C@_0BI@BPKBCADC@item_axisSoldierUniform?$AA@ 40090a2c     bg_misc.obj
 0002:00004a44       ??_C@_06NNIPIFNN@Helmet?$AA@ 40090a44     bg_misc.obj
 0002:00004a4c       ??_C@_0BL@PFNLJADM@models?1powerups?1helmet?4md3?$AA@ 40090a4c     bg_misc.obj
 0002:00004a68       ??_C@_0M@BJGPJKBF@item_helmet?$AA@ 40090a68     bg_misc.obj
 0002:00004a74       ??_C@_0N@PIKINLFA@Helmet?5Armor?$AA@ 40090a74     bg_misc.obj
 0002:00004a84       ??_C@_0CO@CHELONAH@models?1players?1temperate?1axis?1he@ 40090a84     bg_misc.obj
 0002:00004ab4       ??_C@_0CB@POMDMHPD@sound?1pickup?1powerups?1helmet?4wav@ 40090ab4     bg_misc.obj
 0002:00004ad8       ??_C@_0BC@FJLOBKFI@item_helmetshield?$AA@ 40090ad8     bg_misc.obj
 0002:00004aec       ??_C@_0M@MPGADHA@Flak?5Jacket?$AA@ 40090aec     bg_misc.obj
 0002:00004af8       ??_C@_0BP@COBNKP@models?1powerups?1flakjacket?4md3?$AA@ 40090af8     bg_misc.obj
 0002:00004b18       ??_C@_0CF@GINMNNA@sound?1pickup?1powerups?1flakjacket@ 40090b18     bg_misc.obj
 0002:00004b40       ??_C@_0BA@NFBKLJME@item_flakJacket?$AA@ 40090b40     bg_misc.obj
 0002:00004b50       ??_C@_0L@EFOCNJPA@Adrenaline?$AA@ 40090b50     bg_misc.obj
 0002:00004b5c       ??_C@_0BP@KPECCLGD@models?1powerups?1adrenaline?4md3?$AA@ 40090b5c     bg_misc.obj
 0002:00004b7b       ??_C@_00CNPNBAHC@?$AA@     40090b7b     bg_misc.obj
 0002:00004b7c       ??_C@_0BA@CDBGAOBB@item_adrenaline?$AA@ 40090b7c     bg_misc.obj
 0002:00004b8c       ??_C@_0BB@PIPBMGBP@WP_JOHNSON_SCOPE?$AA@ 40090b8c     bg_misc.obj
 0002:00004ba0       ??_C@_0M@CMGPLEPH@WP_FOOTKICK?$AA@ 40090ba0     bg_misc.obj
 0002:00004bac       ??_C@_0BC@JLHAGBOA@WP_POISON_SYRINGE?$AA@ 40090bac     bg_misc.obj
 0002:00004bc0       ??_C@_08IAGAEFBO@WP_VENOM?$AA@ 40090bc0     bg_misc.obj
 0002:00004bcc       ??_C@_0P@JONEJALH@WP_MORTAR2_SET?$AA@ 40090bcc     bg_misc.obj
 0002:00004bdc       ??_C@_0L@PMOMANPH@WP_MORTAR2?$AA@ 40090bdc     bg_misc.obj
 0002:00004be8       ??_C@_07ONFKLCLI@WP_MP34?$AA@ 40090be8     bg_misc.obj
 0002:00004bf0       ??_C@_0L@HJKKIFAB@WP_BAZOOKA?$AA@ 40090bf0     bg_misc.obj
 0002:00004bfc       ??_C@_0L@BDFADDPN@WP_JOHNSON?$AA@ 40090bfc     bg_misc.obj
 0002:00004c08       ??_C@_08FGHMGABL@WP_STG44?$AA@ 40090c08     bg_misc.obj
 0002:00004c14       ??_C@_0L@NCPNLDNH@WP_BAR_SET?$AA@ 40090c14     bg_misc.obj
 0002:00004c20       ??_C@_06PKOEOPMC@WP_BAR?$AA@ 40090c20     bg_misc.obj
 0002:00004c28       ??_C@_0BH@JOKAFGAB@WP_MOBILE_BROWNING_SET?$AA@ 40090c28     bg_misc.obj
 0002:00004c40       ??_C@_0BD@FAJFNFOK@WP_MOBILE_BROWNING?$AA@ 40090c40     bg_misc.obj
 0002:00004c54       ??_C@_0P@ECIJNPAP@WP_KNIFE_KABAR?$AA@ 40090c54     bg_misc.obj
 0002:00004c64       ??_C@_0L@EMJMHOIG@WP_SHOTGUN?$AA@ 40090c64     bg_misc.obj
 0002:00004c70       ??_C@_0BD@CLPJIPG@WP_MOBILE_MG42_SET?$AA@ 40090c70     bg_misc.obj
 0002:00004c84       ??_C@_0BI@PPAOCEIH@WP_AKIMBO_SILENCEDLUGER?$AA@ 40090c84     bg_misc.obj
 0002:00004c9c       ??_C@_0BH@GGFDCLNK@WP_AKIMBO_SILENCEDCOLT?$AA@ 40090c9c     bg_misc.obj
 0002:00004cb4       ??_C@_0BE@ODDPPPEJ@WP_MEDIC_ADRENALINE?$AA@ 40090cb4     bg_misc.obj
 0002:00004cc8       ??_C@_0O@LMAFHBHM@WP_MORTAR_SET?$AA@ 40090cc8     bg_misc.obj
 0002:00004cd8       ??_C@_0N@PDOPIODE@WP_FG42SCOPE?$AA@ 40090cd8     bg_misc.obj
 0002:00004ce8       ??_C@_0N@CPJLNOKI@WP_K43_SCOPE?$AA@ 40090ce8     bg_misc.obj
 0002:00004cf8       ??_C@_0BA@DKOGHDHC@WP_GARAND_SCOPE?$AA@ 40090cf8     bg_misc.obj
 0002:00004d08       ??_C@_0BB@INCHPCIE@WP_SILENCED_COLT?$AA@ 40090d08     bg_misc.obj
 0002:00004d1c       ??_C@_05BMIOAIIL@WP_M7?$AA@ 40090d1c     bg_misc.obj
 0002:00004d24       ??_C@_08FPNHEDFC@WP_GPG40?$AA@ 40090d24     bg_misc.obj
 0002:00004d30       ??_C@_0BA@JLHLBHAD@WP_AKIMBO_LUGER?$AA@ 40090d30     bg_misc.obj
 0002:00004d40       ??_C@_0P@HIMIGPMD@WP_AKIMBO_COLT?$AA@ 40090d40     bg_misc.obj
 0002:00004d50       ??_C@_09JNFCNKNL@WP_MORTAR?$AA@ 40090d50     bg_misc.obj
 0002:00004d5c       ??_C@_0O@KMCJPCGD@WP_DUMMY_MG42?$AA@ 40090d5c     bg_misc.obj
 0002:00004d6c       ??_C@_07EFBFNIM@WP_FG42?$AA@ 40090d6c     bg_misc.obj
 0002:00004d74       ??_C@_06KJDAFABF@WP_K43?$AA@ 40090d74     bg_misc.obj
 0002:00004d7c       ??_C@_0P@MKCMNFAA@WP_MOBILE_MG42?$AA@ 40090d7c     bg_misc.obj
 0002:00004d8c       ??_C@_0O@GEIBKAJL@WP_SMOKE_BOMB?$AA@ 40090d8c     bg_misc.obj
 0002:00004d9c       ??_C@_0P@KNOEGAFA@WP_SATCHEL_DET?$AA@ 40090d9c     bg_misc.obj
 0002:00004dac       ??_C@_0L@BEKGFDDL@WP_SATCHEL?$AA@ 40090dac     bg_misc.obj
 0002:00004db8       ??_C@_0M@BAHBGOAJ@WP_LANDMINE?$AA@ 40090db8     bg_misc.obj
 0002:00004dc4       ??_C@_09HDCLLBKC@WP_GARAND?$AA@ 40090dc4     bg_misc.obj
 0002:00004dd0       ??_C@_0L@OGAPJLHA@WP_CARBINE?$AA@ 40090dd0     bg_misc.obj
 0002:00004ddc       ??_C@_08NCFDIDON@WP_KAR98?$AA@ 40090ddc     bg_misc.obj
 0002:00004de8       ??_C@_0BA@OJEFLKAF@WP_SMOKE_MARKER?$AA@ 40090de8     bg_misc.obj
 0002:00004df8       ??_C@_09OFCBOPHK@WP_PLIERS?$AA@ 40090df8     bg_misc.obj
 0002:00004e04       ??_C@_0O@EICEBJAA@WP_BINOCULARS?$AA@ 40090e04     bg_misc.obj
 0002:00004e14       ??_C@_09IDFKCKGI@WP_MEDKIT?$AA@ 40090e14     bg_misc.obj
 0002:00004e20       ??_C@_0BB@LKDHNLJO@VERYBIGEXPLOSION?$AA@ 40090e20     bg_misc.obj
 0002:00004e34       ??_C@_0O@BHPDDFLL@WP_SMOKETRAIL?$AA@ 40090e34     bg_misc.obj
 0002:00004e44       ??_C@_0M@EFILFBJK@WP_DYNAMITE?$AA@ 40090e44     bg_misc.obj
 0002:00004e50       ??_C@_0M@MNOFMLFD@WP_SILENCER?$AA@ 40090e50     bg_misc.obj
 0002:00004e5c       ??_C@_07BPGIFPHN@WP_ARTY?$AA@ 40090e5c     bg_misc.obj
 0002:00004e64       ??_C@_07BIHNDFJM@WP_AMMO?$AA@ 40090e64     bg_misc.obj
 0002:00004e6c       ??_C@_0BB@KEGLJJDG@WP_MEDIC_SYRINGE?$AA@ 40090e6c     bg_misc.obj
 0002:00004e80       ??_C@_07DIEEIJJC@WP_STEN?$AA@ 40090e80     bg_misc.obj
 0002:00004e88       ??_C@_0BF@NGEEJMKJ@WP_GRENADE_PINEAPPLE?$AA@ 40090e88     bg_misc.obj
 0002:00004ea0       ??_C@_0M@NMLMJIAD@WP_THOMPSON?$AA@ 40090ea0     bg_misc.obj
 0002:00004eac       ??_C@_07GAEAAPNK@WP_COLT?$AA@ 40090eac     bg_misc.obj
 0002:00004eb4       ??_C@_0BA@IMAPEADC@WP_FLAMETHROWER?$AA@ 40090eb4     bg_misc.obj
 0002:00004ec4       ??_C@_0P@FNKMAFIH@WP_PANZERFAUST?$AA@ 40090ec4     bg_misc.obj
 0002:00004ed4       ??_C@_0BE@CDEHBEMM@WP_GRENADE_LAUNCHER?$AA@ 40090ed4     bg_misc.obj
 0002:00004ee8       ??_C@_07IMHJGBDJ@WP_MP40?$AA@ 40090ee8     bg_misc.obj
 0002:00004ef0       ??_C@_08PPAIDHKD@WP_LUGER?$AA@ 40090ef0     bg_misc.obj
 0002:00004efc       ??_C@_08BCCHOMHE@WP_KNIFE?$AA@ 40090efc     bg_misc.obj
 0002:00004f08       ??_C@_07MIINDMBF@WP_NONE?$AA@ 40090f08     bg_misc.obj
 0002:00004f10       ??_C@_0N@BEBPLGNB@Silver?5Snake?$AA@ 40090f10     bg_misc.obj
 0002:00004f20       ??_C@_0BC@KBMCGIGN@Bombardment?5Medal?$AA@ 40090f20     bg_misc.obj
 0002:00004f34       ??_C@_0P@EHPIKLII@Infantry?5Medal?$AA@ 40090f34     bg_misc.obj
 0002:00004f44       ??_C@_0O@BNDNDGAH@Signals?5Medal?$AA@ 40090f44     bg_misc.obj
 0002:00004f54       ??_C@_0N@FMKLPOOF@Silver?5Cross?$AA@ 40090f54     bg_misc.obj
 0002:00004f64       ??_C@_0L@IADBKBPE@Steel?5Star?$AA@ 40090f64     bg_misc.obj
 0002:00004f70       ??_C@_0BM@LPOLMAOL@Distinguished?5Service?5Medal?$AA@ 40090f70     bg_misc.obj
 0002:00004f8c       ??_C@_0O@PLLMBMHD@Heavy?5Weapons?$AA@ 40090f8c     bg_misc.obj
 0002:00004f9c       ??_C@_0O@JOOJOLAO@Light?5Weapons?$AA@ 40090f9c     bg_misc.obj
 0002:00004fac       ??_C@_07KKOMKDFM@Signals?$AA@ 40090fac     bg_misc.obj
 0002:00004fb4       ??_C@_09HIKJIKEN@First?5Aid?$AA@ 40090fb4     bg_misc.obj
 0002:00004fc0       ??_C@_0M@EKMDDPG@Engineering?$AA@ 40090fc0     bg_misc.obj
 0002:00004fcc       ??_C@_0N@IMBJBHCF@Battle?5Sense?$AA@ 40090fcc     bg_misc.obj
 0002:00004fdc       ??_C@_0CC@GDKEPGKC@?$FO7?$CIHQ?$CJ?3?5?$FO3Construction?5destroyed@ 40090fdc     bg_misc.obj
 0002:00005000       ??_C@_0BE@OLHGJFCP@_hq_const_destroyed?$AA@ 40091000     bg_misc.obj
 0002:00005014       ??_C@_0O@OEPNPBKL@SYS_Destroyed?$AA@ 40091014     bg_misc.obj
 0002:00005024       ??_C@_0BP@KCAAGEOC@?$FO7?$CIHQ?$CJ?3?5?$FO3Construction?5failed?$CB?$AA@ 40091024     bg_misc.obj
 0002:00005044       ??_C@_0BB@GIBEEHMJ@_hq_const_failed?$AA@ 40091044     bg_misc.obj
 0002:00005058       ??_C@_0BE@DLELADJK@SYS_ConstructFailed?$AA@ 40091058     bg_misc.obj
 0002:0000506c       ??_C@_0CB@IHHOFHJ@?$FO7?$CIHQ?$CJ?3?5?$FO3Construction?5complete?$CB@ 4009106c     bg_misc.obj
 0002:00005090       ??_C@_0BE@IAPMKAFF@_hq_const_completed?$AA@ 40091090     bg_misc.obj
 0002:000050a4       ??_C@_0BG@DDDPODJF@SYS_ConstructComplete?$AA@ 400910a4     bg_misc.obj
 0002:000050bc       ??_C@_0BP@CPINNCFB@?$FO7?$CIHQ?$CJ?3?5?$FO3Objective?5destroyed?$CB?$AA@ 400910bc     bg_misc.obj
 0002:000050dc       ??_C@_0BI@NPAEGJPI@_hq_objective_destroyed?$AA@ 400910dc     bg_misc.obj
 0002:000050f4       ??_C@_0BB@IHEEODDC@SYS_ObjDestroyed?$AA@ 400910f4     bg_misc.obj
 0002:00005108       ??_C@_0BK@EDHFPABB@?$FO7?$CIHQ?$CJ?3?5?$FO3Objective?5lost?$CB?$AA@ 40091108     bg_misc.obj
 0002:00005124       ??_C@_0BD@DIBPGFGF@_hq_objective_lost?$AA@ 40091124     bg_misc.obj
 0002:00005138       ??_C@_0M@JFKNHIHG@SYS_ObjLost?$AA@ 40091138     bg_misc.obj
 0002:00005144       ??_C@_0BO@IMAONBCP@?$FO7?$CIHQ?$CJ?3?5?$FO3Objective?5captured?$CB?$AA@ 40091144     bg_misc.obj
 0002:00005164       ??_C@_0BH@ODOONPEE@_hq_objective_captured?$AA@ 40091164     bg_misc.obj
 0002:0000517c       ??_C@_0BA@MLCIAEHJ@SYS_ObjCaptured?$AA@ 4009117c     bg_misc.obj
 0002:0000518c       ??_C@_0CG@GMCCKHHI@?$FO7?$CIHQ?$CJ?3?5?$FO3We?8ve?5lost?5most?5of?5our@ 4009118c     bg_misc.obj
 0002:000051b4       ??_C@_0N@DBNNFKKL@_hq_men_down?$AA@ 400911b4     bg_misc.obj
 0002:000051c4       ??_C@_0M@OOKBKFF@SYS_MenDown?$AA@ 400911c4     bg_misc.obj
 0002:000051d0       ??_C@_0CB@FJDLLGND@?$FO7?$CIHQ?$CJ?3?5?$FO3We?5need?5an?5Covert?5Ops?$CB@ 400911d0     bg_misc.obj
 0002:000051f4       ??_C@_0BD@GKEBFFOC@_hq_need_covertops?$AA@ 400911f4     bg_misc.obj
 0002:00005208       ??_C@_0BC@KDKFDOBD@SYS_NeedCovertOps?$AA@ 40091208     bg_misc.obj
 0002:0000521c       ??_C@_0CA@JIFJAHEJ@?$FO7?$CIHQ?$CJ?3?5?$FO3We?5need?5an?5Field?5Ops?$CB?$AA@ 4009121c     bg_misc.obj
 0002:0000523c       ??_C@_0BC@JBFHKOPG@_hq_need_fieldops?$AA@ 4009123c     bg_misc.obj
 0002:00005250       ??_C@_0BB@EBFBJPGF@SYS_NeedFieldops?$AA@ 40091250     bg_misc.obj
 0002:00005264       ??_C@_0BP@CNALELLB@?$FO7?$CIHQ?$CJ?3?5?$FO3We?5need?5an?5Engineer?$CB?$AA@ 40091264     bg_misc.obj
 0002:00005284       ??_C@_0BC@EDLGLDKP@_hq_need_engineer?$AA@ 40091284     bg_misc.obj
 0002:00005298       ??_C@_0BB@JDLAICDM@SYS_NeedEngineer?$AA@ 40091298     bg_misc.obj
 0002:000052ac       ??_C@_0BL@NGMOELIL@?$FO7?$CIHQ?$CJ?3?5?$FO3We?5need?5a?5Medic?$CB?$AA@ 400912ac     bg_misc.obj
 0002:000052c8       ??_C@_0P@JOLKOHAM@_hq_need_medic?$AA@ 400912c8     bg_misc.obj
 0002:000052d8       ??_C@_0O@HFGBIIDI@SYS_NeedMedic?$AA@ 400912d8     bg_misc.obj
 0002:000052e8       _voteToggles               400912e8     bg_misc.obj
 0002:000053a0       _aReinfSeeds               400913a0     bg_misc.obj
 0002:000053c0       _aWeaponInfo               400913c0     bg_misc.obj
 0002:00005528       __real@00000000            40091528     bg_misc.obj
 0002:00005530       ??_C@_0ED@OPKNALDP@?$FO1ERROR?5?3?5?$FO7BG_FindItemForWeapon@ 40091530     bg_misc.obj
 0002:00005574       ??_C@_09NIIBNPFN@?$FO1invalid?$AA@ 40091574     bg_misc.obj
 0002:00005580       ??_C@_0BM@HLHNLGBN@Item?5not?5found?5for?5ammo?3?5?$CFd?$AA@ 40091580     bg_misc.obj
 0002:0000559c       ??_C@_05HBOKGADI@team_?$AA@ 4009159c     bg_misc.obj
 0002:000055a4       ??_C@_05FLNDNDAH@ammo_?$AA@ 400915a4     bg_misc.obj
 0002:000055ac       ??_C@_07MDJDKHIJ@weapon_?$AA@ 400915ac     bg_misc.obj
 0002:000055b8       __real@c042000000000000    400915b8     bg_misc.obj
 0002:000055c0       __real@4042000000000000    400915c0     bg_misc.obj
 0002:000055c8       ??_C@_0BM@NECGLAIF@BG_CanItemBeGrabbed?3?5IT_BAD?$AA@ 400915c8     bg_misc.obj
 0002:000055e4       __real@3f800000            400915e4     bg_misc.obj
 0002:000055e8       ??_C@_0CI@MFONMA@BG_CanItemBeGrabbed?3?5index?5out?5o@ 400915e8     bg_misc.obj
 0002:00005610       __real@3ff0000000000000    40091610     bg_misc.obj
 0002:00005618       __real@3fe0000000000000    40091618     bg_misc.obj
 0002:00005620       __real@4010000000000000    40091620     bg_misc.obj
 0002:00005628       __real@4000000000000000    40091628     bg_misc.obj
 0002:00005630       __real@4030000000000000    40091630     bg_misc.obj
 0002:00005638       __real@3d800000            40091638     bg_misc.obj
 0002:0000563c       ??_C@_0CK@DNBGNAED@BG_EvaluateTrajectory?3?5unknown?5t@ 4009163c     bg_misc.obj
 0002:00005668       __real@c08f400000000000    40091668     bg_misc.obj
 0002:00005670       __real@c0c3880000000000    40091670     bg_misc.obj
 0002:00005678       __real@40c3880000000000    40091678     bg_misc.obj
 0002:00005680       __real@4054000000000000    40091680     bg_misc.obj
 0002:00005688       __real@405e000000000000    40091688     bg_misc.obj
 0002:00005690       __real@4079000000000000    40091690     bg_misc.obj
 0002:00005698       __real@400921fb60000000    40091698     bg_misc.obj
 0002:000056a0       __real@3f50624dd2f1a9fc    400916a0     bg_misc.obj
 0002:000056a8       ??_C@_0CP@MCFPOIMF@BG_EvaluateTrajectoryDelta?3?5unkn@ 400916a8     bg_misc.obj
 0002:000056d8       __real@4064000000000000    400916d8     bg_misc.obj
 0002:000056e0       __real@406e000000000000    400916e0     bg_misc.obj
 0002:000056e8       __real@4089000000000000    400916e8     bg_misc.obj
 0002:000056f0       __real@3f333333            400916f0     bg_misc.obj
 0002:000056f8       __real@3fe99999a0000000    400916f8     bg_misc.obj
 0002:00005700       __real@3e99999a            40091700     bg_misc.obj
 0002:00005704       ??_C@_0DA@KOPJLGJF@Cgame?5event?5svt?5?$CF5d?5?9?$DO?5?$CF5d?3?5num?5@ 40091704     bg_misc.obj
 0002:00005734       ??_C@_0L@MNPDPHLD@showevents?$AA@ 40091734     bg_misc.obj
 0002:00005740       __real@3f76800000000000    40091740     bg_misc.obj
 0002:00005748       __real@4070000000000000    40091748     bg_misc.obj
 0002:00005750       ??_C@_0BK@EIIMCABE@MAX?5PATH?5CORNERS?5?$CI?$CFi?$CJ?5hit?$AA@ 40091750     bg_misc.obj
 0002:0000576c       ??_C@_0BF@MNFCONKK@MAX?5SPLINES?5?$CI?$CFi?$CJ?5hit?$AA@ 4009176c     bg_misc.obj
 0002:00005784       ??_C@_0BN@LHEFCKBA@MAX?5SPLINE?5CONTROLS?5?$CI?$CFi?$CJ?5hit?$AA@ 40091784     bg_misc.obj
 0002:000057a4       __real@3c23d70a            400917a4     bg_misc.obj
 0002:000057a8       ??_C@_0CP@LIGHMFHP@?$FO1Cant?5find?5target?5point?5?$CI?$CFs?$CJ?5fo@ 400917a8     bg_misc.obj
 0002:000057d8       ??_C@_0DA@CFFAANPO@?$FO1Cant?5find?5control?5point?5?$CI?$CFs?$CJ?5f@ 400917d8     bg_misc.obj
 0002:00005808       ??_C@_0BM@DJGMFAMK@?$FO3WARNING?3?5?$CFs?0?5line?5?$CFd?3?5?$CFs?6?$AA@ 40091808     bg_misc.obj
 0002:00005824       ??_C@_0BN@CKJPOGNB@expected?5float?5but?5found?5?$CFs?6?$AA@ 40091824     bg_misc.obj
 0002:00005844       ??_C@_0BP@FLADEANJ@expected?5integer?5but?5found?5?$CFs?6?$AA@ 40091844     bg_misc.obj
 0002:00005864       ??_C@_05PLKILNHI@White?$AA@ 40091864     bg_misc.obj
 0002:00005870       __real@406fe00000000000    40091870     bg_misc.obj
 0002:00005878       __real@4049000000000000    40091878     bg_misc.obj
 0002:00005880       __real@401c000000000000    40091880     bg_misc.obj
 0002:00005888       __real@44960000            40091888     bg_misc.obj
 0002:0000588c       ??_C@_05KHJDIDCH@?$CFc?0?$CFi?$AA@ 4009188c     bg_misc.obj
 0002:00005894       __real@bf800000            40091894     bg_misc.obj
 0002:00005898       __real@40f0000000000000    40091898     q_math.obj
 0002:000058a0       __real@4020000000000000    400918a0     q_math.obj
 0002:000058a8       __real@4076800000000000    400918a8     q_math.obj
 0002:000058b0       __real@4066800000000000    400918b0     q_math.obj
 0002:000058b8       __real@43870000            400918b8     q_math.obj
 0002:000058bc       __real@42b40000            400918bc     q_math.obj
 0002:000058c0       __real@3fc00000            400918c0     q_math.obj
 0002:000058c8       __real@c066800000000000    400918c8     q_math.obj
 0002:000058d0       __real@4066c16c16c16c17    400918d0     q_math.obj
 0002:000058d8       __real@c7c34f80            400918d8     q_math.obj
 0002:000058dc       __real@47c34f80            400918dc     q_math.obj
 0002:000058e0       __real@4056800000000000    400918e0     q_math.obj
 0002:000058e8       __real@c056800000000000    400918e8     q_math.obj
 0002:000058f0       ??_C@_04HDOCAJNK@?$CFs?$CFs?$AA@ 400918f0     q_shared.obj
 0002:000058f8       ??_C@_0BI@KPLEBEJF@ERROR?3?5?$CFs?0?5line?5?$CFd?3?5?$CFs?6?$AA@ 400918f8     q_shared.obj
 0002:00005910       ??_C@_0BK@DJMKDJBL@WARNING?3?5?$CFs?0?5line?5?$CFd?3?5?$CFs?6?$AA@ 40091910     q_shared.obj
 0002:0000592c       ??_C@_0BF@BFEJCABG@MatchToken?3?5?$CFs?5?$CB?$DN?5?$CFs?$AA@ 4009192c     q_shared.obj
 0002:00005944       ??_C@_01PKGAHCOL@?$CJ?$AA@ 40091944     q_shared.obj
 0002:00005948       ??_C@_01ODHLEDKK@?$CI?$AA@ 40091948     q_shared.obj
 0002:0000594c       ??_C@_06CBHGEMFM@?$DMNULL?$DO?$AA@ 4009194c     q_shared.obj
 0002:00005954       ??_C@_0BN@HAJDHEGK@Unexpected?5end?5of?5info?5file?6?$AA@ 40091954     q_shared.obj
 0002:00005974       ??_C@_0BE@IKMJLADL@Max?5infos?5exceeded?6?$AA@ 40091974     q_shared.obj
 0002:00005988       ??_C@_0BI@BMEIBPEH@Missing?5?$HL?5in?5info?5file?6?$AA@ 40091988     q_shared.obj
 0002:000059a0       ??_C@_0BJ@OLBOPICM@Q_strncpyz?3?5destsize?5?$DM?51?$AA@ 400919a0     q_shared.obj
 0002:000059bc       ??_C@_0BF@BJHHBLMD@Q_strncpyz?3?5NULL?5src?$AA@ 400919bc     q_shared.obj
 0002:000059d4       ??_C@_0BN@EFOOAHFL@Q_strcat?3?5already?5overflowed?$AA@ 400919d4     q_shared.obj
 0002:000059f4       ??_C@_0CK@KHOBLOFO@Com_sprintf?3?5overflow?5of?5?$CFi?5byte@ 400919f4     q_shared.obj
 0002:00005a20       ??_C@_0CN@PKGLJABL@Attempted?5to?5overrun?5string?5in?5c@ 40091a20     q_shared.obj
 0002:00005a50       ??_C@_0DA@LIKJOKD@Info_ValueForKey?3?5oversize?5infos@ 40091a50     q_shared.obj
 0002:00005a80       ??_C@_0CO@NGKHNBPI@Info_RemoveKey?3?5oversize?5infostr@ 40091a80     q_shared.obj
 0002:00005ab0       ??_C@_0DC@BGMENEHG@Info_RemoveKey_Big?3?5oversize?5inf@ 40091ab0     q_shared.obj
 0002:00005ae4       ??_C@_0BN@CAOBGKLE@Info?5string?5length?5exceeded?6?$AA@ 40091ae4     q_shared.obj
 0002:00005b04       ??_C@_06NELKLDPM@?2?$CFs?2?$CFs?$AA@ 40091b04     q_shared.obj
 0002:00005b0c       ??_C@_0CD@MGFMEBLE@Can?8t?5use?5keys?5or?5values?5with?5a?5@ 40091b0c     q_shared.obj
 0002:00005b30       ??_C@_0CL@JCFAGLFD@Can?8t?5use?5keys?5or?5values?5with?5a?5@ 40091b30     q_shared.obj
 0002:00005b5c       ??_C@_0CD@JIDDAEOO@Can?8t?5use?5keys?5or?5values?5with?5a?5@ 40091b5c     q_shared.obj
 0002:00005b80       ??_C@_0DI@KKKLKNPO@Info_SetValueForKey?3?5oversize?5in@ 40091b80     q_shared.obj
 0002:00005bb8       ??_C@_0CB@EMDOOGBI@BIG?5Info?5string?5length?5exceeded?6@ 40091bb8     q_shared.obj
 0002:00005bdc       ??_C@_09DNECJBKD@developer?$AA@ 40091bdc     ui_atoms.obj
 0002:00005be8       ??_C@_0O@HNELLPEM@listcampaigns?$AA@ 40091be8     ui_atoms.obj
 0002:00005bf8       ??_C@_08NFIAKLAJ@campaign?$AA@ 40091bf8     ui_atoms.obj
 0002:00005c04       ??_C@_0M@GCJEHMGM@iamacheater?$AA@ 40091c04     ui_atoms.obj
 0002:00005c10       ??_C@_08HOPFIAK@ui_cdkey?$AA@ 40091c10     ui_atoms.obj
 0002:00005c1c       ??_C@_0O@DJEGGJPO@ui_teamOrders?$AA@ 40091c1c     ui_atoms.obj
 0002:00005c2c       ??_C@_08OEBEDBJL@ui_cache?$AA@ 40091c2c     ui_atoms.obj
 0002:00005c38       ??_C@_08FNKAODFI@postgame?$AA@ 40091c38     ui_atoms.obj
 0002:00005c44       ??_C@_07OKJIHONL@ui_load?$AA@ 40091c44     ui_atoms.obj
 0002:00005c4c       ??_C@_09NFKMFHHN@ui_report?$AA@ 40091c4c     ui_atoms.obj
 0002:00005c58       ??_C@_07IANFCHLD@ui_test?$AA@ 40091c58     ui_atoms.obj
 0002:00005c60       __real@3ff5555560000000    40091c60     ui_atoms.obj
 0002:00005c68       ??_C@_02DPKJAMEF@?$CFd?$AA@ 40091c68     ui_gameinfo.obj
 0002:00005c6c       ??_C@_05BJJDEFHJ@?2num?2?$AA@ 40091c6c     ui_gameinfo.obj
 0002:00005c74       ??_C@_08IDJEBFOJ@scripts?1?$AA@ 40091c74     ui_gameinfo.obj
 0002:00005c80       ??_C@_07OMEBBDEO@scripts?$AA@ 40091c80     ui_gameinfo.obj
 0002:00005c88       ??_C@_06IPPMLGON@?4arena?$AA@ 40091c88     ui_gameinfo.obj
 0002:00005c90       ??_C@_0O@FEFCNDNP@mapposition_y?$AA@ 40091c90     ui_gameinfo.obj
 0002:00005ca0       ??_C@_0O@ENEJOCJO@mapposition_x?$AA@ 40091ca0     ui_gameinfo.obj
 0002:00005cb0       ??_C@_06MGLIHIAA@wolfsw?$AA@ 40091cb0     ui_gameinfo.obj
 0002:00005cb8       ??_C@_06JPEBGALN@wolfmp?$AA@ 40091cb8     ui_gameinfo.obj
 0002:00005cc0       ??_C@_07BNBPPDCC@wolflms?$AA@ 40091cc0     ui_gameinfo.obj
 0002:00005cc8       ??_C@_06IJPJOOMH@wolfsp?$AA@ 40091cc8     ui_gameinfo.obj
 0002:00005cd0       ??_C@_04GPMDFGEJ@type?$AA@ 40091cd0     ui_gameinfo.obj
 0002:00005cd8       ??_C@_0BC@LDNONPB@alliedrespawntime?$AA@ 40091cd8     ui_gameinfo.obj
 0002:00005cec       ??_C@_0BA@HJKLBPFG@axisrespawntime?$AA@ 40091cec     ui_gameinfo.obj
 0002:00005cfc       ??_C@_09KPHKOKCC@timelimit?$AA@ 40091cfc     ui_gameinfo.obj
 0002:00005d08       ??_C@_0M@MNBCHEID@lmsbriefing?$AA@ 40091d08     ui_gameinfo.obj
 0002:00005d14       ??_C@_08PLKIGCGP@briefing?$AA@ 40091d14     ui_gameinfo.obj
 0002:00005d20       ??_C@_08JJAPLNHH@longname?$AA@ 40091d20     ui_gameinfo.obj
 0002:00005d2c       ??_C@_0CF@HOPIBHEP@?$FO1unexpected?5end?5of?5file?5inside?3@ 40091d2c     ui_gameinfo.obj
 0002:00005d54       ??_C@_03HBNNNHNM@map?$AA@  40091d54     ui_gameinfo.obj
 0002:00005d58       ??_C@_0CE@JLCOIDNB@?$FO1unexpected?5token?5?8?$CFs?8?5inside?3?5@ 40091d58     ui_gameinfo.obj
 0002:00005d7c       ??_C@_0BG@BJEIGKLP@?$FO1file?5not?5found?3?5?$CFs?6?$AA@ 40091d7c     ui_gameinfo.obj
 0002:00005d94       ??_C@_07KMNEBLH@mapname?$AA@ 40091d94     ui_gameinfo.obj
 0002:00005d9c       ??_C@_0BJ@HNFLCNPE@profiles?1?$CFs?1campaign?4dat?$AA@ 40091d9c     ui_gameinfo.obj
 0002:00005db8       ??_C@_0DM@NJMCIEAK@?$FO3WARNING?3?5not?5anough?5memory?5in?5@ 40091db8     ui_gameinfo.obj
 0002:00005df4       ??_C@_09IBJHOELC@?4campaign?$AA@ 40091df4     ui_gameinfo.obj
 0002:00005e00       __real@4084500000000000    40091e00     ui_gameinfo.obj
 0002:00005e08       ??_C@_05CIBCEEFB@maptc?$AA@ 40091e08     ui_gameinfo.obj
 0002:00005e10       ??_C@_04ILAGGJBN@maps?$AA@ 40091e10     ui_gameinfo.obj
 0002:00005e18       ??_C@_04CJGEDOF@next?$AA@  40091e18     ui_gameinfo.obj
 0002:00005e20       ??_C@_07GLCKIJBG@initial?$AA@ 40091e20     ui_gameinfo.obj
 0002:00005e28       ??_C@_05NGOMGBBD@image?$AA@ 40091e28     ui_gameinfo.obj
 0002:00005e30       ??_C@_0M@PPJNHBMP@description?$AA@ 40091e30     ui_gameinfo.obj
 0002:00005e3c       ??_C@_04MEMAJGDJ@name?$AA@ 40091e3c     ui_gameinfo.obj
 0002:00005e44       ??_C@_09PJCCCILH@shortname?$AA@ 40091e44     ui_gameinfo.obj
 0002:00005e50       ??_C@_0BI@GHKLPAPG@gfx?1loading?1progressbar?$AA@ 40091e50     ui_loadpanel.obj
 0002:00005e68       ??_C@_0BN@OPKLDFMH@gfx?1loading?1progressbar_back?$AA@ 40091e68     ui_loadpanel.obj
 0002:00005e88       ??_C@_0BG@NIFIFLJN@gfx?1loading?1camp_side?$AA@ 40091e88     ui_loadpanel.obj
 0002:00005ea0       ??_C@_0BF@PINDHEDO@gfx?1loading?1camp_map?$AA@ 40091ea0     ui_loadpanel.obj
 0002:00005eb8       ??_C@_06JLKJHNDD@courbd?$AA@ 40091eb8     ui_loadpanel.obj
 0002:00005ec0       ??_C@_06MLHBGBIG@ariblk?$AA@ 40091ec0     ui_loadpanel.obj
 0002:00005ec8       ??_C@_01GBGANLPD@0?$AA@    40091ec8     ui_loadpanel.obj
 0002:00005ecc       ??_C@_0O@EKHMPCNK@ui_connecting?$AA@ 40091ecc     ui_loadpanel.obj
 0002:00005edc       ??_C@_0BA@MIMGFFNE@cl_downloadName?$AA@ 40091edc     ui_loadpanel.obj
 0002:00005eec       ??_C@_0M@BNDKNOFH@?$CFs?1?$CFs?$CI?$CFd?$CF?$CF?$CJ?$AA@ 40091eec     ui_loadpanel.obj
 0002:00005ef8       __real@4059000000000000    40091ef8     ui_loadpanel.obj
 0002:00005f00       ??_C@_0BB@FAHDFBEE@cl_downloadCount?$AA@ 40091f00     ui_loadpanel.obj
 0002:00005f14       ??_C@_0BA@IMGLJLPN@cl_downloadSize?$AA@ 40091f14     ui_loadpanel.obj
 0002:00005f28       __real@4061800000000000    40091f28     ui_loadpanel.obj
 0002:00005f30       ??_C@_0O@ONMGCNLF@CONNECTING?4?4?4?$AA@ 40091f30     ui_loadpanel.obj
 0002:00005f40       ??_C@_0P@HCNLJNLE@DOWNLOADING?4?4?4?$AA@ 40091f40     ui_loadpanel.obj
 0002:00005f50       ??_C@_0O@DCCAONIG@?$CFs?6?6?5?$CFs?$CI?$CFs?1s?$CJ?$AA@ 40091f50     ui_loadpanel.obj
 0002:00005f60       ??_C@_0BD@GKDIMPAA@?$CFs?6?6?5estimating?4?4?4?$AA@ 40091f60     ui_loadpanel.obj
 0002:00005f74       ??_C@_09KPPELEEE@?$CFs?5?$CI?$CFd?$CF?$CF?$CJ?$AA@ 40091f74     ui_loadpanel.obj
 0002:00005f80       ??_C@_0BA@CHCCPCBI@cl_downloadTime?$AA@ 40091f80     ui_loadpanel.obj
 0002:00005f90       __real@43e88000            40091f90     ui_loadpanel.obj
 0002:00005f94       __real@43b30000            40091f94     ui_loadpanel.obj
 0002:00005f98       __real@3e4ccccd            40091f98     ui_loadpanel.obj
 0002:00005f9c       __real@431b0000            40091f9c     ui_loadpanel.obj
 0002:00005fa0       __real@4028000000000000    40091fa0     ui_loadpanel.obj
 0002:00005fa8       ??_C@_0CJ@BGIOOIKK@Connecting?5to?3?6?5?$CFs?$FO?$CK?6?6?5Needed?5pa@ 40091fa8     ui_loadpanel.obj
 0002:00005fd4       ??_C@_0BB@OFJMCGDE@com_missingFiles?$AA@ 40091fd4     ui_loadpanel.obj
 0002:00005fe8       ??_C@_06BOJKDMDN@?6?6?$CFs?$FO?$CK?$AA@ 40091fe8     ui_loadpanel.obj
 0002:00005ff0       ??_C@_0O@GLDOKMJM@ui_dl_running?$AA@ 40091ff0     ui_loadpanel.obj
 0002:00006000       ??_C@_0BG@PBGJCCMP@Awaiting?5gamestate?4?4?4?$AA@ 40092000     ui_loadpanel.obj
 0002:00006018       ??_C@_0BI@OIGNBFGC@Awaiting?5challenge?4?4?4?$CFi?$AA@ 40092018     ui_loadpanel.obj
 0002:00006030       ??_C@_0BJ@EMLKBDFN@Awaiting?5connection?4?4?4?$CFi?$AA@ 40092030     ui_loadpanel.obj
 0002:0000604c       ??_C@_0BJ@PHPEPFDA@Connecting?5to?3?6?5?$CFs?$FO?$CK?6?6?$CFs?$AA@ 4009204c     ui_loadpanel.obj
 0002:00006068       ??_C@_04GJFDDCGE@motd?$AA@ 40092068     ui_loadpanel.obj
 0002:00006070       ??_C@_0BF@GPIPIGKE@g_mapScriptDirectory?$AA@ 40092070     ui_main.obj
 0002:00006088       ??_C@_0BA@GKEHHCAM@ui_autoredirect?$AA@ 40092088     ui_main.obj
 0002:00006098       ??_C@_0P@HEIAJDMI@cg_shoveSounds?$AA@ 40092098     ui_main.obj
 0002:000060a8       ??_C@_05MIGMCC@5?4159?$AA@ 400920a8     ui_main.obj
 0002:000060b0       ??_C@_0P@BDEMPHFM@cg_automapZoom?$AA@ 400920b0     ui_main.obj
 0002:000060c0       ??_C@_0BA@DBKGAGEA@cg_FTAutoSelect?$AA@ 400920c0     ui_main.obj
 0002:000060d0       ??_C@_0BB@PINCLILE@cg_drawAuraIcons?$AA@ 400920d0     ui_main.obj
 0002:000060e4       ??_C@_0BC@PBLMMGKF@cg_weapAltReloads?$AA@ 400920e4     ui_main.obj
 0002:000060f8       ??_C@_0N@CAKMEAJJ@cg_rtcwShake?$AA@ 400920f8     ui_main.obj
 0002:00006108       ??_C@_0O@LOADGIFB@cg_altHQVoice?$AA@ 40092108     ui_main.obj
 0002:00006118       ??_C@_0BF@PHGDNAHK@cg_weaponBounceSound?$AA@ 40092118     ui_main.obj
 0002:00006130       ??_C@_0BC@LHOCPMMJ@cg_fixedFTeamSize?$AA@ 40092130     ui_main.obj
 0002:00006144       ??_C@_0N@OOBFJIKL@cg_locations?$AA@ 40092144     ui_main.obj
 0002:00006154       ??_C@_0BG@JLJMNBAA@cg_optimizePrediction?$AA@ 40092154     ui_main.obj
 0002:0000616c       ??_C@_0N@CNJNHNMF@cg_speedunit?$AA@ 4009216c     ui_main.obj
 0002:0000617c       ??_C@_0N@PAPIJNKI@cg_drawspeed?$AA@ 4009217c     ui_main.obj
 0002:0000618c       ??_C@_0P@HDEGBFFO@cg_drawTracers?$AA@ 4009218c     ui_main.obj
 0002:0000619c       ??_C@_0BD@PEPNIPCN@cg_drawMuzzleFlash?$AA@ 4009219c     ui_main.obj
 0002:000061b0       ??_C@_0P@IFBEIBPL@hud_drawAltHUD?$AA@ 400921b0     ui_main.obj
 0002:000061c0       ??_C@_0BB@LJIMHNMF@hud_drawPowerups?$AA@ 400921c0     ui_main.obj
 0002:000061d4       ??_C@_0O@MKKGOPJG@hud_rankAlpha?$AA@ 400921d4     ui_main.obj
 0002:000061e4       ??_C@_03JCAGBGHO@408?$AA@  400921e4     ui_main.obj
 0002:000061e8       ??_C@_09PDPHNCFD@hud_rankY?$AA@ 400921e8     ui_main.obj
 0002:000061f4       ??_C@_03FOPFGEPB@112?$AA@  400921f4     ui_main.obj
 0002:000061f8       ??_C@_09OKOMODBC@hud_rankX?$AA@ 400921f8     ui_main.obj
 0002:00006204       ??_C@_0BC@MKNGLOIE@hud_skillBarAlpha?$AA@ 40092204     ui_main.obj
 0002:00006218       ??_C@_03BMCHPHP@388?$AA@   40092218     ui_main.obj
 0002:0000621c       ??_C@_0O@FEGABEIL@hud_skillBarY?$AA@ 4009221c     ui_main.obj
 0002:0000622c       ??_C@_02JIPGJIFG@44?$AA@   4009222c     ui_main.obj
 0002:00006230       ??_C@_0O@ENHLCFMK@hud_skillBarX?$AA@ 40092230     ui_main.obj
 0002:00006240       ??_C@_02DCIIBFLB@18?$AA@   40092240     ui_main.obj
 0002:00006244       ??_C@_0BA@BBDHICGF@hud_powerupSize?$AA@ 40092244     ui_main.obj
 0002:00006254       ??_C@_03KNHHDAHD@384?$AA@  40092254     ui_main.obj
 0002:00006258       ??_C@_0BA@PCFFGOBD@cg_markDistance?$AA@ 40092258     ui_main.obj
 0002:00006268       ??_C@_0BA@EHGBMFDP@cg_drawObjIcons?$AA@ 40092268     ui_main.obj
 0002:00006278       ??_C@_0P@KINLCFAH@cg_drawHUDHead?$AA@ 40092278     ui_main.obj
 0002:00006288       ??_C@_0N@MOPICEAL@cg_goatSound?$AA@ 40092288     ui_main.obj
 0002:00006298       ??_C@_0N@KEEMKHHK@cg_hitSounds?$AA@ 40092298     ui_main.obj
 0002:000062a8       ??_C@_03LNMAPFD@0?48?$AA@  400922a8     ui_main.obj
 0002:000062ac       ??_C@_0M@OLAFPHKG@cg_HUDAlpha?$AA@ 400922ac     ui_main.obj
 0002:000062b8       ??_C@_09HLDLCPGP@?45?5?5?45?5?45?$AA@ 400922b8     ui_main.obj
 0002:000062c4       ??_C@_0BC@OJOEKOGB@cg_HUDBorderColor?$AA@ 400922c4     ui_main.obj
 0002:000062d8       ??_C@_0L@IBEMOEDH@?416?5?42?5?417?$AA@ 400922d8     ui_main.obj
 0002:000062e4       ??_C@_0BG@LJKGJBIN@cg_HUDBackgroundColor?$AA@ 400922e4     ui_main.obj
 0002:000062fc       ??_C@_0BF@IBNNPION@cg_graphicObituaries?$AA@ 400922fc     ui_main.obj
 0002:00006314       ??_C@_0BD@NDLLNIMA@cg_drawTimeSeconds?$AA@ 40092314     ui_main.obj
 0002:00006328       ??_C@_0M@ONDCPDGI@cg_drawTime?$AA@ 40092328     ui_main.obj
 0002:00006334       ??_C@_0M@CIMCIJHD@cg_drawPing?$AA@ 40092334     ui_main.obj
 0002:00006340       ??_C@_0BB@JKFBMCBK@cg_drawKillSpree?$AA@ 40092340     ui_main.obj
 0002:00006354       ??_C@_0BD@JEPOPGCM@cg_impactparticles?$AA@ 40092354     ui_main.obj
 0002:00006368       ??_C@_0BC@LKIIHCOB@cg_trailparticles?$AA@ 40092368     ui_main.obj
 0002:0000637c       ??_C@_0BC@HMDPFJML@cg_smokeparticles?$AA@ 4009237c     ui_main.obj
 0002:00006390       ??_C@_0BA@LBKCGOOB@ui_showtooltips?$AA@ 40092390     ui_main.obj
 0002:000063a0       ??_C@_0BF@GAPFNOAB@g_currentCampaignMap?$AA@ 400923a0     ui_main.obj
 0002:000063b8       ??_C@_0BC@OFBJJPJA@g_currentCampaign?$AA@ 400923b8     ui_main.obj
 0002:000063cc       ??_C@_0O@HPCNNAOC@g_oldCampaign?$AA@ 400923cc     ui_main.obj
 0002:000063dc       ??_C@_0BE@HPGFAKLO@cl_bypassMouseInput?$AA@ 400923dc     ui_main.obj
 0002:000063f0       ??_C@_0BG@ECMGKMAL@ui_profile_mousePitch?$AA@ 400923f0     ui_main.obj
 0002:00006408       ??_C@_0P@BABGFA@ui_sensitivity?$AA@ 40092408     ui_main.obj
 0002:00006418       ??_C@_0O@KBIHLOLA@ui_handedness?$AA@ 40092418     ui_main.obj
 0002:00006428       ??_C@_07NGGBHANB@ui_rate?$AA@ 40092428     ui_main.obj
 0002:00006430       ??_C@_0L@OEPKFCFI@ui_r_gamma?$AA@ 40092430     ui_main.obj
 0002:0000643c       ??_C@_0BC@HBMMFOKG@ui_r_customHeight?$AA@ 4009243c     ui_main.obj
 0002:00006450       ??_C@_0BB@PBMJACNK@ui_r_customWidth?$AA@ 40092450     ui_main.obj
 0002:00006464       ??_C@_09KDEPNMFH@ui_r_mode?$AA@ 40092464     ui_main.obj
 0002:00006470       ??_C@_0N@IMMGIHND@vote_percent?$AA@ 40092470     ui_main.obj
 0002:00006480       ??_C@_0L@GMNHJFJI@vote_limit?$AA@ 40092480     ui_main.obj
 0002:0000648c       ??_C@_0BA@NPJBHIAP@team_nocontrols?$AA@ 4009248c     ui_main.obj
 0002:0000649c       ??_C@_0BA@BJOFAMJI@team_maxplayers?$AA@ 4009249c     ui_main.obj
 0002:000064ac       ??_C@_0BA@DHLCMHAL@team_maxPanzers?$AA@ 400924ac     ui_main.obj
 0002:000064bc       ??_C@_0N@JBPLANAD@server_motd5?$AA@ 400924bc     ui_main.obj
 0002:000064cc       ??_C@_0N@IIOADMEC@server_motd4?$AA@ 400924cc     ui_main.obj
 0002:000064dc       ??_C@_0N@MHKBKKIF@server_motd3?$AA@ 400924dc     ui_main.obj
 0002:000064ec       ??_C@_0N@NOLKJLME@server_motd2?$AA@ 400924ec     ui_main.obj
 0002:000064fc       ??_C@_0N@PFJHMIAH@server_motd1?$AA@ 400924fc     ui_main.obj
 0002:0000650c       ??_C@_0BL@HGFAMMDE@?5?$FONEnemy?5Territory?5?$FO7MOTD?5?$AA@ 4009250c     ui_main.obj
 0002:00006528       ??_C@_0N@OMIMPJEG@server_motd0?$AA@ 40092528     ui_main.obj
 0002:00006538       ??_C@_0BC@OPKPBHOJ@server_autoconfig?$AA@ 40092538     ui_main.obj
 0002:0000654c       ??_C@_0BD@KOFBKBOP@match_warmupDamage?$AA@ 4009254c     ui_main.obj
 0002:00006560       ??_C@_03GDBCDNPM@180?$AA@  40092560     ui_main.obj
 0002:00006564       ??_C@_0BE@JCPEJALB@match_timeoutlength?$AA@ 40092564     ui_main.obj
 0002:00006578       ??_C@_0BD@FGFIICMD@match_timeoutcount?$AA@ 40092578     ui_main.obj
 0002:0000658c       ??_C@_0BD@BNJPCACD@match_readypercent?$AA@ 4009258c     ui_main.obj
 0002:000065a0       ??_C@_0BA@EMOGOAK@match_mutespecs?$AA@ 400925a0     ui_main.obj
 0002:000065b0       ??_C@_0BB@MEBOJPC@match_minplayers?$AA@ 400925b0     ui_main.obj
 0002:000065c4       ??_C@_0P@OKPACBIB@match_latejoin?$AA@ 400925c4     ui_main.obj
 0002:000065d4       ??_C@_0BG@IHLEGKDD@g_spectatorInactivity?$AA@ 400925d4     ui_main.obj
 0002:000065ec       ??_C@_0L@KOGBCPKN@sv_maxRate?$AA@ 400925ec     ui_main.obj
 0002:000065f8       ??_C@_0BD@CLGJCDLA@g_teamForceBalance?$AA@ 400925f8     ui_main.obj
 0002:0000660c       ??_C@_0BA@MDLCADNC@refereePassword?$AA@ 4009260c     ui_main.obj
 0002:0000661c       ??_C@_0L@CDIAELGC@g_maxLives?$AA@ 4009261c     ui_main.obj
 0002:00006628       ??_C@_0N@JGEKALLI@g_inactivity?$AA@ 40092628     ui_main.obj
 0002:00006638       ??_C@_0L@LPENDGCI@g_doWarmup?$AA@ 40092638     ui_main.obj
 0002:00006644       ??_C@_01DHDKHMHF@6?$AA@    40092644     ui_main.obj
 0002:00006648       ??_C@_0BB@KACLAGKJ@g_complaintlimit?$AA@ 40092648     ui_main.obj
 0002:0000665c       ??_C@_0BD@CINOEDMN@g_ipcomplaintlimit?$AA@ 4009265c     ui_main.obj
 0002:00006670       ??_C@_0BD@LIMLEDHE@g_altStopwatchMode?$AA@ 40092670     ui_main.obj
 0002:00006684       ??_C@_02DEEDNHFK@48?$AA@   40092684     ui_main.obj
 0002:00006688       ??_C@_0BB@NJOFJDCL@cg_crosshairSize?$AA@ 40092688     ui_main.obj
 0002:0000669c       ??_C@_0BF@LDMIEFP@cg_crosshairAlphaAlt?$AA@ 4009269c     ui_main.obj
 0002:000066b4       ??_C@_0M@JJPLCLDP@ui_blackout?$AA@ 400926b4     ui_main.obj
 0002:000066c0       ??_C@_0BM@PPDDBFCJ@ui_currentCampaignCompleted?$AA@ 400926c0     ui_main.obj
 0002:000066dc       ??_C@_0BB@CPIONADF@ui_campaignIndex?$AA@ 400926dc     ui_main.obj
 0002:000066f0       ??_C@_0BG@IPJJHEOD@ui_currentNetCampaign?$AA@ 400926f0     ui_main.obj
 0002:00006708       ??_C@_0BD@HGDKHLH@ui_currentCampaign?$AA@ 40092708     ui_main.obj
 0002:0000671c       ??_C@_0L@LMAKGLGA@ui_profile?$AA@ 4009271c     ui_main.obj
 0002:00006728       ??_C@_0BC@NPLDMBLO@cl_defaultProfile?$AA@ 40092728     ui_main.obj
 0002:0000673c       ??_C@_0L@BMGAKOKM@cl_profile?$AA@ 4009273c     ui_main.obj
 0002:00006748       ??_C@_03GNABGMEE@100?$AA@  40092748     ui_main.obj
 0002:0000674c       ??_C@_0BJ@PGLCGFGE@g_heavyWeaponRestriction?$AA@ 4009274c     ui_main.obj
 0002:00006768       ??_C@_0BF@LHHNFGIA@g_lms_followTeamOnly?$AA@ 40092768     ui_main.obj
 0002:00006780       ??_C@_0BB@JGPDHGPH@g_lms_matchlimit?$AA@ 40092780     ui_main.obj
 0002:00006794       ??_C@_0BB@POOKBNKP@g_lms_roundlimit?$AA@ 40092794     ui_main.obj
 0002:000067a8       ??_C@_08HAMOJLDA@g_warmup?$AA@ 400927a8     ui_main.obj
 0002:000067b4       ??_C@_09FDKFNPJN@g_antilag?$AA@ 400927b4     ui_main.obj
 0002:000067c0       ??_C@_0L@GHAPAPFD@g_password?$AA@ 400927c0     ui_main.obj
 0002:000067cc       ??_C@_0BB@LKEKHBGJ@cg_wolfparticles?$AA@ 400927cc     ui_main.obj
 0002:000067e0       ??_C@_04MNFIFLPL@1536?$AA@ 400927e0     ui_main.obj
 0002:000067e8       ??_C@_0BB@BEEFGIOF@cg_coronafardist?$AA@ 400927e8     ui_main.obj
 0002:000067fc       ??_C@_0BF@DBHOIAGK@cg_crosshairColorAlt?$AA@ 400927fc     ui_main.obj
 0002:00006814       ??_C@_0BC@DBBIBJOC@cg_crosshairAlpha?$AA@ 40092814     ui_main.obj
 0002:00006828       ??_C@_0BC@EFBPHNAJ@cg_crosshairColor?$AA@ 40092828     ui_main.obj
 0002:0000683c       ??_C@_0BG@PFLNOEEN@cg_drawCrosshairNames?$AA@ 4009283c     ui_main.obj
 0002:00006854       ??_C@_0BC@PKLCFMJN@cg_crosshairPulse?$AA@ 40092854     ui_main.obj
 0002:00006868       ??_C@_0P@NOKIHKHC@cg_cursorHints?$AA@ 40092868     ui_main.obj
 0002:00006878       ??_C@_0BJ@ICGIDCKE@cg_drawReinforcementTime?$AA@ 40092878     ui_main.obj
 0002:00006894       ??_C@_0P@NNBDAACL@cg_drawCompass?$AA@ 40092894     ui_main.obj
 0002:000068a4       ??_C@_0L@MLBFCMPB@cg_drawGun?$AA@ 400928a4     ui_main.obj
 0002:000068b0       ??_C@_0BF@PABLOBKE@cg_useScreenshotJPEG?$AA@ 400928b0     ui_main.obj
 0002:000068c8       ??_C@_0BG@IJCJILME@cg_printObjectiveInfo?$AA@ 400928c8     ui_main.obj
 0002:000068e0       ??_C@_0N@OBEOAHHJ@cg_announcer?$AA@ 400928e0     ui_main.obj
 0002:000068f0       ??_C@_0BC@BEAEEJKP@cg_complaintPopUp?$AA@ 400928f0     ui_main.obj
 0002:00006904       ??_C@_04BMLKGOAG@6000?$AA@ 40092904     ui_main.obj
 0002:0000690c       ??_C@_0BD@OMABEGA@cg_voicespritetime?$AA@ 4009290c     ui_main.obj
 0002:00006920       ??_C@_0BC@MFLJBIJL@cg_zoomstepsniper?$AA@ 40092920     ui_main.obj
 0002:00006934       ??_C@_0BF@BFCCHDM@cg_zoomDefaultSniper?$AA@ 40092934     ui_main.obj
 0002:0000694c       ??_C@_0BD@OBNAPDNG@cg_useWeapsForZoom?$AA@ 4009294c     ui_main.obj
 0002:00006960       ??_C@_0BE@NNMCMDBG@cg_noAmmoAutoSwitch?$AA@ 40092960     ui_main.obj
 0002:00006974       ??_C@_0O@FNFJAGIB@cg_autoReload?$AA@ 40092974     ui_main.obj
 0002:00006984       ??_C@_03HLLJOCDO@1?40?$AA@ 40092984     ui_main.obj
 0002:00006988       ??_C@_0O@CINGLONP@cg_bloodFlash?$AA@ 40092988     ui_main.obj
 0002:00006998       ??_C@_0N@BGFOBDOL@cg_showblood?$AA@ 40092998     ui_main.obj
 0002:000069a8       ??_C@_0BC@FJGPJIBC@cg_drawRoundTimer?$AA@ 400929a8     ui_main.obj
 0002:000069bc       ??_C@_0L@KEEMJOEG@g_gameType?$AA@ 400929bc     ui_main.obj
 0002:000069c8       ??_C@_0P@MNFGNPMI@ui_isSpectator?$AA@ 400929c8     ui_main.obj
 0002:000069d8       ??_C@_0N@EPNLCIAN@ui_objective?$AA@ 400929d8     ui_main.obj
 0002:000069e8       ??_C@_0N@IOBAIAK@ui_limboMode?$AA@ 400929e8     ui_main.obj
 0002:000069f8       ??_C@_0O@DOIHGIPE@ui_prevWeapon?$AA@ 400929f8     ui_main.obj
 0002:00006a08       ??_C@_0N@DCHDKCEA@ui_prevClass?$AA@ 40092a08     ui_main.obj
 0002:00006a18       ??_C@_0M@BJELLIGN@ui_prevTeam?$AA@ 40092a18     ui_main.obj
 0002:00006a24       ??_C@_06CBHGHHLI@ui_cmd?$AA@ 40092a24     ui_main.obj
 0002:00006a2c       ??_C@_0BC@IDCHCNPL@ui_limboObjective?$AA@ 40092a2c     ui_main.obj
 0002:00006a40       ??_C@_0BE@CICDBKDM@ui_limboPrevOptions?$AA@ 40092a40     ui_main.obj
 0002:00006a54       ??_C@_0BA@CCMIPCLC@ui_limboOptions?$AA@ 40092a54     ui_main.obj
 0002:00006a64       ??_C@_09DALNGLCP@headModel?$AA@ 40092a64     ui_main.obj
 0002:00006a70       ??_C@_0L@KHOJDC@ui_Q3Model?$AA@ 40092a70     ui_main.obj
 0002:00006a7c       ??_C@_04CBNKEHLG@7000?$AA@ 40092a7c     ui_main.obj
 0002:00006a84       ??_C@_0BH@CNJFJKJI@ui_serverStatusTimeOut?$AA@ 40092a84     ui_main.obj
 0002:00006a9c       ??_C@_0BB@OLFHJHLF@ui_browserNQonly?$AA@ 40092a9c     ui_main.obj
 0002:00006ab0       ??_C@_0BL@LLKLMKKC@ui_browserShowTeamBalanced?$AA@ 40092ab0     ui_main.obj
 0002:00006acc       ??_C@_0CA@LLINFHAK@ui_browserShowWeaponsRestricted?$AA@ 40092acc     ui_main.obj
 0002:00006aec       ??_C@_0BG@DLPILKCK@ui_browserShowAntilag?$AA@ 40092aec     ui_main.obj
 0002:00006b04       ??_C@_0BJ@HGIGEHON@ui_browserShowPunkBuster?$AA@ 40092b04     ui_main.obj
 0002:00006b20       ??_C@_0BH@HBEBDFBO@ui_browserShowMaxlives?$AA@ 40092b20     ui_main.obj
 0002:00006b38       ??_C@_0BL@ODLKIDMB@ui_browserShowFriendlyFire?$AA@ 40092b38     ui_main.obj
 0002:00006b54       ??_C@_0CA@CGDELIMJ@ui_browserShowPasswordProtected?$AA@ 40092b54     ui_main.obj
 0002:00006b74       ??_C@_0BK@FPLNOLCB@ui_browserShowEmptyOrFull?$AA@ 40092b74     ui_main.obj
 0002:00006b90       ??_C@_0BC@OHDOHLCL@ui_browserSortKey?$AA@ 40092b90     ui_main.obj
 0002:00006ba4       ??_C@_0BD@POMFLHHE@ui_browserGameType?$AA@ 40092ba4     ui_main.obj
 0002:00006bb8       ??_C@_0BB@KIFEKFLJ@ui_browserMaster?$AA@ 40092bb8     ui_main.obj
 0002:00006bcc       ??_C@_0BB@GFAHJNNM@ui_currentNetMap?$AA@ 40092bcc     ui_main.obj
 0002:00006be0       ??_C@_0O@IGABJOOG@ui_currentMap?$AA@ 40092be0     ui_main.obj
 0002:00006bf0       ??_C@_0M@BFKLKEBI@ui_mapIndex?$AA@ 40092bf0     ui_main.obj
 0002:00006bfc       ??_C@_0BB@LJCNJKCE@cg_clipboardName?$AA@ 40092bfc     ui_main.obj
 0002:00006c10       ??_C@_0P@EMDAIJBA@ui_netGametype?$AA@ 40092c10     ui_main.obj
 0002:00006c20       ??_C@_02PGHGPEOM@?91?$AA@  40092c20     ui_main.obj
 0002:00006c24       ??_C@_0BA@DLIBAHLB@ui_joinGametype?$AA@ 40092c24     ui_main.obj
 0002:00006c34       ??_C@_0M@JLEABLCD@ui_gametype?$AA@ 40092c34     ui_main.obj
 0002:00006c40       ??_C@_0N@LILIABJH@ui?1menus?4txt?$AA@ 40092c40     ui_main.obj
 0002:00006c50       ??_C@_0N@DGOMJILH@ui_menuFiles?$AA@ 40092c50     ui_main.obj
 0002:00006c60       ??_C@_0N@LBKNMFEF@ui_netSource?$AA@ 40092c60     ui_main.obj
 0002:00006c70       ??_C@_0BG@ICIOFDPB@cg_selectedPlayerName?$AA@ 40092c70     ui_main.obj
 0002:00006c88       ??_C@_0BC@HCNILCAE@cg_selectedPlayer?$AA@ 40092c88     ui_main.obj
 0002:00006c9c       ??_C@_0BA@LAMCFMKH@ui_cdkeychecked?$AA@ 40092c9c     ui_main.obj
 0002:00006cac       ??_C@_0N@MHIHNKN@ui_dedicated?$AA@ 40092cac     ui_main.obj
 0002:00006cbc       ??_C@_09FACAEBHB@ui_master?$AA@ 40092cbc     ui_main.obj
 0002:00006cc8       ??_C@_0BH@CHMOFPCJ@ui_userAxisRespawnTime?$AA@ 40092cc8     ui_main.obj
 0002:00006ce0       ??_C@_0BJ@OGPCCIF@ui_userAlliedRespawnTime?$AA@ 40092ce0     ui_main.obj
 0002:00006cfc       ??_C@_0BB@BMJCMOEO@ui_userTimeLimit?$AA@ 40092cfc     ui_main.obj
 0002:00006d10       ??_C@_0P@IEOFAMLI@g_friendlyFire?$AA@ 40092d10     ui_main.obj
 0002:00006d20       ??_C@_01FAMBOPH@4?$AA@     40092d20     ui_main.obj
 0002:00006d24       ??_C@_0M@DPICECA@ui_glCustom?$AA@ 40092d24     ui_main.obj
 0002:00006d30       ??_C@_09GCIEGDDN@fraglimit?$AA@ 40092d30     ui_main.obj
 0002:00006d3c       ??_C@_08FCFPNNHF@protocol?$AA@ 40092d3c     ui_main.obj
 0002:00006d48       ??_C@_07CPCPJPKL@version?$AA@ 40092d48     ui_main.obj
 0002:00006d50       ??_C@_03NBOPHIOC@Map?$AA@  40092d50     ui_main.obj
 0002:00006d54       ??_C@_09OINJJDAC@Game?5type?$AA@ 40092d54     ui_main.obj
 0002:00006d60       ??_C@_0L@GFINLBEC@g_gametype?$AA@ 40092d60     ui_main.obj
 0002:00006d6c       ??_C@_09EDNKFDHC@Game?5name?$AA@ 40092d6c     ui_main.obj
 0002:00006d78       ??_C@_08HCPAIKAO@gamename?$AA@ 40092d78     ui_main.obj
 0002:00006d84       ??_C@_07EODJIPPN@Address?$AA@ 40092d84     ui_main.obj
 0002:00006d8c       ??_C@_04FABLJDN@Name?$AA@  40092d8c     ui_main.obj
 0002:00006d94       ??_C@_0M@NHCIKFPA@sv_hostname?$AA@ 40092d94     ui_main.obj
 0002:00006da0       ??_C@_01BMBHCPLG@5?$AA@    40092da0     ui_main.obj
 0002:00006da4       ??_C@_02PKFBJPLJ@10?$AA@   40092da4     ui_main.obj
 0002:00006da8       ??_C@_02IHCGGLPM@15?$AA@   40092da8     ui_main.obj
 0002:00006dac       ??_C@_02PIBHCBOA@20?$AA@   40092dac     ui_main.obj
 0002:00006db0       ??_C@_02IFGANFKF@25?$AA@   40092db0     ui_main.obj
 0002:00006db4       ??_C@_02PJNFELNH@30?$AA@   40092db4     ui_main.obj
 0002:00006db8       ??_C@_02IEKCLPJC@35?$AA@   40092db8     ui_main.obj
 0002:00006dbc       ??_C@_02PMJKFNFC@40?$AA@   40092dbc     ui_main.obj
 0002:00006dc0       ??_C@_02IBONKJBH@45?$AA@   40092dc0     ui_main.obj
 0002:00006dc4       ??_C@_02PNFIDHGF@50?$AA@   40092dc4     ui_main.obj
 0002:00006dc8       ??_C@_02IACPMDCA@55?$AA@   40092dc8     ui_main.obj
 0002:00006dcc       ??_C@_02PPBOIJDM@60?$AA@   40092dcc     ui_main.obj
 0002:00006dd0       ??_C@_02ICGJHNHJ@65?$AA@   40092dd0     ui_main.obj
 0002:00006dd4       ??_C@_02PONMODAL@70?$AA@   40092dd4     ui_main.obj
 0002:00006dd8       ??_C@_02IDKLBHEO@75?$AA@   40092dd8     ui_main.obj
 0002:00006ddc       ??_C@_02PFIAKEDG@80?$AA@   40092ddc     ui_main.obj
 0002:00006de0       ??_C@_02IIPHFAHD@85?$AA@   40092de0     ui_main.obj
 0002:00006de4       ??_C@_02PEECMOAB@90?$AA@   40092de4     ui_main.obj
 0002:00006de8       ??_C@_02IJDFDKEE@95?$AA@   40092de8     ui_main.obj
 0002:00006dec       ??_C@_04OHJIHAFH@None?$AA@ 40092dec     ui_main.obj
 0002:00006df4       ??_C@_03CGHJMOLI@IPX?$AA@  40092df4     ui_main.obj
 0002:00006df8       ??_C@_03OPEAKHDL@UDP?$AA@  40092df8     ui_main.obj
 0002:00006dfc       ??_C@_03BBKEAIF@?$DP?$DP?$DP?$AA@ 40092dfc     ui_main.obj
 0002:00006e00       ??_C@_03HFJGAJFE@All?$AA@  40092e00     ui_main.obj
 0002:00006e04       ??_C@_03MKABNOCG@Dec?$AA@  40092e04     ui_main.obj
 0002:00006e08       ??_C@_03JPJOFNIA@Nov?$AA@  40092e08     ui_main.obj
 0002:00006e0c       ??_C@_03BMAOKBAD@Oct?$AA@  40092e0c     ui_main.obj
 0002:00006e10       ??_C@_03GGCAPAJC@Sep?$AA@  40092e10     ui_main.obj
 0002:00006e14       ??_C@_03IFJFEIGA@Aug?$AA@  40092e14     ui_main.obj
 0002:00006e18       ??_C@_03LBGABGKK@Jul?$AA@  40092e18     ui_main.obj
 0002:00006e1c       ??_C@_03IDFGHECI@Jun?$AA@  40092e1c     ui_main.obj
 0002:00006e20       ??_C@_03CNMDKL@May?$AA@    40092e20     ui_main.obj
 0002:00006e24       ??_C@_03LEOLGMJP@Apr?$AA@  40092e24     ui_main.obj
 0002:00006e28       ??_C@_03ODNJBKGA@Mar?$AA@  40092e28     ui_main.obj
 0002:00006e2c       ??_C@_03HJBDCHOM@Feb?$AA@  40092e2c     ui_main.obj
 0002:00006e30       ??_C@_03JIHJHPIE@Jan?$AA@  40092e30     ui_main.obj
 0002:00006e40       ??_C@_0BH@DIFAAFML@gfx?12d?1crosshair?$CFc_alt?$AA@ 40092e40     ui_main.obj
 0002:00006e58       ??_C@_0BD@PPPBDMEH@gfx?12d?1crosshair?$CFc?$AA@ 40092e58     ui_main.obj
 0002:00006e6c       ??_C@_0BH@MIGPLLIF@ui?1assets?1check_no?4tga?$AA@ 40092e6c     ui_main.obj
 0002:00006e84       ??_C@_0BI@HIGLDKMK@ui?1assets?1check_not?4tga?$AA@ 40092e84     ui_main.obj
 0002:00006e9c       ??_C@_0BE@BNAELKMA@ui?1assets?1check?4tga?$AA@ 40092e9c     ui_main.obj
 0002:00006eb0       ??_C@_0BL@BKEMOAEL@ui?1assets?1sliderbutt_1?4tga?$AA@ 40092eb0     ui_main.obj
 0002:00006ecc       ??_C@_0BG@JHGOBLH@ui?1assets?1slider2?4tga?$AA@ 40092ecc     ui_main.obj
 0002:00006ee4       ??_C@_0BO@POOFAODB@ui?1assets?1scrollbar_thumb?4tga?$AA@ 40092ee4     ui_main.obj
 0002:00006f04       ??_C@_0CE@LPPDECNG@ui?1assets?1scrollbar_arrow_right?4@ 40092f04     ui_main.obj
 0002:00006f28       ??_C@_0CD@GGHBFGAG@ui?1assets?1scrollbar_arrow_left?4t@ 40092f28     ui_main.obj
 0002:00006f4c       ??_C@_0CD@DMKJOOMK@ui?1assets?1scrollbar_arrow_up_a?4t@ 40092f4c     ui_main.obj
 0002:00006f70       ??_C@_0CE@NANBDJEF@ui?1assets?1scrollbar_arrow_dwn_a?4@ 40092f70     ui_main.obj
 0002:00006f94       ??_C@_0BI@KPCDEFNA@ui?1assets?1scrollbar?4tga?$AA@ 40092f94     ui_main.obj
 0002:00006fac       ??_C@_0BC@GAPGDHHF@menu?1art?1fx_white?$AA@ 40092fac     ui_main.obj
 0002:00006fc0       ??_C@_0BB@LIJKJPJD@menu?1art?1fx_cyan?$AA@ 40092fc0     ui_main.obj
 0002:00006fd4       ??_C@_0BB@BKOGMDOJ@menu?1art?1fx_blue?$AA@ 40092fd4     ui_main.obj
 0002:00006fe8       ??_C@_0BB@ECKDFOKE@menu?1art?1fx_teal?$AA@ 40092fe8     ui_main.obj
 0002:00006ffc       ??_C@_0BA@IJJPLEBB@menu?1art?1fx_grn?$AA@ 40092ffc     ui_main.obj
 0002:0000700c       ??_C@_0BA@BCAGEDMK@menu?1art?1fx_yel?$AA@ 4009300c     ui_main.obj
 0002:0000701c       ??_C@_0BA@NNOEOMD@menu?1art?1fx_red?$AA@ 4009301c     ui_main.obj
 0002:0000702c       ??_C@_0BB@OMABGHIG@menu?1art?1fx_base?$AA@ 4009302c     ui_main.obj
 0002:00007040       ??_C@_0BL@LDKEDAHM@ui?1assets?1gradientbar2?4tga?$AA@ 40093040     ui_main.obj
 0002:00007060       __real@4014000000000000    40093060     ui_main.obj
 0002:00007068       __real@407e000000000000    40093068     ui_main.obj
 0002:00007070       ??_C@_0O@JEEKIFAP@sv_killserver?$AA@ 40093070     ui_main.obj
 0002:00007080       ??_C@_0P@OPFJLCMG@cg_thirdPerson?$AA@ 40093080     ui_main.obj
 0002:00007090       __real@42000000            40093090     ui_main.obj
 0002:00007094       __real@c1200000            40093094     ui_main.obj
 0002:00007098       __real@44228000            40093098     ui_main.obj
 0002:0000709c       __real@43f50000            4009309c     ui_main.obj
 0002:000070a0       ??_C@_0DE@OMBLJJMC@?$FO1menu?5file?5too?5large?3?5?$CFs?5is?5?$CFi?0@ 400930a0     ui_main.obj
 0002:000070d4       ??_C@_0CK@ECPONHFG@?$FO1menu?5file?5not?5found?3?5?$CFs?0?5using@ 400930d4     ui_main.obj
 0002:00007100       ??_C@_0M@JPJLLJDB@shadowColor?$AA@ 40093100     ui_main.obj
 0002:0000710c       ??_C@_07PGMDMGII@shadowY?$AA@ 4009310c     ui_main.obj
 0002:00007114       ??_C@_07OPNIPHMJ@shadowX?$AA@ 40093114     ui_main.obj
 0002:0000711c       ??_C@_0L@JDDHILPC@fadeAmount?$AA@ 4009311c     ui_main.obj
 0002:00007128       ??_C@_09LGBLEGN@fadeCycle?$AA@ 40093128     ui_main.obj
 0002:00007134       ??_C@_09DPBPOIDH@fadeClamp?$AA@ 40093134     ui_main.obj
 0002:00007140       ??_C@_06CHDIMBDP@cursor?$AA@ 40093140     ui_main.obj
 0002:00007148       ??_C@_0O@JDBLIAHI@menuBuzzSound?$AA@ 40093148     ui_main.obj
 0002:00007158       ??_C@_0P@IGAMHAPB@itemFocusSound?$AA@ 40093158     ui_main.obj
 0002:00007168       ??_C@_0O@CCIDDBMD@menuExitSound?$AA@ 40093168     ui_main.obj
 0002:00007178       ??_C@_0P@HOFNPEDB@menuEnterSound?$AA@ 40093178     ui_main.obj
 0002:00007188       ??_C@_0M@KMLBJNNP@gradientbar?$AA@ 40093188     ui_main.obj
 0002:00007194       ??_C@_04EFPADHIC@font?$AA@ 40093194     ui_main.obj
 0002:0000719c       ??_C@_07MCIOFCJF@menudef?$AA@ 4009319c     ui_main.obj
 0002:000071a4       ??_C@_0P@JJKHBDCP@assetGlobalDef?$AA@ 400931a4     ui_main.obj
 0002:000071b4       ??_C@_0BH@CKFEPHAB@Parsing?5menu?5file?3?5?$CFs?6?$AA@ 400931b4     ui_main.obj
 0002:000071cc       ??_C@_0CG@GMHEABBC@UI?5menu?5load?5time?5?$DN?5?$CFd?5milli?5sec@ 400931cc     ui_main.obj
 0002:000071f4       ??_C@_08GJJFPOLP@loadmenu?$AA@ 400931f4     ui_main.obj
 0002:00007200       ??_C@_0EF@JNLNEOJG@?$FO1default?5menu?5file?5not?5found?3?5u@ 40093200     ui_main.obj
 0002:00007248       ??_C@_0CK@EJKAPAFF@?$FO3menu?5file?5not?5found?3?5?$CFs?0?5using@ 40093248     ui_main.obj
 0002:00007274       ??_C@_03CLAIDPBF@FUI?$AA@  40093274     ui_main.obj
 0002:00007278       ??_C@_0N@DDAKDDIF@gameinfo?4txt?$AA@ 40093278     ui_main.obj
 0002:00007288       __real@44800000            40093288     ui_main.obj
 0002:00007290       __real@4074500000000000    40093290     ui_main.obj
 0002:00007298       ??_C@_0O@OBEFLHGN@levelshots?1?$CFs?$AA@ 40093298     ui_main.obj
 0002:000072a8       ??_C@_0BG@LHBJPEBO@levelshots?1unknownmap?$AA@ 400932a8     ui_main.obj
 0002:000072c0       __real@4008000000000000    400932c0     ui_main.obj
 0002:000072c8       __real@41800000            400932c8     ui_main.obj
 0002:000072cc       ??_C@_0BI@FLGCMJKE@gfx?1loading?1pin_neutral?$AA@ 400932cc     ui_main.obj
 0002:000072e8       __real@4018000000000000    400932e8     ui_main.obj
 0002:000072f0       __real@41400000            400932f0     ui_main.obj
 0002:000072f8       __real@4024000000000000    400932f8     ui_main.obj
 0002:00007300       __real@3ecccccd            40093300     ui_main.obj
 0002:00007308       __real@4090000000000000    40093308     ui_main.obj
 0002:00007310       ??_C@_0BD@MDBFELH@?$FO1No?5text?5supplied?$AA@ 40093310     ui_main.obj
 0002:00007324       ??_C@_07NBCGADJA@Unknown?$AA@ 40093324     ui_main.obj
 0002:0000732c       ??_C@_0P@JFFABJOF@ui_campaignmap?$AA@ 4009332c     ui_main.obj
 0002:0000733c       ??_C@_0BC@MKOPABFF@window_limbo_chat?$AA@ 4009333c     ui_main.obj
 0002:00007350       ??_C@_0N@BMEOOBBN@wm_limboChat?$AA@ 40093350     ui_main.obj
 0002:00007360       __real@bcb43958            40093360     ui_main.obj
 0002:00007364       ??_C@_07JIEGLHEC@m_pitch?$AA@ 40093364     ui_main.obj
 0002:0000736c       __real@3cb43958            4009336c     ui_main.obj
 0002:00007370       ??_C@_0O@OGIMAHGE@ui_mousePitch?$AA@ 40093370     ui_main.obj
 0002:00007380       ??_C@_0BM@PJIIEAMB@exec?5preset_fastest_ui?4cfg?6?$AA@ 40093380     ui_main.obj
 0002:0000739c       ??_C@_0BJ@JHPAFGKP@exec?5preset_fast_ui?4cfg?6?$AA@ 4009339c     ui_main.obj
 0002:000073b8       ??_C@_0BL@GDBOMEBD@exec?5preset_normal_ui?4cfg?6?$AA@ 400933b8     ui_main.obj
 0002:000073d4       ??_C@_0BJ@EIKHPKMO@exec?5preset_high_ui?4cfg?6?$AA@ 400933d4     ui_main.obj
 0002:000073f0       __real@41a00000            400933f0     ui_main.obj
 0002:000073f4       ??_C@_0BC@ONOLCHFM@ui_r_subdivisions?$AA@ 400933f4     ui_main.obj
 0002:00007408       __real@40800000            40093408     ui_main.obj
 0002:0000740c       ??_C@_0N@NHLOABKB@ui_r_lodbias?$AA@ 4009340c     ui_main.obj
 0002:0000741c       __real@41c00000            4009341c     ui_main.obj
 0002:00007420       ??_C@_0O@HILFODLB@r_stencilbits?$AA@ 40093420     ui_main.obj
 0002:00007430       ??_C@_0M@MLADPBHK@r_depthbits?$AA@ 40093430     ui_main.obj
 0002:0000743c       ??_C@_0M@FAHBKNDA@r_colorbits?$AA@ 4009343c     ui_main.obj
 0002:00007448       ??_C@_0L@MNKNEHAB@ui_GetName?$AA@ 40093448     ui_main.obj
 0002:00007458       __real@40af400000000000    40093458     ui_main.obj
 0002:00007460       ??_C@_0BA@HBCBINHO@ui_cl_packetdup?$AA@ 40093460     ui_main.obj
 0002:00007470       ??_C@_0BB@OGCEFBDM@ui_cl_maxpackets?$AA@ 40093470     ui_main.obj
 0002:00007488       __real@40b3880000000000    40093488     ui_main.obj
 0002:00007490       ??_C@_0L@HKMNPIPK@ui_setRate?$AA@ 40093490     ui_main.obj
 0002:0000749c       ??_C@_07KBEHLNKJ@ui_Name?$AA@ 4009349c     ui_main.obj
 0002:000074a4       ??_C@_0L@DFFMHINA@ui_SetName?$AA@ 400934a4     ui_main.obj
 0002:000074b0       ??_C@_0CB@CHNFBGPF@?$FO3WARNING?3?5unknown?5UI?5script?5?$CFs?6@ 400934b0     ui_main.obj
 0002:000074d4       ??_C@_0BA@DBBECHEO@defaultControls?$AA@ 400934d4     ui_main.obj
 0002:000074e4       ??_C@_0BC@JABJCBDB@profileCvarsReset?$AA@ 400934e4     ui_main.obj
 0002:000074f8       ??_C@_0BH@FOCJAGLM@exec?5default_left?4cfg?6?$AA@ 400934f8     ui_main.obj
 0002:00007510       ??_C@_0BC@BFJBKDNK@profileCvarsApply?$AA@ 40093510     ui_main.obj
 0002:00007524       ??_C@_0BA@JFKJMMGM@profileCvarsGet?$AA@ 40093524     ui_main.obj
 0002:00007534       ??_C@_0CA@HDBHHLOD@cg_fov?590?400?5?$DL?5cg_fovy?573?474?5?$DL?5?$AA@ 40093534     ui_main.obj
 0002:00007554       ??_C@_03BAAJCDMO@800?$AA@  40093554     ui_main.obj
 0002:00007558       ??_C@_03KILFEEKL@900?$AA@  40093558     ui_main.obj
 0002:0000755c       ??_C@_04CGPBINJN@1440?$AA@ 4009355c     ui_main.obj
 0002:00007564       ??_C@_04KIFBHAPN@1050?$AA@ 40093564     ui_main.obj
 0002:0000756c       ??_C@_04IFOCLMHC@1680?$AA@ 4009356c     ui_main.obj
 0002:00007574       ??_C@_04EJDHKJN@1200?$AA@  40093574     ui_main.obj
 0002:0000757c       ??_C@_0CB@FFLFIOLP@cg_fov?5100?439?5?$DL?5cg_fovy?573?474?5?$DL?5@ 4009357c     ui_main.obj
 0002:000075a0       ??_C@_03ELOOOHPG@720?$AA@  400935a0     ui_main.obj
 0002:000075a4       ??_C@_04KIACLCF@1280?$AA@  400935a4     ui_main.obj
 0002:000075ac       ??_C@_03IEDOMFCC@768?$AA@  400935ac     ui_main.obj
 0002:000075b0       ??_C@_04OOPIMGMM@1366?$AA@ 400935b0     ui_main.obj
 0002:000075b8       ??_C@_04KAIJODKO@1080?$AA@ 400935b8     ui_main.obj
 0002:000075c0       ??_C@_04NABGCJPC@1920?$AA@ 400935c0     ui_main.obj
 0002:000075c8       ??_C@_03FEMMMNMO@480?$AA@  400935c8     ui_main.obj
 0002:000075cc       ??_C@_03EAJIEGKD@856?$AA@  400935cc     ui_main.obj
 0002:000075d0       ??_C@_0CB@LOLFDHAB@cg_fov?5106?426?5?$DL?5cg_fovy?573?474?5?$DL?5@ 400935d0     ui_main.obj
 0002:000075f4       ??_C@_0CA@MDMALPLC@cg_fov?5?$CF3?42f?5?$DL?5cg_fovy?573?474?5?$DL?5?$AA@ 400935f4     ui_main.obj
 0002:00007618       __real@40526f5c20000000    40093618     ui_main.obj
 0002:00007620       ??_C@_0BB@GHCJIELO@systemCvarsApply?$AA@ 40093620     ui_main.obj
 0002:00007634       ??_C@_0BB@OCKBAGFF@systemCvarsReset?$AA@ 40093634     ui_main.obj
 0002:00007648       ??_C@_0BB@GBAJKCAL@ui_r_texturemode?$AA@ 40093648     ui_main.obj
 0002:0000765c       ??_C@_0BE@BMHJODHH@ui_r_detailtextures?$AA@ 4009365c     ui_main.obj
 0002:00007670       ??_C@_08PBDNBDJG@ui_s_khz?$AA@ 40093670     ui_main.obj
 0002:0000767c       ??_C@_0M@FGHIKFOA@ui_m_filter?$AA@ 4009367c     ui_main.obj
 0002:00007688       ??_C@_0BF@MIJAJHLC@ui_r_allowextensions?$AA@ 40093688     ui_main.obj
 0002:000076a0       ??_C@_0BC@ONFJMMMN@ui_r_dynamiclight?$AA@ 400936a0     ui_main.obj
 0002:000076b4       ??_C@_0M@FFDENBHL@ui_r_finish?$AA@ 400936b4     ui_main.obj
 0002:000076c0       ??_C@_0BN@GCJBLFGF@ui_r_ext_compressed_textures?$AA@ 400936c0     ui_main.obj
 0002:000076e0       ??_C@_0P@FOKPMCPI@ui_r_depthbits?$AA@ 400936e0     ui_main.obj
 0002:000076f0       ??_C@_0BB@MGIMHMKB@ui_r_texturebits?$AA@ 400936f0     ui_main.obj
 0002:00007704       ??_C@_0M@LFGCJFJG@ui_r_picmip?$AA@ 40093704     ui_main.obj
 0002:00007710       ??_C@_0BA@JLJFGCCN@ui_r_fullscreen?$AA@ 40093710     ui_main.obj
 0002:00007720       ??_C@_0P@MFNNJOLC@ui_r_colorbits?$AA@ 40093720     ui_main.obj
 0002:00007730       ??_C@_02NJPGOMH@?$CFf?$AA@ 40093730     ui_main.obj
 0002:00007734       ??_C@_0O@NHGMKMHI@r_texturemode?$AA@ 40093734     ui_main.obj
 0002:00007744       ??_C@_0BB@OJJFINJB@r_detailtextures?$AA@ 40093744     ui_main.obj
 0002:00007758       ??_C@_05GPLACMP@s_khz?$AA@ 40093758     ui_main.obj
 0002:00007760       ??_C@_08BEMLPELN@m_filter?$AA@ 40093760     ui_main.obj
 0002:0000776c       ??_C@_0BC@IBAMDMJB@r_allowextensions?$AA@ 4009376c     ui_main.obj
 0002:00007780       ??_C@_0P@CEODIJEF@r_dynamiclight?$AA@ 40093780     ui_main.obj
 0002:00007790       ??_C@_08BHIHIACG@r_finish?$AA@ 40093790     ui_main.obj
 0002:0000779c       ??_C@_0BK@GPIDLLEE@r_ext_compressed_textures?$AA@ 4009379c     ui_main.obj
 0002:000077b8       ??_C@_0O@HAOJHCNC@r_texturebits?$AA@ 400937b8     ui_main.obj
 0002:000077c8       ??_C@_08PHNBMEML@r_picmip?$AA@ 400937c8     ui_main.obj
 0002:000077d4       ??_C@_0P@CEFBGCNE@r_subdivisions?$AA@ 400937d4     ui_main.obj
 0002:000077e4       ??_C@_09MCCGJPLJ@r_lodbias?$AA@ 400937e4     ui_main.obj
 0002:000077f0       ??_C@_0N@JILGCMBC@r_fullscreen?$AA@ 400937f0     ui_main.obj
 0002:00007800       ??_C@_0M@JFLMCFNC@sensitivity?$AA@ 40093800     ui_main.obj
 0002:0000780c       ??_C@_0N@HCACMDEB@cl_packetdup?$AA@ 4009380c     ui_main.obj
 0002:0000781c       ??_C@_0O@FAEBFPEP@cl_maxpackets?$AA@ 4009381c     ui_main.obj
 0002:0000782c       ??_C@_04HCCHHEEF@rate?$AA@ 4009382c     ui_main.obj
 0002:00007834       ??_C@_07OFDDGDHB@r_gamma?$AA@ 40093834     ui_main.obj
 0002:0000783c       ??_C@_0P@LIHGBLCO@r_customHeight?$AA@ 4009383c     ui_main.obj
 0002:0000784c       ??_C@_0O@EHKMAMKJ@r_customWidth?$AA@ 4009384c     ui_main.obj
 0002:0000785c       ??_C@_0P@FCJBMFP@systemCvarsGet?$AA@ 4009385c     ui_main.obj
 0002:0000786c       ??_C@_0L@JBPKCNCJ@vidConfirm?$AA@ 4009386c     ui_main.obj
 0002:00007878       ??_C@_08EGEDGJOC@vidReset?$AA@ 40093878     ui_main.obj
 0002:00007884       ??_C@_09BOIBCPC@r_oldMode?$AA@ 40093884     ui_main.obj
 0002:00007890       ??_C@_06LBAPPDBG@r_mode?$AA@ 40093890     ui_main.obj
 0002:00007898       ??_C@_07MJHGFCIG@vidSave?$AA@ 40093898     ui_main.obj
 0002:000078a0       ??_C@_0P@HACFFJBI@updateGameType?$AA@ 400938a0     ui_main.obj
 0002:000078b0       ??_C@_08IBICOFKM@redirect?$AA@ 400938b0     ui_main.obj
 0002:000078bc       ??_C@_0L@FBPMLECH@reconnect?6?$AA@ 400938bc     ui_main.obj
 0002:000078c8       ??_C@_09MCGBPECP@reconnect?$AA@ 400938c8     ui_main.obj
 0002:000078d4       ??_C@_0N@OEBGBMKC@cg_ui_novote?$AA@ 400938d4     ui_main.obj
 0002:000078e4       ??_C@_0BA@JEMBFLOI@cg_ui_voteFlags?$AA@ 400938e4     ui_main.obj
 0002:000078f4       ??_C@_0BA@PHPNPMOK@clientCheckVote?$AA@ 400938f4     ui_main.obj
 0002:00007904       ??_C@_0BB@LKCFDHLC@validate_openURL?$AA@ 40093904     ui_main.obj
 0002:00007918       ??_C@_06IGFMNMMC@ui_URL?$AA@ 40093918     ui_main.obj
 0002:00007920       ??_C@_0O@MNLMMFBI@openServerURL?$AA@ 40093920     ui_main.obj
 0002:00007930       ??_C@_0M@DAFMINPO@ui_finalURL?$AA@ 40093930     ui_main.obj
 0002:0000793c       ??_C@_09MAIFELKA@ui_modURL?$AA@ 4009393c     ui_main.obj
 0002:00007948       ??_C@_0L@NGDKCOL@openModURL?$AA@ 40093948     ui_main.obj
 0002:00007954       ??_C@_0BI@OHKGJHDE@toggleWeaponRestriction?$AA@ 40093954     ui_main.obj
 0002:0000796c       ??_C@_0P@DIPGDDOO@toggleMaxLives?$AA@ 4009396c     ui_main.obj
 0002:0000797c       ??_C@_0BK@NLJFJGGL@ui_heavyWeaponRestriction?$AA@ 4009397c     ui_main.obj
 0002:00007998       ??_C@_0M@NKOBOEDF@ui_maxlives?$AA@ 40093998     ui_main.obj
 0002:000079a4       ??_C@_0L@CECMEOFE@g_maxlives?$AA@ 400939a4     ui_main.obj
 0002:000079b0       ??_C@_0BF@CDGKDACB@initHostGameFeatures?$AA@ 400939b0     ui_main.obj
 0002:000079c8       ??_C@_0BB@JKHFKDGG@togglePbSvStatus?$AA@ 400939c8     ui_main.obj
 0002:000079dc       ??_C@_0BM@OAENEHIG@profiles?1?$CFs?1servercache?4dat?$AA@ 400939dc     ui_main.obj
 0002:000079f8       ??_C@_0P@NNHNPLN@profiles?1?$CFs?1?$CFs?$AA@ 400939f8     ui_main.obj
 0002:00007a08       ??_C@_0N@JFLPIDNL@etconfig?4cfg?$AA@ 40093a08     ui_main.obj
 0002:00007a18       ??_C@_0O@IKCFDNNB@renameProfile?$AA@ 40093a18     ui_main.obj
 0002:00007a28       ??_C@_0BE@NCDNMBCO@ui_profile_renameto?$AA@ 40093a28     ui_main.obj
 0002:00007a3c       ??_C@_0BC@NFIKOELD@renameProfileInit?$AA@ 40093a3c     ui_main.obj
 0002:00007a50       ??_C@_0M@KOIHHMCE@profiles?1?$CFs?$AA@ 40093a50     ui_main.obj
 0002:00007a5c       ??_C@_0O@JDAMANDE@deleteProfile?$AA@ 40093a5c     ui_main.obj
 0002:00007a6c       ??_C@_0BM@BHBFNCH@profiles?1defaultprofile?4dat?$AA@ 40093a6c     ui_main.obj
 0002:00007a88       ??_C@_0BC@FFIHHHCF@setDefaultProfile?$AA@ 40093a88     ui_main.obj
 0002:00007a9c       ??_C@_0N@LADFOAFI@applyProfile?$AA@ 40093a9c     ui_main.obj
 0002:00007aac       ??_C@_0BI@FGPNFEHN@profiles?1?$CFs?1profile?4pid?$AA@ 40093aac     ui_main.obj
 0002:00007ac4       ??_C@_08ECDLNMDK@clearPID?$AA@ 40093ac4     ui_main.obj
 0002:00007ad0       ??_C@_04OEDFLLKD@?$CC?$CFs?$CC?$AA@ 40093ad0     ui_main.obj
 0002:00007ad8       ??_C@_0BI@MNFHNHFM@profiles?1?$CFs?1profile?4dat?$AA@ 40093ad8     ui_main.obj
 0002:00007af0       ??_C@_0O@BCMFEOGF@createProfile?$AA@ 40093af0     ui_main.obj
 0002:00007b00       ??_C@_0N@OHPKLNPK@loadProfiles?$AA@ 40093b00     ui_main.obj
 0002:00007b10       ??_C@_0M@NONJPLHD@spmap?5?$CC?$CFs?$CC?6?$AA@ 40093b10     ui_main.obj
 0002:00007b1c       ??_C@_0N@LCKGMBCB@playCampaign?$AA@ 40093b1c     ui_main.obj
 0002:00007b2c       ??_C@_0O@LLGBHKLC@setupCampaign?$AA@ 40093b2c     ui_main.obj
 0002:00007b3c       ??_C@_0BC@IJDNGBLF@loadCachedServers?$AA@ 40093b3c     ui_main.obj
 0002:00007b50       ??_C@_0P@NPFJPIEL@unignore?5?$CC?$CFs?$CC?6?$AA@ 40093b50     ui_main.obj
 0002:00007b60       ??_C@_0P@OFOAHONP@unIgnorePlayer?$AA@ 40093b60     ui_main.obj
 0002:00007b70       ??_C@_0N@HFGDADKA@ignore?5?$CC?$CFs?$CC?6?$AA@ 40093b70     ui_main.obj
 0002:00007b80       ??_C@_0N@PMKEMOMB@ignorePlayer?$AA@ 40093b80     ui_main.obj
 0002:00007b90       ??_C@_0BB@LMDHIIEO@ref?5warmup?5?$CC?$CFs?$CC?6?$AA@ 40093b90     ui_main.obj
 0002:00007ba4       ??_C@_09KNOPHCKG@ui_warmup?$AA@ 40093ba4     ui_main.obj
 0002:00007bb0       ??_C@_09PMDIOLAB@refWarmup?$AA@ 40093bb0     ui_main.obj
 0002:00007bbc       ??_C@_0BE@GIOGJLOM@ref?5warn?5?$CC?$CFs?$CC?5?$CC?$CFs?$CC?6?$AA@ 40093bbc     ui_main.obj
 0002:00007bd0       ??_C@_0O@DDOKPLGP@ui_warnreason?$AA@ 40093bd0     ui_main.obj
 0002:00007be0       ??_C@_0L@BGJAOJJA@refWarning?$AA@ 40093be0     ui_main.obj
 0002:00007bec       ??_C@_0BC@ENCNJNMH@rcon?5unmute?5?$CC?$CFs?$CC?6?$AA@ 40093bec     ui_main.obj
 0002:00007c00       ??_C@_0L@LKLONNKM@rconUnMute?$AA@ 40093c00     ui_main.obj
 0002:00007c0c       ??_C@_0BA@KEJMNKMF@rcon?5mute?5?$CC?$CFs?$CC?6?$AA@ 40093c0c     ui_main.obj
 0002:00007c1c       ??_C@_08GBDHGGEE@rconMute?$AA@ 40093c1c     ui_main.obj
 0002:00007c28       ??_C@_0BJ@ENNDDEOH@rcon?5removeReferee?5?$CC?$CFs?$CC?6?$AA@ 40093c28     ui_main.obj
 0002:00007c44       ??_C@_0BC@PHFIFBDE@rconRemoveReferee?$AA@ 40093c44     ui_main.obj
 0002:00007c58       ??_C@_0BH@KLDLIJOC@rcon?5makeReferee?5?$CC?$CFs?$CC?6?$AA@ 40093c58     ui_main.obj
 0002:00007c70       ??_C@_0BA@OAKKFJEM@rconMakeReferee?$AA@ 40093c70     ui_main.obj
 0002:00007c80       ??_C@_0BC@IHCADEAD@ref?5referee?5?$CC?$CFs?$CC?6?$AA@ 40093c80     ui_main.obj
 0002:00007c94       ??_C@_0P@PGKJMKNF@refMakeReferee?$AA@ 40093c94     ui_main.obj
 0002:00007ca4       ??_C@_0BE@NLGALBPD@ref?5unreferee?5?$CC?$CFs?$CC?6?$AA@ 40093ca4     ui_main.obj
 0002:00007cb8       ??_C@_0N@DPHNFNFG@refUnReferee?$AA@ 40093cb8     ui_main.obj
 0002:00007cc8       ??_C@_0BB@JGDDODJI@ref?5remove?5?$CC?$CFs?$CC?6?$AA@ 40093cc8     ui_main.obj
 0002:00007cdc       ??_C@_0M@EHHFIOBN@refMakeSpec?$AA@ 40093cdc     ui_main.obj
 0002:00007ce8       ??_C@_0BE@PHDEOACD@ref?5putallies?5?$CC?$CFs?$CC?6?$AA@ 40093ce8     ui_main.obj
 0002:00007cfc       ??_C@_0O@FMBJOPDE@refMakeAllied?$AA@ 40093cfc     ui_main.obj
 0002:00007d0c       ??_C@_0BC@MJHBANOE@ref?5putaxis?5?$CC?$CFs?$CC?6?$AA@ 40093d0c     ui_main.obj
 0002:00007d20       ??_C@_0M@NLDJIJCF@refMakeAxis?$AA@ 40093d20     ui_main.obj
 0002:00007d2c       ??_C@_0BB@IEKIHIGJ@ref?5unmute?5?$CC?$CFs?$CC?6?$AA@ 40093d2c     ui_main.obj
 0002:00007d40       ??_C@_09BKFKJEPJ@refUnMute?$AA@ 40093d40     ui_main.obj
 0002:00007d4c       ??_C@_0P@LCJPEJFM@ref?5mute?5?$CC?$CFs?$CC?6?$AA@ 40093d4c     ui_main.obj
 0002:00007d5c       ??_C@_07MEHLKKEG@refMute?$AA@ 40093d5c     ui_main.obj
 0002:00007d64       ??_C@_0P@HHAJLJPN@rcon?5ban?5?$CC?$CFs?$CC?6?$AA@ 40093d64     ui_main.obj
 0002:00007d74       ??_C@_07JCCAODCI@rconBan?$AA@ 40093d74     ui_main.obj
 0002:00007d7c       ??_C@_0P@LKJDNPPD@ref?5kick?5?$CC?$CFs?$CC?6?$AA@ 40093d7c     ui_main.obj
 0002:00007d8c       ??_C@_07NGBOCPLK@refKick?$AA@ 40093d8c     ui_main.obj
 0002:00007d94       ??_C@_0BA@KMJAEMGK@rcon?5kick?5?$CC?$CFs?$CC?6?$AA@ 40093d94     ui_main.obj
 0002:00007da4       ??_C@_08HDFCODLI@rconKick?$AA@ 40093da4     ui_main.obj
 0002:00007db0       ??_C@_0M@KEKIFLGE@ref?5map?5?$CFs?6?$AA@ 40093db0     ui_main.obj
 0002:00007dbc       ??_C@_0BB@HMBFNED@ref?5campaign?5?$CFs?6?$AA@ 40093dbc     ui_main.obj
 0002:00007dd0       ??_C@_06FIHLKFIG@refMap?$AA@ 40093dd0     ui_main.obj
 0002:00007dd8       ??_C@_0N@GMGEKLKF@rcon?5map?5?$CFs?6?$AA@ 40093dd8     ui_main.obj
 0002:00007de8       ??_C@_07BOACMMKB@rconMap?$AA@ 40093de8     ui_main.obj
 0002:00007df0       ??_C@_0BE@IMCKAOPL@rcon?5g_gametype?5?$CFi?6?$AA@ 40093df0     ui_main.obj
 0002:00007e04       ??_C@_08OHALCGNC@rconGame?$AA@ 40093e04     ui_main.obj
 0002:00007e10       ??_C@_0O@NFIEBFHK@setPbClStatus?$AA@ 40093e10     ui_main.obj
 0002:00007e20       ??_C@_08FLMDAALG@?$CLscores?6?$AA@ 40093e20     ui_main.obj
 0002:00007e2c       ??_C@_0P@KKFKMCGH@showSpecScores?$AA@ 40093e2c     ui_main.obj
 0002:00007e3c       ??_C@_0BD@NNOLHPDE@startSingleplayer?6?$AA@ 40093e3c     ui_main.obj
 0002:00007e50       ??_C@_0BC@GNGBEHB@startSingleplayer?$AA@ 40093e50     ui_main.obj
 0002:00007e64       ??_C@_06HDLLMMEJ@update?$AA@ 40093e64     ui_main.obj
 0002:00007e6c       ??_C@_08EBELHFHN@glCustom?$AA@ 40093e6c     ui_main.obj
 0002:00007e78       ??_C@_0M@JLOCKKJD@voiceOrders?$AA@ 40093e78     ui_main.obj
 0002:00007e84       ??_C@_0BA@CIKCJHJJ@voiceOrdersTeam?$AA@ 40093e84     ui_main.obj
 0002:00007e94       ??_C@_01EEMJAFIK@?6?$AA@   40093e94     ui_main.obj
 0002:00007e98       ??_C@_06GKKKPAPA@orders?$AA@ 40093e98     ui_main.obj
 0002:00007ea0       ??_C@_0BF@LOGHOGEE@createFavoriteIngame?$AA@ 40093ea0     ui_main.obj
 0002:00007eb8       ??_C@_0BD@IEIPHBLJ@ui_favoriteAddress?$AA@ 40093eb8     ui_main.obj
 0002:00007ecc       ??_C@_0BA@LFABJOCG@ui_favoriteName?$AA@ 40093ecc     ui_main.obj
 0002:00007edc       ??_C@_0P@OAONNFHL@createFavorite?$AA@ 40093edc     ui_main.obj
 0002:00007eec       ??_C@_0P@PMAAHNFK@deleteFavorite?$AA@ 40093eec     ui_main.obj
 0002:00007efc       ??_C@_0BK@FHDFKECC@Added?5favorite?5server?5?$CFs?6?$AA@ 40093efc     ui_main.obj
 0002:00007f18       ??_C@_0BE@GHLACGPA@Favorite?5list?5full?6?$AA@ 40093f18     ui_main.obj
 0002:00007f2c       ??_C@_0BK@MJOGKENH@Favorite?5already?5in?5list?6?$AA@ 40093f2c     ui_main.obj
 0002:00007f48       ??_C@_04HLBMEOMD@addr?$AA@ 40093f48     ui_main.obj
 0002:00007f50       ??_C@_08EHKIGBEA@hostname?$AA@ 40093f50     ui_main.obj
 0002:00007f5c       ??_C@_0M@EGEBIODJ@addFavorite?$AA@ 40093f5c     ui_main.obj
 0002:00007f68       ??_C@_0BI@HLELIIOI@callteamvote?5leader?5?$CFs?6?$AA@ 40093f68     ui_main.obj
 0002:00007f80       ??_C@_0L@PNGBIKK@voteLeader?$AA@ 40093f80     ui_main.obj
 0002:00007f8c       ??_C@_0BA@OPEAAOMM@voteInitToggles?$AA@ 40093f8c     ui_main.obj
 0002:00007f9c       ??_C@_0BF@ICHIGHAN@ref?5warmupdamage?5?$CFd?6?$AA@ 40093f9c     ui_main.obj
 0002:00007fb4       ??_C@_0BA@NJNPJDNJ@refWarmupDamage?$AA@ 40093fb4     ui_main.obj
 0002:00007fc4       ??_C@_0BC@MCCNBKOI@ref?5timelimit?5?$CFf?6?$AA@ 40093fc4     ui_main.obj
 0002:00007fd8       ??_C@_0N@NOOBEJKK@refTimelimit?$AA@ 40093fd8     ui_main.obj
 0002:00007fe8       ??_C@_0BK@EDJOBJHG@callvote?5warmupdamage?5?$CFd?6?$AA@ 40093fe8     ui_main.obj
 0002:00008004       ??_C@_0BE@KEHCCDBH@ui_voteWarmupDamage?$AA@ 40094004     ui_main.obj
 0002:00008018       ??_C@_0BB@FBJOENPB@voteWarmupDamage?$AA@ 40094018     ui_main.obj
 0002:0000802c       ??_C@_0BH@NKJAHPLI@callvote?5timelimit?5?$CFf?6?$AA@ 4009402c     ui_main.obj
 0002:00008044       ??_C@_0BB@FJJCIBFJ@ui_voteTimelimit?$AA@ 40094044     ui_main.obj
 0002:00008058       ??_C@_0O@OPPHIPCK@voteTimelimit?$AA@ 40094058     ui_main.obj
 0002:00008068       ??_C@_0BB@EFBMDPEJ@ref?5gametype?5?$CFi?6?$AA@ 40094068     ui_main.obj
 0002:0000807c       ??_C@_07ECEHOKNA@refGame?$AA@ 4009407c     ui_main.obj
 0002:00008084       ??_C@_0BG@EPDOBIJO@callvote?5gametype?5?$CFi?6?$AA@ 40094084     ui_main.obj
 0002:0000809c       ??_C@_0BA@EJHPEFKP@ui_voteGameType?$AA@ 4009409c     ui_main.obj
 0002:000080ac       ??_C@_08OCFGFKGG@voteGame?$AA@ 400940ac     ui_main.obj
 0002:000080b8       ??_C@_0BJ@FMADGBMN@callvote?5unreferee?5?$CC?$CFs?$CC?6?$AA@ 400940b8     ui_main.obj
 0002:000080d4       ??_C@_0O@OGLJLNG@voteUnReferee?$AA@ 400940d4     ui_main.obj
 0002:000080e4       ??_C@_0BH@JPJNFBFD@callvote?5referee?5?$CC?$CFs?$CC?6?$AA@ 400940e4     ui_main.obj
 0002:000080fc       ??_C@_0M@LDHFODMO@voteReferee?$AA@ 400940fc     ui_main.obj
 0002:00008108       ??_C@_0BG@IOIKFPLO@callvote?5unmute?5?$CC?$CFs?$CC?6?$AA@ 40094108     ui_main.obj
 0002:00008120       ??_C@_0L@GDKEIOFK@voteUnMute?$AA@ 40094120     ui_main.obj
 0002:0000812c       ??_C@_0BE@DJHJHOOK@callvote?5mute?5?$CC?$CFs?$CC?6?$AA@ 4009412c     ui_main.obj
 0002:00008140       ??_C@_08GEGKBKPA@voteMute?$AA@ 40094140     ui_main.obj
 0002:0000814c       ??_C@_0BE@GEMABNEF@callvote?5poll?5?$CC?$CFs?$CC?6?$AA@ 4009414c     ui_main.obj
 0002:00008160       ??_C@_07IPIJBNAD@ui_poll?$AA@ 40094160     ui_main.obj
 0002:00008168       ??_C@_08EJLHLJ@votePoll?$AA@ 40094168     ui_main.obj
 0002:00008174       ??_C@_0BE@DBHFOIEF@callvote?5kick?5?$CC?$CFs?$CC?6?$AA@ 40094174     ui_main.obj
 0002:00008188       ??_C@_08HGAPJPAM@voteKick?$AA@ 40094188     ui_main.obj
 0002:00008194       ??_C@_0BB@MMOGBGK@callvote?5map?5?$CFs?6?$AA@ 40094194     ui_main.obj
 0002:000081a8       ??_C@_0BG@NODHKJE@callvote?5campaign?5?$CFs?6?$AA@ 400941a8     ui_main.obj
 0002:000081c0       ??_C@_07EDCJGLGG@voteMap?$AA@ 400941c0     ui_main.obj
 0002:000081c8       ??_C@_0M@CMDMBGBD@closeingame?$AA@ 400941c8     ui_main.obj
 0002:000081d4       ??_C@_0O@NIAKDABK@SkirmishStart?$AA@ 400941d4     ui_main.obj
 0002:000081e4       ??_C@_0N@ENKJLKKO@nextSkirmish?$AA@ 400941e4     ui_main.obj
 0002:000081f4       ??_C@_0P@LAPAHBEC@ServerSortDown?$AA@ 400941f4     ui_main.obj
 0002:00008204       ??_C@_0L@GJDENEEM@ServerSort?$AA@ 40094204     ui_main.obj
 0002:00008210       ??_C@_0M@DJDKNCBH@main_opener?$AA@ 40094210     ui_main.obj
 0002:0000821c       ??_C@_0BA@GACGJEGF@backgroundmusic?$AA@ 4009421c     ui_main.obj
 0002:0000822c       ??_C@_0M@MNJNCGPD@disconnect?6?$AA@ 4009422c     ui_main.obj
 0002:00008238       ??_C@_0L@MPAGGMDN@sv_running?$AA@ 40094238     ui_main.obj
 0002:00008244       ??_C@_05KMBJHHBA@Leave?$AA@ 40094244     ui_main.obj
 0002:0000824c       ??_C@_0M@ELCNGBBL@setup_menu2?$AA@ 4009424c     ui_main.obj
 0002:00008258       ??_C@_09DIABHAFB@cl_paused?$AA@ 40094258     ui_main.obj
 0002:00008264       ??_C@_08BJJAFCGA@Controls?$AA@ 40094264     ui_main.obj
 0002:00008270       ??_C@_04KNNLNNGO@quit?$AA@ 40094270     ui_main.obj
 0002:00008278       ??_C@_04GMBKPCGK@Quit?$AA@ 40094278     ui_main.obj
 0002:00008280       ??_C@_0BG@HCFHGGBJ@FoundPlayerJoinServer?$AA@ 40094280     ui_main.obj
 0002:00008298       ??_C@_0BG@LGLFPJCC@ui_connectToIPAddress?$AA@ 40094298     ui_main.obj
 0002:000082b0       ??_C@_0BB@FNDHEOEN@JoinDirectServer?$AA@ 400942b0     ui_main.obj
 0002:000082c4       ??_C@_0M@LNGHCJI@connect?5?$CFs?6?$AA@ 400942c4     ui_main.obj
 0002:000082d0       ??_C@_02LBFBOHNP@0?5?$AA@  400942d0     ui_main.obj
 0002:000082d4       ??_C@_0L@GBIFOGGA@JoinServer?$AA@ 400942d4     ui_main.obj
 0002:000082e0       ??_C@_0L@PKOEMDLA@FindPlayer?$AA@ 400942e0     ui_main.obj
 0002:000082ec       ??_C@_0BI@NGEOLCDJ@FoundPlayerServerStatus?$AA@ 400942ec     ui_main.obj
 0002:00008304       ??_C@_0L@OJMFMOP@serverinfo?$AA@ 40094304     ui_main.obj
 0002:00008310       ??_C@_0BH@CDEAODOE@error_popmenu_diagnose?$AA@ 40094310     ui_main.obj
 0002:00008328       ??_C@_0BG@NIMDMFJJ@ServerStatus_diagnose?$AA@ 40094328     ui_main.obj
 0002:00008340       ??_C@_0BD@CBGJBHLH@InGameServerStatus?$AA@ 40094340     ui_main.obj
 0002:00008354       ??_C@_0DF@JDBHHAHA@Can?8t?5show?5Server?5Info?5?$CInot?5foun@ 40094354     ui_main.obj
 0002:0000838c       ??_C@_0BB@KCAOEMCL@ui_serverBrowser?$AA@ 4009438c     ui_main.obj
 0002:000083a0       ??_C@_0N@MFALOAHE@ServerStatus?$AA@ 400943a0     ui_main.obj
 0002:000083b0       ??_C@_0P@IGAPPBJC@ctr_serverinfo?$AA@ 400943b0     ui_main.obj
 0002:000083c0       ??_C@_09IPAEKDAI@localhost?$AA@ 400943c0     ui_main.obj
 0002:000083cc       ??_C@_0P@FOBIABGN@ingame_options?$AA@ 400943cc     ui_main.obj
 0002:000083dc       ??_C@_0BD@FCKAALNB@check_ServerStatus?$AA@ 400943dc     ui_main.obj
 0002:000083f0       ??_C@_0N@MIKCKLPA@UpdateFilter?$AA@ 400943f0     ui_main.obj
 0002:00008400       ??_C@_0M@DFCCPELD@StopRefresh?$AA@ 40094400     ui_main.obj
 0002:0000840c       ??_C@_04GHJNJNPO@main?$AA@ 4009440c     ui_main.obj
 0002:00008414       ??_C@_0L@CIKEFACL@joinserver?$AA@ 40094414     ui_main.obj
 0002:00008420       ??_C@_09NNPOKNDJ@closeJoin?$AA@ 40094420     ui_main.obj
 0002:0000842c       ??_C@_0P@JBKMAJI@demos?1?$CFs?4dm_?$CFd?$AA@ 4009442c     ui_main.obj
 0002:0000843c       ??_C@_0L@CCBIAEIA@deleteDemo?$AA@ 4009443c     ui_main.obj
 0002:00008448       ??_C@_0L@NDAIPINK@demo?5?$CC?$CFs?$CC?6?$AA@ 40094448     ui_main.obj
 0002:00008454       ??_C@_07CJBJDCI@RunDemo?$AA@ 40094454     ui_main.obj
 0002:0000845c       ??_C@_0N@PGDAKNHB@vid_restart?$DL?$AA@ 4009445c     ui_main.obj
 0002:0000846c       ??_C@_07FMAMAFJE@fs_game?$AA@ 4009446c     ui_main.obj
 0002:00008474       ??_C@_06IAFACPBP@RunMod?$AA@ 40094474     ui_main.obj
 0002:0000847c       ??_C@_0BE@GDKNLHFF@cinematic?5?$CFs?4roq?52?6?$AA@ 4009447c     ui_main.obj
 0002:00008490       ??_C@_09IMKGDMFP@playMovie?$AA@ 40094490     ui_main.obj
 0002:0000849c       ??_C@_08BONFJBCM@LoadMods?$AA@ 4009449c     ui_main.obj
 0002:000084a8       ??_C@_0M@CNAFDBFP@DelSavegame?$AA@ 400944a8     ui_main.obj
 0002:000084b4       ??_C@_0N@JHFGPNL@savegame?5?$CFs?6?$AA@ 400944b4     ui_main.obj
 0002:000084c4       ??_C@_0M@KJKGGCGL@ui_savegame?$AA@ 400944c4     ui_main.obj
 0002:000084d0       ??_C@_08GJOELBJF@Savegame?$AA@ 400944d0     ui_main.obj
 0002:000084dc       ??_C@_0N@BLDMHFFM@loadgame?5?$CFs?6?$AA@ 400944dc     ui_main.obj
 0002:000084ec       ??_C@_08GGDCFPOC@Loadgame?$AA@ 400944ec     ui_main.obj
 0002:000084f8       ??_C@_0O@KALGBBKC@LoadSaveGames?$AA@ 400944f8     ui_main.obj
 0002:00008508       ??_C@_0L@NBLDIGEO@LoadMovies?$AA@ 40094508     ui_main.obj
 0002:00008514       ??_C@_09DDFPMPLA@LoadDemos?$AA@ 40094514     ui_main.obj
 0002:00008520       ??_C@_0L@NICFMMGO@demo?5?$CFs_?$CFi?$AA@ 40094520     ui_main.obj
 0002:0000852c       ??_C@_09MDJDNIJB@RunSPDemo?$AA@ 4009452c     ui_main.obj
 0002:00008538       ??_C@_0O@IEJIOIFM@RefreshFilter?$AA@ 40094538     ui_main.obj
 0002:00008548       ??_C@_0P@NGKMMKLC@RefreshServers?$AA@ 40094548     ui_main.obj
 0002:00008558       ??_C@_0M@ECEPFMDA@resetScores?$AA@ 40094558     ui_main.obj
 0002:00008564       ??_C@_0N@EDJNMDIG@loadGameInfo?$AA@ 40094564     ui_main.obj
 0002:00008574       ??_C@_0BE@EIFEMEGE@com_errorDiagnoseIP?$AA@ 40094574     ui_main.obj
 0002:00008588       ??_C@_0L@KEOECIBG@clearError?$AA@ 40094588     ui_main.obj
 0002:00008594       ??_C@_0N@HHDEHNGC@loadControls?$AA@ 40094594     ui_main.obj
 0002:000085a4       ??_C@_0N@GFHNGHOF@saveControls?$AA@ 400945a4     ui_main.obj
 0002:000085b4       ??_C@_0N@NHHNMPCP@updateNetMap?$AA@ 400945b4     ui_main.obj
 0002:000085c4       ??_C@_0L@JCFJAPJP@loadArenas?$AA@ 400945c4     ui_main.obj
 0002:000085d0       ??_C@_0CE@CAINCGAI@CD?5key?5does?5not?5appear?5to?5be?5val@ 400945d0     ui_main.obj
 0002:000085f4       ??_C@_0O@OHLIJICA@ui_cdkeyvalid?$AA@ 400945f4     ui_main.obj
 0002:00008604       ??_C@_0BM@NLHBAMLA@CD?5key?5appears?5to?5be?5valid?4?$AA@ 40094604     ui_main.obj
 0002:00008620       ??_C@_0O@EGKCCOIK@cdkeychecksum?$AA@ 40094620     ui_main.obj
 0002:00008630       ??_C@_05PACJEJFD@cdkey?$AA@ 40094630     ui_main.obj
 0002:00008638       ??_C@_0M@NLJNOLGD@verifyCDKey?$AA@ 40094638     ui_main.obj
 0002:00008644       ??_C@_06EJLINKPA@cdkey4?$AA@ 40094644     ui_main.obj
 0002:0000864c       ??_C@_06GPJEMDH@cdkey3?$AA@ 4009464c     ui_main.obj
 0002:00008654       ??_C@_06BPOCHNHG@cdkey2?$AA@ 40094654     ui_main.obj
 0002:0000865c       ??_C@_06DEMPCOLF@cdkey1?$AA@ 4009465c     ui_main.obj
 0002:00008664       ??_C@_08HJJDMPNI@getCDKey?$AA@ 40094664     ui_main.obj
 0002:00008670       ??_C@_0N@DAGNKKMD@vid_restart?6?$AA@ 40094670     ui_main.obj
 0002:00008680       ??_C@_0BD@GPGDMCJF@com_recommendedSet?$AA@ 40094680     ui_main.obj
 0002:00008694       ??_C@_0BA@DOMILBID@com_introPlayed?$AA@ 40094694     ui_main.obj
 0002:000086a4       ??_C@_0BA@IPKEMBKK@setRecommended?6?$AA@ 400946a4     ui_main.obj
 0002:000086b4       ??_C@_0BD@GONIGDLJ@exec?5language?4cfg?6?$AA@ 400946b4     ui_main.obj
 0002:000086c8       ??_C@_0BC@FDOILEKD@exec?5default?4cfg?6?$AA@ 400946c8     ui_main.obj
 0002:000086dc       ??_C@_0O@FOFBEHAC@cvar_restart?6?$AA@ 400946dc     ui_main.obj
 0002:000086ec       ??_C@_0O@JMPPEAEI@resetDefaults?$AA@ 400946ec     ui_main.obj
 0002:000086fc       ??_C@_0P@OJCJEALH@selectcampaign?$AA@ 400946fc     ui_main.obj
 0002:0000870c       ??_C@_08NJICDBID@skirmish?$AA@ 4009470c     ui_main.obj
 0002:00008718       ??_C@_0N@DKFPEKGB@updateSPMenu?$AA@ 40094718     ui_main.obj
 0002:00008728       ??_C@_0BI@CLHDKAHK@g_userAlliedRespawnTime?$AA@ 40094728     ui_main.obj
 0002:00008740       ??_C@_0BG@KLIHGOKO@g_userAxisRespawnTime?$AA@ 40094740     ui_main.obj
 0002:00008758       ??_C@_0BA@IOPCKFME@g_userTimelimit?$AA@ 40094758     ui_main.obj
 0002:00008768       ??_C@_02IKAHHCAI@?$CFi?$AA@ 40094768     ui_main.obj
 0002:0000876c       ??_C@_0BB@BLDOMLHI@ui_userTimelimit?$AA@ 4009476c     ui_main.obj
 0002:00008780       ??_C@_09OGEBNCBM@g_spSkill?$AA@ 40094780     ui_main.obj
 0002:0000878c       ??_C@_0BG@IEGGLJFO@wait?5?$DL?5wait?5?$DL?5map?5?$CFs?6?$AA@ 4009478c     ui_main.obj
 0002:000087a4       __real@41000000            400947a4     ui_main.obj
 0002:000087a8       ??_C@_09BJOAODLF@dedicated?$AA@ 400947a8     ui_main.obj
 0002:000087b4       __real@40000000            400947b4     ui_main.obj
 0002:000087b8       ??_C@_0BG@JDIGCOKJ@ui_singlePlayerActive?$AA@ 400947b8     ui_main.obj
 0002:000087d0       ??_C@_0BD@DAALNFKF@hostGamePopupError?$AA@ 400947d0     ui_main.obj
 0002:000087e4       ??_C@_0BB@GDGLAKGE@com_errorMessage?$AA@ 400947e4     ui_main.obj
 0002:000087f8       ??_C@_0HN@CEMCJHCN@You?5must?5either?5disable?5PunkBust@ 400947f8     ui_main.obj
 0002:00008878       ??_C@_0O@LNMAAODD@cl_punkbuster?$AA@ 40094878     ui_main.obj
 0002:00008888       ??_C@_0O@FFCKPCKD@sv_punkbuster?$AA@ 40094888     ui_main.obj
 0002:00008898       ??_C@_0M@JNAJLIPJ@StartServer?$AA@ 40094898     ui_main.obj
 0002:000088a4       ??_C@_0M@FKIBDECH@ui_gameType?$AA@ 400948a4     ui_main.obj
 0002:000088b0       ??_C@_08GEJGLEOK@$modlist?$AA@ 400948b0     ui_main.obj
 0002:000088bc       ??_C@_02DJGKEECL@?4?4?$AA@ 400948bc     ui_main.obj
 0002:000088c0       ??_C@_01LFCBOECM@?4?$AA@   400948c0     ui_main.obj
 0002:000088c4       ??_C@_08LKPBAFL@profiles?$AA@ 400948c4     ui_main.obj
 0002:000088d0       ??_C@_01KMDKNFGN@?1?$AA@   400948d0     ui_main.obj
 0002:000088d4       ??_C@_0CD@MAMOCFJH@Unable?5to?5delete?5savegame?3?5?$CFs?4sv@ 400948d4     ui_main.obj
 0002:000088f8       ??_C@_0BK@GGKACKIE@Deleted?5savegame?3?5?$CFs?4svg?6?$AA@ 400948f8     ui_main.obj
 0002:00008914       ??_C@_0BD@GODINKKF@save?1images?1?$CFs?4tga?$AA@ 40094914     ui_main.obj
 0002:00008928       ??_C@_0M@OGNJHMGD@save?1?$CFs?4svg?$AA@ 40094928     ui_main.obj
 0002:00008934       ??_C@_04EEGGHPHH@?4svg?$AA@ 40094934     ui_main.obj
 0002:0000893c       ??_C@_07LKPDDKMO@current?$AA@ 4009493c     ui_main.obj
 0002:00008944       ??_C@_04EMMDIJJL@save?$AA@ 40094944     ui_main.obj
 0002:0000894c       ??_C@_03NNPBMGBD@svg?$AA@  4009494c     ui_main.obj
 0002:00008950       ??_C@_04PDLFDFDK@?4roq?$AA@ 40094950     ui_main.obj
 0002:00008958       ??_C@_05BPFJLLEL@video?$AA@ 40094958     ui_main.obj
 0002:00008960       ??_C@_03GKCCIMFO@roq?$AA@  40094960     ui_main.obj
 0002:00008964       ??_C@_06KDKPKJKM@?4dm_?$CFd?$AA@ 40094964     ui_main.obj
 0002:0000896c       ??_C@_05CFPGCNL@demos?$AA@ 4009496c     ui_main.obj
 0002:00008974       ??_C@_05BAIDJFLA@dm_?$CFd?$AA@ 40094974     ui_main.obj
 0002:0000897c       ??_C@_02HENDIIHA@nq?$AA@   4009497c     ui_main.obj
 0002:00008980       ??_C@_04MJNAPEEI@game?$AA@ 40094980     ui_main.obj
 0002:00008988       ??_C@_08NJPDEKHO@gametype?$AA@ 40094988     ui_main.obj
 0002:00008994       ??_C@_0O@GHEELMFH@balancedteams?$AA@ 40094994     ui_main.obj
 0002:000089a4       ??_C@_0N@CPHNBGJJ@weaprestrict?$AA@ 400949a4     ui_main.obj
 0002:000089b4       ??_C@_0L@CNOGMKDC@punkbuster?$AA@ 400949b4     ui_main.obj
 0002:000089c0       ??_C@_08JIFCLFGI@maxlives?$AA@ 400949c0     ui_main.obj
 0002:000089cc       ??_C@_0N@PEOCHMEP@friendlyFire?$AA@ 400949cc     ui_main.obj
 0002:000089dc       ??_C@_08HHFKLNCD@needpass?$AA@ 400949dc     ui_main.obj
 0002:000089e8       ??_C@_0O@OCOCOONB@sv_maxclients?$AA@ 400949e8     ui_main.obj
 0002:000089f8       ??_C@_07HKJFGNHJ@clients?$AA@ 400949f8     ui_main.obj
 0002:00008a00       ??_C@_0BO@OAMFPIEA@Enemy?5Territory?5?9?5Version?3?5?$CFs?$AA@ 40094a00     ui_main.obj
 0002:00008a20       ??_C@_07EPDKLILH@ET?52?460?$AA@ 40094a20     ui_main.obj
 0002:00008a28       ??_C@_0O@GJFLJONJ@cl_motdString?$AA@ 40094a28     ui_main.obj
 0002:00008a38       __real@41600000            40094a38     ui_main.obj
 0002:00008a3c       ??_C@_0CB@BINAGLPM@?$CFd?5server?$CFs?5found?5with?5player?5?$CFs@ 40094a3c     ui_main.obj
 0002:00008a60       ??_C@_01LKDEMHDF@s?$AA@    40094a60     ui_main.obj
 0002:00008a64       ??_C@_0BB@LOIEJCIF@no?5servers?5found?$AA@ 40094a64     ui_main.obj
 0002:00008a78       ??_C@_0BD@CEHDDMNK@searching?5?$CFd?1?$CFd?4?4?4?$AA@ 40094a78     ui_main.obj
 0002:00008a8c       ??_C@_0BA@ENIDMEN@searching?5?$CFd?4?4?4?$AA@ 40094a8c     ui_main.obj
 0002:00008a9c       ??_C@_0BK@NLNALACG@cl_serverStatusResendTime?$AA@ 40094a9c     ui_main.obj
 0002:00008ab8       ??_C@_0O@GPABEMKP@ui_findPlayer?$AA@ 40094ab8     ui_main.obj
 0002:00008ac8       ??_C@_04OONEELOO@ping?$AA@ 40094ac8     ui_main.obj
 0002:00008ad0       ??_C@_05DBKDOICH@score?$AA@ 40094ad0     ui_main.obj
 0002:00008ad8       ??_C@_03IHCLBPIC@num?$AA@  40094ad8     ui_main.obj
 0002:00008adc       ??_C@_06NCMFGEOB@modURL?$AA@ 40094adc     ui_main.obj
 0002:00008ae4       ??_C@_07EHDHHEJN@mod_url?$AA@ 40094ae4     ui_main.obj
 0002:00008aec       ??_C@_09GCDODGAE@serverURL?$AA@ 40094aec     ui_main.obj
 0002:00008af8       ??_C@_03BMGHOINI@url?$AA@  40094af8     ui_main.obj
 0002:00008afc       ??_C@_0L@PBPOBIBJ@popupError?$AA@ 40094afc     ui_main.obj
 0002:00008b08       ??_C@_0BD@GBCNCNPJ@serverinfo_popmenu?$AA@ 40094b08     ui_main.obj
 0002:00008b1c       ??_C@_0N@PCJDMMAH@?$CIDefault?$CJ?5?$CFs?$AA@ 40094b1c     ui_main.obj
 0002:00008b2c       ??_C@_04OJJGBHGO@?$FO7?$CFs?$AA@ 40094b2c     ui_main.obj
 0002:00008b34       ??_C@_0P@IHMFJLFB@?$FO7?$CIDefault?$CJ?5?$CFs?$AA@ 40094b34     ui_main.obj
 0002:00008b48       __real@403c000000000000    40094b48     ui_main.obj
 0002:00008b50       __real@402e000000000000    40094b50     ui_main.obj
 0002:00008b58       __real@4022000000000000    40094b58     ui_main.obj
 0002:00008b60       __real@402c000000000000    40094b60     ui_main.obj
 0002:00008b68       __real@402a000000000000    40094b68     ui_main.obj
 0002:00008b70       ??_C@_06JMPEOPOC@?$FO2?5?$CF3i?$AA@ 40094b70     ui_main.obj
 0002:00008b78       ??_C@_06FHKIDMEH@?$FO3?5?$CF3i?$AA@ 40094b78     ui_main.obj
 0002:00008b80       ??_C@_06BKGAJNEM@?$FO1?5?$CF3i?$AA@ 40094b80     ui_main.obj
 0002:00008b88       ??_C@_04PNOCPDMN@?5?$CF3i?$AA@ 40094b88     ui_main.obj
 0002:00008b90       ??_C@_0L@JIHLHLLE@serverload?$AA@ 40094b90     ui_main.obj
 0002:00008b9c       ??_C@_03KHICJKCI@?4?4?4?$AA@ 40094b9c     ui_main.obj
 0002:00008ba0       ??_C@_05GFOLEBJA@?$CFs?1?$CFs?$AA@ 40094ba0     ui_main.obj
 0002:00008ba8       ??_C@_07HAOKNHOC@?$CFs?5?$FL?$CFs?$FN?$AA@ 40094ba8     ui_main.obj
 0002:00008bb0       ??_C@_07EAJPOACB@nettype?$AA@ 40094bb0     ui_main.obj
 0002:00008bb8       ??_C@_0DI@LKMOFJJE@Pixelformat?3?5color?$CI?$CFd?9bits?$CJ?5Z?$CI?$CFd@ 40094bb8     ui_main.obj
 0002:00008bf0       ??_C@_0BA@GPJOGJCN@Version?3?5?$CFs?3?5?$CFs?$AA@ 40094bf0     ui_main.obj
 0002:00008c00       ??_C@_0L@LJJOFDNG@Vendor?3?5?$CFs?$AA@ 40094c00     ui_main.obj
 0002:00008c10       __real@403d000000000000    40094c10     ui_main.obj
 0002:00008c18       __real@403b000000000000    40094c18     ui_main.obj
 0002:00008c20       __real@403a000000000000    40094c20     ui_main.obj
 0002:00008c28       ??_C@_06LIMIHEAN@?$CFs?4roq?$AA@ 40094c28     ui_main.obj
 0002:00008c30       ??_C@_09DHBBGOBJ@headmodel?$AA@ 40094c30     ui_main.obj
 0002:00008c3c       ??_C@_05NCCFOPHA@model?$AA@ 40094c3c     ui_main.obj
 0002:00008c44       ??_C@_0P@JMIBMNM@team_headmodel?$AA@ 40094c44     ui_main.obj
 0002:00008c54       ??_C@_03CLKAMBIH@?$CK?$CFs?$AA@ 40094c54     ui_main.obj
 0002:00008c58       ??_C@_0L@KEDOKIKJ@team_model?$AA@ 40094c58     ui_main.obj
 0002:00008c64       ??_C@_05MAECCALN@james?$AA@ 40094c64     ui_main.obj
 0002:00008c6c       ??_C@_05JNLGBJJE@janet?$AA@ 40094c6c     ui_main.obj
 0002:00008c74       ??_C@_09LDHGIFEE@gametypes?$AA@ 40094c74     ui_main.obj
 0002:00008c80       ??_C@_0CI@IFAKKCDN@Too?5many?5game?5types?0?5last?5one?5re@ 40094c80     ui_main.obj
 0002:00008ca8       ??_C@_0CM@LGCBCNPC@Too?5many?5net?5game?5types?0?5last?5on@ 40094ca8     ui_main.obj
 0002:00008cd4       ??_C@_02NFLNFON@NO?$AA@    40094cd4     ui_main.obj
 0002:00008cd8       ??_C@_03CCLAEDDF@Yes?$AA@  40094cd8     ui_main.obj
 0002:00008cdc       ??_C@_0O@DCFOJKGE@s_musicvolume?$AA@ 40094cdc     ui_main.obj
 0002:00008cec       ??_C@_03LOHCHBBO@0?45?$AA@ 40094cec     ui_main.obj
 0002:00008cf0       ??_C@_08HCGCKAMG@s_volume?$AA@ 40094cf0     ui_main.obj
 0002:00008cfc       ??_C@_0BF@DKLLPEHA@ui_TeamArenaFirstRun?$AA@ 40094cfc     ui_main.obj
 0002:00008d14       ??_C@_0BB@KBADOJHA@cg_drawCrosshair?$AA@ 40094d14     ui_main.obj
 0002:00008d28       ??_C@_05PEENBMOG@color?$AA@ 40094d28     ui_main.obj
 0002:00008d30       ??_C@_0BJ@GPAMOLGD@ui?1assets?1fadecircle?4tga?$AA@ 40094d30     ui_main.obj
 0002:00008d4c       ??_C@_0BK@FDNCAOHL@ui?1assets?1fadetoblack?4tga?$AA@ 40094d4c     ui_main.obj
 0002:00008d68       ??_C@_0BJ@DJIIHFH@ui?1assets?1blingbling?4tga?$AA@ 40094d68     ui_main.obj
 0002:00008d84       ??_C@_0BJ@PBKNICAB@gfx?1loading?1camp_map?4tga?$AA@ 40094d84     ui_main.obj
 0002:00008da0       ??_C@_0BI@OJJAPKFI@ui?1assets?1filter_nq?4tga?$AA@ 40094da0     ui_main.obj
 0002:00008db8       ??_C@_0BN@DPMIGOHD@ui?1assets?1filter_balance?4tga?$AA@ 40094db8     ui_main.obj
 0002:00008dd8       ??_C@_0BN@MMHNJMBO@ui?1assets?1filter_antilag?4tga?$AA@ 40094dd8     ui_main.obj
 0002:00008df8       ??_C@_0BK@PNBALDGF@ui?1assets?1filter_weap?4tga?$AA@ 40094df8     ui_main.obj
 0002:00008e14       ??_C@_0BI@FLDDGNPO@ui?1assets?1filter_pb?4tga?$AA@ 40094e14     ui_main.obj
 0002:00008e2c       ??_C@_0BL@LPLDJFFC@ui?1assets?1filter_lives?4tga?$AA@ 40094e2c     ui_main.obj
 0002:00008e48       ??_C@_0BI@MEKMIGBM@ui?1assets?1filter_ff?4tga?$AA@ 40094e48     ui_main.obj
 0002:00008e60       ??_C@_0BK@GLOOCPBP@ui?1assets?1filter_pass?4tga?$AA@ 40094e60     ui_main.obj
 0002:00008e80       __real@3ff5555555555555    40094e80     ui_main.obj
 0002:00008e88       __real@3f5999999999999a    40094e88     ui_main.obj
 0002:00008e90       __real@3f61111111111111    40094e90     ui_main.obj
 0002:00008e98       ??_C@_04OGGDJOBK@NQUI?$AA@ 40094e98     ui_main.obj
 0002:00008ea0       ??_C@_0BI@DIFBAOHB@ui_lastServerRefresh_?$CFi?$AA@ 40094ea0     ui_main.obj
 0002:00008eb8       ??_C@_0DJ@HEMOEHJI@Press?5ENTER?5or?5CLICK?5to?5change?0?5@ 40094eb8     ui_main.obj
 0002:00008ef4       ??_C@_0CO@PDMPNIP@Waiting?5for?5new?5key?4?4?4?5Press?5ESC@ 40094ef4     ui_main.obj
 0002:00008f24       ??_C@_0L@PLGJDBHA@Filter?3?5?$CFs?$AA@ 40094f24     ui_main.obj
 0002:00008f30       ??_C@_0N@BOLNHJIJ@ui_redteam?$CFi?$AA@ 40094f30     ui_main.obj
 0002:00008f40       ??_C@_06DELKPIEN@?$CFi?4?5?$CFs?$AA@ 40094f40     ui_main.obj
 0002:00008f48       ??_C@_05OHCDHBAC@Human?$AA@ 40094f48     ui_main.obj
 0002:00008f50       ??_C@_06EFCDMIMC@Closed?$AA@ 40094f50     ui_main.obj
 0002:00008f58       ??_C@_0O@MBOEOCIO@ui_blueteam?$CFi?$AA@ 40094f58     ui_main.obj
 0002:00008f68       ??_C@_03PADCEAKC@Red?$AA@  40094f68     ui_main.obj
 0002:00008f6c       ??_C@_0L@GHKHHDJL@ui_redTeam?$AA@ 40094f6c     ui_main.obj
 0002:00008f78       ??_C@_06DJHOIPC@?$CFs?3?5?$CFs?$AA@ 40094f78     ui_main.obj
 0002:00008f80       ??_C@_04CAKOHOCJ@Blue?$AA@ 40094f80     ui_main.obj
 0002:00008f88       ??_C@_0M@BANABNHI@ui_blueTeam?$AA@ 40094f88     ui_main.obj
 0002:00008f94       ??_C@_0M@MLHGGMAA@ui_teamName?$AA@ 40094f94     ui_main.obj
 0002:00008fa0       __real@40a00000            40094fa0     ui_main.obj
 0002:00008fa4       __real@42c80000            40094fa4     ui_main.obj
 0002:00008fa8       ??_C@_08HBHLIHAM@handicap?$AA@ 40094fa8     ui_main.obj
 0002:00008fb4       ??_C@_07PGAOKCOL@?$CFs_name?$AA@ 40094fb4     ui_main.obj
 0002:00008fbc       ??_C@_08KHGKHFFO@?$CFs_metal?$AA@ 40094fbc     ui_main.obj
 0002:00008fc8       __real@43000000            40094fc8     ui_main.obj
 0002:00008fcc       ??_C@_0CN@CBGJEELI@No?5information?5is?5available?5for?5@ 40094fcc     ui_main.obj
 0002:00008ffc       ??_C@_0BJ@COICBODJ@gfx?12d?1friendlycross?4tga?$AA@ 40094ffc     ui_main.obj
 0002:00009018       ??_C@_0BF@JEBEIH@levelshots?1?$CFs_cc?4tga?$AA@ 40095018     ui_main.obj
 0002:00009030       ??_C@_0O@DPNBHJD@?$CFs?5Objectives?$AA@ 40095030     ui_main.obj
 0002:00009040       ??_C@_0BA@FLODEJIK@ui_opponentName?$AA@ 40095040     ui_main.obj
 0002:00009050       __real@4038000000000000    40095050     ui_main.obj
 0002:00009058       __real@42c00000            40095058     ui_main.obj
 0002:00009060       __real@4058000000000000    40095060     ui_main.obj
 0002:00009068       ??_C@_03GCDGINBO@ref?$AA@  40095068     ui_main.obj
 0002:0000906c       ??_C@_02BCPJPDCN@mu?$AA@   4009506c     ui_main.obj
 0002:00009070       ??_C@_01EFFIKLCJ@n?$AA@    40095070     ui_main.obj
 0002:00009074       ??_C@_01PFHFFBPC@t?$AA@    40095074     ui_main.obj
 0002:00009078       ??_C@_02JKAOMCMK@tl?$AA@   40095078     ui_main.obj
 0002:0000907c       ??_C@_0BB@EGNBCDIB@Refresh?5Time?3?5?$CFs?$AA@ 4009507c     ui_main.obj
 0002:00009090       ??_C@_0CI@JAHNDAMF@Waiting?5for?5response?5from?5Master@ 40095090     ui_main.obj
 0002:000090b8       ??_C@_0CM@EICHKKCG@Getting?5info?5for?5?$CFd?5servers?5?$CIESC@ 400950b8     ui_main.obj
 0002:000090e8       __real@3fe999999999999a    400950e8     ui_main.obj
 0002:000090f0       ??_C@_08LFOMOGKF@Everyone?$AA@ 400950f0     ui_main.obj
 0002:000090fc       ??_C@_0BD@COMAJKBD@ingame_messagemode?$AA@ 400950fc     ui_main.obj
 0002:00009110       ??_C@_0BE@MBDOBFKH@wm_autoupdate_modal?$AA@ 40095110     ui_main.obj
 0002:00009124       ??_C@_0N@MPJFIBM@tapoutmsglms?$AA@ 40095124     ui_main.obj
 0002:00009134       ??_C@_09JLJLFENK@tapoutmsg?$AA@ 40095134     ui_main.obj
 0002:00009140       ??_C@_0BF@OFGOIIE@wm_ftquickmessageAlt?$AA@ 40095140     ui_main.obj
 0002:00009158       ??_C@_0BC@GHJFOCLI@wm_ftquickmessage?$AA@ 40095158     ui_main.obj
 0002:0000916c       ??_C@_0M@NCDOEMEL@wm_classAlt?$AA@ 4009516c     ui_main.obj
 0002:00009178       ??_C@_08BANKOCJL@wm_class?$AA@ 40095178     ui_main.obj
 0002:00009184       ??_C@_0BD@EPONAFC@wm_quickmessageAlt?$AA@ 40095184     ui_main.obj
 0002:00009198       ??_C@_0BA@JNKMANGJ@wm_quickmessage?$AA@ 40095198     ui_main.obj
 0002:000091a8       ??_C@_0M@HKKIKBMP@ingame_main?$AA@ 400951a8     ui_main.obj
 0002:000091b4       ??_C@_05FABHBFHO@badcd?$AA@ 400951b4     ui_main.obj
 0002:000091bc       ??_C@_06EPLFMKGD@needcd?$AA@ 400951bc     ui_main.obj
 0002:000091c4       ??_C@_04KADBPNCB@team?$AA@ 400951c4     ui_main.obj
 0002:000091cc       ??_C@_0BE@OIIKCNOB@popupError_pbenable?$AA@ 400951cc     ui_main.obj
 0002:000091e0       ??_C@_09PFKFKDEL@?$CFs?6?6?$CFs?6?$CFs?$AA@ 400951e0     ui_main.obj
 0002:000091ec       ??_C@_0CB@DPCKLMNJ@The?5following?5packs?5are?5missing?3@ 400951ec     ui_main.obj
 0002:00009210       ??_C@_0BA@PLLCMKHJ@must?5be?5Enabled?$AA@ 40095210     ui_main.obj
 0002:00009220       ??_C@_0BE@NOBAFHED@popupServerRedirect?$AA@ 40095220     ui_main.obj
 0002:00009234       ??_C@_0CB@FMPBGFFG@Server?5is?5full?0?5redirect?5to?3?5?$CFs?6@ 40095234     ui_main.obj
 0002:00009258       ??_C@_05GCKAINPN@ET?3?1?1?$AA@ 40095258     ui_main.obj
 0002:00009260       ??_C@_0O@PAKIFNFG@popupPassword?$AA@ 40095260     ui_main.obj
 0002:00009270       ??_C@_0BB@GKDCDICO@Invalid?5password?$AA@ 40095270     ui_main.obj
 0002:00009284       ??_C@_01ICJEACDI@?$DL?$AA@ 40095284     ui_main.obj
 0002:00009288       ??_C@_08FFCBIDLK@?$CFd?5bytes?$AA@ 40095288     ui_main.obj
 0002:00009294       ??_C@_05GLFMPLMM@?$CFd?5KB?$AA@ 40095294     ui_main.obj
 0002:0000929c       ??_C@_08HFAPJAAB@?4?$CF02d?5MB?$AA@ 4009529c     ui_main.obj
 0002:000092a8       ??_C@_08HIJIBFNH@?4?$CF02d?5GB?$AA@ 400952a8     ui_main.obj
 0002:000092b4       ??_C@_06NEPEGKCP@?$CFd?5sec?$AA@ 400952b4     ui_main.obj
 0002:000092bc       ??_C@_0O@NMPKHNPG@?$CFd?5min?5?$CFd?5sec?$AA@ 400952bc     ui_main.obj
 0002:000092cc       ??_C@_0N@KMBELJJB@?$CFd?5hr?5?$CFd?5min?$AA@ 400952cc     ui_main.obj
 0002:000092dc       ??_C@_0BA@PJMLIFEA@gfx?12d?1backtile?$AA@ 400952dc     ui_main.obj
 0002:000092ec       ??_C@_0DP@BNBIBIBK@?$CFd?5servers?5not?5listed?5?$CIfiltered?5@ 400952ec     ui_main.obj
 0002:0000932c       ??_C@_0CP@JCONBAAO@?$CFd?5servers?5listed?5in?5browser?5wit@ 4009532c     ui_main.obj
 0002:0000935c       ??_C@_0BF@OIDAJKAK@globalservers?5?$CFd?5?$CFd?6?$AA@ 4009535c     ui_main.obj
 0002:00009374       ??_C@_0O@GPLHFEBB@localservers?6?$AA@ 40095374     ui_main.obj
 0002:00009384       ??_C@_0BD@CLDHMPOO@?$CFs?9?$CFi?0?5?$CFi?5at?5?$CFs?3?$CFs?$AA@ 40095384     ui_main.obj
 0002:00009398       ??_C@_03KECJIMKH@0?$CFi?$AA@ 40095398     ui_main.obj
 0002:0000939c       ??_C@_07NKFJBOH@map?5?$CFs?6?$AA@ 4009539c     ui_main.obj
 0002:000093a4       ??_C@_0BJ@GOKGFAFP@Corrupted?5campaign?5?8?$CFs?8?6?$AA@ 400953a4     ui_main.obj
 0002:000093c0       ??_C@_0BK@NNHONPLH@Can?8t?5find?5campaign?5?8?$CFs?8?6?$AA@ 400953c0     ui_main.obj
 0002:000093dc       ??_C@_04MDKIEGGJ@?5?$CFs?6?$AA@ 400953dc     ui_main.obj
 0002:000093e4       ??_C@_0BF@BACPAICC@No?5campaigns?5found?4?6?$AA@ 400953e4     ui_main.obj
 0002:000093fc       ??_C@_0BF@LCOGHNOH@?$CFi?5campaigns?5found?3?6?$AA@ 400953fc     ui_main.obj
 0002:00009414       ??_C@_0P@EHPKKHPK@itemHotkeyMode?$AA@ 40095414     ui_shared.obj
 0002:00009424       ??_C@_05NFCMEHKM@modal?$AA@ 40095424     ui_shared.obj
 0002:0000942c       ??_C@_0M@LEIOAIA@alwaysontop?$AA@ 4009542c     ui_shared.obj
 0002:00009438       ??_C@_0L@BNAEKCAN@execKeyInt?$AA@ 40095438     ui_shared.obj
 0002:00009444       ??_C@_05EIEHMANA@popup?$AA@ 40095444     ui_shared.obj
 0002:0000944c       ??_C@_07BNAIEIKL@itemDef?$AA@ 4009544c     ui_shared.obj
 0002:00009454       ??_C@_09LMHPKFJB@soundLoop?$AA@ 40095454     ui_shared.obj
 0002:00009460       ??_C@_0BB@FOHPFLED@outOfBoundsClick?$AA@ 40095460     ui_shared.obj
 0002:00009474       ??_C@_0N@EEPADJLO@disablecolor?$AA@ 40095474     ui_shared.obj
 0002:00009484       ??_C@_0L@OKFLOHAM@focuscolor?$AA@ 40095484     ui_shared.obj
 0002:00009490       ??_C@_0L@NBMNMLHL@borderSize?$AA@ 40095490     ui_shared.obj
 0002:0000949c       ??_C@_05IIPJAONP@onESC?$AA@ 4009549c     ui_shared.obj
 0002:000094a4       ??_C@_09PIOOHDON@onTimeout?$AA@ 400954a4     ui_shared.obj
 0002:000094b0       ??_C@_07LAOJOJAJ@onClose?$AA@ 400954b0     ui_shared.obj
 0002:000094b8       ??_C@_06CJGNFCEB@onOpen?$AA@ 400954b8     ui_shared.obj
 0002:000094c0       ??_C@_0L@GIACNHMO@fullscreen?$AA@ 400954c0     ui_shared.obj
 0002:000094cc       ??_C@_07ICKFFHJA@bitflag?$AA@ 400954cc     ui_shared.obj
 0002:000094d4       ??_C@_07FJHHECNJ@wrapped?$AA@ 400954d4     ui_shared.obj
 0002:000094dc       ??_C@_08BGHADAON@voteFlag?$AA@ 400954dc     ui_shared.obj
 0002:000094e8       ??_C@_07DPDAEJMK@visible?$AA@ 400954e8     ui_shared.obj
 0002:000094f0       ??_C@_0O@ILKOLHGF@tooltipaligny?$AA@ 400954f0     ui_shared.obj
 0002:00009500       ??_C@_0O@JCLFIGCE@tooltipalignx?$AA@ 40095500     ui_shared.obj
 0002:00009510       ??_C@_07OGDNBKKB@tooltip?$AA@ 40095510     ui_shared.obj
 0002:00009518       ??_C@_09FMCFHDEN@textstyle?$AA@ 40095518     ui_shared.obj
 0002:00009524       ??_C@_09BLEIEHKP@textscale?$AA@ 40095524     ui_shared.obj
 0002:00009530       ??_C@_08BPKLDJKM@textfont?$AA@ 40095530     ui_shared.obj
 0002:0000953c       ??_C@_08GKJNJBAO@textfile?$AA@ 4009553c     ui_shared.obj
 0002:00009548       ??_C@_0L@FCLMCIJC@textaligny?$AA@ 40095548     ui_shared.obj
 0002:00009554       ??_C@_0L@ELKHBJND@textalignx?$AA@ 40095554     ui_shared.obj
 0002:00009560       ??_C@_09PNBDGNCL@textalign?$AA@ 40095560     ui_shared.obj
 0002:0000956c       ??_C@_04CIMGMMMG@text?$AA@ 4009556c     ui_shared.obj
 0002:00009574       ??_C@_05IAKJCFIM@style?$AA@ 40095574     ui_shared.obj
 0002:0000957c       ??_C@_07BELCMIIP@special?$AA@ 4009557c     ui_shared.obj
 0002:00009584       ??_C@_08LNBEMJIA@showCvar?$AA@ 40095584     ui_shared.obj
 0002:00009590       ??_C@_0P@BCBEJNDD@settingEnabled?$AA@ 40095590     ui_shared.obj
 0002:000095a0       ??_C@_0BA@BGMCKCOH@settingDisabled?$AA@ 400955a0     ui_shared.obj
 0002:000095b0       ??_C@_04LHPFHFPH@rect?$AA@ 400955b0     ui_shared.obj
 0002:000095b8       ??_C@_0O@DACAJCLK@ownerdrawFlag?$AA@ 400955b8     ui_shared.obj
 0002:000095c8       ??_C@_09HGLBOMNF@ownerdraw?$AA@ 400955c8     ui_shared.obj
 0002:000095d4       ??_C@_0N@LGJOCBPD@outlinecolor?$AA@ 400955d4     ui_shared.obj
 0002:000095e4       ??_C@_06NHCMNMEH@origin?$AA@ 400955e4     ui_shared.obj
 0002:000095ec       ??_C@_07PFEHHELH@onFocus?$AA@ 400955ec     ui_shared.obj
 0002:000095f4       ??_C@_0O@FDEIBLKE@notselectable?$AA@ 400955f4     ui_shared.obj
 0002:00009604       ??_C@_08HOAALKBK@noToggle?$AA@ 40095604     ui_shared.obj
 0002:00009610       ??_C@_0O@GFPABKKP@mouseExitText?$AA@ 40095610     ui_shared.obj
 0002:00009620       ??_C@_09OIHCIOIA@mouseExit?$AA@ 40095620     ui_shared.obj
 0002:0000962c       ??_C@_0P@BCEPHLNB@mouseEnterText?$AA@ 4009562c     ui_shared.obj
 0002:0000963c       ??_C@_0L@KAGOMOPN@mouseEnter?$AA@ 4009563c     ui_shared.obj
 0002:00009648       ??_C@_0P@NOKHMHPD@model_rotation?$AA@ 40095648     ui_shared.obj
 0002:00009658       ??_C@_0N@LHLPLFLG@model_origin?$AA@ 40095658     ui_shared.obj
 0002:00009668       ??_C@_0L@NMCIJLPA@model_fovy?$AA@ 40095668     ui_shared.obj
 0002:00009674       ??_C@_0L@MFDDKKLB@model_fovx?$AA@ 40095674     ui_shared.obj
 0002:00009680       ??_C@_0P@DLMIHLMC@model_animplay?$AA@ 40095680     ui_shared.obj
 0002:00009690       ??_C@_0M@HHMGANAM@model_angle?$AA@ 40095690     ui_shared.obj
 0002:0000969c       ??_C@_0O@HPCOAMJM@maxPaintChars?$AA@ 4009569c     ui_shared.obj
 0002:000096ac       ??_C@_08IHGPPBOI@maxChars?$AA@ 400956ac     ui_shared.obj
 0002:000096b8       ??_C@_0L@LMAJDKOE@leaveFocus?$AA@ 400956b8     ui_shared.obj
 0002:000096c4       ??_C@_0BB@EIBMEDHI@horizontalscroll?$AA@ 400956c4     ui_shared.obj
 0002:000096d8       ??_C@_08BDDCOCNI@hideCvar?$AA@ 400956d8     ui_shared.obj
 0002:000096e4       ??_C@_05MGJOOGAJ@group?$AA@ 400956e4     ui_shared.obj
 0002:000096ec       ??_C@_09MONNBKNO@forecolor?$AA@ 400956ec     ui_shared.obj
 0002:000096f8       ??_C@_0L@NOGKCHFE@focusSound?$AA@ 400956f8     ui_shared.obj
 0002:00009704       ??_C@_06GEEPENGB@feeder?$AA@ 40095704     ui_shared.obj
 0002:0000970c       ??_C@_07KHAOJHDJ@execKey?$AA@ 4009570c     ui_shared.obj
 0002:00009714       ??_C@_0L@LCDHKNEJ@enableCvar?$AA@ 40095714     ui_shared.obj
 0002:00009720       ??_C@_0N@MILKKPGL@elementwidth?$AA@ 40095720     ui_shared.obj
 0002:00009730       ??_C@_0M@HBNIAHKL@elementtype?$AA@ 40095730     ui_shared.obj
 0002:0000973c       ??_C@_0O@MNJDKOBB@elementheight?$AA@ 4009573c     ui_shared.obj
 0002:0000974c       ??_C@_07IGEANCLO@onEnter?$AA@ 4009574c     ui_shared.obj
 0002:00009754       ??_C@_05CFDAGMJN@onEsc?$AA@ 40095754     ui_shared.obj
 0002:0000975c       ??_C@_0M@IHJKFHF@doubleclick?$AA@ 4009575c     ui_shared.obj
 0002:00009768       ??_C@_0M@FBHLBFCC@disableCvar?$AA@ 40095768     ui_shared.obj
 0002:00009774       ??_C@_0M@OIJJAIPM@textasfloat?$AA@ 40095774     ui_shared.obj
 0002:00009780       ??_C@_09KAFPKMCM@textasint?$AA@ 40095780     ui_shared.obj
 0002:0000978c       ??_C@_0L@GFEIECKE@decoration?$AA@ 4009578c     ui_shared.obj
 0002:00009798       ??_C@_08KBIDCBHN@cvarTest?$AA@ 40095798     ui_shared.obj
 0002:000097a4       ??_C@_0BC@IJHOLNF@cvarListUndefined?$AA@ 400957a4     ui_shared.obj
 0002:000097b8       ??_C@_0M@GOKMFACI@cvarStrList?$AA@ 400957b8     ui_shared.obj
 0002:000097c4       ??_C@_0O@IKNDJMDK@cvarFloatList?$AA@ 400957c4     ui_shared.obj
 0002:000097d4       ??_C@_09CGGKHKAP@cvarFloat?$AA@ 400957d4     ui_shared.obj
 0002:000097e0       ??_C@_04PNAHEAFM@cvar?$AA@ 400957e0     ui_shared.obj
 0002:000097e8       ??_C@_0M@NAMPODJM@contextmenu?$AA@ 400957e8     ui_shared.obj
 0002:000097f4       ??_C@_07HIFEPIJN@columns?$AA@ 400957f4     ui_shared.obj
 0002:000097fc       ??_C@_09DHDJHDLH@cinematic?$AA@ 400957fc     ui_shared.obj
 0002:00009808       ??_C@_0L@BAAMOEHP@bordersize?$AA@ 40095808     ui_shared.obj
 0002:00009814       ??_C@_0M@CJNAABJD@bordercolor?$AA@ 40095814     ui_shared.obj
 0002:00009820       ??_C@_06ODFLABIG@border?$AA@ 40095820     ui_shared.obj
 0002:00009828       ??_C@_0L@EGCKCJDC@background?$AA@ 40095828     ui_shared.obj
 0002:00009834       ??_C@_09OPNKCLNO@backcolor?$AA@ 40095834     ui_shared.obj
 0002:00009840       ??_C@_0M@HHKOOJO@autowrapped?$AA@ 40095840     ui_shared.obj
 0002:0000984c       ??_C@_0N@HLFJAKEA@asset_shader?$AA@ 4009584c     ui_shared.obj
 0002:0000985c       ??_C@_0M@DKAIGAGN@asset_model?$AA@ 4009585c     ui_shared.obj
 0002:00009868       ??_C@_05CBJPDLOK@align?$AA@ 40095868     ui_shared.obj
 0002:00009870       ??_C@_0BB@NGONGLOH@addColorRangeRel?$AA@ 40095870     ui_shared.obj
 0002:00009884       ??_C@_0O@BGFKBLBI@addColorRange?$AA@ 40095884     ui_shared.obj
 0002:00009894       ??_C@_06DDLLCOJG@action?$AA@ 40095894     ui_shared.obj
 0002:0000989c       ??_C@_06MPKMECK@accept?$AA@ 4009589c     ui_shared.obj
 0002:000098a4       ??_C@_08EHILFAKG@dropclip?$AA@ 400958a4     ui_shared.obj
 0002:000098b0       ??_C@_0L@KPCNGFPA@dropweapon?$AA@ 400958b0     ui_shared.obj
 0002:000098bc       ??_C@_0P@NGPDLPMB@selectbuddy?5?92?$AA@ 400958bc     ui_shared.obj
 0002:000098cc       ??_C@_0O@GPNAOAHJ@selectbuddy?55?$AA@ 400958cc     ui_shared.obj
 0002:000098dc       ??_C@_0O@HGMLNBDI@selectbuddy?54?$AA@ 400958dc     ui_shared.obj
 0002:000098ec       ??_C@_0O@DJIKEHPP@selectbuddy?53?$AA@ 400958ec     ui_shared.obj
 0002:000098fc       ??_C@_0O@CAJBHGLO@selectbuddy?52?$AA@ 400958fc     ui_shared.obj
 0002:0000990c       ??_C@_0O@LLMCFHN@selectbuddy?51?$AA@ 4009590c     ui_shared.obj
 0002:0000991c       ??_C@_0O@BCKHBEDM@selectbuddy?50?$AA@ 4009591c     ui_shared.obj
 0002:0000992c       ??_C@_0P@PNNOOMAC@selectbuddy?5?91?$AA@ 4009592c     ui_shared.obj
 0002:0000993c       ??_C@_0BB@IDOPKHPD@mp_fireteamadmin?$AA@ 4009593c     ui_shared.obj
 0002:00009950       ??_C@_0L@LGIGPHNL@autoRecord?$AA@ 40095950     ui_shared.obj
 0002:0000995c       ??_C@_0P@CFKIOMCJ@autoscreenshot?$AA@ 4009595c     ui_shared.obj
 0002:0000996c       ??_C@_08LJDKJCJK@notready?$AA@ 4009596c     ui_shared.obj
 0002:00009978       ??_C@_05GLLMDLIO@ready?$AA@ 40095978     ui_shared.obj
 0002:00009980       ??_C@_07EMGDANBL@vote?5no?$AA@ 40095980     ui_shared.obj
 0002:00009988       ??_C@_08EOGCGKCE@vote?5yes?$AA@ 40095988     ui_shared.obj
 0002:00009994       ??_C@_0P@LMOOPNHB@mp_fireteammsg?$AA@ 40095994     ui_shared.obj
 0002:000099a4       ??_C@_0BA@DHFEGEJI@mp_quickmessage?$AA@ 400959a4     ui_shared.obj
 0002:000099b4       ??_C@_0N@NFNJCLFL@messagemode4?$AA@ 400959b4     ui_shared.obj
 0002:000099c4       ??_C@_0N@JKJILNJM@messagemode3?$AA@ 400959c4     ui_shared.obj
 0002:000099d4       ??_C@_0N@IDIDIMNN@messagemode2?$AA@ 400959d4     ui_shared.obj
 0002:000099e4       ??_C@_0M@JINOELJH@messagemode?$AA@ 400959e4     ui_shared.obj
 0002:000099f0       ??_C@_07DIJPGOKN@zoomout?$AA@ 400959f0     ui_shared.obj
 0002:000099f8       ??_C@_06LNHPGLKP@zoomin?$AA@ 400959f8     ui_shared.obj
 0002:00009a00       ??_C@_09MIFHBA@mapzoomin?$AA@ 40095a00     ui_shared.obj
 0002:00009a0c       ??_C@_0L@GDPMHHIM@mapzoomout?$AA@ 40095a0c     ui_shared.obj
 0002:00009a18       ??_C@_0L@GILFCCIB@mvactivate?$AA@ 40095a18     ui_shared.obj
 0002:00009a24       ??_C@_0O@BEIPDODJ@openlimbomenu?$AA@ 40095a24     ui_shared.obj
 0002:00009a34       ??_C@_0L@HBDHBCHM@togglemenu?$AA@ 40095a34     ui_shared.obj
 0002:00009a40       ??_C@_0O@JJBKLGLG@toggleconsole?$AA@ 40095a40     ui_shared.obj
 0002:00009a50       ??_C@_09PDHPNBEE@?$CLtopshots?$AA@ 40095a50     ui_shared.obj
 0002:00009a5c       ??_C@_06PKLNAOFI@?$CLstats?$AA@ 40095a5c     ui_shared.obj
 0002:00009a64       ??_C@_07PNHLECKB@?$CLscores?$AA@ 40095a64     ui_shared.obj
 0002:00009a6c       ??_C@_07GKAMHDNA@?$CLreload?$AA@ 40095a6c     ui_shared.obj
 0002:00009a74       ??_C@_0L@PFPLBJPJ@?$CLmapexpand?$AA@ 40095a74     ui_shared.obj
 0002:00009a80       ??_C@_05GAKJCNGF@?$CLzoom?$AA@ 40095a80     ui_shared.obj
 0002:00009a88       ??_C@_09DHBCCNNM@?$CLactivate?$AA@ 40095a88     ui_shared.obj
 0002:00009a94       ??_C@_06JIDIHCBO@?$CLspeed?$AA@ 40095a94     ui_shared.obj
 0002:00009a9c       ??_C@_07CEEFMIBP@?$CLsprint?$AA@ 40095a9c     ui_shared.obj
 0002:00009aa4       ??_C@_0N@IFDIBLGC@weaponbank?59?$AA@ 40095aa4     ui_shared.obj
 0002:00009ab4       ??_C@_0N@JMCDCKCD@weaponbank?58?$AA@ 40095ab4     ui_shared.obj
 0002:00009ac4       ??_C@_0N@BLLLDGOM@weaponbank?57?$AA@ 40095ac4     ui_shared.obj
 0002:00009ad4       ??_C@_0N@CKAAHKN@weaponbank?56?$AA@ 40095ad4     ui_shared.obj
 0002:00009ae4       ??_C@_0N@CJINFEGO@weaponbank?55?$AA@ 40095ae4     ui_shared.obj
 0002:00009af4       ??_C@_0N@DAJGGFCP@weaponbank?54?$AA@ 40095af4     ui_shared.obj
 0002:00009b04       ??_C@_0N@HPNHPDOI@weaponbank?53?$AA@ 40095b04     ui_shared.obj
 0002:00009b14       ??_C@_0N@GGMMMCKJ@weaponbank?52?$AA@ 40095b14     ui_shared.obj
 0002:00009b24       ??_C@_0N@ENOBJBGK@weaponbank?51?$AA@ 40095b24     ui_shared.obj
 0002:00009b34       ??_C@_0O@HCGMFPCE@weaponbank?510?$AA@ 40095b34     ui_shared.obj
 0002:00009b44       ??_C@_08IJHOKAF@weapnext?$AA@ 40095b44     ui_shared.obj
 0002:00009b50       ??_C@_08DMEBPOGB@weapprev?$AA@ 40095b50     ui_shared.obj
 0002:00009b5c       ??_C@_08KJLEJKEF@?$CLattack2?$AA@ 40095b5c     ui_shared.obj
 0002:00009b68       ??_C@_07MAODEHGM@?$CLattack?$AA@ 40095b68     ui_shared.obj
 0002:00009b70       ??_C@_06BOJPGNBE@?$CLprone?$AA@ 40095b70     ui_shared.obj
 0002:00009b78       ??_C@_09MBJIAMKH@?$CLleanleft?$AA@ 40095b78     ui_shared.obj
 0002:00009b84       ??_C@_0L@FCIMKBCO@?$CLleanright?$AA@ 40095b84     ui_shared.obj
 0002:00009b90       ??_C@_09HNJJMOJG@?$CLmovedown?$AA@ 40095b90     ui_shared.obj
 0002:00009b9c       ??_C@_07CKGNAPCP@?$CLmoveup?$AA@ 40095b9c     ui_shared.obj
 0002:00009ba4       ??_C@_0L@FMBJCMEG@?$CLmoveright?$AA@ 40095ba4     ui_shared.obj
 0002:00009bb0       ??_C@_09IPJNFGKP@?$CLmoveleft?$AA@ 40095bb0     ui_shared.obj
 0002:00009bbc       ??_C@_05IPKGNIPH@?$CLback?$AA@ 40095bbc     ui_shared.obj
 0002:00009bc4       ??_C@_08KKEOHAPB@?$CLforward?$AA@ 40095bc4     ui_shared.obj
 0002:00009bd0       ??_C@_05BBAEEBBH@abort?$AA@ 40095bd0     ui_shared.obj
 0002:00009bd8       ??_C@_0N@BKPIBBDE@setEditFocus?$AA@ 40095bd8     ui_shared.obj
 0002:00009be8       ??_C@_0P@IBJMDJHM@execwolfconfig?$AA@ 40095be8     ui_shared.obj
 0002:00009bf8       ??_C@_0N@PKBHEBMI@setmenufocus?$AA@ 40095bf8     ui_shared.obj
 0002:00009c08       ??_C@_0O@MHFCLLDF@getautoupdate?$AA@ 40095c08     ui_shared.obj
 0002:00009c18       ??_C@_0BA@FIGLFAEL@checkautoupdate?$AA@ 40095c18     ui_shared.obj
 0002:00009c28       ??_C@_0M@NJCMCKNA@addlistitem?$AA@ 40095c28     ui_shared.obj
 0002:00009c34       ??_C@_05KJPHCDKJ@orbit?$AA@ 40095c34     ui_shared.obj
 0002:00009c3c       ??_C@_0L@NDOCJLDE@playlooped?$AA@ 40095c3c     ui_shared.obj
 0002:00009c48       ??_C@_04GBHMDDO@play?$AA@  40095c48     ui_shared.obj
 0002:00009c50       ??_C@_07KDPGGAGN@execnow?$AA@ 40095c50     ui_shared.obj
 0002:00009c58       ??_C@_04MGEIEJAD@exec?$AA@ 40095c58     ui_shared.obj
 0002:00009c60       ??_C@_08HBEMCALL@copycvar?$AA@ 40095c60     ui_shared.obj
 0002:00009c6c       ??_C@_0O@BCMNOI@togglecvarbit?$AA@ 40095c6c     ui_shared.obj
 0002:00009c7c       ??_C@_09KLAIFHLA@clearcvar?$AA@ 40095c7c     ui_shared.obj
 0002:00009c88       ??_C@_07DFOFNCMO@setcvar?$AA@ 40095c88     ui_shared.obj
 0002:00009c90       ??_C@_0L@KGLELNDP@transition?$AA@ 40095c90     ui_shared.obj
 0002:00009c9c       ??_C@_0O@DDHOJBLA@setplayerhead?$AA@ 40095c9c     ui_shared.obj
 0002:00009cac       ??_C@_0P@COHLPKKB@setplayermodel?$AA@ 40095cac     ui_shared.obj
 0002:00009cbc       ??_C@_0L@FNKDCLKA@clearfocus?$AA@ 40095cbc     ui_shared.obj
 0002:00009cc8       ??_C@_08OKIAJKBO@setfocus?$AA@ 40095cc8     ui_shared.obj
 0002:00009cd4       ??_C@_0N@KMLJLNON@setteamcolor?$AA@ 40095cd4     ui_shared.obj
 0002:00009ce4       ??_C@_0BB@OAEMNPFA@setmenuitemcolor?$AA@ 40095ce4     ui_shared.obj
 0002:00009cf8       ??_C@_0N@EBBIOPHN@setitemcolor?$AA@ 40095cf8     ui_shared.obj
 0002:00009d08       ??_C@_0O@FOIIKEEB@setbackground?$AA@ 40095d08     ui_shared.obj
 0002:00009d18       ??_C@_08FBOLLCAN@setasset?$AA@ 40095d18     ui_shared.obj
 0002:00009d24       ??_C@_08JHFFJMNE@showpage?$AA@ 40095d24     ui_shared.obj
 0002:00009d30       ??_C@_09DEBOPNMH@clipboard?$AA@ 40095d30     ui_shared.obj
 0002:00009d3c       ??_C@_0BD@NMAMMAAO@closeallothermenus?$AA@ 40095d3c     ui_shared.obj
 0002:00009d50       ??_C@_08FBNJNOBD@closeall?$AA@ 40095d50     ui_shared.obj
 0002:00009d5c       ??_C@_05LBOHBHFK@close?$AA@ 40095d5c     ui_shared.obj
 0002:00009d64       ??_C@_0BC@FFFCDEPN@conditionalscript?$AA@ 40095d64     ui_shared.obj
 0002:00009d78       ??_C@_0BA@JLPGECPM@conditionalopen?$AA@ 40095d78     ui_shared.obj
 0002:00009d88       ??_C@_0M@EGJEAEHJ@fadeoutmenu?$AA@ 40095d88     ui_shared.obj
 0002:00009d94       ??_C@_0L@NKDDLLBJ@fadeinmenu?$AA@ 40095d94     ui_shared.obj
 0002:00009da0       ??_C@_04PMOCAHAA@open?$AA@ 40095da0     ui_shared.obj
 0002:00009da8       ??_C@_08OKIEAMBM@setcolor?$AA@ 40095da8     ui_shared.obj
 0002:00009db4       ??_C@_04IBOFHAPJ@hide?$AA@ 40095db4     ui_shared.obj
 0002:00009dbc       ??_C@_04FKMICODN@show?$AA@ 40095dbc     ui_shared.obj
 0002:00009dc4       ??_C@_07BJADIKJG@fadeout?$AA@ 40095dc4     ui_shared.obj
 0002:00009dcc       ??_C@_06JFGPOFJL@fadein?$AA@ 40095dcc     ui_shared.obj
 0002:00009dd8       __real@3fe8000000000000    40095dd8     ui_shared.obj
 0002:00009de0       __real@4084000000000000    40095de0     ui_shared.obj
 0002:00009de8       __real@3f400000            40095de8     ui_shared.obj
 0002:00009dec       __real@3f666666            40095dec     ui_shared.obj
 0002:00009df0       __real@41200000            40095df0     ui_shared.obj
 0002:00009df4       __real@40400000            40095df4     ui_shared.obj
 0002:00009df8       __real@4083d80000000000    40095df8     ui_shared.obj
 0002:00009e00       ??_C@_0CD@LBKPCJLM@UI_Alloc?3?5Failure?4?5Out?5of?5memory@ 40095e00     ui_shared.obj
 0002:00009e24       ??_C@_0DG@OMGKABNP@Memory?5Pool?5is?5?$CF?41f?$CF?$CF?5full?0?5?$CFi?5b@ 40095e24     ui_shared.obj
 0002:00009e60       __real@4150000000000000    40095e60     ui_shared.obj
 0002:00009e68       ??_C@_0DG@MABFDHIF@String?5Pool?5is?5?$CF?41f?$CF?$CF?5full?0?5?$CFi?5b@ 40095e68     ui_shared.obj
 0002:00009ea0       __real@4118000000000000    40095ea0     ui_shared.obj
 0002:00009ea8       ??_C@_0BC@DKLFONDB@?9?9?9?9?9?9?9?9?9?9?9?9?9?9?9?9?6?$AA@ 40095ea8     ui_shared.obj
 0002:00009ebc       ??_C@_0BJ@GAPDFKFM@Memory?1String?5Pool?5Info?6?$AA@ 40095ebc     ui_shared.obj
 0002:00009ed8       __real@3f000000            40095ed8     ui_shared.obj
 0002:00009edc       ??_C@_07HIABCEHG@nq_logo?$AA@ 40095edc     ui_shared.obj
 0002:00009ee4       ??_C@_07HHFDBHIH@et_logo?$AA@ 40095ee4     ui_shared.obj
 0002:00009eec       ??_C@_07EHCCJOAG@id_logo?$AA@ 40095eec     ui_shared.obj
 0002:00009ef4       ??_C@_09JGKMJGMJ@atvi_logo?$AA@ 40095ef4     ui_shared.obj
 0002:00009f00       __real@43f00000            40095f00     ui_shared.obj
 0002:00009f04       __real@44200000            40095f04     ui_shared.obj
 0002:00009f08       ??_C@_01NBENCBCI@?$CK?$AA@ 40095f08     ui_shared.obj
 0002:00009f10       ??_C@_0EE@CBEPHLCH@?$FO3WARNING?3?5tried?5closing?5a?5modal@ 40095f10     ui_shared.obj
 0002:00009f54       ??_C@_0O@DKNGICKJ@ROldModeCheck?$AA@ 40095f54     ui_shared.obj
 0002:00009f64       ??_C@_0BE@IJDKLDBD@ValidReplaySelected?$AA@ 40095f64     ui_shared.obj
 0002:00009f78       ??_C@_0M@FNLNKGDK@serversort_?$AA@ 40095f78     ui_shared.obj
 0002:00009f84       ??_C@_0BF@JHKFGNEG@vidrestartIsRequired?$AA@ 40095f84     ui_shared.obj
 0002:00009f9c       ??_C@_0BF@EPIALJJC@ReadyToCreateProfile?$AA@ 40095f9c     ui_shared.obj
 0002:00009fb4       ??_C@_0BO@IELJGOMJ@UIProfileAlreadyExists_Rename?$AA@ 40095fb4     ui_shared.obj
 0002:00009fd4       ??_C@_0BH@JGHBFCBG@UIProfileAlreadyExists?$AA@ 40095fd4     ui_shared.obj
 0002:00009fec       ??_C@_0BD@DLLNMEGL@UIProfileValidName?$AA@ 40095fec     ui_shared.obj
 0002:0000a000       ??_C@_0BJ@OGBOMNBM@UIProfileIsActiveProfile?$AA@ 40096000     ui_shared.obj
 0002:0000a01c       ??_C@_05LKKGNBCL@?$CFs?5?$DL?5?$AA@ 4009601c     ui_shared.obj
 0002:0000a024       ??_C@_07JKMGABMM@com_pid?$AA@ 40096024     ui_shared.obj
 0002:0000a02c       ??_C@_0CG@GNPMJMIO@Script_WriteProfile?3?5Can?8t?5write@ 4009602c     ui_shared.obj
 0002:0000a054       ??_C@_08NNCMPFKC@exec?5?$CFs?6?$AA@ 40096054     ui_shared.obj
 0002:0000a060       ??_C@_0DD@EJGBNGNL@?$FO3WARNING?3?5couldn?8t?5write?5profil@ 40096060     ui_shared.obj
 0002:0000a094       ??_C@_0O@IKFJJNBJ@Delete?5?$CFs?5?$CFd?6?$AA@ 40096094     ui_shared.obj
 0002:0000a0a4       ??_C@_0BG@EJDHPPBA@profiles?1?$CFs?1backup_?$CFs?$AA@ 400960a4     ui_shared.obj
 0002:0000a0c0       __real@4040000000000000    400960c0     ui_shared.obj
 0002:0000a0c8       ??_C@_06IFGIOHDE@Custom?$AA@ 400960c8     ui_shared.obj
 0002:0000a0d0       ??_C@_0N@PABJFGMA@None?5Defined?$AA@ 400960d0     ui_shared.obj
 0002:0000a0e0       __real@42cc0000            400960e0     ui_shared.obj
 0002:0000a0e4       __real@40c00000            400960e4     ui_shared.obj
 0002:0000a0e8       ??_C@_0M@FHKEBODE@screenshot?6?$AA@ 400960e8     ui_shared.obj
 0002:0000a0f8       __real@4034000000000000    400960f8     ui_shared.obj
 0002:0000a100       __real@4039000000000000    40096100     ui_shared.obj
 0002:0000a108       ??_C@_06GKHDGJNB@?$FO1?$CFd?$FO?$CK?$AA@ 40096108     ui_shared.obj
 0002:0000a110       ??_C@_04GEFJINEE@?$CF?42f?$AA@ 40096110     ui_shared.obj
 0002:0000a118       ??_C@_02JINPPBEP@No?$AA@   40096118     ui_shared.obj
 0002:0000a11c       ??_C@_0M@LMHCNBPD@in_restart?6?$AA@ 4009611c     ui_shared.obj
 0002:0000a128       ??_C@_04LIFAFMCE@?$FL?$CFs?$FN?$AA@ 40096128     ui_shared.obj
 0002:0000a130       ??_C@_04FJKIFICP@?5or?5?$AA@ 40096130     ui_shared.obj
 0002:0000a138       ??_C@_05DJCKAPIL@FIXME?$AA@ 40096138     ui_shared.obj
 0002:0000a140       __real@3fd3333340000000    40096140     ui_shared.obj
 0002:0000a148       __real@3fd126e978d4fdf4    40096148     ui_shared.obj
 0002:0000a150       __real@bfe0000000000000    40096150     ui_shared.obj
 0002:0000a158       __real@3d567750            40096158     ui_shared.obj
 0002:0000a15c       ??_C@_0BK@FLAIOFFC@MAX_MODAL_MENUS?5exceeded?6?$AA@ 4009615c     ui_shared.obj
 0002:0000a178       __real@3f0ccccd            40096178     ui_shared.obj
 0002:0000a180       __real@c059000000000000    40096180     ui_shared.obj
 0002:0000a188       __real@4044000000000000    40096188     ui_shared.obj
 0002:0000a190       ??_C@_0BO@GKGLOPGG@end?5of?5file?5inside?5menu?5item?6?$AA@ 40096190     ui_shared.obj
 0002:0000a1b0       ??_C@_0ED@EJHMBLGN@both?5addColorRange?5and?5addColorR@ 400961b0     ui_shared.obj
 0002:0000a1f4       ??_C@_0CE@OIGKMGKE@couldn?8t?5parse?5menu?5item?5keyword@ 400961f4     ui_shared.obj
 0002:0000a218       ??_C@_0BN@JHFMAPJL@unknown?5menu?5item?5keyword?5?$CFs?$AA@ 40096218     ui_shared.obj
 0002:0000a238       ??_C@_0BP@HJCDHJDP@couldn?8t?5parse?5menu?5keyword?5?$CFs?$AA@ 40096238     ui_shared.obj
 0002:0000a258       ??_C@_0BI@PALCAEGK@unknown?5menu?5keyword?5?$CFs?$AA@ 40096258     ui_shared.obj
 0002:0000a270       ??_C@_0BJ@MPIMCBOA@end?5of?5file?5inside?5menu?6?$AA@ 40096270     ui_shared.obj
 0002:0000a28c       ??_C@_0N@FFBFPIKO@mouse?3?5?$CFi?5?$CFi?$AA@ 4009628c     ui_shared.obj
 0002:0000a29c       ??_C@_09EEMLMMJE@fps?3?5?$CF?42f?$AA@ 4009629c     ui_shared.obj
 0002:0000a2a8       __real@40e00000            400962a8     ui_shared.obj
 0002:0000a2ac       ??_C@_05DPGHPOOK@?$FO7?$CFs?5?$AA@ 400962ac     ui_shared.obj
 0002:0000a2b4       ??_C@_07GMDMIILO@?$FO7?$CFs?$FO0_?$AA@ 400962b4     ui_shared.obj
 0002:0000a2bc       ??_C@_07NCJFPPNP@?$FO7?$CFs?$FO0?$HM?$AA@ 400962bc     ui_shared.obj
 0002:0000a2c4       ??_C@_03OMCBPMHJ@?$FO0_?$AA@ 400962c4     ui_shared.obj
 0002:0000a2c8       ??_C@_03FCIIILBI@?$FO0?$HM?$AA@ 400962c8     ui_shared.obj
 0002:0000a2cc       __real@3f4ccccd            400962cc     ui_shared.obj
 0002:0000a2d0       __FPinit                   400962d0     LIBCMTD:_fpinit_.obj
 0002:0000a2d4       ?ProcessDetach@NativeDll@<CrtImplementationDetails>@@0IB 400962d4     LIBCMTD:tolower.obj
 0002:0000a2d8       ?ProcessAttach@NativeDll@<CrtImplementationDetails>@@0IB 400962d8     LIBCMTD:tolower.obj
 0002:0000a2dc       ?ThreadAttach@NativeDll@<CrtImplementationDetails>@@0IB 400962dc     LIBCMTD:tolower.obj
 0002:0000a2e0       ?ThreadDetach@NativeDll@<CrtImplementationDetails>@@0IB 400962e0     LIBCMTD:tolower.obj
 0002:0000a2e4       ?ProcessVerifier@NativeDll@<CrtImplementationDetails>@@0IB 400962e4     LIBCMTD:tolower.obj
 0002:0000a340       ??_C@_1BA@NJCJMLHI@?$AA_?$AAa?$AAt?$AAo?$AAf?$AA_?$AAl?$AA?$AA@ 40096340     LIBCMTD:atof.obj
 0002:0000a350       ??_C@_1FM@HAAJIFE@?$AAf?$AA?3?$AA?2?$AAd?$AAd?$AA?2?$AAv?$AAc?$AAt?$AAo?$AAo?$AAl?$AAs?$AA?2?$AAc?$AAr?$AAt?$AA_?$AAb?$AAl?$AAd?$AA?2?$AAs?$AAe?$AAl?$AAf?$AA_?$AAx?$AA8?$AA6?$AA?2?$AAc@ 40096350     LIBCMTD:atof.obj
 0002:0000a3ac       ??_C@_1BK@LAOAACLJ@?$AAn?$AAp?$AAt?$AAr?$AA?5?$AA?$CB?$AA?$DN?$AA?5?$AAN?$AAU?$AAL?$AAL?$AA?$AA@ 400963ac     LIBCMTD:atof.obj
 0002:0000a3c8       ??_C@_1EC@FABAOFFO@?$AA?$CI?$AAc?$AAo?$AAu?$AAn?$AAt?$AA?5?$AA?$DN?$AA?$DN?$AA?5?$AA0?$AA?$CJ?$AA?5?$AA?$HM?$AA?$HM?$AA?5?$AA?$CI?$AAs?$AAt?$AAr?$AAi?$AAn?$AAg?$AA?5?$AA?$CB?$AA?$DN?$AA?5?$AAN?$AAU?$AAL?$AAL?$AA?$CJ@ 400963c8     LIBCMTD:vsnprint.obj
 0002:0000a40c       ??_C@_1BK@FHMHFMNL@?$AA_?$AAv?$AAs?$AAn?$AAp?$AAr?$AAi?$AAn?$AAt?$AAf?$AA_?$AAl?$AA?$AA@ 4009640c     LIBCMTD:vsnprint.obj
 0002:0000a428       ??_C@_1GE@DPADKNCG@?$AAf?$AA?3?$AA?2?$AAd?$AAd?$AA?2?$AAv?$AAc?$AAt?$AAo?$AAo?$AAl?$AAs?$AA?2?$AAc?$AAr?$AAt?$AA_?$AAb?$AAl?$AAd?$AA?2?$AAs?$AAe?$AAl?$AAf?$AA_?$AAx?$AA8?$AA6?$AA?2?$AAc@ 40096428     LIBCMTD:vsnprint.obj
 0002:0000a48c       ??_C@_1CC@MGIEJOME@?$AA?$CI?$AAf?$AAo?$AAr?$AAm?$AAa?$AAt?$AA?5?$AA?$CB?$AA?$DN?$AA?5?$AAN?$AAU?$AAL?$AAL?$AA?$CJ?$AA?$AA@ 4009648c     LIBCMTD:vsnprint.obj
 0002:0000a4b0       ??_C@_1CC@OLIJCKA@?$AA?$CI?$AAs?$AAt?$AAr?$AAi?$AAn?$AAg?$AA?5?$AA?$CB?$AA?$DN?$AA?5?$AAN?$AAU?$AAL?$AAL?$AA?$CJ?$AA?$AA@ 400964b0     LIBCMTD:vsprintf.obj
 0002:0000a4d4       ??_C@_1BI@IGILPKD@?$AA_?$AAv?$AAs?$AAp?$AAr?$AAi?$AAn?$AAt?$AAf?$AA_?$AAl?$AA?$AA@ 400964d4     LIBCMTD:vsprintf.obj
 0002:0000a4ec       ??_C@_1CE@HMKDJHB@?$AA_?$AAv?$AAs?$AAc?$AAp?$AAr?$AAi?$AAn?$AAt?$AAf?$AA_?$AAh?$AAe?$AAl?$AAp?$AAe?$AAr?$AA?$AA@ 400964ec     LIBCMTD:vsprintf.obj
 0002:0000a510       ??_C@_1BK@HJGMBFLF@?$AAc?$AAo?$AAm?$AAp?$AA?5?$AA?$CB?$AA?$DN?$AA?5?$AAN?$AAU?$AAL?$AAL?$AA?$AA@ 40096510     LIBCMTD:qsort.obj
 0002:0000a52c       ??_C@_1BE@NJBEBBME@?$AAw?$AAi?$AAd?$AAt?$AAh?$AA?5?$AA?$DO?$AA?5?$AA0?$AA?$AA@ 4009652c     LIBCMTD:qsort.obj
 0002:0000a540       ??_C@_1M@INMHODIG@?$AAq?$AAs?$AAo?$AAr?$AAt?$AA?$AA@ 40096540     LIBCMTD:qsort.obj
 0002:0000a550       ??_C@_1FO@NDBPJPLL@?$AAf?$AA?3?$AA?2?$AAd?$AAd?$AA?2?$AAv?$AAc?$AAt?$AAo?$AAo?$AAl?$AAs?$AA?2?$AAc?$AAr?$AAt?$AA_?$AAb?$AAl?$AAd?$AA?2?$AAs?$AAe?$AAl?$AAf?$AA_?$AAx?$AA8?$AA6?$AA?2?$AAc@ 40096550     LIBCMTD:qsort.obj
 0002:0000a5b0       ??_C@_1DC@HAGCIKOA@?$AAb?$AAa?$AAs?$AAe?$AA?5?$AA?$CB?$AA?$DN?$AA?5?$AAN?$AAU?$AAL?$AAL?$AA?5?$AA?$HM?$AA?$HM?$AA?5?$AAn?$AAu?$AAm?$AA?5?$AA?$DN?$AA?$DN?$AA?5?$AA0?$AA?$AA@ 400965b0     LIBCMTD:qsort.obj
 0002:0000a5e4       ??_C@_0BO@GNIAFIKK@Unknown?5Runtime?5Check?5Error?6?$AN?$AA@ 400965e4     LIBCMTD:_error_.obj
 0002:0000a604       ??_C@_0CM@NGINOKPC@Stack?5memory?5around?5_alloca?5was?5@ 40096604     LIBCMTD:_error_.obj
 0002:0000a630       ??_C@_0DG@HKJMLLLP@A?5local?5variable?5was?5used?5before@ 40096630     LIBCMTD:_error_.obj
 0002:0000a668       ??_C@_0BN@FFOINMNJ@Stack?5memory?5was?5corrupted?6?$AN?$AA@ 40096668     LIBCMTD:_error_.obj
 0002:0000a688       ??_C@_0BBN@GPMLNJCF@A?5cast?5to?5a?5smaller?5data?5type?5ha@ 40096688     LIBCMTD:_error_.obj
 0002:0000a7a8       ??_C@_0NN@NGPKDKPD@The?5value?5of?5ESP?5was?5not?5properl@ 400967a8     LIBCMTD:_error_.obj
 0002:0000a924       ??_C@_0CA@IODNCDPG@Run?9Time?5Check?5Failure?5?$CD?$CFd?5?9?5?$CFs?$AA@ 40096924     LIBCMTD:_error_.obj
 0002:0000a944       ??_C@_0BE@GNBOBNCK@Unknown?5Module?5Name?$AA@ 40096944     LIBCMTD:_error_.obj
 0002:0000a958       ??_C@_0BB@PFFGGCJP@Unknown?5Filename?$AA@ 40096958     LIBCMTD:_error_.obj
 0002:0000a970       ??_C@_1EA@NFKNIFJP@?$AAR?$AAu?$AAn?$AA?9?$AAT?$AAi?$AAm?$AAe?$AA?5?$AAC?$AAh?$AAe?$AAc?$AAk?$AA?5?$AAF?$AAa?$AAi?$AAl?$AAu?$AAr?$AAe?$AA?5?$AA?$CD?$AA?$CF?$AAd?$AA?5?$AA?9?$AA?5?$AA?$CF?$AAs?$AA?$AA@ 40096970     LIBCMTD:_error_.obj
 0002:0000a9b0       ??_C@_1GM@OLMCBDMB@?$AAR?$AAu?$AAn?$AAt?$AAi?$AAm?$AAe?$AA?5?$AAC?$AAh?$AAe?$AAc?$AAk?$AA?5?$AAE?$AAr?$AAr?$AAo?$AAr?$AA?4?$AA?6?$AA?$AN?$AA?5?$AAU?$AAn?$AAa?$AAb?$AAl?$AAe?$AA?5?$AAt?$AAo@ 400969b0     LIBCMTD:_error_.obj
 0002:0000aa1c       ??_C@_0CG@IAFNJNEE@Stack?5corrupted?5near?5unknown?5var@ 40096a1c     LIBCMTD:_error_.obj
 0002:0000aa48       ??_C@_0EJ@LJKNEOLN@Stack?5area?5around?5_alloca?5memory@ 40096a48     LIBCMTD:_error_.obj
 0002:0000aa94       ??_C@_08KJEDNCKC@?$CFs?$CFs?$CFs?$CFs?$AA@ 40096a94     LIBCMTD:_error_.obj
 0002:0000aaa0       ??_C@_02LLMPMKNF@?$DO?5?$AA@ 40096aa0     LIBCMTD:_error_.obj
 0002:0000aaa4       ??_C@_0BC@KIBAILCI@?$CFs?$CFs?$CFp?$CFs?$CFld?$CFs?$CFd?$CFs?$AA@ 40096aa4     LIBCMTD:_error_.obj
 0002:0000aab8       ??_C@_0EI@CLEPFNGI@Stack?5area?5around?5_alloca?5memory@ 40096ab8     LIBCMTD:_error_.obj
 0002:0000ab00       ??_C@_0N@MHFFIMFG@?6Address?3?50x?$AA@ 40096b00     LIBCMTD:_error_.obj
 0002:0000ab10       ??_C@_07DFDJCKFN@?6Size?3?5?$AA@ 40096b10     LIBCMTD:_error_.obj
 0002:0000ab18       ??_C@_0CK@DKGBICFE@?6Allocation?5number?5within?5this?5f@ 40096b18     LIBCMTD:_error_.obj
 0002:0000ab44       ??_C@_08OMAHNMHJ@?6Data?3?5?$DM?$AA@ 40096b44     LIBCMTD:_error_.obj
 0002:0000ab50       ??_C@_09FOPFMPEJ@wsprintfA?$AA@ 40096b50     LIBCMTD:_error_.obj
 0002:0000ab5c       ??_C@_1BG@OILDLIOJ@?$AAu?$AAs?$AAe?$AAr?$AA3?$AA2?$AA?4?$AAd?$AAl?$AAl?$AA?$AA@ 40096b5c     LIBCMTD:_error_.obj
 0002:0000ab74       ??_C@_05MKKEDADM@?$CF?42X?5?$AA@ 40096b74     LIBCMTD:_error_.obj
 0002:0000ab7c       ??_C@_0DE@OHJBPMBP@A?5variable?5is?5being?5used?5without@ 40096b7c     LIBCMTD:_error_.obj
 0002:0000abb0       ??_C@_0P@MIGLKIOC@CorExitProcess?$AA@ 40096bb0     LIBCMTD:crt0dat.obj
 0002:0000abc0       ??_C@_1BI@BGOHAHKC@?$AAm?$AAs?$AAc?$AAo?$AAr?$AAe?$AAe?$AA?4?$AAd?$AAl?$AAl?$AA?$AA@ 40096bc0     LIBCMTD:crt0dat.obj
 0002:0000abd8       ??_C@_1CC@CDIPMFPD@?$AA_?$AAw?$AAp?$AAg?$AAm?$AAp?$AAt?$AAr?$AA?5?$AA?$CB?$AA?$DN?$AA?5?$AAN?$AAU?$AAL?$AAL?$AA?$AA@ 40096bd8     LIBCMTD:crt0dat.obj
 0002:0000abfc       ??_C@_1BK@PNLDCCDP@?$AA_?$AAg?$AAe?$AAt?$AA_?$AAw?$AAp?$AAg?$AAm?$AAp?$AAt?$AAr?$AA?$AA@ 40096bfc     LIBCMTD:crt0dat.obj
 0002:0000ac18       ??_C@_1GC@DGCPEDNJ@?$AAf?$AA?3?$AA?2?$AAd?$AAd?$AA?2?$AAv?$AAc?$AAt?$AAo?$AAo?$AAl?$AAs?$AA?2?$AAc?$AAr?$AAt?$AA_?$AAb?$AAl?$AAd?$AA?2?$AAs?$AAe?$AAl?$AAf?$AA_?$AAx?$AA8?$AA6?$AA?2?$AAc@ 40096c18     LIBCMTD:crt0dat.obj
 0002:0000ac7c       ??_C@_1BO@LKEBEKJP@?$AAp?$AAV?$AAa?$AAl?$AAu?$AAe?$AA?5?$AA?$CB?$AA?$DN?$AA?5?$AAN?$AAU?$AAL?$AAL?$AA?$AA@ 40096c7c     LIBCMTD:crt0dat.obj
 0002:0000ac9c       ??_C@_1CA@BBNAFCKO@?$AA_?$AAp?$AAg?$AAm?$AAp?$AAt?$AAr?$AA?5?$AA?$CB?$AA?$DN?$AA?5?$AAN?$AAU?$AAL?$AAL?$AA?$AA@ 40096c9c     LIBCMTD:crt0dat.obj
 0002:0000acbc       ??_C@_1BI@COAAPHJK@?$AA_?$AAg?$AAe?$AAt?$AA_?$AAp?$AAg?$AAm?$AAp?$AAt?$AAr?$AA?$AA@ 40096cbc     LIBCMTD:crt0dat.obj
 0002:0000acd4       __pRawDllMain              40096cd4     LIBCMTD:dllcrt0.obj
 0002:0000acd4       __pDefaultRawDllMain       40096cd4     LIBCMTD:dllcrt0.obj
 0002:0000acd8       ??_C@_0DB@OLNOAEGF@f?3?2dd?2vctools?2crt_bld?2self_x86?2c@ 40096cd8     LIBCMTD:dllcrt0.obj
 0002:0000ad14       ??_C@_0BP@OGBCLIBO@Stack?5around?5_alloca?5corrupted?$AA@ 40096d14     LIBCMTD:_userapi_.obj
 0002:0000ad34       ??_C@_0CK@CNLNOEPB@Local?5variable?5used?5before?5initi@ 40096d34     LIBCMTD:_userapi_.obj
 0002:0000ad60       ??_C@_0BI@CIGMDCBH@Stack?5memory?5corruption?$AA@ 40096d60     LIBCMTD:_userapi_.obj
 0002:0000ad78       ??_C@_0CK@FEGOIOPB@Cast?5to?5smaller?5type?5causing?5los@ 40096d78     LIBCMTD:_userapi_.obj
 0002:0000ada4       ??_C@_0BJ@HEGAHDFO@Stack?5pointer?5corruption?$AA@ 40096da4     LIBCMTD:_userapi_.obj
 0002:0000add4       ??_C@_0DP@CBBAPGOP@f?3?2dd?2vctools?2crt_bld?2self_x86?2c@ 40096dd4     LIBCMTD:chkesp.obj
 0002:0000ae18       ??_C@_0NM@DNEDKLDF@The?5value?5of?5ESP?5was?5not?5properl@ 40096e18     LIBCMTD:chkesp.obj
 0002:0000aef8       ??_C@_1FE@CEHLKAHD@?$AAi?$AAb?$AAa?$AAs?$AAe?$AA?5?$AA?$DN?$AA?$DN?$AA?5?$AA0?$AA?5?$AA?$HM?$AA?$HM?$AA?5?$AA?$CI?$AA2?$AA?5?$AA?$DM?$AA?$DN?$AA?5?$AAi?$AAb?$AAa?$AAs?$AAe?$AA?5?$AA?$CG?$AA?$CG?$AA?5?$AAi?$AAb?$AAa@ 40096ef8     LIBCMTD:strtol.obj
 0002:0000af4c       ??_C@_1BA@LOLAMAJG@?$AAs?$AAt?$AAr?$AAt?$AAo?$AAx?$AAl?$AA?$AA@ 40096f4c     LIBCMTD:strtol.obj
 0002:0000af60       ??_C@_1GA@IPHKKOEI@?$AAf?$AA?3?$AA?2?$AAd?$AAd?$AA?2?$AAv?$AAc?$AAt?$AAo?$AAo?$AAl?$AAs?$AA?2?$AAc?$AAr?$AAt?$AA_?$AAb?$AAl?$AAd?$AA?2?$AAs?$AAe?$AAl?$AAf?$AA_?$AAx?$AA8?$AA6?$AA?2?$AAc@ 40096f60     LIBCMTD:strtol.obj
 0002:0000afc0       ??_C@_1BA@BMMDEPNE@?$AAs?$AAt?$AAr?$AAt?$AAo?$AAx?$AAq?$AA?$AA@ 40096fc0     LIBCMTD:strtoq.obj
 0002:0000afd0       ??_C@_1GA@GIMEIKLC@?$AAf?$AA?3?$AA?2?$AAd?$AAd?$AA?2?$AAv?$AAc?$AAt?$AAo?$AAo?$AAl?$AAs?$AA?2?$AAc?$AAr?$AAt?$AA_?$AAb?$AAl?$AAd?$AA?2?$AAs?$AAe?$AAl?$AAf?$AA_?$AAx?$AA8?$AA6?$AA?2?$AAc@ 40096fd0     LIBCMTD:strtoq.obj
 0002:0000b030       ??_C@_0DC@LMJHGCKC@f?3?2dd?2vctools?2crt_bld?2self_x86?2c@ 40097030     LIBCMTD:tidtable.obj
 0002:0000b064       ??_C@_07PEJMOBNF@FlsFree?$AA@ 40097064     LIBCMTD:tidtable.obj
 0002:0000b06c       ??_C@_0M@JCPCPOEF@FlsSetValue?$AA@ 4009706c     LIBCMTD:tidtable.obj
 0002:0000b078       ??_C@_0M@GDNOONDI@FlsGetValue?$AA@ 40097078     LIBCMTD:tidtable.obj
 0002:0000b084       ??_C@_08KNHFBNJ@FlsAlloc?$AA@ 40097084     LIBCMTD:tidtable.obj
 0002:0000b090       ??_C@_1BK@DBDEIDLH@?$AAK?$AAE?$AAR?$AAN?$AAE?$AAL?$AA3?$AA2?$AA?4?$AAD?$AAL?$AAL?$AA?$AA@ 40097090     LIBCMTD:tidtable.obj
 0002:0000b0b0       ??_C@_1GE@KOCFNGPB@?$AA_?$AAc?$AAo?$AAn?$AAt?$AAr?$AAo?$AAl?$AAf?$AAp?$AA_?$AAs?$AA?$CI?$AA?$CI?$AA?$CI?$AAv?$AAo?$AAi?$AAd?$AA?5?$AA?$CK?$AA?$CJ?$AA0?$AA?$CJ?$AA?0?$AA?5?$AA0?$AAx?$AA0?$AA0?$AA0?$AA1@ 400970b0     LIBCMTD:fp8.obj
 0002:0000b114       ??_C@_1CK@JMKHCBEI@?$AA_?$AAs?$AAe?$AAt?$AAd?$AAe?$AAf?$AAa?$AAu?$AAl?$AAt?$AAp?$AAr?$AAe?$AAc?$AAi?$AAs?$AAi?$AAo?$AAn?$AA?$AA@ 40097114     LIBCMTD:fp8.obj
 0002:0000b140       ??_C@_1GG@PHGJJHBC@?$AAf?$AA?3?$AA?2?$AAd?$AAd?$AA?2?$AAv?$AAc?$AAt?$AAo?$AAo?$AAl?$AAs?$AA?2?$AAc?$AAr?$AAt?$AA_?$AAb?$AAl?$AAd?$AA?2?$AAs?$AAe?$AAl?$AAf?$AA_?$AAx?$AA8?$AA6?$AA?2?$AAc@ 40097140     LIBCMTD:fp8.obj
 0002:0000b1a8       ??_C@_1CA@CBMNPEO@?$AAs?$AAi?$AAz?$AAe?$AAI?$AAn?$AAB?$AAy?$AAt?$AAe?$AAs?$AA?5?$AA?$DO?$AA?5?$AA0?$AA?$AA@ 400971a8     LIBCMTD:cvt.obj
 0002:0000b1c8       ??_C@_1BC@INKAPMHI@?$AA_?$AAc?$AAf?$AAt?$AAo?$AAe?$AA_?$AAl?$AA?$AA@ 400971c8     LIBCMTD:cvt.obj
 0002:0000b1e0       ??_C@_1GO@NCCGBNKI@?$AAf?$AA?3?$AA?2?$AAd?$AAd?$AA?2?$AAv?$AAc?$AAt?$AAo?$AAo?$AAl?$AAs?$AA?2?$AAc?$AAr?$AAt?$AA_?$AAb?$AAl?$AAd?$AA?2?$AAs?$AAe?$AAl?$AAf?$AA_?$AAx?$AA8?$AA6?$AA?2?$AAc@ 400971e0     LIBCMTD:cvt.obj
 0002:0000b250       ??_C@_1BI@ICGGMGLK@?$AAb?$AAu?$AAf?$AA?5?$AA?$CB?$AA?$DN?$AA?5?$AAN?$AAU?$AAL?$AAL?$AA?$AA@ 40097250     LIBCMTD:cvt.obj
 0002:0000b268       ??_C@_05KLBDPFGC@e?$CL000?$AA@ 40097268     LIBCMTD:cvt.obj
 0002:0000b270       ??_C@_1LE@EOIFGNCJ@?$AAs?$AAt?$AAr?$AAc?$AAp?$AAy?$AA_?$AAs?$AA?$CI?$AAp?$AA?0?$AA?5?$AA?$CI?$AAs?$AAi?$AAz?$AAe?$AAI?$AAn?$AAB?$AAy?$AAt?$AAe?$AAs?$AA?5?$AA?$DN?$AA?$DN?$AA?5?$AA?$CI?$AAs?$AAi?$AAz@ 40097270     LIBCMTD:cvt.obj
 0002:0000b328       ??_C@_1HE@NACBNDPP@?$AAs?$AAi?$AAz?$AAe?$AAI?$AAn?$AAB?$AAy?$AAt?$AAe?$AAs?$AA?5?$AA?$DO?$AA?5?$AA?$CI?$AAs?$AAi?$AAz?$AAe?$AA_?$AAt?$AA?$CJ?$AA?$CI?$AA3?$AA?5?$AA?$CL?$AA?5?$AA?$CI?$AAn?$AAd?$AAe?$AAc@ 40097328     LIBCMTD:cvt.obj
 0002:0000b39c       ??_C@_1BE@OLBNEILL@?$AA_?$AAc?$AAf?$AAt?$AAo?$AAe?$AA2?$AA_?$AAl?$AA?$AA@ 4009739c     LIBCMTD:cvt.obj
 0002:0000b3b0       ??_C@_1FC@IKIMAMJB@?$AAs?$AAi?$AAz?$AAe?$AAI?$AAn?$AAB?$AAy?$AAt?$AAe?$AAs?$AA?5?$AA?$DO?$AA?5?$AA?$CI?$AAs?$AAi?$AAz?$AAe?$AA_?$AAt?$AA?$CJ?$AA?$CI?$AA1?$AA?5?$AA?$CL?$AA?5?$AA4?$AA?5?$AA?$CL?$AA?5?$AAn@ 400973b0     LIBCMTD:cvt.obj
 0002:0000b404       ??_C@_1BC@JOKPCIC@?$AA_?$AAc?$AAf?$AAt?$AAo?$AAa?$AA_?$AAl?$AA?$AA@ 40097404     LIBCMTD:cvt.obj
 0002:0000b418       ??_C@_1BC@DCPPLJL@?$AA_?$AAc?$AAf?$AAt?$AAo?$AAf?$AA_?$AAl?$AA?$AA@ 40097418     LIBCMTD:cvt.obj
 0002:0000b42c       ??_C@_1BE@CKPDLI@?$AA_?$AAc?$AAf?$AAt?$AAo?$AAf?$AA2?$AA_?$AAl?$AA?$AA@ 4009742c     LIBCMTD:cvt.obj
 0002:0000b440       ??_C@_1BC@MPIFPLAF@?$AA_?$AAc?$AAf?$AAt?$AAo?$AAg?$AA_?$AAl?$AA?$AA@ 40097440     LIBCMTD:cvt.obj
 0002:0000b458       ??_C@_1GA@INJGGEBC@?$AAf?$AA?3?$AA?2?$AAd?$AAd?$AA?2?$AAv?$AAc?$AAt?$AAo?$AAo?$AAl?$AAs?$AA?2?$AAc?$AAr?$AAt?$AA_?$AAb?$AAl?$AAd?$AA?2?$AAs?$AAe?$AAl?$AAf?$AA_?$AAx?$AA8?$AA6?$AA?2?$AAc@ 40097458     LIBCMTD:a_map.obj
 0002:0000b4b8       ??_C@_1FE@KNPCCODH@?$AA?$CI?$AA?$CC?$AAC?$AAo?$AAr?$AAr?$AAu?$AAp?$AAt?$AAe?$AAd?$AA?5?$AAp?$AAo?$AAi?$AAn?$AAt?$AAe?$AAr?$AA?5?$AAp?$AAa?$AAs?$AAs?$AAe?$AAd?$AA?5?$AAt?$AAo?$AA?5?$AA_?$AAf@ 400974b8     LIBCMTD:a_map.obj
 0002:0000b50c       ??_C@_1BG@KCMPBBDK@?$AA_?$AAg?$AAe?$AAt?$AA_?$AAe?$AAr?$AAr?$AAn?$AAo?$AA?$AA@ 4009750c     LIBCMTD:dosmap.obj
 0002:0000b528       ??_C@_1GA@MFGIMPNL@?$AAf?$AA?3?$AA?2?$AAd?$AAd?$AA?2?$AAv?$AAc?$AAt?$AAo?$AAo?$AAl?$AAs?$AA?2?$AAc?$AAr?$AAt?$AA_?$AAb?$AAl?$AAd?$AA?2?$AAs?$AAe?$AAl?$AAf?$AA_?$AAx?$AA8?$AA6?$AA?2?$AAc@ 40097528     LIBCMTD:dosmap.obj
 0002:0000b588       ??_C@_1BM@INIPHHDD@?$AA_?$AAg?$AAe?$AAt?$AA_?$AAd?$AAo?$AAs?$AAe?$AAr?$AAr?$AAn?$AAo?$AA?$AA@ 40097588     LIBCMTD:dosmap.obj
 0002:0000b5a8       ??_C@_1GC@CHGJNMHG@?$AAf?$AA?3?$AA?2?$AAd?$AAd?$AA?2?$AAv?$AAc?$AAt?$AAo?$AAo?$AAl?$AAs?$AA?2?$AAc?$AAr?$AAt?$AA_?$AAb?$AAl?$AAd?$AA?2?$AAs?$AAe?$AAl?$AAf?$AA_?$AAx?$AA8?$AA6?$AA?2?$AAc@ 400975a8     LIBCMTD:isctype.obj
 0002:0000b60c       ??_C@_1DC@BPLPALML@?$AA?$CI?$AAu?$AAn?$AAs?$AAi?$AAg?$AAn?$AAe?$AAd?$AA?$CJ?$AA?$CI?$AAc?$AA?5?$AA?$CL?$AA?5?$AA1?$AA?$CJ?$AA?5?$AA?$DM?$AA?$DN?$AA?5?$AA2?$AA5?$AA6?$AA?$AA@ 4009760c     LIBCMTD:isctype.obj
 0002:0000b640       ??_C@_0DB@MHMEONEC@f?3?2dd?2vctools?2crt_bld?2self_x86?2c@ 40097640     LIBCMTD:mbctype.obj
 0002:0000b678       ??_C@_1GE@HMAALBPJ@?$AAf?$AA?3?$AA?2?$AAd?$AAd?$AA?2?$AAv?$AAc?$AAt?$AAo?$AAo?$AAl?$AAs?$AA?2?$AAc?$AAr?$AAt?$AA_?$AAb?$AAl?$AAd?$AA?2?$AAs?$AAe?$AAl?$AAf?$AA_?$AAx?$AA8?$AA6?$AA?2?$AAc@ 40097678     LIBCMTD:localref.obj
 0002:0000b6e0       ??_C@_1BKC@GGIENNAK@?$AA?$CI?$AA?$CI?$AAp?$AAt?$AAl?$AAo?$AAc?$AAi?$AA?9?$AA?$DO?$AAl?$AAc?$AA_?$AAc?$AAa?$AAt?$AAe?$AAg?$AAo?$AAr?$AAy?$AA?$FL?$AAc?$AAa?$AAt?$AAe?$AAg?$AAo?$AAr?$AAy?$AA?$FN?$AA?4@ 400976e0     LIBCMTD:localref.obj
 0002:0000b884       ??_C@_1BC@GDGBMEMK@?$AAH?$AAH?$AA?3?$AAm?$AAm?$AA?3?$AAs?$AAs?$AA?$AA@ 40097884     LIBCMTD:nlsdata2.obj
 0002:0000b898       ??_C@_1CI@KNAKOEBC@?$AAd?$AAd?$AAd?$AAd?$AA?0?$AA?5?$AAM?$AAM?$AAM?$AAM?$AA?5?$AAd?$AAd?$AA?0?$AA?5?$AAy?$AAy?$AAy?$AAy?$AA?$AA@ 40097898     LIBCMTD:nlsdata2.obj
 0002:0000b8c0       ??_C@_1BC@IEBCMHCM@?$AAM?$AAM?$AA?1?$AAd?$AAd?$AA?1?$AAy?$AAy?$AA?$AA@ 400978c0     LIBCMTD:nlsdata2.obj
 0002:0000b8d4       ??_C@_15CLMNNGEL@?$AAP?$AAM?$AA?$AA@ 400978d4     LIBCMTD:nlsdata2.obj
 0002:0000b8dc       ??_C@_15ODEHAHHF@?$AAA?$AAM?$AA?$AA@ 400978dc     LIBCMTD:nlsdata2.obj
 0002:0000b8e4       ??_C@_1BC@FEMKIFH@?$AAD?$AAe?$AAc?$AAe?$AAm?$AAb?$AAe?$AAr?$AA?$AA@ 400978e4     LIBCMTD:nlsdata2.obj
 0002:0000b8f8       ??_C@_1BC@BGLIFPF@?$AAN?$AAo?$AAv?$AAe?$AAm?$AAb?$AAe?$AAr?$AA?$AA@ 400978f8     LIBCMTD:nlsdata2.obj
 0002:0000b90c       ??_C@_1BA@EPANDLNG@?$AAO?$AAc?$AAt?$AAo?$AAb?$AAe?$AAr?$AA?$AA@ 4009790c     LIBCMTD:nlsdata2.obj
 0002:0000b91c       ??_C@_1BE@DKAAMBJL@?$AAS?$AAe?$AAp?$AAt?$AAe?$AAm?$AAb?$AAe?$AAr?$AA?$AA@ 4009791c     LIBCMTD:nlsdata2.obj
 0002:0000b930       ??_C@_1O@PAHLKOAC@?$AAA?$AAu?$AAg?$AAu?$AAs?$AAt?$AA?$AA@ 40097930     LIBCMTD:nlsdata2.obj
 0002:0000b940       ??_C@_19BIFMLPCD@?$AAJ?$AAu?$AAl?$AAy?$AA?$AA@ 40097940     LIBCMTD:nlsdata2.obj
 0002:0000b94c       ??_C@_19EPFLPGAP@?$AAJ?$AAu?$AAn?$AAe?$AA?$AA@ 4009794c     LIBCMTD:nlsdata2.obj
 0002:0000b958       ??_C@_1M@GJNLMHFD@?$AAA?$AAp?$AAr?$AAi?$AAl?$AA?$AA@ 40097958     LIBCMTD:nlsdata2.obj
 0002:0000b964       ??_C@_1M@IKEENEDF@?$AAM?$AAa?$AAr?$AAc?$AAh?$AA?$AA@ 40097964     LIBCMTD:nlsdata2.obj
 0002:0000b970       ??_C@_1BC@JGDDFFAM@?$AAF?$AAe?$AAb?$AAr?$AAu?$AAa?$AAr?$AAy?$AA?$AA@ 40097970     LIBCMTD:nlsdata2.obj
 0002:0000b984       ??_C@_1BA@EFMEIEBA@?$AAJ?$AAa?$AAn?$AAu?$AAa?$AAr?$AAy?$AA?$AA@ 40097984     LIBCMTD:nlsdata2.obj
 0002:0000b994       ??_C@_17EGKACKIF@?$AAD?$AAe?$AAc?$AA?$AA@ 40097994     LIBCMTD:nlsdata2.obj
 0002:0000b99c       ??_C@_17BBDMLCIG@?$AAN?$AAo?$AAv?$AA?$AA@ 4009799c     LIBCMTD:nlsdata2.obj
 0002:0000b9a4       ??_C@_17FNLKOI@?$AAO?$AAc?$AAt?$AA?$AA@ 400979a4     LIBCMTD:nlsdata2.obj
 0002:0000b9ac       ??_C@_17HCHCOKMG@?$AAS?$AAe?$AAp?$AA?$AA@ 400979ac     LIBCMTD:nlsdata2.obj
 0002:0000b9b4       ??_C@_17ICPELBCN@?$AAA?$AAu?$AAg?$AA?$AA@ 400979b4     LIBCMTD:nlsdata2.obj
 0002:0000b9bc       ??_C@_17IJPCKHK@?$AAJ?$AAu?$AAl?$AA?$AA@ 400979bc     LIBCMTD:nlsdata2.obj
 0002:0000b9c4       ??_C@_17KCJGOCPB@?$AAJ?$AAu?$AAn?$AA?$AA@ 400979c4     LIBCMTD:nlsdata2.obj
 0002:0000b9cc       ??_C@_17PNNKMEED@?$AAM?$AAa?$AAy?$AA?$AA@ 400979cc     LIBCMTD:nlsdata2.obj
 0002:0000b9d4       ??_C@_17LFPOIHDD@?$AAA?$AAp?$AAr?$AA?$AA@ 400979d4     LIBCMTD:nlsdata2.obj
 0002:0000b9dc       ??_C@_17CKNLEDEC@?$AAM?$AAa?$AAr?$AA?$AA@ 400979dc     LIBCMTD:nlsdata2.obj
 0002:0000b9e4       ??_C@_17LMDJEKJN@?$AAF?$AAe?$AAb?$AA?$AA@ 400979e4     LIBCMTD:nlsdata2.obj
 0002:0000b9ec       ??_C@_17DKNBKCHM@?$AAJ?$AAa?$AAn?$AA?$AA@ 400979ec     LIBCMTD:nlsdata2.obj
 0002:0000b9f4       ??_C@_1BC@ENMNNPAJ@?$AAS?$AAa?$AAt?$AAu?$AAr?$AAd?$AAa?$AAy?$AA?$AA@ 400979f4     LIBCMTD:nlsdata2.obj
 0002:0000ba08       ??_C@_1O@PDICJHAG@?$AAF?$AAr?$AAi?$AAd?$AAa?$AAy?$AA?$AA@ 40097a08     LIBCMTD:nlsdata2.obj
 0002:0000ba18       ??_C@_1BC@HHMNLIHE@?$AAT?$AAh?$AAu?$AAr?$AAs?$AAd?$AAa?$AAy?$AA?$AA@ 40097a18     LIBCMTD:nlsdata2.obj
 0002:0000ba2c       ??_C@_1BE@EBOGMDOH@?$AAW?$AAe?$AAd?$AAn?$AAe?$AAs?$AAd?$AAa?$AAy?$AA?$AA@ 40097a2c     LIBCMTD:nlsdata2.obj
 0002:0000ba40       ??_C@_1BA@ENFBFFEK@?$AAT?$AAu?$AAe?$AAs?$AAd?$AAa?$AAy?$AA?$AA@ 40097a40     LIBCMTD:nlsdata2.obj
 0002:0000ba50       ??_C@_1O@MMNBFLIA@?$AAM?$AAo?$AAn?$AAd?$AAa?$AAy?$AA?$AA@ 40097a50     LIBCMTD:nlsdata2.obj
 0002:0000ba60       ??_C@_1O@IHNHDHPB@?$AAS?$AAu?$AAn?$AAd?$AAa?$AAy?$AA?$AA@ 40097a60     LIBCMTD:nlsdata2.obj
 0002:0000ba70       ??_C@_17GGIBDPIH@?$AAS?$AAa?$AAt?$AA?$AA@ 40097a70     LIBCMTD:nlsdata2.obj
 0002:0000ba78       ??_C@_17HFOLPPLP@?$AAF?$AAr?$AAi?$AA?$AA@ 40097a78     LIBCMTD:nlsdata2.obj
 0002:0000ba80       ??_C@_17PDPHAADD@?$AAT?$AAh?$AAu?$AA?$AA@ 40097a80     LIBCMTD:nlsdata2.obj
 0002:0000ba88       ??_C@_17CJEDCEPE@?$AAW?$AAe?$AAd?$AA?$AA@ 40097a88     LIBCMTD:nlsdata2.obj
 0002:0000ba90       ??_C@_17BMKGEGOJ@?$AAT?$AAu?$AAe?$AA?$AA@ 40097a90     LIBCMTD:nlsdata2.obj
 0002:0000ba98       ??_C@_17KBOMKBF@?$AAM?$AAo?$AAn?$AA?$AA@ 40097a98     LIBCMTD:nlsdata2.obj
 0002:0000baa0       ??_C@_17MBGCMIPB@?$AAS?$AAu?$AAn?$AA?$AA@ 40097aa0     LIBCMTD:nlsdata2.obj
 0002:0000baa8       ??_C@_08JCCMCCIL@HH?3mm?3ss?$AA@ 40097aa8     LIBCMTD:nlsdata2.obj
 0002:0000bab4       ??_C@_0BE@CKGJFCPC@dddd?0?5MMMM?5dd?0?5yyyy?$AA@ 40097ab4     LIBCMTD:nlsdata2.obj
 0002:0000bac8       ??_C@_08BPBNCDIB@MM?1dd?1yy?$AA@ 40097ac8     LIBCMTD:nlsdata2.obj
 0002:0000bad4       ??_C@_02CJNFDJBF@PM?$AA@   40097ad4     LIBCMTD:nlsdata2.obj
 0002:0000bad8       ??_C@_02DEDBPAFC@AM?$AA@   40097ad8     LIBCMTD:nlsdata2.obj
 0002:0000badc       ??_C@_08EDHMEBNP@December?$AA@ 40097adc     LIBCMTD:nlsdata2.obj
 0002:0000bae8       ??_C@_08HCHEGEOA@November?$AA@ 40097ae8     LIBCMTD:nlsdata2.obj
 0002:0000baf4       ??_C@_07JJNFCEND@October?$AA@ 40097af4     LIBCMTD:nlsdata2.obj
 0002:0000bafc       ??_C@_09BHHEALKD@September?$AA@ 40097afc     LIBCMTD:nlsdata2.obj
 0002:0000bb08       ??_C@_06LBBHFDDG@August?$AA@ 40097b08     LIBCMTD:nlsdata2.obj
 0002:0000bb10       ??_C@_04MIEPOIFP@July?$AA@ 40097b10     LIBCMTD:nlsdata2.obj
 0002:0000bb18       ??_C@_04CNLMGBGM@June?$AA@ 40097b18     LIBCMTD:nlsdata2.obj
 0002:0000bb20       ??_C@_05DMJDNLEJ@April?$AA@ 40097b20     LIBCMTD:nlsdata2.obj
 0002:0000bb28       ??_C@_05HPCKOFNC@March?$AA@ 40097b28     LIBCMTD:nlsdata2.obj
 0002:0000bb30       ??_C@_08GNJGEPFN@February?$AA@ 40097b30     LIBCMTD:nlsdata2.obj
 0002:0000bb3c       ??_C@_07CGJPFGJA@January?$AA@ 40097b3c     LIBCMTD:nlsdata2.obj
 0002:0000bb44       ??_C@_08INBOOONO@Saturday?$AA@ 40097b44     LIBCMTD:nlsdata2.obj
 0002:0000bb50       ??_C@_06JECMNKMI@Friday?$AA@ 40097b50     LIBCMTD:nlsdata2.obj
 0002:0000bb58       ??_C@_08HACCIKIA@Thursday?$AA@ 40097b58     LIBCMTD:nlsdata2.obj
 0002:0000bb64       ??_C@_09DLIGFAKA@Wednesday?$AA@ 40097b64     LIBCMTD:nlsdata2.obj
 0002:0000bb70       ??_C@_07BAAGCFCM@Tuesday?$AA@ 40097b70     LIBCMTD:nlsdata2.obj
 0002:0000bb78       ??_C@_06JLEDEDGH@Monday?$AA@ 40097b78     LIBCMTD:nlsdata2.obj
 0002:0000bb80       ??_C@_06OOPIFAJ@Sunday?$AA@ 40097b80     LIBCMTD:nlsdata2.obj
 0002:0000bb88       ??_C@_03FEFJNEK@Sat?$AA@   40097b88     LIBCMTD:nlsdata2.obj
 0002:0000bb8c       ??_C@_03IDIOELNC@Fri?$AA@  40097b8c     LIBCMTD:nlsdata2.obj
 0002:0000bb90       ??_C@_03IOFIKPDN@Thu?$AA@  40097b90     LIBCMTD:nlsdata2.obj
 0002:0000bb94       ??_C@_03MHOMLAJA@Wed?$AA@  40097b94     LIBCMTD:nlsdata2.obj
 0002:0000bb98       ??_C@_03NAGEINEP@Tue?$AA@  40097b98     LIBCMTD:nlsdata2.obj
 0002:0000bb9c       ??_C@_03PDAGKDH@Mon?$AA@   40097b9c     LIBCMTD:nlsdata2.obj
 0002:0000bba0       ??_C@_03KOEHGMDN@Sun?$AA@  40097ba0     LIBCMTD:nlsdata2.obj
 0002:0000bba4       ??_C@_07LCBHPJJN@LC_TIME?$AA@ 40097ba4     LIBCMTD:setlocal.obj
 0002:0000bbac       ??_C@_0L@DLHIECNL@LC_NUMERIC?$AA@ 40097bac     LIBCMTD:setlocal.obj
 0002:0000bbb8       ??_C@_0M@MIENIKLA@LC_MONETARY?$AA@ 40097bb8     LIBCMTD:setlocal.obj
 0002:0000bbc4       ??_C@_08EADHIDAD@LC_CTYPE?$AA@ 40097bc4     LIBCMTD:setlocal.obj
 0002:0000bbd0       ??_C@_0L@KFJHEKIK@LC_COLLATE?$AA@ 40097bd0     LIBCMTD:setlocal.obj
 0002:0000bbdc       ??_C@_06NEFDFEKB@LC_ALL?$AA@ 40097bdc     LIBCMTD:setlocal.obj
 0002:0000bbe8       ___lc_category             40097be8     LIBCMTD:setlocal.obj
 0002:0000bcb0       ??_C@_1CI@FGIONOJM@?$AA_?$AAc?$AAo?$AAn?$AAf?$AAi?$AAg?$AAt?$AAh?$AAr?$AAe?$AAa?$AAd?$AAl?$AAo?$AAc?$AAa?$AAl?$AAe?$AA?$AA@ 40097cb0     LIBCMTD:setlocal.obj
 0002:0000bcd8       ??_C@_1GE@OLEIGPBJ@?$AAf?$AA?3?$AA?2?$AAd?$AAd?$AA?2?$AAv?$AAc?$AAt?$AAo?$AAo?$AAl?$AAs?$AA?2?$AAc?$AAr?$AAt?$AA_?$AAb?$AAl?$AAd?$AA?2?$AAs?$AAe?$AAl?$AAf?$AA_?$AAx?$AA8?$AA6?$AA?2?$AAc@ 40097cd8     LIBCMTD:setlocal.obj
 0002:0000bd40       ??_C@_1GA@LDEGDKD@?$AA?$CI?$AA?$CC?$AAI?$AAn?$AAv?$AAa?$AAl?$AAi?$AAd?$AA?5?$AAp?$AAa?$AAr?$AAa?$AAm?$AAe?$AAt?$AAe?$AAr?$AA?5?$AAf?$AAo?$AAr?$AA?5?$AA_?$AAc?$AAo?$AAn?$AAf?$AAi?$AAg?$AAt@ 40097d40     LIBCMTD:setlocal.obj
 0002:0000bda0       ??_C@_0DC@JCPFNMID@f?3?2dd?2vctools?2crt_bld?2self_x86?2c@ 40097da0     LIBCMTD:setlocal.obj
 0002:0000bdd4       ??_C@_1BE@DBJGBOJC@?$AAs?$AAe?$AAt?$AAl?$AAo?$AAc?$AAa?$AAl?$AAe?$AA?$AA@ 40097dd4     LIBCMTD:setlocal.obj
 0002:0000bde8       ??_C@_1FG@OHLFEKMC@?$AAL?$AAC?$AA_?$AAM?$AAI?$AAN?$AA?5?$AA?$DM?$AA?$DN?$AA?5?$AA_?$AAc?$AAa?$AAt?$AAe?$AAg?$AAo?$AAr?$AAy?$AA?5?$AA?$CG?$AA?$CG?$AA?5?$AA_?$AAc?$AAa?$AAt?$AAe?$AAg?$AAo?$AAr?$AAy@ 40097de8     LIBCMTD:setlocal.obj
 0002:0000be40       ??_C@_1IA@PFIKKKFB@?$AAs?$AAt?$AAr?$AAn?$AAc?$AAp?$AAy?$AA_?$AAs?$AA?$CI?$AAl?$AAc?$AAt?$AAe?$AAm?$AAp?$AA?0?$AA?5?$AA?$CI?$AAs?$AAi?$AAz?$AAe?$AAo?$AAf?$AA?$CI?$AAl?$AAc?$AAt?$AAe?$AAm?$AAp@ 40097e40     LIBCMTD:setlocal.obj
 0002:0000bec0       ??_C@_1CE@OFNHIOO@?$AA_?$AAs?$AAe?$AAt?$AAl?$AAo?$AAc?$AAa?$AAl?$AAe?$AA_?$AAn?$AAo?$AAl?$AAo?$AAc?$AAk?$AA?$AA@ 40097ec0     LIBCMTD:setlocal.obj
 0002:0000bee4       ??_C@_02BALPLPBG@?$DN?$DL?$AA@ 40097ee4     LIBCMTD:setlocal.obj
 0002:0000bee8       ??_C@_1GO@JALHLJEH@?$AAs?$AAt?$AAr?$AAc?$AAp?$AAy?$AA_?$AAs?$AA?$CI?$AAp?$AAc?$AAh?$AA?5?$AA?$CL?$AA?5?$AAs?$AAi?$AAz?$AAe?$AAo?$AAf?$AA?$CI?$AAi?$AAn?$AAt?$AA?$CJ?$AA?0?$AA?5?$AAc?$AAc?$AAh?$AA?5@ 40097ee8     LIBCMTD:setlocal.obj
 0002:0000bf58       ??_C@_1CG@IEFIICPK@?$AA_?$AAs?$AAe?$AAt?$AAl?$AAo?$AAc?$AAa?$AAl?$AAe?$AA_?$AAs?$AAe?$AAt?$AA_?$AAc?$AAa?$AAt?$AA?$AA@ 40097f58     LIBCMTD:setlocal.obj
 0002:0000bf80       ??_C@_1DA@GDKKLCLM@?$AAs?$AAt?$AAr?$AAc?$AAa?$AAt?$AA_?$AAs?$AA?$CI?$AAp?$AAc?$AAh?$AA?0?$AA?5?$AAc?$AAc?$AAh?$AA?0?$AA?5?$AA?$CC?$AA?$DL?$AA?$CC?$AA?$CJ?$AA?$AA@ 40097f80     LIBCMTD:setlocal.obj
 0002:0000bfb0       ??_C@_1CG@NNFIJLDA@?$AA_?$AAs?$AAe?$AAt?$AAl?$AAo?$AAc?$AAa?$AAl?$AAe?$AA_?$AAg?$AAe?$AAt?$AA_?$AAa?$AAl?$AAl?$AA?$AA@ 40097fb0     LIBCMTD:setlocal.obj
 0002:0000bfd8       ??_C@_1FA@MHAOOIBO@?$AAs?$AAt?$AAr?$AAc?$AAp?$AAy?$AA_?$AAs?$AA?$CI?$AAo?$AAu?$AAt?$AAp?$AAu?$AAt?$AA?0?$AA?5?$AAs?$AAi?$AAz?$AAe?$AAI?$AAn?$AAC?$AAh?$AAa?$AAr?$AAs?$AA?0?$AA?5?$AAc?$AAa@ 40097fd8     LIBCMTD:setlocal.obj
 0002:0000c028       ??_C@_1IA@ONNFOEDA@?$AAs?$AAt?$AAr?$AAn?$AAc?$AAp?$AAy?$AA_?$AAs?$AA?$CI?$AAc?$AAa?$AAc?$AAh?$AAe?$AAi?$AAn?$AA?0?$AA?5?$AAc?$AAa?$AAc?$AAh?$AAe?$AAi?$AAn?$AAS?$AAi?$AAz?$AAe?$AA?0?$AA?5@ 40098028     LIBCMTD:setlocal.obj
 0002:0000c0a8       ??_C@_1EG@MOMHKOD@?$AAs?$AAt?$AAr?$AAc?$AAp?$AAy?$AA_?$AAs?$AA?$CI?$AAo?$AAu?$AAt?$AAp?$AAu?$AAt?$AA?0?$AA?5?$AAs?$AAi?$AAz?$AAe?$AAI?$AAn?$AAC?$AAh?$AAa?$AAr?$AAs?$AA?0?$AA?5?$AA?$CC?$AAC@ 400980a8     LIBCMTD:setlocal.obj
 0002:0000c0f0       ??_C@_1BM@OIIBLEFG@?$AA_?$AAe?$AAx?$AAp?$AAa?$AAn?$AAd?$AAl?$AAo?$AAc?$AAa?$AAl?$AAe?$AA?$AA@ 400980f0     LIBCMTD:setlocal.obj
 0002:0000c110       ??_C@_1BGM@IJDLABMC@?$AAs?$AAt?$AAr?$AAc?$AAa?$AAt?$AA_?$AAs?$AA?$CI?$AAo?$AAu?$AAt?$AAs?$AAt?$AAr?$AA?0?$AA?5?$AAs?$AAi?$AAz?$AAe?$AAI?$AAn?$AAB?$AAy?$AAt?$AAe?$AAs?$AA?0?$AA?5?$AA?$CI?$AA?5@ 40098110     LIBCMTD:setlocal.obj
 0002:0000c27c       ??_C@_1BC@PIABMDIP@?$AA_?$AAs?$AAt?$AAr?$AAc?$AAa?$AAt?$AAs?$AA?$AA@ 4009827c     LIBCMTD:setlocal.obj
 0002:0000c290       ??_C@_1MM@NOPMGFHF@?$AAs?$AAt?$AAr?$AAn?$AAc?$AAp?$AAy?$AA_?$AAs?$AA?$CI?$AAn?$AAa?$AAm?$AAe?$AAs?$AA?9?$AA?$DO?$AAs?$AAz?$AAC?$AAo?$AAd?$AAe?$AAP?$AAa?$AAg?$AAe?$AA?0?$AA?5?$AA?$CI?$AAs?$AAi@ 40098290     LIBCMTD:setlocal.obj
 0002:0000c360       ??_C@_1MG@PHNILIAG@?$AAs?$AAt?$AAr?$AAn?$AAc?$AAp?$AAy?$AA_?$AAs?$AA?$CI?$AAn?$AAa?$AAm?$AAe?$AAs?$AA?9?$AA?$DO?$AAs?$AAz?$AAC?$AAo?$AAu?$AAn?$AAt?$AAr?$AAy?$AA?0?$AA?5?$AA?$CI?$AAs?$AAi?$AAz@ 40098360     LIBCMTD:setlocal.obj
 0002:0000c428       ??_C@_1MM@BFEECMAF@?$AAs?$AAt?$AAr?$AAn?$AAc?$AAp?$AAy?$AA_?$AAs?$AA?$CI?$AAn?$AAa?$AAm?$AAe?$AAs?$AA?9?$AA?$DO?$AAs?$AAz?$AAL?$AAa?$AAn?$AAg?$AAu?$AAa?$AAg?$AAe?$AA?0?$AA?5?$AA?$CI?$AAs?$AAi@ 40098428     LIBCMTD:setlocal.obj
 0002:0000c4f4       ??_C@_03EGDHDPFD@_?4?0?$AA@ 400984f4     LIBCMTD:setlocal.obj
 0002:0000c4f8       ??_C@_1NG@FMOPGKGG@?$AAs?$AAt?$AAr?$AAn?$AAc?$AAp?$AAy?$AA_?$AAs?$AA?$CI?$AAn?$AAa?$AAm?$AAe?$AAs?$AA?9?$AA?$DO?$AAs?$AAz?$AAC?$AAo?$AAd?$AAe?$AAP?$AAa?$AAg?$AAe?$AA?0?$AA?5?$AA?$CI?$AAs?$AAi@ 400984f8     LIBCMTD:setlocal.obj
 0002:0000c5d0       ??_C@_1BK@CBMMLAGJ@?$AA_?$AA_?$AAl?$AAc?$AA_?$AAs?$AAt?$AAr?$AAt?$AAo?$AAl?$AAc?$AA?$AA@ 400985d0     LIBCMTD:setlocal.obj
 0002:0000c5ec       ??_C@_01IDAFKMJL@_?$AA@    400985ec     LIBCMTD:setlocal.obj
 0002:0000c5f0       ??_C@_1HC@IBDBLKCB@?$AAs?$AAt?$AAr?$AAc?$AAp?$AAy?$AA_?$AAs?$AA?$CI?$AAl?$AAo?$AAc?$AAa?$AAl?$AAe?$AA?0?$AA?5?$AAs?$AAi?$AAz?$AAe?$AAI?$AAn?$AAB?$AAy?$AAt?$AAe?$AAs?$AA?0?$AA?5?$AA?$CI?$AAc@ 400985f0     LIBCMTD:setlocal.obj
 0002:0000c664       ??_C@_1BK@FGDJDEPG@?$AA_?$AA_?$AAl?$AAc?$AA_?$AAl?$AAc?$AAt?$AAo?$AAs?$AAt?$AAr?$AA?$AA@ 40098664     LIBCMTD:setlocal.obj
 0002:0000c680       __indefinite               40098680     LIBCMTD:_87disp_.obj
 0002:0000c68a       __piby2                    4009868a     LIBCMTD:_87disp_.obj
 0002:0000c6b8       __DEFAULT_CW_in_mem        400986b8     LIBCMTD:_common_.obj
 0002:0000c6ba       __pi_by_2_to_61            400986ba     LIBCMTD:_common_.obj
 0002:0000c760       ??_C@_03IIINPABG@tan?$AA@  40098760     LIBCMTD:_libm_error_.obj
 0002:0000c764       ??_C@_03LALBNOCG@cos?$AA@  40098764     LIBCMTD:_libm_error_.obj
 0002:0000c768       ??_C@_03BLEJJJBH@sin?$AA@  40098768     LIBCMTD:_libm_error_.obj
 0002:0000c76c       ??_C@_04EHEDPDJG@modf?$AA@ 4009876c     LIBCMTD:_libm_error_.obj
 0002:0000c774       ??_C@_05PBJFFIGL@floor?$AA@ 40098774     LIBCMTD:_libm_error_.obj
 0002:0000c77c       ??_C@_04GFPJNGEK@ceil?$AA@ 4009877c     LIBCMTD:_libm_error_.obj
 0002:0000c784       ??_C@_04MLLJIGOK@atan?$AA@ 40098784     LIBCMTD:_libm_error_.obj
 0002:0000c78c       ??_C@_05EOHGHCHD@exp10?$AA@ 4009878c     LIBCMTD:_libm_error_.obj
 0002:0000c794       ??_C@_04PDIFKINK@acos?$AA@ 40098794     LIBCMTD:_libm_error_.obj
 0002:0000c79c       ??_C@_04FIHNOPOL@asin?$AA@ 4009879c     LIBCMTD:_libm_error_.obj
 0002:0000c7a4       ??_C@_03JGHBODFD@pow?$AA@  400987a4     LIBCMTD:_libm_error_.obj
 0002:0000c7a8       ??_C@_03KHJOGHMM@exp?$AA@  400987a8     LIBCMTD:_libm_error_.obj
 0002:0000c7ac       ??_C@_05HGHHAHAP@log10?$AA@ 400987ac     LIBCMTD:_libm_error_.obj
 0002:0000c7b4       ??_C@_03MGHMBJCF@log?$AA@  400987b4     LIBCMTD:_libm_error_.obj
 0002:0000d910       ??_C@_17LGKOMLJ@?$AA?4?$AA?4?$AA?4?$AA?$AA@ 40099910     LIBCMTD:dbgrptw.obj
 0002:0000d918       ??_C@_1CC@CGHMNGDG@?$AAA?$AAs?$AAs?$AAe?$AAr?$AAt?$AAi?$AAo?$AAn?$AA?5?$AAF?$AAa?$AAi?$AAl?$AAe?$AAd?$AA?$AA@ 40099918     LIBCMTD:dbgrptw.obj
 0002:0000d93c       ??_C@_1M@ILHOPKA@?$AAE?$AAr?$AAr?$AAo?$AAr?$AA?$AA@ 4009993c     LIBCMTD:dbgrptw.obj
 0002:0000d948       ??_C@_1BA@GLMCNLEM@?$AAW?$AAa?$AAr?$AAn?$AAi?$AAn?$AAg?$AA?$AA@ 40099948     LIBCMTD:dbgrptw.obj
 0002:0000d964       ??_C@_0DA@PCCBBBID@f?3?2dd?2vctools?2crt_bld?2self_x86?2c@ 40099964     LIBCMTD:dbgrptw.obj
 0002:0000d998       ??_C@_1FI@PHIAFFHM@?$AA?$CI?$AA?$CC?$AAT?$AAh?$AAe?$AA?5?$AAh?$AAo?$AAo?$AAk?$AA?5?$AAf?$AAu?$AAn?$AAc?$AAt?$AAi?$AAo?$AAn?$AA?5?$AAi?$AAs?$AA?5?$AAn?$AAo?$AAt?$AA?5?$AAi?$AAn?$AA?5?$AAt?$AAh@ 40099998     LIBCMTD:dbgrptw.obj
 0002:0000d9f0       ??_C@_1CG@JBJEFOCM@?$AAp?$AAf?$AAn?$AAN?$AAe?$AAw?$AAH?$AAo?$AAo?$AAk?$AA?5?$AA?$CB?$AA?$DN?$AA?5?$AAN?$AAU?$AAL?$AAL?$AA?$AA@ 400999f0     LIBCMTD:dbgrptw.obj
 0002:0000da18       ??_C@_1CI@IIHEAKEI@?$AA_?$AAC?$AAr?$AAt?$AAS?$AAe?$AAt?$AAR?$AAe?$AAp?$AAo?$AAr?$AAt?$AAH?$AAo?$AAo?$AAk?$AAW?$AA2?$AA?$AA@ 40099a18     LIBCMTD:dbgrptw.obj
 0002:0000da40       ??_C@_1GA@IBJGKIFE@?$AAf?$AA?3?$AA?2?$AAd?$AAd?$AA?2?$AAv?$AAc?$AAt?$AAo?$AAo?$AAl?$AAs?$AA?2?$AAc?$AAr?$AAt?$AA_?$AAb?$AAl?$AAd?$AA?2?$AAs?$AAe?$AAl?$AAf?$AA_?$AAx?$AA8?$AA6?$AA?2?$AAc@ 40099a40     LIBCMTD:dbgrptw.obj
 0002:0000daa0       ??_C@_1HI@OFEHGPPC@?$AAm?$AAo?$AAd?$AAe?$AA?5?$AA?$DN?$AA?$DN?$AA?5?$AA_?$AAC?$AAR?$AAT?$AA_?$AAR?$AAP?$AAT?$AAH?$AAO?$AAO?$AAK?$AA_?$AAI?$AAN?$AAS?$AAT?$AAA?$AAL?$AAL?$AA?5?$AA?$HM?$AA?$HM?$AA?5@ 40099aa0     LIBCMTD:dbgrptw.obj
 0002:0000db18       ??_C@_1EG@PEOEAKBB@?$AAM?$AAi?$AAc?$AAr?$AAo?$AAs?$AAo?$AAf?$AAt?$AA?5?$AAV?$AAi?$AAs?$AAu?$AAa?$AAl?$AA?5?$AAC?$AA?$CL?$AA?$CL?$AA?5?$AAD?$AAe?$AAb?$AAu?$AAg?$AA?5?$AAL?$AAi?$AAb?$AAr?$AAa@ 40099b18     LIBCMTD:dbgrptw.obj
 0002:0000db60       ??_C@_1FG@BBOLDHGF@?$AA_?$AAC?$AAr?$AAt?$AAD?$AAb?$AAg?$AAR?$AAe?$AAp?$AAo?$AAr?$AAt?$AA?3?$AA?5?$AAS?$AAt?$AAr?$AAi?$AAn?$AAg?$AA?5?$AAt?$AAo?$AAo?$AA?5?$AAl?$AAo?$AAn?$AAg?$AA?5?$AAo@ 40099b60     LIBCMTD:dbgrptw.obj
 0002:0000dbb8       ??_C@_1JI@EACPGHID@?$AAw?$AAc?$AAs?$AAc?$AAp?$AAy?$AA_?$AAs?$AA?$CI?$AAs?$AAz?$AAO?$AAu?$AAt?$AAM?$AAe?$AAs?$AAs?$AAa?$AAg?$AAe?$AA?0?$AA?5?$AA4?$AA0?$AA9?$AA6?$AA?0?$AA?5?$AAL?$AA?$CC?$AA_@ 40099bb8     LIBCMTD:dbgrptw.obj
 0002:0000dc50       ??_C@_1BI@KALLJECN@?$AA?$CI?$AA?$CK?$AA_?$AAe?$AAr?$AAr?$AAn?$AAo?$AA?$CI?$AA?$CJ?$AA?$CJ?$AA?$AA@ 40099c50     LIBCMTD:dbgrptw.obj
 0002:0000dc68       ??_C@_1KK@MEFMPOLM@?$AAD?$AAe?$AAb?$AAu?$AAg?$AA?5?$AA?$CF?$AAs?$AA?$CB?$AA?6?$AA?6?$AAP?$AAr?$AAo?$AAg?$AAr?$AAa?$AAm?$AA?3?$AA?5?$AA?$CF?$AAs?$AA?$CF?$AAs?$AA?$CF?$AAs?$AA?$CF?$AAs?$AA?$CF?$AAs?$AA?$CF?$AAs@ 40099c68     LIBCMTD:dbgrptw.obj
 0002:0000dd14       ??_C@_1BE@CGCJKGHI@?$AA?6?$AAM?$AAo?$AAd?$AAu?$AAl?$AAe?$AA?3?$AA?5?$AA?$AA@ 40099d14     LIBCMTD:dbgrptw.obj
 0002:0000dd28       ??_C@_1BA@LNHECFIM@?$AA?6?$AAF?$AAi?$AAl?$AAe?$AA?3?$AA?5?$AA?$AA@ 40099d28     LIBCMTD:dbgrptw.obj
 0002:0000dd38       ??_C@_1BA@GLLGCPCK@?$AA?6?$AAL?$AAi?$AAn?$AAe?$AA?3?$AA?5?$AA?$AA@ 40099d38     LIBCMTD:dbgrptw.obj
 0002:0000dd48       ??_C@_15IABLJNFO@?$AA?6?$AA?6?$AA?$AA@ 40099d48     LIBCMTD:dbgrptw.obj
 0002:0000dd50       ??_C@_1BK@PEDCIPMA@?$AAE?$AAx?$AAp?$AAr?$AAe?$AAs?$AAs?$AAi?$AAo?$AAn?$AA?3?$AA?5?$AA?$AA@ 40099d50     LIBCMTD:dbgrptw.obj
 0002:0000dd6c       ??_C@_11LOCGONAA@?$AA?$AA@ 40099d6c     LIBCMTD:dbgrptw.obj
 0002:0000dd70       ??_C@_1OG@PMPPFHAF@?$AA?6?$AA?6?$AAF?$AAo?$AAr?$AA?5?$AAi?$AAn?$AAf?$AAo?$AAr?$AAm?$AAa?$AAt?$AAi?$AAo?$AAn?$AA?5?$AAo?$AAn?$AA?5?$AAh?$AAo?$AAw?$AA?5?$AAy?$AAo?$AAu?$AAr?$AA?5?$AAp?$AAr@ 40099d70     LIBCMTD:dbgrptw.obj
 0002:0000de58       ??_C@_1NO@LECLLHOL@?$AAm?$AAe?$AAm?$AAc?$AAp?$AAy?$AA_?$AAs?$AA?$CI?$AAs?$AAz?$AAS?$AAh?$AAo?$AAr?$AAt?$AAP?$AAr?$AAo?$AAg?$AAN?$AAa?$AAm?$AAe?$AA?0?$AA?5?$AAs?$AAi?$AAz?$AAe?$AAo?$AAf@ 40099e58     LIBCMTD:dbgrptw.obj
 0002:0000df38       ??_C@_1CO@EAEJAADC@?$AA?$DM?$AAp?$AAr?$AAo?$AAg?$AAr?$AAa?$AAm?$AA?5?$AAn?$AAa?$AAm?$AAe?$AA?5?$AAu?$AAn?$AAk?$AAn?$AAo?$AAw?$AAn?$AA?$DO?$AA?$AA@ 40099f38     LIBCMTD:dbgrptw.obj
 0002:0000df68       ??_C@_1GI@DEDNNLCI@?$AAw?$AAc?$AAs?$AAc?$AAp?$AAy?$AA_?$AAs?$AA?$CI?$AAs?$AAz?$AAE?$AAx?$AAe?$AAN?$AAa?$AAm?$AAe?$AA?0?$AA?5?$AA2?$AA6?$AA0?$AA?0?$AA?5?$AAL?$AA?$CC?$AA?$DM?$AAp?$AAr?$AAo?$AAg@ 40099f68     LIBCMTD:dbgrptw.obj
 0002:0000dfd0       ??_C@_1CI@PGJIFDEK@?$AA_?$AA_?$AAc?$AAr?$AAt?$AAM?$AAe?$AAs?$AAs?$AAa?$AAg?$AAe?$AAW?$AAi?$AAn?$AAd?$AAo?$AAw?$AAW?$AA?$AA@ 40099fd0     LIBCMTD:dbgrptw.obj
 0002:0000dff8       ??_C@_1BO@IHLJHOPI@?$AA_?$AA_?$AAs?$AAt?$AAr?$AAg?$AAt?$AAo?$AAl?$AAd?$AA1?$AA2?$AA_?$AAl?$AA?$AA@ 40099ff8     LIBCMTD:_strgtold_.obj
 0002:0000e018       ??_C@_1IG@IGKPPFIM@?$AAf?$AA?3?$AA?2?$AAd?$AAd?$AA?2?$AAv?$AAc?$AAt?$AAo?$AAo?$AAl?$AAs?$AA?2?$AAc?$AAr?$AAt?$AA_?$AAb?$AAl?$AAd?$AA?2?$AAs?$AAe?$AAl?$AAf?$AA_?$AAx?$AA8?$AA6?$AA?2?$AAc@ 4009a018     LIBCMTD:_strgtold_.obj
 0002:0000e0a0       ??_C@_1CA@MBDBOHIB@?$AA_?$AAL?$AAo?$AAc?$AAa?$AAl?$AAe?$AA?5?$AA?$CB?$AA?$DN?$AA?5?$AAN?$AAU?$AAL?$AAL?$AA?$AA@ 4009a0a0     LIBCMTD:_strgtold_.obj
 0002:0000e0c0       ??_C@_1HO@MLMGPAFH@?$AA?$CI?$AA?$CC?$AAi?$AAn?$AAc?$AAo?$AAn?$AAs?$AAi?$AAs?$AAt?$AAe?$AAn?$AAt?$AA?5?$AAI?$AAO?$AAB?$AA?5?$AAf?$AAi?$AAe?$AAl?$AAd?$AAs?$AA?$CC?$AA?0?$AA?5?$AAs?$AAt?$AAr?$AAe@ 4009a0c0     LIBCMTD:_flsbuf.obj
 0002:0000e140       ??_C@_1GC@GNCCMPNN@?$AAf?$AA?3?$AA?2?$AAd?$AAd?$AA?2?$AAv?$AAc?$AAt?$AAo?$AAo?$AAl?$AAs?$AA?2?$AAc?$AAr?$AAt?$AA_?$AAb?$AAl?$AAd?$AA?2?$AAs?$AAe?$AAl?$AAf?$AA_?$AAx?$AA8?$AA6?$AA?2?$AAc@ 4009a140     LIBCMTD:_flsbuf.obj
 0002:0000e1a4       ??_C@_1BI@MFCLPIBM@?$AAs?$AAt?$AAr?$AA?5?$AA?$CB?$AA?$DN?$AA?5?$AAN?$AAU?$AAL?$AAL?$AA?$AA@ 4009a1a4     LIBCMTD:_flsbuf.obj
 0002:0000e1bc       ??_C@_1O@CEDCILHN@?$AA?$CI?$AAn?$AAu?$AAl?$AAl?$AA?$CJ?$AA?$AA@ 4009a1bc     LIBCMTD:output.obj
 0002:0000e1cc       ??_C@_06OJHGLDPL@?$CInull?$CJ?$AA@ 4009a1cc     LIBCMTD:output.obj
 0002:0000e1d8       ___lookuptable             4009a1d8     LIBCMTD:output.obj
 0002:0000e234       ??_C@_0DA@NFBEBPEE@f?3?2dd?2vctools?2crt_bld?2self_x86?2c@ 4009a234     LIBCMTD:output.obj
 0002:0000e268       ??_C@_1EK@PNGFDECN@?$AA?$CI?$AA?$CC?$AA?8?$AAn?$AA?8?$AA?5?$AAf?$AAo?$AAr?$AAm?$AAa?$AAt?$AA?5?$AAs?$AAp?$AAe?$AAc?$AAi?$AAf?$AAi?$AAe?$AAr?$AA?5?$AAd?$AAi?$AAs?$AAa?$AAb?$AAl?$AAe?$AAd?$AA?$CC@ 4009a268     LIBCMTD:output.obj
 0002:0000e2b4       ??_C@_1CC@IFFHEMNF@?$AA?$CI?$AAc?$AAh?$AA?5?$AA?$CB?$AA?$DN?$AA?5?$AA_?$AAT?$AA?$CI?$AA?8?$AA?2?$AA0?$AA?8?$AA?$CJ?$AA?$CJ?$AA?$AA@ 4009a2b4     LIBCMTD:output.obj
 0002:0000e2d8       ??_C@_1BAA@ODEGEDCK@?$AA?$CI?$AA?5?$AA?$CI?$AA_?$AAS?$AAt?$AAr?$AAe?$AAa?$AAm?$AA?9?$AA?$DO?$AA_?$AAf?$AAl?$AAa?$AAg?$AA?5?$AA?$CG?$AA?5?$AA_?$AAI?$AAO?$AAS?$AAT?$AAR?$AAG?$AA?$CJ?$AA?5?$AA?$HM?$AA?$HM?$AA?5@ 4009a2d8     LIBCMTD:output.obj
 0002:0000e3d8       ??_C@_1BE@IONLIDNC@?$AA_?$AAo?$AAu?$AAt?$AAp?$AAu?$AAt?$AA_?$AAl?$AA?$AA@ 4009a3d8     LIBCMTD:output.obj
 0002:0000e3f0       ??_C@_1GA@HHFOFBLN@?$AAf?$AA?3?$AA?2?$AAd?$AAd?$AA?2?$AAv?$AAc?$AAt?$AAo?$AAo?$AAl?$AAs?$AA?2?$AAc?$AAr?$AAt?$AA_?$AAb?$AAl?$AAd?$AA?2?$AAs?$AAe?$AAl?$AAf?$AA_?$AAx?$AA8?$AA6?$AA?2?$AAc@ 4009a3f0     LIBCMTD:output.obj
 0002:0000e450       ??_C@_1CC@FADMNIL@?$AA?$CI?$AAs?$AAt?$AAr?$AAe?$AAa?$AAm?$AA?5?$AA?$CB?$AA?$DN?$AA?5?$AAN?$AAU?$AAL?$AAL?$AA?$CJ?$AA?$AA@ 4009a450     LIBCMTD:output.obj
 0002:0000e5d0       __OP_ATAN2jmptab           4009a5d0     LIBCMTD:_87triga_.obj
 0002:0000e650       ??_C@_1FK@BCPANIEK@?$AA?$CI?$AA?$CC?$AAM?$AAi?$AAs?$AAs?$AAi?$AAn?$AAg?$AA?5?$AAp?$AAo?$AAs?$AAi?$AAt?$AAi?$AAo?$AAn?$AA?5?$AAi?$AAn?$AA?5?$AAt?$AAh?$AAe?$AA?5?$AAf?$AAo?$AAr?$AAm?$AAa?$AAt@ 4009a650     LIBCMTD:outputp.obj
 0002:0000e6b0       ??_C@_1FK@LNCFKALM@?$AA?$CI?$AA?$CI?$AAs?$AAt?$AAa?$AAt?$AAe?$AA?5?$AA?$DN?$AA?$DN?$AA?5?$AAS?$AAT?$AA_?$AAN?$AAO?$AAR?$AAM?$AAA?$AAL?$AA?$CJ?$AA?5?$AA?$HM?$AA?$HM?$AA?5?$AA?$CI?$AAs?$AAt?$AAa?$AAt?$AAe?$AA?5@ 4009a6b0     LIBCMTD:outputp.obj
 0002:0000e710       ??_C@_1JC@OACKELNN@?$AA_?$AAt?$AAv?$AAa?$AAl?$AAi?$AAd?$AAa?$AAt?$AAe?$AA_?$AAp?$AAa?$AAr?$AAa?$AAm?$AA_?$AAr?$AAe?$AAu?$AAs?$AAe?$AA?$CI?$AA?$CG?$AAp?$AAo?$AAs?$AA_?$AAv?$AAa?$AAl?$AAu@ 4009a710     LIBCMTD:outputp.obj
 0002:0000e7a8       ??_C@_1IK@NBGDDCBN@?$AA_?$AAt?$AAv?$AAa?$AAl?$AAi?$AAd?$AAa?$AAt?$AAe?$AA_?$AAp?$AAa?$AAr?$AAa?$AAm?$AA_?$AAr?$AAe?$AAu?$AAs?$AAe?$AA?$CI?$AA?$CG?$AAp?$AAo?$AAs?$AA_?$AAv?$AAa?$AAl?$AAu@ 4009a7a8     LIBCMTD:outputp.obj
 0002:0000e834       ??_C@_1DG@GOHGNKHE@?$AAp?$AAa?$AAs?$AAs?$AA?5?$AA?$DN?$AA?$DN?$AA?5?$AAF?$AAO?$AAR?$AAM?$AAA?$AAT?$AA_?$AAO?$AAU?$AAT?$AAP?$AAU?$AAT?$AA_?$AAP?$AAA?$AAS?$AAS?$AA?$AA@ 4009a834     LIBCMTD:outputp.obj
 0002:0000e870       ??_C@_1IM@DNGHAPLB@?$AA_?$AAt?$AAv?$AAa?$AAl?$AAi?$AAd?$AAa?$AAt?$AAe?$AA_?$AAp?$AAa?$AAr?$AAa?$AAm?$AA_?$AAr?$AAe?$AAu?$AAs?$AAe?$AA?$CI?$AA?$CG?$AAp?$AAo?$AAs?$AA_?$AAv?$AAa?$AAl?$AAu@ 4009a870     LIBCMTD:outputp.obj
 0002:0000e900       ??_C@_1IG@HJIMKDHC@?$AA_?$AAt?$AAv?$AAa?$AAl?$AAi?$AAd?$AAa?$AAt?$AAe?$AA_?$AAp?$AAa?$AAr?$AAa?$AAm?$AA_?$AAr?$AAe?$AAu?$AAs?$AAe?$AA?$CI?$AA?$CG?$AAp?$AAo?$AAs?$AA_?$AAv?$AAa?$AAl?$AAu@ 4009a900     LIBCMTD:outputp.obj
 0002:0000e988       ??_C@_1IG@FDCPLALG@?$AA_?$AAt?$AAv?$AAa?$AAl?$AAi?$AAd?$AAa?$AAt?$AAe?$AA_?$AAp?$AAa?$AAr?$AAa?$AAm?$AA_?$AAr?$AAe?$AAu?$AAs?$AAe?$AA?$CI?$AA?$CG?$AAp?$AAo?$AAs?$AA_?$AAv?$AAa?$AAl?$AAu@ 4009a988     LIBCMTD:outputp.obj
 0002:0000ea10       ??_C@_1IK@MHEDJAMK@?$AA_?$AAt?$AAv?$AAa?$AAl?$AAi?$AAd?$AAa?$AAt?$AAe?$AA_?$AAp?$AAa?$AAr?$AAa?$AAm?$AA_?$AAr?$AAe?$AAu?$AAs?$AAe?$AA?$CI?$AA?$CG?$AAp?$AAo?$AAs?$AA_?$AAv?$AAa?$AAl?$AAu@ 4009aa10     LIBCMTD:outputp.obj
 0002:0000eaa0       ??_C@_1EM@BNPHBBIA@?$AA?$CI?$AA?$CI?$AAt?$AAy?$AAp?$AAe?$AA_?$AAp?$AAo?$AAs?$AA?$DO?$AA?$DN?$AA0?$AA?$CJ?$AA?5?$AA?$CG?$AA?$CG?$AA?5?$AA?$CI?$AAt?$AAy?$AAp?$AAe?$AA_?$AAp?$AAo?$AAs?$AA?$DM?$AA_?$AAA?$AAR?$AAG@ 4009aaa0     LIBCMTD:outputp.obj
 0002:0000eaf0       ??_C@_1IK@EIEPDKHJ@?$AA_?$AAt?$AAv?$AAa?$AAl?$AAi?$AAd?$AAa?$AAt?$AAe?$AA_?$AAp?$AAa?$AAr?$AAa?$AAm?$AA_?$AAr?$AAe?$AAu?$AAs?$AAe?$AA?$CI?$AA?$CG?$AAp?$AAo?$AAs?$AA_?$AAv?$AAa?$AAl?$AAu@ 4009aaf0     LIBCMTD:outputp.obj
 0002:0000eb80       ??_C@_1JG@JBJBOCFB@?$AA?$CI?$AA?$CI?$AAp?$AAr?$AAe?$AAc?$AAi?$AAs?$AA_?$AAp?$AAo?$AAs?$AA?5?$AA?$DO?$AA?$DN?$AA?5?$AA0?$AA?$CJ?$AA?5?$AA?$CG?$AA?$CG?$AA?5?$AA?$CI?$AA?$CK?$AAe?$AAn?$AAd?$AA_?$AAp?$AAo?$AAs?$AA?5@ 4009ab80     LIBCMTD:outputp.obj
 0002:0000ec18       ??_C@_1II@PIPIMLPF@?$AA_?$AAt?$AAv?$AAa?$AAl?$AAi?$AAd?$AAa?$AAt?$AAe?$AA_?$AAp?$AAa?$AAr?$AAa?$AAm?$AA_?$AAr?$AAe?$AAu?$AAs?$AAe?$AA?$CI?$AA?$CG?$AAp?$AAo?$AAs?$AA_?$AAv?$AAa?$AAl?$AAu@ 4009ac18     LIBCMTD:outputp.obj
 0002:0000eca0       ??_C@_1JE@NMBHOLFI@?$AA?$CI?$AA?$CI?$AAw?$AAi?$AAd?$AAt?$AAh?$AA_?$AAp?$AAo?$AAs?$AA?5?$AA?$DO?$AA?$DN?$AA?5?$AA0?$AA?$CJ?$AA?5?$AA?$CG?$AA?$CG?$AA?5?$AA?$CI?$AA?$CK?$AAe?$AAn?$AAd?$AA_?$AAp?$AAo?$AAs?$AA?5?$AA?$DN@ 4009aca0     LIBCMTD:outputp.obj
 0002:0000ed38       ??_C@_1EE@DMAIGNBG@?$AA?$CI?$AA?$CC?$AAI?$AAn?$AAc?$AAo?$AAr?$AAr?$AAe?$AAc?$AAt?$AA?5?$AAf?$AAo?$AAr?$AAm?$AAa?$AAt?$AA?5?$AAs?$AAp?$AAe?$AAc?$AAi?$AAf?$AAi?$AAe?$AAr?$AA?$CC?$AA?0?$AA?5?$AA0@ 4009ad38     LIBCMTD:outputp.obj
 0002:0000ed80       ??_C@_1JC@PFJNKEIO@?$AA?$CI?$AA?$CI?$AAt?$AAy?$AAp?$AAe?$AA_?$AAp?$AAo?$AAs?$AA?5?$AA?$DO?$AA?$DN?$AA?5?$AA0?$AA?$CJ?$AA?5?$AA?$CG?$AA?$CG?$AA?5?$AA?$CI?$AA?$CK?$AAe?$AAn?$AAd?$AA_?$AAp?$AAo?$AAs?$AA?5?$AA?$DN?$AA?$DN@ 4009ad80     LIBCMTD:outputp.obj
 0002:0000ee14       ??_C@_1BI@KANOLAMF@?$AA_?$AAo?$AAu?$AAt?$AAp?$AAu?$AAt?$AA_?$AAp?$AA_?$AAl?$AA?$AA@ 4009ae14     LIBCMTD:outputp.obj
 0002:0000ee64       ??_C@_01KDCPPGHE@r?$AA@    4009ae64     LIBCMTD:_pdblkup_.obj
 0002:0000ee68       ??_C@_0BB@KCIACLNC@PDBOpenValidate5?$AA@ 4009ae68     LIBCMTD:_pdblkup_.obj
 0002:0000ee7c       ??_C@_1CK@HHHCOJPD@?$AAE?$AAn?$AAv?$AAi?$AAr?$AAo?$AAn?$AAm?$AAe?$AAn?$AAt?$AAD?$AAi?$AAr?$AAe?$AAc?$AAt?$AAo?$AAr?$AAy?$AA?$AA@ 4009ae7c     LIBCMTD:_pdblkup_.obj
 0002:0000eea8       ??_C@_1FM@DNCABAP@?$AAS?$AAO?$AAF?$AAT?$AAW?$AAA?$AAR?$AAE?$AA?2?$AAM?$AAi?$AAc?$AAr?$AAo?$AAs?$AAo?$AAf?$AAt?$AA?2?$AAV?$AAi?$AAs?$AAu?$AAa?$AAl?$AAS?$AAt?$AAu?$AAd?$AAi?$AAo?$AA?2@ 4009aea8     LIBCMTD:_pdblkup_.obj
 0002:0000ef04       ??_C@_0M@HLOHPNFA@RegCloseKey?$AA@ 4009af04     LIBCMTD:_pdblkup_.obj
 0002:0000ef10       ??_C@_0BB@GLNAEDBD@RegQueryValueExW?$AA@ 4009af10     LIBCMTD:_pdblkup_.obj
 0002:0000ef24       ??_C@_0O@COHOBMLB@RegOpenKeyExW?$AA@ 4009af24     LIBCMTD:_pdblkup_.obj
 0002:0000ef34       ??_C@_1BK@GAEMIDIL@?$AAA?$AAD?$AAV?$AAA?$AAP?$AAI?$AA3?$AA2?$AA?4?$AAD?$AAL?$AAL?$AA?$AA@ 4009af34     LIBCMTD:_pdblkup_.obj
 0002:0000ef6c       ??_C@_0DA@HMCPFNKN@f?3?2dd?2vctools?2crt_bld?2self_x86?2c@ 4009af6c     LIBCMTD:onexit.obj
 0002:0000ef9c       ??_C@_1BO@BKOMIGKJ@?$AAr?$AAu?$AAn?$AAt?$AAi?$AAm?$AAe?$AA?5?$AAe?$AAr?$AAr?$AAo?$AAr?$AA?5?$AA?$AA@ 4009af9c     LIBCMTD:crt0msg.obj
 0002:0000efbc       ??_C@_15JNBOKNOG@?$AA?$AN?$AA?6?$AA?$AA@ 4009afbc     LIBCMTD:crt0msg.obj
 0002:0000efc4       ??_C@_1BM@JBBEPPHI@?$AAT?$AAL?$AAO?$AAS?$AAS?$AA?5?$AAe?$AAr?$AAr?$AAo?$AAr?$AA?$AN?$AA?6?$AA?$AA@ 4009afc4     LIBCMTD:crt0msg.obj
 0002:0000efe0       ??_C@_1BK@KMOMNAAI@?$AAS?$AAI?$AAN?$AAG?$AA?5?$AAe?$AAr?$AAr?$AAo?$AAr?$AA?$AN?$AA?6?$AA?$AA@ 4009afe0     LIBCMTD:crt0msg.obj
 0002:0000effc       ??_C@_1BO@BFCDCGC@?$AAD?$AAO?$AAM?$AAA?$AAI?$AAN?$AA?5?$AAe?$AAr?$AAr?$AAo?$AAr?$AA?$AN?$AA?6?$AA?$AA@ 4009affc     LIBCMTD:crt0msg.obj
 0002:0000f020       ??_C@_1BOO@KGEDBGAJ@?$AAR?$AA6?$AA0?$AA3?$AA3?$AA?$AN?$AA?6?$AA?9?$AA?5?$AAA?$AAt?$AAt?$AAe?$AAm?$AAp?$AAt?$AA?5?$AAt?$AAo?$AA?5?$AAu?$AAs?$AAe?$AA?5?$AAM?$AAS?$AAI?$AAL?$AA?5?$AAc?$AAo?$AAd@ 4009b020     LIBCMTD:crt0msg.obj
 0002:0000f210       ??_C@_1GG@GOPILAJP@?$AAR?$AA6?$AA0?$AA3?$AA2?$AA?$AN?$AA?6?$AA?9?$AA?5?$AAn?$AAo?$AAt?$AA?5?$AAe?$AAn?$AAo?$AAu?$AAg?$AAh?$AA?5?$AAs?$AAp?$AAa?$AAc?$AAe?$AA?5?$AAf?$AAo?$AAr?$AA?5?$AAl?$AAo@ 4009b210     LIBCMTD:crt0msg.obj
 0002:0000f278       ??_C@_1MG@ENCOOIDF@?$AAR?$AA6?$AA0?$AA3?$AA1?$AA?$AN?$AA?6?$AA?9?$AA?5?$AAA?$AAt?$AAt?$AAe?$AAm?$AAp?$AAt?$AA?5?$AAt?$AAo?$AA?5?$AAi?$AAn?$AAi?$AAt?$AAi?$AAa?$AAl?$AAi?$AAz?$AAe?$AA?5?$AAt@ 4009b278     LIBCMTD:crt0msg.obj
 0002:0000f340       ??_C@_1DO@BMFCDCD@?$AAR?$AA6?$AA0?$AA3?$AA0?$AA?$AN?$AA?6?$AA?9?$AA?5?$AAC?$AAR?$AAT?$AA?5?$AAn?$AAo?$AAt?$AA?5?$AAi?$AAn?$AAi?$AAt?$AAi?$AAa?$AAl?$AAi?$AAz?$AAe?$AAd?$AA?$AN?$AA?6?$AA?$AA@ 4009b340     LIBCMTD:crt0msg.obj
 0002:0000f380       ??_C@_1EK@HHFLMAOL@?$AAR?$AA6?$AA0?$AA2?$AA8?$AA?$AN?$AA?6?$AA?9?$AA?5?$AAu?$AAn?$AAa?$AAb?$AAl?$AAe?$AA?5?$AAt?$AAo?$AA?5?$AAi?$AAn?$AAi?$AAt?$AAi?$AAa?$AAl?$AAi?$AAz?$AAe?$AA?5?$AAh?$AAe@ 4009b380     LIBCMTD:crt0msg.obj
 0002:0000f3d0       ??_C@_1GK@MFGOKLAG@?$AAR?$AA6?$AA0?$AA2?$AA7?$AA?$AN?$AA?6?$AA?9?$AA?5?$AAn?$AAo?$AAt?$AA?5?$AAe?$AAn?$AAo?$AAu?$AAg?$AAh?$AA?5?$AAs?$AAp?$AAa?$AAc?$AAe?$AA?5?$AAf?$AAo?$AAr?$AA?5?$AAl?$AAo@ 4009b3d0     LIBCMTD:crt0msg.obj
 0002:0000f440       ??_C@_1GK@MCAAGJMO@?$AAR?$AA6?$AA0?$AA2?$AA6?$AA?$AN?$AA?6?$AA?9?$AA?5?$AAn?$AAo?$AAt?$AA?5?$AAe?$AAn?$AAo?$AAu?$AAg?$AAh?$AA?5?$AAs?$AAp?$AAa?$AAc?$AAe?$AA?5?$AAf?$AAo?$AAr?$AA?5?$AAs?$AAt@ 4009b440     LIBCMTD:crt0msg.obj
 0002:0000f4b0       ??_C@_1EM@MAADIHMB@?$AAR?$AA6?$AA0?$AA2?$AA5?$AA?$AN?$AA?6?$AA?9?$AA?5?$AAp?$AAu?$AAr?$AAe?$AA?5?$AAv?$AAi?$AAr?$AAt?$AAu?$AAa?$AAl?$AA?5?$AAf?$AAu?$AAn?$AAc?$AAt?$AAi?$AAo?$AAn?$AA?5?$AAc@ 4009b4b0     LIBCMTD:crt0msg.obj
 0002:0000f500       ??_C@_1GK@FHCKBEFA@?$AAR?$AA6?$AA0?$AA2?$AA4?$AA?$AN?$AA?6?$AA?9?$AA?5?$AAn?$AAo?$AAt?$AA?5?$AAe?$AAn?$AAo?$AAu?$AAg?$AAh?$AA?5?$AAs?$AAp?$AAa?$AAc?$AAe?$AA?5?$AAf?$AAo?$AAr?$AA?5?$AA_?$AAo@ 4009b500     LIBCMTD:crt0msg.obj
 0002:0000f570       ??_C@_1FC@ECHBIFBC@?$AAR?$AA6?$AA0?$AA1?$AA9?$AA?$AN?$AA?6?$AA?9?$AA?5?$AAu?$AAn?$AAa?$AAb?$AAl?$AAe?$AA?5?$AAt?$AAo?$AA?5?$AAo?$AAp?$AAe?$AAn?$AA?5?$AAc?$AAo?$AAn?$AAs?$AAo?$AAl?$AAe?$AA?5@ 4009b570     LIBCMTD:crt0msg.obj
 0002:0000f5c8       ??_C@_1EC@JIBHAOPH@?$AAR?$AA6?$AA0?$AA1?$AA8?$AA?$AN?$AA?6?$AA?9?$AA?5?$AAu?$AAn?$AAe?$AAx?$AAp?$AAe?$AAc?$AAt?$AAe?$AAd?$AA?5?$AAh?$AAe?$AAa?$AAp?$AA?5?$AAe?$AAr?$AAr?$AAo?$AAr?$AA?$AN?$AA?6@ 4009b5c8     LIBCMTD:crt0msg.obj
 0002:0000f610       ??_C@_1FK@BEOGODMC@?$AAR?$AA6?$AA0?$AA1?$AA7?$AA?$AN?$AA?6?$AA?9?$AA?5?$AAu?$AAn?$AAe?$AAx?$AAp?$AAe?$AAc?$AAt?$AAe?$AAd?$AA?5?$AAm?$AAu?$AAl?$AAt?$AAi?$AAt?$AAh?$AAr?$AAe?$AAa?$AAd?$AA?5@ 4009b610     LIBCMTD:crt0msg.obj
 0002:0000f670       ??_C@_1FI@LOGNIKDM@?$AAR?$AA6?$AA0?$AA1?$AA6?$AA?$AN?$AA?6?$AA?9?$AA?5?$AAn?$AAo?$AAt?$AA?5?$AAe?$AAn?$AAo?$AAu?$AAg?$AAh?$AA?5?$AAs?$AAp?$AAa?$AAc?$AAe?$AA?5?$AAf?$AAo?$AAr?$AA?5?$AAt?$AAh@ 4009b670     LIBCMTD:crt0msg.obj
 0002:0000f6c8       ??_C@_1EG@BEHAGFJD@?$AAR?$AA6?$AA0?$AA1?$AA0?$AA?$AN?$AA?6?$AA?9?$AA?5?$AAa?$AAb?$AAo?$AAr?$AAt?$AA?$CI?$AA?$CJ?$AA?5?$AAh?$AAa?$AAs?$AA?5?$AAb?$AAe?$AAe?$AAn?$AA?5?$AAc?$AAa?$AAl?$AAl?$AAe?$AAd@ 4009b6c8     LIBCMTD:crt0msg.obj
 0002:0000f710       ??_C@_1FI@HONFMGBI@?$AAR?$AA6?$AA0?$AA0?$AA9?$AA?$AN?$AA?6?$AA?9?$AA?5?$AAn?$AAo?$AAt?$AA?5?$AAe?$AAn?$AAo?$AAu?$AAg?$AAh?$AA?5?$AAs?$AAp?$AAa?$AAc?$AAe?$AA?5?$AAf?$AAo?$AAr?$AA?5?$AAe?$AAn@ 4009b710     LIBCMTD:crt0msg.obj
 0002:0000f768       ??_C@_1FE@LLNEDJMD@?$AAR?$AA6?$AA0?$AA0?$AA8?$AA?$AN?$AA?6?$AA?9?$AA?5?$AAn?$AAo?$AAt?$AA?5?$AAe?$AAn?$AAo?$AAu?$AAg?$AAh?$AA?5?$AAs?$AAp?$AAa?$AAc?$AAe?$AA?5?$AAf?$AAo?$AAr?$AA?5?$AAa?$AAr@ 4009b768     LIBCMTD:crt0msg.obj
 0002:0000f7c0       ??_C@_1FK@PGACCAFB@?$AAR?$AA6?$AA0?$AA0?$AA2?$AA?$AN?$AA?6?$AA?9?$AA?5?$AAf?$AAl?$AAo?$AAa?$AAt?$AAi?$AAn?$AAg?$AA?5?$AAp?$AAo?$AAi?$AAn?$AAt?$AA?5?$AAs?$AAu?$AAp?$AAp?$AAo?$AAr?$AAt?$AA?5@ 4009b7c0     LIBCMTD:crt0msg.obj
 0002:0000f8d0       ??_C@_1EK@MBDPDCGA@?$AAM?$AAi?$AAc?$AAr?$AAo?$AAs?$AAo?$AAf?$AAt?$AA?5?$AAV?$AAi?$AAs?$AAu?$AAa?$AAl?$AA?5?$AAC?$AA?$CL?$AA?$CL?$AA?5?$AAR?$AAu?$AAn?$AAt?$AAi?$AAm?$AAe?$AA?5?$AAL?$AAi?$AAb@ 4009b8d0     LIBCMTD:crt0msg.obj
 0002:0000f920       ??_C@_1IG@NMONDPP@?$AAw?$AAc?$AAs?$AAc?$AAa?$AAt?$AA_?$AAs?$AA?$CI?$AAo?$AAu?$AAt?$AAm?$AAs?$AAg?$AA?0?$AA?5?$AA?$CI?$AAs?$AAi?$AAz?$AAe?$AAo?$AAf?$AA?$CI?$AAo?$AAu?$AAt?$AAm?$AAs?$AAg?$AA?$CJ@ 4009b920     LIBCMTD:crt0msg.obj
 0002:0000f9a8       ??_C@_1IA@DCJGKHFO@?$AAw?$AAc?$AAs?$AAc?$AAa?$AAt?$AA_?$AAs?$AA?$CI?$AAo?$AAu?$AAt?$AAm?$AAs?$AAg?$AA?0?$AA?5?$AA?$CI?$AAs?$AAi?$AAz?$AAe?$AAo?$AAf?$AA?$CI?$AAo?$AAu?$AAt?$AAm?$AAs?$AAg?$AA?$CJ@ 4009b9a8     LIBCMTD:crt0msg.obj
 0002:0000fa28       ??_C@_1HI@FLHKGEBE@?$AAw?$AAc?$AAs?$AAn?$AAc?$AAp?$AAy?$AA_?$AAs?$AA?$CI?$AAp?$AAc?$AAh?$AA?0?$AA?5?$AAp?$AAr?$AAo?$AAg?$AAn?$AAa?$AAm?$AAe?$AA_?$AAs?$AAi?$AAz?$AAe?$AA?5?$AA?9?$AA?5?$AA?$CI@ 4009ba28     LIBCMTD:crt0msg.obj
 0002:0000faa0       ??_C@_1HK@FJJNAABO@?$AAw?$AAc?$AAs?$AAc?$AAp?$AAy?$AA_?$AAs?$AA?$CI?$AAp?$AAr?$AAo?$AAg?$AAn?$AAa?$AAm?$AAe?$AA?0?$AA?5?$AAp?$AAr?$AAo?$AAg?$AAn?$AAa?$AAm?$AAe?$AA_?$AAs?$AAi?$AAz?$AAe@ 4009baa0     LIBCMTD:crt0msg.obj
 0002:0000fb1c       ??_C@_1DE@JNGNBFGO@?$AAR?$AAu?$AAn?$AAt?$AAi?$AAm?$AAe?$AA?5?$AAE?$AAr?$AAr?$AAo?$AAr?$AA?$CB?$AA?6?$AA?6?$AAP?$AAr?$AAo?$AAg?$AAr?$AAa?$AAm?$AA?3?$AA?5?$AA?$AA@ 4009bb1c     LIBCMTD:crt0msg.obj
 0002:0000fb50       ??_C@_1KO@BKLCKNFL@?$AAw?$AAc?$AAs?$AAc?$AAp?$AAy?$AA_?$AAs?$AA?$CI?$AAo?$AAu?$AAt?$AAm?$AAs?$AAg?$AA?0?$AA?5?$AA?$CI?$AAs?$AAi?$AAz?$AAe?$AAo?$AAf?$AA?$CI?$AAo?$AAu?$AAt?$AAm?$AAs?$AAg?$AA?$CJ@ 4009bb50     LIBCMTD:crt0msg.obj
 0002:0000fc00       ??_C@_1BI@EAHMBMEC@?$AA_?$AAN?$AAM?$AAS?$AAG?$AA_?$AAW?$AAR?$AAI?$AAT?$AAE?$AA?$AA@ 4009bc00     LIBCMTD:crt0msg.obj
 0002:0000fc18       ??_C@_1GC@HKOJBOFF@?$AAf?$AA?3?$AA?2?$AAd?$AAd?$AA?2?$AAv?$AAc?$AAt?$AAo?$AAo?$AAl?$AAs?$AA?2?$AAc?$AAr?$AAt?$AA_?$AAb?$AAl?$AAd?$AA?2?$AAs?$AAe?$AAl?$AAf?$AA_?$AAx?$AA8?$AA6?$AA?2?$AAc@ 4009bc18     LIBCMTD:crt0msg.obj
 0002:0000fc7c       ??_C@_06PJIGMIJB@Client?$AA@ 4009bc7c     LIBCMTD:dbgheap.obj
 0002:0000fc84       ??_C@_06KMEJCCGM@Ignore?$AA@ 4009bc84     LIBCMTD:dbgheap.obj
 0002:0000fc8c       ??_C@_03OGPFLFLO@CRT?$AA@  4009bc8c     LIBCMTD:dbgheap.obj
 0002:0000fc90       ??_C@_06EFAGIKOH@Normal?$AA@ 4009bc90     LIBCMTD:dbgheap.obj
 0002:0000fc98       ??_C@_04HJMOFLDF@Free?$AA@ 4009bc98     LIBCMTD:dbgheap.obj
 0002:0000fcb4       ??_C@_0DC@JEMAGEKG@Error?3?5memory?5allocation?3?5bad?5me@ 4009bcb4     LIBCMTD:dbgheap.obj
 0002:0000fce8       ??_C@_0CF@BICKFLAF@Invalid?5allocation?5size?3?5?$CFIu?5byt@ 4009bce8     LIBCMTD:dbgheap.obj
 0002:0000fd10       ??_C@_0CB@CCLOLAHO@Client?5hook?5allocation?5failure?4?6@ 4009bd10     LIBCMTD:dbgheap.obj
 0002:0000fd34       ??_C@_0DF@BBEGIFEK@Client?5hook?5allocation?5failure?5a@ 4009bd34     LIBCMTD:dbgheap.obj
 0002:0000fd70       ??_C@_1GC@DNJKKEAA@?$AAf?$AA?3?$AA?2?$AAd?$AAd?$AA?2?$AAv?$AAc?$AAt?$AAo?$AAo?$AAl?$AAs?$AA?2?$AAc?$AAr?$AAt?$AA_?$AAb?$AAl?$AAd?$AA?2?$AAs?$AAe?$AAl?$AAf?$AA_?$AAx?$AA8?$AA6?$AA?2?$AAc@ 4009bd70     LIBCMTD:dbgheap.obj
 0002:0000fdd4       ??_C@_1CE@LJFEPPMP@?$AA_?$AAC?$AAr?$AAt?$AAC?$AAh?$AAe?$AAc?$AAk?$AAM?$AAe?$AAm?$AAo?$AAr?$AAy?$AA?$CI?$AA?$CJ?$AA?$AA@ 4009bdd4     LIBCMTD:dbgheap.obj
 0002:0000fdf8       ??_C@_1DE@KOOKLFBB@?$AA_?$AAp?$AAF?$AAi?$AAr?$AAs?$AAt?$AAB?$AAl?$AAo?$AAc?$AAk?$AA?5?$AA?$DN?$AA?$DN?$AA?5?$AAp?$AAO?$AAl?$AAd?$AAB?$AAl?$AAo?$AAc?$AAk?$AA?$AA@ 4009bdf8     LIBCMTD:dbgheap.obj
 0002:0000fe2c       ??_C@_1DC@GEFKNOOL@?$AA_?$AAp?$AAL?$AAa?$AAs?$AAt?$AAB?$AAl?$AAo?$AAc?$AAk?$AA?5?$AA?$DN?$AA?$DN?$AA?5?$AAp?$AAO?$AAl?$AAd?$AAB?$AAl?$AAo?$AAc?$AAk?$AA?$AA@ 4009be2c     LIBCMTD:dbgheap.obj
 0002:0000fe60       ??_C@_1GE@PCKLOLAO@?$AAf?$AAR?$AAe?$AAa?$AAl?$AAl?$AAo?$AAc?$AA?5?$AA?$HM?$AA?$HM?$AA?5?$AA?$CI?$AA?$CB?$AAf?$AAR?$AAe?$AAa?$AAl?$AAl?$AAo?$AAc?$AA?5?$AA?$CG?$AA?$CG?$AA?5?$AAp?$AAN?$AAe?$AAw?$AAB?$AAl@ 4009be60     LIBCMTD:dbgheap.obj
 0002:0000fec4       ??_C@_0DA@HFBKENN@Error?3?5possible?5heap?5corruption?5@ 4009bec4     LIBCMTD:dbgheap.obj
 0002:0000fef8       ??_C@_1IK@DCPKDGNH@?$AAp?$AAO?$AAl?$AAd?$AAB?$AAl?$AAo?$AAc?$AAk?$AA?9?$AA?$DO?$AAn?$AAL?$AAi?$AAn?$AAe?$AA?5?$AA?$DN?$AA?$DN?$AA?5?$AAI?$AAG?$AAN?$AAO?$AAR?$AAE?$AA_?$AAL?$AAI?$AAN?$AAE?$AA?5@ 4009bef8     LIBCMTD:dbgheap.obj
 0002:0000ff88       ??_C@_1EE@GFOPCECE@?$AA_?$AAC?$AAr?$AAt?$AAI?$AAs?$AAV?$AAa?$AAl?$AAi?$AAd?$AAH?$AAe?$AAa?$AAp?$AAP?$AAo?$AAi?$AAn?$AAt?$AAe?$AAr?$AA?$CI?$AAp?$AAU?$AAs?$AAe?$AAr?$AAD?$AAa?$AAt?$AAa@ 4009bf88     LIBCMTD:dbgheap.obj
 0002:0000ffd0       ??_C@_0EM@LGFLMAGJ@The?5Block?5at?50x?$CFp?5was?5allocated?5@ 4009bfd0     LIBCMTD:dbgheap.obj
 0002:00010020       ??_C@_0FA@EFEIGJKG@Error?3?5memory?5allocation?3?5bad?5me@ 4009c020     LIBCMTD:dbgheap.obj
 0002:00010070       ??_C@_0ED@GPCPBAGP@Invalid?5allocation?5size?3?5?$CFIu?5byt@ 4009c070     LIBCMTD:dbgheap.obj
 0002:000100b4       ??_C@_0CE@DOFMDOL@Client?5hook?5re?9allocation?5failur@ 4009c0b4     LIBCMTD:dbgheap.obj
 0002:000100d8       ??_C@_0DI@KKJPDPGM@Client?5hook?5re?9allocation?5failur@ 4009c0d8     LIBCMTD:dbgheap.obj
 0002:00010110       ??_C@_1BI@HAPNGHDP@?$AA_?$AAe?$AAx?$AAp?$AAa?$AAn?$AAd?$AA_?$AAd?$AAb?$AAg?$AA?$AA@ 4009c110     LIBCMTD:dbgheap.obj
 0002:00010128       ??_C@_1CE@CJACEFBA@?$AAp?$AAU?$AAs?$AAe?$AAr?$AAD?$AAa?$AAt?$AAa?$AA?5?$AA?$CB?$AA?$DN?$AA?5?$AAN?$AAU?$AAL?$AAL?$AA?$AA@ 4009c128     LIBCMTD:dbgheap.obj
 0002:0001014c       ??_C@_1CM@MMAADDMD@?$AA_?$AAp?$AAF?$AAi?$AAr?$AAs?$AAt?$AAB?$AAl?$AAo?$AAc?$AAk?$AA?5?$AA?$DN?$AA?$DN?$AA?5?$AAp?$AAH?$AAe?$AAa?$AAd?$AA?$AA@ 4009c14c     LIBCMTD:dbgheap.obj
 0002:00010178       ??_C@_1CK@DMAGEMBG@?$AA_?$AAp?$AAL?$AAa?$AAs?$AAt?$AAB?$AAl?$AAo?$AAc?$AAk?$AA?5?$AA?$DN?$AA?$DN?$AA?5?$AAp?$AAH?$AAe?$AAa?$AAd?$AA?$AA@ 4009c178     LIBCMTD:dbgheap.obj
 0002:000101a4       ??_C@_1DM@ODCJIDCP@?$AAp?$AAH?$AAe?$AAa?$AAd?$AA?9?$AA?$DO?$AAn?$AAB?$AAl?$AAo?$AAc?$AAk?$AAU?$AAs?$AAe?$AA?5?$AA?$DN?$AA?$DN?$AA?5?$AAn?$AAB?$AAl?$AAo?$AAc?$AAk?$AAU?$AAs?$AAe?$AA?$AA@ 4009c1a4     LIBCMTD:dbgheap.obj
 0002:000101e0       ??_C@_1HK@HPCBMDFG@?$AAp?$AAH?$AAe?$AAa?$AAd?$AA?9?$AA?$DO?$AAn?$AAL?$AAi?$AAn?$AAe?$AA?5?$AA?$DN?$AA?$DN?$AA?5?$AAI?$AAG?$AAN?$AAO?$AAR?$AAE?$AA_?$AAL?$AAI?$AAN?$AAE?$AA?5?$AA?$CG?$AA?$CG?$AA?5?$AAp@ 4009c1e0     LIBCMTD:dbgheap.obj
 0002:00010260       ??_C@_0IG@LEMBDCJK@HEAP?5CORRUPTION?5DETECTED?3?5after?5@ 4009c260     LIBCMTD:dbgheap.obj
 0002:000102e8       ??_C@_0KE@MBMNHHHN@HEAP?5CORRUPTION?5DETECTED?3?5after?5@ 4009c2e8     LIBCMTD:dbgheap.obj
 0002:00010390       ??_C@_0IK@PJCGLBOB@HEAP?5CORRUPTION?5DETECTED?3?5before@ 4009c390     LIBCMTD:dbgheap.obj
 0002:00010420       ??_C@_0KI@JGFOHMEB@HEAP?5CORRUPTION?5DETECTED?3?5before@ 4009c420     LIBCMTD:dbgheap.obj
 0002:000104c8       ??_C@_1EO@LHDAJOCM@?$AA_?$AAB?$AAL?$AAO?$AAC?$AAK?$AA_?$AAT?$AAY?$AAP?$AAE?$AA_?$AAI?$AAS?$AA_?$AAV?$AAA?$AAL?$AAI?$AAD?$AA?$CI?$AAp?$AAH?$AAe?$AAa?$AAd?$AA?9?$AA?$DO?$AAn?$AAB?$AAl?$AAo@ 4009c4c8     LIBCMTD:dbgheap.obj
 0002:00010518       ??_C@_0BL@KEIPLFAC@Client?5hook?5free?5failure?4?6?$AA@ 4009c518     LIBCMTD:dbgheap.obj
 0002:00010538       ??_C@_0EJ@HEIBCIMJ@The?5Block?5at?50x?$CFp?5was?5allocated?5@ 4009c538     LIBCMTD:dbgheap.obj
 0002:00010584       ??_C@_1BG@MBKOGDLD@?$AA_?$AAm?$AAs?$AAi?$AAz?$AAe?$AA_?$AAd?$AAb?$AAg?$AA?$AA@ 4009c584     LIBCMTD:dbgheap.obj
 0002:0001059c       ??_C@_0CI@JMLBEDHJ@?$CFhs?5located?5at?50x?$CFp?5is?5?$CFIu?5bytes@ 4009c59c     LIBCMTD:dbgheap.obj
 0002:000105c8       ??_C@_0EG@DGJMPDBH@?$CFhs?5located?5at?50x?$CFp?5is?5?$CFIu?5bytes@ 4009c5c8     LIBCMTD:dbgheap.obj
 0002:00010610       ??_C@_0IC@BBJIOOJH@HEAP?5CORRUPTION?5DETECTED?3?5on?5top@ 4009c610     LIBCMTD:dbgheap.obj
 0002:00010698       ??_C@_0KA@IHNJJKPL@HEAP?5CORRUPTION?5DETECTED?3?5on?5top@ 4009c698     LIBCMTD:dbgheap.obj
 0002:00010738       ??_C@_07OHKEFPKJ@DAMAGED?$AA@ 4009c738     LIBCMTD:dbgheap.obj
 0002:00010740       ??_C@_0CL@HNNNMKMJ@_heapchk?5fails?5with?5unknown?5retu@ 4009c740     LIBCMTD:dbgheap.obj
 0002:0001076c       ??_C@_0CC@MFFCHFHO@_heapchk?5fails?5with?5_HEAPBADPTR?4@ 4009c76c     LIBCMTD:dbgheap.obj
 0002:00010790       ??_C@_0CC@MJGLGBDG@_heapchk?5fails?5with?5_HEAPBADEND?4@ 4009c790     LIBCMTD:dbgheap.obj
 0002:000107b4       ??_C@_0CD@CPKEAPBD@_heapchk?5fails?5with?5_HEAPBADNODE@ 4009c7b4     LIBCMTD:dbgheap.obj
 0002:000107d8       ??_C@_0CE@MKKHMBMK@_heapchk?5fails?5with?5_HEAPBADBEGI@ 4009c7d8     LIBCMTD:dbgheap.obj
 0002:000107fc       ??_C@_1BO@GJFDNMNF@?$AA_?$AAC?$AAr?$AAt?$AAS?$AAe?$AAt?$AAD?$AAb?$AAg?$AAF?$AAl?$AAa?$AAg?$AA?$AA@ 4009c7fc     LIBCMTD:dbgheap.obj
 0002:00010820       ??_C@_1BHO@NNANJNF@?$AA?$CI?$AAf?$AAN?$AAe?$AAw?$AAB?$AAi?$AAt?$AAs?$AA?$DN?$AA?$DN?$AA_?$AAC?$AAR?$AAT?$AAD?$AAB?$AAG?$AA_?$AAR?$AAE?$AAP?$AAO?$AAR?$AAT?$AA_?$AAF?$AAL?$AAA?$AAG?$AA?$CJ?$AA?5@ 4009c820     LIBCMTD:dbgheap.obj
 0002:000109a0       ??_C@_1DE@GJCKCKEC@?$AA_?$AAC?$AAr?$AAt?$AAD?$AAo?$AAF?$AAo?$AAr?$AAA?$AAl?$AAl?$AAC?$AAl?$AAi?$AAe?$AAn?$AAt?$AAO?$AAb?$AAj?$AAe?$AAc?$AAt?$AAs?$AA?$AA@ 4009c9a0     LIBCMTD:dbgheap.obj
 0002:000109d4       ??_C@_1BI@CJGCEEDL@?$AAp?$AAf?$AAn?$AA?5?$AA?$CB?$AA?$DN?$AA?5?$AAN?$AAU?$AAL?$AAL?$AA?$AA@ 4009c9d4     LIBCMTD:dbgheap.obj
 0002:000109ec       ??_C@_0CB@EAAIGELO@Bad?5memory?5block?5found?5at?50x?$CFp?4?6@ 4009c9ec     LIBCMTD:dbgheap.obj
 0002:00010a10       ??_C@_0DP@LEFMFBOD@Bad?5memory?5block?5found?5at?50x?$CFp?4?6@ 4009ca10     LIBCMTD:dbgheap.obj
 0002:00010a50       ??_C@_1CE@NJJKELF@?$AA_?$AAC?$AAr?$AAt?$AAM?$AAe?$AAm?$AAC?$AAh?$AAe?$AAc?$AAk?$AAp?$AAo?$AAi?$AAn?$AAt?$AA?$AA@ 4009ca50     LIBCMTD:dbgheap.obj
 0002:00010a74       ??_C@_1BM@MIMANDHC@?$AAs?$AAt?$AAa?$AAt?$AAe?$AA?5?$AA?$CB?$AA?$DN?$AA?5?$AAN?$AAU?$AAL?$AAL?$AA?$AA@ 4009ca74     LIBCMTD:dbgheap.obj
 0002:00010a90       ??_C@_1CC@DFPEDFBP@?$AAn?$AAe?$AAw?$AAS?$AAt?$AAa?$AAt?$AAe?$AA?5?$AA?$CB?$AA?$DN?$AA?5?$AAN?$AAU?$AAL?$AAL?$AA?$AA@ 4009ca90     LIBCMTD:dbgheap.obj
 0002:00010ab4       ??_C@_1CC@DHPFEMMN@?$AAo?$AAl?$AAd?$AAS?$AAt?$AAa?$AAt?$AAe?$AA?5?$AA?$CB?$AA?$DN?$AA?5?$AAN?$AAU?$AAL?$AAL?$AA?$AA@ 4009cab4     LIBCMTD:dbgheap.obj
 0002:00010ad8       ??_C@_1CE@PDIENACM@?$AA_?$AAC?$AAr?$AAt?$AAM?$AAe?$AAm?$AAD?$AAi?$AAf?$AAf?$AAe?$AAr?$AAe?$AAn?$AAc?$AAe?$AA?$AA@ 4009cad8     LIBCMTD:dbgheap.obj
 0002:00010afc       ??_C@_0BH@GFGKJDCO@Object?5dump?5complete?4?6?$AA@ 4009cafc     LIBCMTD:dbgheap.obj
 0002:00010b14       ??_C@_0DA@MDLBNIBM@crt?5block?5at?50x?$CFp?0?5subtype?5?$CFx?0?5?$CF@ 4009cb14     LIBCMTD:dbgheap.obj
 0002:00010b44       ??_C@_0CH@FAGDDGPN@normal?5block?5at?50x?$CFp?0?5?$CFIu?5bytes?5@ 4009cb44     LIBCMTD:dbgheap.obj
 0002:00010b6c       ??_C@_0DD@GHNAAKBB@client?5block?5at?50x?$CFp?0?5subtype?5?$CFx@ 4009cb6c     LIBCMTD:dbgheap.obj
 0002:00010ba0       ??_C@_06PKLGBFGM@?$HL?$CFld?$HN?5?$AA@ 4009cba0     LIBCMTD:dbgheap.obj
 0002:00010ba8       ??_C@_0L@JMEFFCCJ@?$CFhs?$CI?$CFd?$CJ?5?3?5?$AA@ 4009cba8     LIBCMTD:dbgheap.obj
 0002:00010bb4       ??_C@_0BE@OIEFNFL@?$CDFile?5Error?$CD?$CI?$CFd?$CJ?5?3?5?$AA@ 4009cbb4     LIBCMTD:dbgheap.obj
 0002:00010bc8       ??_C@_0BE@KCIPKCIA@Dumping?5objects?5?9?$DO?6?$AA@ 4009cbc8     LIBCMTD:dbgheap.obj
 0002:00010bdc       ??_C@_0BA@HJBKCELP@?5Data?3?5?$DM?$CFs?$DO?5?$CFs?6?$AA@ 4009cbdc     LIBCMTD:dbgheap.obj
 0002:00010bec       ??_C@_1CG@LPFIACGM@?$AA_?$AAp?$AAr?$AAi?$AAn?$AAt?$AAM?$AAe?$AAm?$AAB?$AAl?$AAo?$AAc?$AAk?$AAD?$AAa?$AAt?$AAa?$AA?$AA@ 4009cbec     LIBCMTD:dbgheap.obj
 0002:00010c14       ??_C@_0BI@JBFPOEJA@Detected?5memory?5leaks?$CB?6?$AA@ 4009cc14     LIBCMTD:dbgheap.obj
 0002:00010c2c       ??_C@_0BP@DEDHGGGI@Total?5allocations?3?5?$CFId?5bytes?4?6?$AA@ 4009cc2c     LIBCMTD:dbgheap.obj
 0002:00010c4c       ??_C@_0CB@BLHDAFNE@Largest?5number?5used?3?5?$CFId?5bytes?4?6@ 4009cc4c     LIBCMTD:dbgheap.obj
 0002:00010c70       ??_C@_0BO@DACNIABB@?$CFId?5bytes?5in?5?$CFId?5?$CFhs?5Blocks?4?6?$AA@ 4009cc70     LIBCMTD:dbgheap.obj
 0002:00010c90       ??_C@_1CM@MPNIBKGK@?$AA_?$AAC?$AAr?$AAt?$AAM?$AAe?$AAm?$AAD?$AAu?$AAm?$AAp?$AAS?$AAt?$AAa?$AAt?$AAi?$AAs?$AAt?$AAi?$AAc?$AAs?$AA?$AA@ 4009cc90     LIBCMTD:dbgheap.obj
 0002:00010cbc       ??_C@_1DK@LFLKFPDA@?$AAo?$AAf?$AAf?$AAs?$AAe?$AAt?$AA?5?$AA?$DN?$AA?$DN?$AA?5?$AA0?$AA?5?$AA?$HM?$AA?$HM?$AA?5?$AAo?$AAf?$AAf?$AAs?$AAe?$AAt?$AA?5?$AA?$DM?$AA?5?$AAs?$AAi?$AAz?$AAe?$AA?$AA@ 4009ccbc     LIBCMTD:dbgheap.obj
 0002:00010cf8       ??_C@_1DG@DONCJBBJ@?$AA_?$AAa?$AAl?$AAi?$AAg?$AAn?$AAe?$AAd?$AA_?$AAo?$AAf?$AAf?$AAs?$AAe?$AAt?$AA_?$AAm?$AAa?$AAl?$AAl?$AAo?$AAc?$AA_?$AAd?$AAb?$AAg?$AA?$AA@ 4009ccf8     LIBCMTD:dbgheap.obj
 0002:00010d30       ??_C@_1CE@NPMGPNNP@?$AAI?$AAS?$AA_?$AA2?$AA_?$AAP?$AAO?$AAW?$AA_?$AAN?$AA?$CI?$AAa?$AAl?$AAi?$AAg?$AAn?$AA?$CJ?$AA?$AA@ 4009cd30     LIBCMTD:dbgheap.obj
 0002:00010d54       ??_C@_1DI@NINIKFFK@?$AA_?$AAa?$AAl?$AAi?$AAg?$AAn?$AAe?$AAd?$AA_?$AAo?$AAf?$AAf?$AAs?$AAe?$AAt?$AA_?$AAr?$AAe?$AAa?$AAl?$AAl?$AAo?$AAc?$AA_?$AAd?$AAb?$AAg?$AA?$AA@ 4009cd54     LIBCMTD:dbgheap.obj
 0002:00010d8c       ??_C@_0DL@PGHMMKNE@Damage?5before?50x?$CFp?5which?5was?5all@ 4009cd8c     LIBCMTD:dbgheap.obj
 0002:00010dc8       ??_C@_0EI@NDNJMAJK@The?5block?5at?50x?$CFp?5was?5not?5alloca@ 4009cdc8     LIBCMTD:dbgheap.obj
 0002:00010e10       ??_C@_0EF@PGELACII@The?5block?5at?50x?$CFp?5was?5not?5alloca@ 4009ce10     LIBCMTD:dbgheap.obj
 0002:00010e58       ??_C@_1CG@CEGMHIMN@?$AA_?$AAa?$AAl?$AAi?$AAg?$AAn?$AAe?$AAd?$AA_?$AAm?$AAs?$AAi?$AAz?$AAe?$AA_?$AAd?$AAb?$AAg?$AA?$AA@ 4009ce58     LIBCMTD:dbgheap.obj
 0002:00010e80       ??_C@_1CC@MOBIKHH@?$AAm?$AAe?$AAm?$AAb?$AAl?$AAo?$AAc?$AAk?$AA?5?$AA?$CB?$AA?$DN?$AA?5?$AAN?$AAU?$AAL?$AAL?$AA?$AA@ 4009ce80     LIBCMTD:dbgheap.obj
 0002:00010ea4       ??_C@_0CP@MKONOLCI@f?3?2dd?2vctools?2crt_bld?2self_x86?2c@ 4009cea4     LIBCMTD:mlock.obj
 0002:00010ed4       ??_C@_1O@EJLDHPPL@?$AAs?$AAi?$AAg?$AAn?$AAa?$AAl?$AA?$AA@ 4009ced4     LIBCMTD:winsig.obj
 0002:00010ee8       ??_C@_1GA@DBECNFG@?$AAf?$AA?3?$AA?2?$AAd?$AAd?$AA?2?$AAv?$AAc?$AAt?$AAo?$AAo?$AAl?$AAs?$AA?2?$AAc?$AAr?$AAt?$AA_?$AAb?$AAl?$AAd?$AA?2?$AAs?$AAe?$AAl?$AAf?$AA_?$AAx?$AA8?$AA6?$AA?2?$AAc@ 4009cee8     LIBCMTD:winsig.obj
 0002:00010f48       ??_C@_1DO@MLNEDKGB@?$AA?$CI?$AA?$CC?$AAI?$AAn?$AAv?$AAa?$AAl?$AAi?$AAd?$AA?5?$AAs?$AAi?$AAg?$AAn?$AAa?$AAl?$AA?5?$AAo?$AAr?$AA?5?$AAe?$AAr?$AAr?$AAo?$AAr?$AA?$CC?$AA?0?$AA?5?$AA0?$AA?$CJ?$AA?$AA@ 4009cf48     LIBCMTD:winsig.obj
 0002:00010f88       ??_C@_0DA@ELJOOIJF@f?3?2dd?2vctools?2crt_bld?2self_x86?2c@ 4009cf88     LIBCMTD:winsig.obj
 0002:00010fb8       ??_C@_1M@DMJEIKHL@?$AAr?$AAa?$AAi?$AAs?$AAe?$AA?$AA@ 4009cfb8     LIBCMTD:winsig.obj
 0002:00010fc4       ??_C@_0BC@JEAENNKH@SystemFunction036?$AA@ 4009cfc4     LIBCMTD:rand_s.obj
 0002:00010fd8       ??_C@_1GA@EBEDGGGB@?$AA?$CI?$AA?$CC?$AAr?$AAa?$AAn?$AAd?$AA_?$AAs?$AA?5?$AAi?$AAs?$AA?5?$AAn?$AAo?$AAt?$AA?5?$AAa?$AAv?$AAa?$AAi?$AAl?$AAa?$AAb?$AAl?$AAe?$AA?5?$AAo?$AAn?$AA?5?$AAt?$AAh?$AAi@ 4009cfd8     LIBCMTD:rand_s.obj
 0002:00011038       ??_C@_1O@IJGPPOGF@?$AAr?$AAa?$AAn?$AAd?$AA_?$AAs?$AA?$AA@ 4009d038     LIBCMTD:rand_s.obj
 0002:00011048       ??_C@_1GA@HBGBBKCD@?$AAf?$AA?3?$AA?2?$AAd?$AAd?$AA?2?$AAv?$AAc?$AAt?$AAo?$AAo?$AAl?$AAs?$AA?2?$AAc?$AAr?$AAt?$AA_?$AAb?$AAl?$AAd?$AA?2?$AAs?$AAe?$AAl?$AAf?$AA_?$AAx?$AA8?$AA6?$AA?2?$AAc@ 4009d048     LIBCMTD:rand_s.obj
 0002:000110a8       ??_C@_1CK@GFDNDKK@?$AA_?$AAR?$AAa?$AAn?$AAd?$AAo?$AAm?$AAV?$AAa?$AAl?$AAu?$AAe?$AA?5?$AA?$CB?$AA?$DN?$AA?5?$AAN?$AAU?$AAL?$AAL?$AA?$AA@ 4009d0a8     LIBCMTD:rand_s.obj
 0002:000110d8       ??_C@_1GO@NGIGJNHH@?$AAs?$AAt?$AAr?$AAn?$AAc?$AAp?$AAy?$AA_?$AAs?$AA?$CI?$AA?$CK?$AAs?$AAt?$AAr?$AAa?$AAd?$AAd?$AAr?$AAe?$AAs?$AAs?$AA?0?$AA?5?$AAo?$AAu?$AAt?$AAs?$AAi?$AAz?$AAe?$AA?0?$AA?5@ 4009d0d8     LIBCMTD:inithelp.obj
 0002:00011148       ??_C@_1CA@KHHCPEI@?$AA_?$AA_?$AAg?$AAe?$AAt?$AAl?$AAo?$AAc?$AAa?$AAl?$AAe?$AAi?$AAn?$AAf?$AAo?$AA?$AA@ 4009d148     LIBCMTD:inithelp.obj
 0002:00011168       ??_C@_1GE@PLPIMDHG@?$AAf?$AA?3?$AA?2?$AAd?$AAd?$AA?2?$AAv?$AAc?$AAt?$AAo?$AAo?$AAl?$AAs?$AA?2?$AAc?$AAr?$AAt?$AA_?$AAb?$AAl?$AAd?$AA?2?$AAs?$AAe?$AAl?$AAf?$AA_?$AAx?$AA8?$AA6?$AA?2?$AAc@ 4009d168     LIBCMTD:inithelp.obj
 0002:000111cc       ??_C@_0DC@CFDMMFIG@f?3?2dd?2vctools?2crt_bld?2self_x86?2c@ 4009d1cc     LIBCMTD:inithelp.obj
 0002:00011200       ??_C@_1GG@CDHAPCGF@?$AAf?$AA?3?$AA?2?$AAd?$AAd?$AA?2?$AAv?$AAc?$AAt?$AAo?$AAo?$AAl?$AAs?$AA?2?$AAc?$AAr?$AAt?$AA_?$AAb?$AAl?$AAd?$AA?2?$AAs?$AAe?$AAl?$AAf?$AA_?$AAx?$AA8?$AA6?$AA?2?$AAc@ 4009d200     LIBCMTD:handler.obj
 0002:00011268       ??_C@_1BC@JLLICHIC@?$AAp?$AAn?$AAh?$AA?5?$AA?$DN?$AA?$DN?$AA?5?$AA0?$AA?$AA@ 4009d268     LIBCMTD:handler.obj
 0002:0001127c       ??_C@_0DA@NBLAKPEL@f?3?2dd?2vctools?2crt_bld?2self_x86?2c@ 4009d27c     LIBCMTD:ioinit.obj
 0002:000112ac       ??_C@_1DE@MMOGFGHF@?$AAs?$AAt?$AAr?$AAc?$AAp?$AAy?$AA_?$AAs?$AA?$CI?$AA?$CK?$AAe?$AAn?$AAv?$AA?0?$AA?5?$AAc?$AAc?$AAh?$AAa?$AAr?$AAs?$AA?0?$AA?5?$AAp?$AA?$CJ?$AA?$AA@ 4009d2ac     LIBCMTD:stdenvp.obj
 0002:000112e0       ??_C@_1BC@GHMCNHHL@?$AA_?$AAs?$AAe?$AAt?$AAe?$AAn?$AAv?$AAp?$AA?$AA@ 4009d2e0     LIBCMTD:stdenvp.obj
 0002:000112f8       ??_C@_1GC@DGBFLDBN@?$AAf?$AA?3?$AA?2?$AAd?$AAd?$AA?2?$AAv?$AAc?$AAt?$AAo?$AAo?$AAl?$AAs?$AA?2?$AAc?$AAr?$AAt?$AA_?$AAb?$AAl?$AAd?$AA?2?$AAs?$AAe?$AAl?$AAf?$AA_?$AAx?$AA8?$AA6?$AA?2?$AAc@ 4009d2f8     LIBCMTD:stdenvp.obj
 0002:0001135c       ??_C@_0DB@BMEBJJKP@f?3?2dd?2vctools?2crt_bld?2self_x86?2c@ 4009d35c     LIBCMTD:stdenvp.obj
 0002:00011390       ??_C@_0DB@OEPBJOLC@f?3?2dd?2vctools?2crt_bld?2self_x86?2c@ 4009d390     LIBCMTD:stdargv.obj
 0002:000113c4       ??_C@_0CP@PPLBCJDN@f?3?2dd?2vctools?2crt_bld?2self_x86?2c@ 4009d3c4     LIBCMTD:a_env.obj
 0002:000113f8       ??_C@_1GE@JDDMFOID@?$AAf?$AA?3?$AA?2?$AAd?$AAd?$AA?2?$AAv?$AAc?$AAt?$AAo?$AAo?$AAl?$AAs?$AA?2?$AAc?$AAr?$AAt?$AA_?$AAb?$AAl?$AAd?$AA?2?$AAs?$AAe?$AAl?$AAf?$AA_?$AAx?$AA8?$AA6?$AA?2?$AAc@ 4009d3f8     LIBCMTD:heapinit.obj
 0002:0001145c       ??_C@_1BC@DENNNKIM@?$AA_?$AAc?$AAr?$AAt?$AAh?$AAe?$AAa?$AAp?$AA?$AA@ 4009d45c     LIBCMTD:heapinit.obj
 0002:00011470       __XcptActTab               4009d470     LIBCMTD:winxfltr.obj
 0002:00011500       __First_FPE_Indx           4009d500     LIBCMTD:winxfltr.obj
 0002:00011504       __Num_FPE                  4009d504     LIBCMTD:winxfltr.obj
 0002:00011508       __XcptActTabSize           4009d508     LIBCMTD:winxfltr.obj
 0002:0001150c       __XcptActTabCount          4009d50c     LIBCMTD:winxfltr.obj
 0002:00011510       ??_C@_0BB@NAGLCMLI@Assertion?5Failed?$AA@ 4009d510     LIBCMTD:dbgrpt.obj
 0002:00011524       ??_C@_05NAOIJFC@Error?$AA@ 4009d524     LIBCMTD:dbgrpt.obj
 0002:0001152c       ??_C@_07KGMMFLDN@Warning?$AA@ 4009d52c     LIBCMTD:dbgrpt.obj
 0002:00011540       ??_C@_1CG@GNMJDMIO@?$AA_?$AAC?$AAr?$AAt?$AAS?$AAe?$AAt?$AAR?$AAe?$AAp?$AAo?$AAr?$AAt?$AAH?$AAo?$AAo?$AAk?$AA2?$AA?$AA@ 4009d540     LIBCMTD:dbgrpt.obj
 0002:00011568       ??_C@_0CD@EBCGLDDL@Microsoft?5Visual?5C?$CL?$CL?5Debug?5Libra@ 4009d568     LIBCMTD:dbgrpt.obj
 0002:0001158c       ??_C@_0CL@EACFGMNB@_CrtDbgReport?3?5String?5too?5long?5o@ 4009d58c     LIBCMTD:dbgrpt.obj
 0002:000115b8       ??_C@_1JG@CPKCIOEE@?$AAs?$AAt?$AAr?$AAc?$AAp?$AAy?$AA_?$AAs?$AA?$CI?$AAs?$AAz?$AAO?$AAu?$AAt?$AAM?$AAe?$AAs?$AAs?$AAa?$AAg?$AAe?$AA?0?$AA?5?$AA4?$AA0?$AA9?$AA6?$AA?0?$AA?5?$AA?$CC?$AA_?$AAC@ 4009d5b8     LIBCMTD:dbgrpt.obj
 0002:00011650       ??_C@_0FF@CCONDJCB@Debug?5?$CFs?$CB?6?6Program?3?5?$CFs?$CFs?$CFs?$CFs?$CFs?$CFs@ 4009d650     LIBCMTD:dbgrpt.obj
 0002:000116a8       ??_C@_09OFBFHMBK@?6Module?3?5?$AA@ 4009d6a8     LIBCMTD:dbgrpt.obj
 0002:000116b4       ??_C@_07OPHPPLBG@?6File?3?5?$AA@ 4009d6b4     LIBCMTD:dbgrpt.obj
 0002:000116bc       ??_C@_07DBMPPHDI@?6Line?3?5?$AA@ 4009d6bc     LIBCMTD:dbgrpt.obj
 0002:000116c4       ??_C@_02PHMGELLB@?6?6?$AA@ 4009d6c4     LIBCMTD:dbgrpt.obj
 0002:000116c8       ??_C@_0N@MEECIJGN@Expression?3?5?$AA@ 4009d6c8     LIBCMTD:dbgrpt.obj
 0002:000116d8       ??_C@_0HD@GNBNFCCL@?6?6For?5information?5on?5how?5your?5pr@ 4009d6d8     LIBCMTD:dbgrpt.obj
 0002:0001174c       ??_C@_0BH@DNAGHKFM@?$DMprogram?5name?5unknown?$DO?$AA@ 4009d74c     LIBCMTD:dbgrpt.obj
 0002:00011768       ??_C@_1GG@DLDHOIGE@?$AAs?$AAt?$AAr?$AAc?$AAp?$AAy?$AA_?$AAs?$AA?$CI?$AAs?$AAz?$AAE?$AAx?$AAe?$AAN?$AAa?$AAm?$AAe?$AA?0?$AA?5?$AA2?$AA6?$AA0?$AA?0?$AA?5?$AA?$CC?$AA?$DM?$AAp?$AAr?$AAo?$AAg?$AAr@ 4009d768     LIBCMTD:dbgrpt.obj
 0002:000117d0       ??_C@_1CI@IDOKFLAJ@?$AA_?$AA_?$AAc?$AAr?$AAt?$AAM?$AAe?$AAs?$AAs?$AAa?$AAg?$AAe?$AAW?$AAi?$AAn?$AAd?$AAo?$AAw?$AAA?$AA?$AA@ 4009d7d0     LIBCMTD:dbgrpt.obj
 0002:000117f8       ??_C@_1BK@CDOALEA@?$AA_?$AAc?$AAo?$AAn?$AAt?$AAr?$AAo?$AAl?$AAf?$AAp?$AA_?$AAs?$AA?$AA@ 4009d7f8     LIBCMTD:_contrlfp_.obj
 0002:00011818       ??_C@_1HI@JIOCECAH@?$AAf?$AA?3?$AA?2?$AAd?$AAd?$AA?2?$AAv?$AAc?$AAt?$AAo?$AAo?$AAl?$AAs?$AA?2?$AAc?$AAr?$AAt?$AA_?$AAb?$AAl?$AAd?$AA?2?$AAs?$AAe?$AAl?$AAf?$AA_?$AAx?$AA8?$AA6?$AA?2?$AAc@ 4009d818     LIBCMTD:_contrlfp_.obj
 0002:00011890       ??_C@_1DG@JNDMIEJL@?$AA?$CI?$AA?$CC?$AAI?$AAn?$AAv?$AAa?$AAl?$AAi?$AAd?$AA?5?$AAi?$AAn?$AAp?$AAu?$AAt?$AA?5?$AAv?$AAa?$AAl?$AAu?$AAe?$AA?$CC?$AA?0?$AA?5?$AA0?$AA?$CJ?$AA?$AA@ 4009d890     LIBCMTD:_contrlfp_.obj
 0002:000118c8       ??_C@_1BK@CLIEHFDF@?$AAp?$AAf?$AAl?$AAt?$AA?5?$AA?$CB?$AA?$DN?$AA?5?$AAN?$AAU?$AAL?$AAL?$AA?$AA@ 4009d8c8     LIBCMTD:_fptostr.obj
 0002:000118e8       ??_C@_1GM@CEDLGDDI@?$AAs?$AAi?$AAz?$AAe?$AAI?$AAn?$AAB?$AAy?$AAt?$AAe?$AAs?$AA?5?$AA?$DO?$AA?5?$AA?$CI?$AAs?$AAi?$AAz?$AAe?$AA_?$AAt?$AA?$CJ?$AA?$CI?$AA?$CI?$AAd?$AAi?$AAg?$AAi?$AAt?$AAs?$AA?5?$AA?$DO@ 4009d8e8     LIBCMTD:_fptostr.obj
 0002:00011954       ??_C@_1BC@OPALLEB@?$AA_?$AAf?$AAp?$AAt?$AAo?$AAs?$AAt?$AAr?$AA?$AA@ 4009d954     LIBCMTD:_fptostr.obj
 0002:00011968       ??_C@_1GE@BDKOPHIO@?$AAf?$AA?3?$AA?2?$AAd?$AAd?$AA?2?$AAv?$AAc?$AAt?$AAo?$AAo?$AAl?$AAs?$AA?2?$AAc?$AAr?$AAt?$AA_?$AAb?$AAl?$AAd?$AA?2?$AAs?$AAe?$AAl?$AAf?$AA_?$AAx?$AA8?$AA6?$AA?2?$AAc@ 4009d968     LIBCMTD:_fptostr.obj
 0002:000119d0       ??_C@_1FK@KODCOBKF@?$AAs?$AAt?$AAr?$AAc?$AAp?$AAy?$AA_?$AAs?$AA?$CI?$AAr?$AAe?$AAs?$AAu?$AAl?$AAt?$AAs?$AAt?$AAr?$AA?0?$AA?5?$AAr?$AAe?$AAs?$AAu?$AAl?$AAt?$AAs?$AAi?$AAz?$AAe?$AA?0?$AA?5@ 4009d9d0     LIBCMTD:_cfout_.obj
 0002:00011a2c       ??_C@_1BC@BPMMEHLK@?$AA_?$AAf?$AAl?$AAt?$AAo?$AAu?$AAt?$AA2?$AA?$AA@ 4009da2c     LIBCMTD:_cfout_.obj
 0002:00011a40       ??_C@_1HC@PKFDNKN@?$AAf?$AA?3?$AA?2?$AAd?$AAd?$AA?2?$AAv?$AAc?$AAt?$AAo?$AAo?$AAl?$AAs?$AA?2?$AAc?$AAr?$AAt?$AA_?$AAb?$AAl?$AAd?$AA?2?$AAs?$AAe?$AAl?$AAf?$AA_?$AAx?$AA8?$AA6?$AA?2?$AAc@ 4009da40     LIBCMTD:_cfout_.obj
 0002:00011ab4       ??_C@_1CG@EBJECAJM@?$AA_?$AAs?$AAe?$AAt?$AA_?$AAo?$AAu?$AAt?$AAp?$AAu?$AAt?$AA_?$AAf?$AAo?$AAr?$AAm?$AAa?$AAt?$AA?$AA@ 4009dab4     LIBCMTD:outputformat.obj
 0002:00011ae0       ??_C@_1GM@NFGGJJCM@?$AAf?$AA?3?$AA?2?$AAd?$AAd?$AA?2?$AAv?$AAc?$AAt?$AAo?$AAo?$AAl?$AAs?$AA?2?$AAc?$AAr?$AAt?$AA_?$AAb?$AAl?$AAd?$AA?2?$AAs?$AAe?$AAl?$AAf?$AA_?$AAx?$AA8?$AA6?$AA?2?$AAc@ 4009dae0     LIBCMTD:outputformat.obj
 0002:00011b50       ??_C@_1EM@EGEEBJLG@?$AA?$CI?$AAo?$AAp?$AAt?$AAi?$AAo?$AAn?$AAs?$AA?5?$AA?$CG?$AA?5?$AA?$HO?$AA_?$AAT?$AAW?$AAO?$AA_?$AAD?$AAI?$AAG?$AAI?$AAT?$AA_?$AAE?$AAX?$AAP?$AAO?$AAN?$AAE?$AAN?$AAT?$AA?$CJ@ 4009db50     LIBCMTD:outputformat.obj
 0002:00011b9c       ??_C@_1DM@MADKGDLO@?$AA?$CI?$AAL?$AA?$CC?$AAB?$AAu?$AAf?$AAf?$AAe?$AAr?$AA?5?$AAi?$AAs?$AA?5?$AAt?$AAo?$AAo?$AA?5?$AAs?$AAm?$AAa?$AAl?$AAl?$AA?$CC?$AA?5?$AA?$CG?$AA?$CG?$AA?5?$AA0?$AA?$CJ?$AA?$AA@ 4009db9c     LIBCMTD:strcpy_s.obj
 0002:00011bd8       ??_C@_1CI@HCPHDDLE@?$AAB?$AAu?$AAf?$AAf?$AAe?$AAr?$AA?5?$AAi?$AAs?$AA?5?$AAt?$AAo?$AAo?$AA?5?$AAs?$AAm?$AAa?$AAl?$AAl?$AA?$AA@ 4009dbd8     LIBCMTD:strcpy_s.obj
 0002:00011c00       ??_C@_1CG@OFBJMIGJ@?$AA?$CI?$AA?$CI?$AA?$CI?$AA_?$AAS?$AAr?$AAc?$AA?$CJ?$AA?$CJ?$AA?$CJ?$AA?5?$AA?$CB?$AA?$DN?$AA?5?$AAN?$AAU?$AAL?$AAL?$AA?$AA@ 4009dc00     LIBCMTD:strcpy_s.obj
 0002:00011c28       ??_C@_1BC@CFJEPFGF@?$AAs?$AAt?$AAr?$AAc?$AAp?$AAy?$AA_?$AAs?$AA?$AA@ 4009dc28     LIBCMTD:strcpy_s.obj
 0002:00011c40       ??_C@_1GI@BGBNCIMA@?$AAf?$AA?3?$AA?2?$AAd?$AAd?$AA?2?$AAv?$AAc?$AAt?$AAo?$AAo?$AAl?$AAs?$AA?2?$AAc?$AAr?$AAt?$AA_?$AAb?$AAl?$AAd?$AA?2?$AAs?$AAe?$AAl?$AAf?$AA_?$AAx?$AA8?$AA6?$AA?2?$AAc@ 4009dc40     LIBCMTD:strcpy_s.obj
 0002:00011ca8       ??_C@_1FC@NCPEPIBI@?$AA?$CI?$AA?$CI?$AA_?$AAD?$AAs?$AAt?$AA?$CJ?$AA?$CJ?$AA?5?$AA?$CB?$AA?$DN?$AA?5?$AAN?$AAU?$AAL?$AAL?$AA?5?$AA?$CG?$AA?$CG?$AA?5?$AA?$CI?$AA?$CI?$AA_?$AAS?$AAi?$AAz?$AAe?$AAI?$AAn?$AAB?$AAy?$AAt@ 4009dca8     LIBCMTD:strcpy_s.obj
 0002:00011d00       ??_C@_1GE@GJCMHHMH@?$AAf?$AA?3?$AA?2?$AAd?$AAd?$AA?2?$AAv?$AAc?$AAt?$AAo?$AAo?$AAl?$AAs?$AA?2?$AAc?$AAr?$AAt?$AA_?$AAb?$AAl?$AAd?$AA?2?$AAs?$AAe?$AAl?$AAf?$AA_?$AAx?$AA8?$AA6?$AA?2?$AAc@ 4009dd00     LIBCMTD:inittime.obj
 0002:00011d68       ??_C@_1EE@FDHCFDHN@?$AAp?$AAl?$AAo?$AAc?$AAi?$AA?9?$AA?$DO?$AAl?$AAc?$AA_?$AAt?$AAi?$AAm?$AAe?$AA_?$AAc?$AAu?$AAr?$AAr?$AA?9?$AA?$DO?$AAr?$AAe?$AAf?$AAc?$AAo?$AAu?$AAn?$AAt?$AA?5?$AA?$DO?$AA?5@ 4009dd68     LIBCMTD:inittime.obj
 0002:00011dac       ??_C@_0DC@KICHHNFK@f?3?2dd?2vctools?2crt_bld?2self_x86?2c@ 4009ddac     LIBCMTD:inittime.obj
 0002:00011de0       ??_C@_1GC@EDJOCBCL@?$AAf?$AA?3?$AA?2?$AAd?$AAd?$AA?2?$AAv?$AAc?$AAt?$AAo?$AAo?$AAl?$AAs?$AA?2?$AAc?$AAr?$AAt?$AA_?$AAb?$AAl?$AAd?$AA?2?$AAs?$AAe?$AAl?$AAf?$AA_?$AAx?$AA8?$AA6?$AA?2?$AAc@ 4009dde0     LIBCMTD:initnum.obj
 0002:00011e44       ??_C@_1DM@IFKAINNE@?$AAp?$AAl?$AAo?$AAc?$AAi?$AA?9?$AA?$DO?$AAl?$AAc?$AAo?$AAn?$AAv?$AA_?$AAn?$AAu?$AAm?$AA_?$AAr?$AAe?$AAf?$AAc?$AAo?$AAu?$AAn?$AAt?$AA?5?$AA?$DO?$AA?5?$AA0?$AA?$AA@ 4009de44     LIBCMTD:initnum.obj
 0002:00011e80       ??_C@_0DB@KKFMDHFI@f?3?2dd?2vctools?2crt_bld?2self_x86?2c@ 4009de80     LIBCMTD:initnum.obj
 0002:00011eb8       ??_C@_1GC@IKADOFBJ@?$AAf?$AA?3?$AA?2?$AAd?$AAd?$AA?2?$AAv?$AAc?$AAt?$AAo?$AAo?$AAl?$AAs?$AA?2?$AAc?$AAr?$AAt?$AA_?$AAb?$AAl?$AAd?$AA?2?$AAs?$AAe?$AAl?$AAf?$AA_?$AAx?$AA8?$AA6?$AA?2?$AAc@ 4009deb8     LIBCMTD:initmon.obj
 0002:00011f1c       ??_C@_1DM@GKAPAMDO@?$AAp?$AAl?$AAo?$AAc?$AAi?$AA?9?$AA?$DO?$AAl?$AAc?$AAo?$AAn?$AAv?$AA_?$AAm?$AAo?$AAn?$AA_?$AAr?$AAe?$AAf?$AAc?$AAo?$AAu?$AAn?$AAt?$AA?5?$AA?$DO?$AA?5?$AA0?$AA?$AA@ 4009df1c     LIBCMTD:initmon.obj
 0002:00011f58       ??_C@_0DB@BECNGFDL@f?3?2dd?2vctools?2crt_bld?2self_x86?2c@ 4009df58     LIBCMTD:initmon.obj
 0002:00011f90       ___newctype                4009df90     LIBCMTD:ctype.obj
 0002:00012290       __wctype                   4009e290     LIBCMTD:ctype.obj
 0002:00012498       ___newclmap                4009e498     LIBCMTD:ctype.obj
 0002:00012618       ___newcumap                4009e618     LIBCMTD:ctype.obj
 0002:00012798       ??_C@_1DG@NMBGBDM@?$AAp?$AAl?$AAo?$AAc?$AAi?$AA?9?$AA?$DO?$AAc?$AAt?$AAy?$AAp?$AAe?$AA1?$AA_?$AAr?$AAe?$AAf?$AAc?$AAo?$AAu?$AAn?$AAt?$AA?5?$AA?$DO?$AA?5?$AA0?$AA?$AA@ 4009e798     LIBCMTD:initctyp.obj
 0002:000127d0       ??_C@_1GE@OCPKBDKE@?$AAf?$AA?3?$AA?2?$AAd?$AAd?$AA?2?$AAv?$AAc?$AAt?$AAo?$AAo?$AAl?$AAs?$AA?2?$AAc?$AAr?$AAt?$AA_?$AAb?$AAl?$AAd?$AA?2?$AAs?$AAe?$AAl?$AAf?$AA_?$AAx?$AA8?$AA6?$AA?2?$AAc@ 4009e7d0     LIBCMTD:initctyp.obj
 0002:00012834       ??_C@_0DC@EHLBFILA@f?3?2dd?2vctools?2crt_bld?2self_x86?2c@ 4009e834     LIBCMTD:initctyp.obj
 0002:00012868       ??_C@_1BE@NDMJHJJG@?$AAs?$AAt?$AAr?$AAn?$AAc?$AAp?$AAy?$AA_?$AAs?$AA?$AA@ 4009e868     LIBCMTD:strncpy_s.obj
 0002:00012880       ??_C@_1GK@PAJJBKJF@?$AAf?$AA?3?$AA?2?$AAd?$AAd?$AA?2?$AAv?$AAc?$AAt?$AAo?$AAo?$AAl?$AAs?$AA?2?$AAc?$AAr?$AAt?$AA_?$AAb?$AAl?$AAd?$AA?2?$AAs?$AAe?$AAl?$AAf?$AA_?$AAx?$AA8?$AA6?$AA?2?$AAc@ 4009e880     LIBCMTD:strncpy_s.obj
 0002:000128f0       ??_C@_1FA@MJKDNFFB@?$AA?$CI?$AAL?$AA?$CC?$AAS?$AAt?$AAr?$AAi?$AAn?$AAg?$AA?5?$AAi?$AAs?$AA?5?$AAn?$AAo?$AAt?$AA?5?$AAn?$AAu?$AAl?$AAl?$AA?5?$AAt?$AAe?$AAr?$AAm?$AAi?$AAn?$AAa?$AAt?$AAe?$AAd@ 4009e8f0     LIBCMTD:strcat_s.obj
 0002:00012940       ??_C@_1DM@FHLMIEG@?$AAS?$AAt?$AAr?$AAi?$AAn?$AAg?$AA?5?$AAi?$AAs?$AA?5?$AAn?$AAo?$AAt?$AA?5?$AAn?$AAu?$AAl?$AAl?$AA?5?$AAt?$AAe?$AAr?$AAm?$AAi?$AAn?$AAa?$AAt?$AAe?$AAd?$AA?$AA@ 4009e940     LIBCMTD:strcat_s.obj
 0002:0001297c       ??_C@_1BC@HGPNAKGC@?$AAs?$AAt?$AAr?$AAc?$AAa?$AAt?$AA_?$AAs?$AA?$AA@ 4009e97c     LIBCMTD:strcat_s.obj
 0002:00012990       ??_C@_1GI@NOKGIAGA@?$AAf?$AA?3?$AA?2?$AAd?$AAd?$AA?2?$AAv?$AAc?$AAt?$AAo?$AAo?$AAl?$AAs?$AA?2?$AAc?$AAr?$AAt?$AA_?$AAb?$AAl?$AAd?$AA?2?$AAs?$AAe?$AAl?$AAf?$AA_?$AAx?$AA8?$AA6?$AA?2?$AAc@ 4009e990     LIBCMTD:strcat_s.obj
 0002:000129f8       ??_C@_0O@FMJNFNKE@united?9states?$AA@ 4009e9f8     LIBCMTD:getqloc.obj
 0002:00012a08       ??_C@_0P@NDHFFKCA@united?9kingdom?$AA@ 4009ea08     LIBCMTD:getqloc.obj
 0002:00012a18       ??_C@_0BC@HHDADLGF@trinidad?5?$CG?5tobago?$AA@ 4009ea18     LIBCMTD:getqloc.obj
 0002:00012a2c       ??_C@_0M@IOAEBDAC@south?9korea?$AA@ 4009ea2c     LIBCMTD:getqloc.obj
 0002:00012a38       ??_C@_0N@FIELFKIJ@south?9africa?$AA@ 4009ea38     LIBCMTD:getqloc.obj
 0002:00012a48       ??_C@_0M@OPNDHCMC@south?5korea?$AA@ 4009ea48     LIBCMTD:getqloc.obj
 0002:00012a54       ??_C@_0N@MDEOEPFI@south?5africa?$AA@ 4009ea54     LIBCMTD:getqloc.obj
 0002:00012a64       ??_C@_06FKAPCJLB@slovak?$AA@ 4009ea64     LIBCMTD:getqloc.obj
 0002:00012a6c       ??_C@_0M@EFJANOAL@puerto?9rico?$AA@ 4009ea6c     LIBCMTD:getqloc.obj
 0002:00012a78       ??_C@_08PGOJKDAI@pr?9china?$AA@ 4009ea78     LIBCMTD:getqloc.obj
 0002:00012a84       ??_C@_08JHDOMCMI@pr?5china?$AA@ 4009ea84     LIBCMTD:getqloc.obj
 0002:00012a90       ??_C@_02JHCHFBLL@nz?$AA@   4009ea90     LIBCMTD:getqloc.obj
 0002:00012a94       ??_C@_0M@LINHDHKP@new?9zealand?$AA@ 4009ea94     LIBCMTD:getqloc.obj
 0002:00012aa0       ??_C@_09IIIPPBDB@hong?9kong?$AA@ 4009eaa0     LIBCMTD:getqloc.obj
 0002:00012aac       ??_C@_07HJLCKBG@holland?$AA@ 4009eaac     LIBCMTD:getqloc.obj
 0002:00012ab4       ??_C@_0O@LEHGMHAG@great?5britain?$AA@ 4009eab4     LIBCMTD:getqloc.obj
 0002:00012ac4       ??_C@_07FACOMELA@england?$AA@ 4009eac4     LIBCMTD:getqloc.obj
 0002:00012acc       ??_C@_05JIHCEICB@czech?$AA@ 4009eacc     LIBCMTD:getqloc.obj
 0002:00012ad4       ??_C@_05BBJOBLGB@china?$AA@ 4009ead4     LIBCMTD:getqloc.obj
 0002:00012adc       ??_C@_07GPKPHICP@britain?$AA@ 4009eadc     LIBCMTD:getqloc.obj
 0002:00012ae4       ??_C@_07MHIPBHMG@america?$AA@ 4009eae4     LIBCMTD:getqloc.obj
 0002:00012aec       ??_C@_03KIALPMKC@usa?$AA@  4009eaec     LIBCMTD:getqloc.obj
 0002:00012af0       ??_C@_02FGJGKGGD@us?$AA@   4009eaf0     LIBCMTD:getqloc.obj
 0002:00012af4       ??_C@_02NEINDODK@uk?$AA@   4009eaf4     LIBCMTD:getqloc.obj
 0002:00012af8       ??_C@_05JMPCFJFJ@swiss?$AA@ 4009eaf8     LIBCMTD:getqloc.obj
 0002:00012b00       ??_C@_0BA@HLOCPIOD@swedish?9finland?$AA@ 4009eb00     LIBCMTD:getqloc.obj
 0002:00012b10       ??_C@_0BC@PKCNIABK@spanish?9venezuela?$AA@ 4009eb10     LIBCMTD:getqloc.obj
 0002:00012b24       ??_C@_0BA@GBHHMIJI@spanish?9uruguay?$AA@ 4009eb24     LIBCMTD:getqloc.obj
 0002:00012b34       ??_C@_0BE@BHDOHPMC@spanish?9puerto?5rico?$AA@ 4009eb34     LIBCMTD:getqloc.obj
 0002:00012b48       ??_C@_0N@KMOIDGGN@spanish?9peru?$AA@ 4009eb48     LIBCMTD:getqloc.obj
 0002:00012b58       ??_C@_0BB@HMHLPGPH@spanish?9paraguay?$AA@ 4009eb58     LIBCMTD:getqloc.obj
 0002:00012b6c       ??_C@_0P@MCPKNGFD@spanish?9panama?$AA@ 4009eb6c     LIBCMTD:getqloc.obj
 0002:00012b7c       ??_C@_0BC@IHOHGAIL@spanish?9nicaragua?$AA@ 4009eb7c     LIBCMTD:getqloc.obj
 0002:00012b90       ??_C@_0P@KLMJDNFJ@spanish?9modern?$AA@ 4009eb90     LIBCMTD:getqloc.obj
 0002:00012ba0       ??_C@_0BA@BPAPGBCM@spanish?9mexican?$AA@ 4009eba0     LIBCMTD:getqloc.obj
 0002:00012bb0       ??_C@_0BB@PDECHHHE@spanish?9honduras?$AA@ 4009ebb0     LIBCMTD:getqloc.obj
 0002:00012bc4       ??_C@_0BC@KLHKFGDB@spanish?9guatemala?$AA@ 4009ebc4     LIBCMTD:getqloc.obj
 0002:00012bd8       ??_C@_0BE@MFOOKJAI@spanish?9el?5salvador?$AA@ 4009ebd8     LIBCMTD:getqloc.obj
 0002:00012bec       ??_C@_0BA@FCOKFPFC@spanish?9ecuador?$AA@ 4009ebec     LIBCMTD:getqloc.obj
 0002:00012bfc       ??_C@_0BL@PLMGIMOO@spanish?9dominican?5republic?$AA@ 4009ebfc     LIBCMTD:getqloc.obj
 0002:00012c18       ??_C@_0BD@HLGDNMHB@spanish?9costa?5rica?$AA@ 4009ec18     LIBCMTD:getqloc.obj
 0002:00012c2c       ??_C@_0BB@PKCBKCPE@spanish?9colombia?$AA@ 4009ec2c     LIBCMTD:getqloc.obj
 0002:00012c40       ??_C@_0O@MCBIJGNE@spanish?9chile?$AA@ 4009ec40     LIBCMTD:getqloc.obj
 0002:00012c50       ??_C@_0BA@BEFEIGJJ@spanish?9bolivia?$AA@ 4009ec50     LIBCMTD:getqloc.obj
 0002:00012c60       ??_C@_0BC@EMECMPD@spanish?9argentina?$AA@ 4009ec60     LIBCMTD:getqloc.obj
 0002:00012c74       ??_C@_0BF@EALFLENP@portuguese?9brazilian?$AA@ 4009ec74     LIBCMTD:getqloc.obj
 0002:00012c8c       ??_C@_0BC@HBLEBLNN@norwegian?9nynorsk?$AA@ 4009ec8c     LIBCMTD:getqloc.obj
 0002:00012ca0       ??_C@_0BB@HMACDDCK@norwegian?9bokmal?$AA@ 4009eca0     LIBCMTD:getqloc.obj
 0002:00012cb4       ??_C@_09BAFFPPHE@norwegian?$AA@ 4009ecb4     LIBCMTD:getqloc.obj
 0002:00012cc0       ??_C@_0O@EAJFJDFG@italian?9swiss?$AA@ 4009ecc0     LIBCMTD:getqloc.obj
 0002:00012cd0       ??_C@_0O@CNOMPGD@irish?9english?$AA@ 4009ecd0     LIBCMTD:getqloc.obj
 0002:00012ce0       ??_C@_0N@EDHBGCKG@german?9swiss?$AA@ 4009ece0     LIBCMTD:getqloc.obj
 0002:00012cf0       ??_C@_0BC@JACMHNBP@german?9luxembourg?$AA@ 4009ecf0     LIBCMTD:getqloc.obj
 0002:00012d04       ??_C@_0BE@HBGMGFEG@german?9lichtenstein?$AA@ 4009ed04     LIBCMTD:getqloc.obj
 0002:00012d18       ??_C@_0BA@HKKBIBKL@german?9austrian?$AA@ 4009ed18     LIBCMTD:getqloc.obj
 0002:00012d28       ??_C@_0N@GCAEPEBK@french?9swiss?$AA@ 4009ed28     LIBCMTD:getqloc.obj
 0002:00012d38       ??_C@_0BC@DJFJJCK@french?9luxembourg?$AA@ 4009ed38     LIBCMTD:getqloc.obj
 0002:00012d4c       ??_C@_0BA@NNCEDFIC@french?9canadian?$AA@ 4009ed4c     LIBCMTD:getqloc.obj
 0002:00012d5c       ??_C@_0P@CMPOCLM@french?9belgian?$AA@ 4009ed5c     LIBCMTD:getqloc.obj
 0002:00012d6c       ??_C@_0M@GHHDJOK@english?9usa?$AA@ 4009ed6c     LIBCMTD:getqloc.obj
 0002:00012d78       ??_C@_0L@PLDJKEIL@english?9us?$AA@ 4009ed78     LIBCMTD:getqloc.obj
 0002:00012d84       ??_C@_0L@HJCCDMNC@english?9uk?$AA@ 4009ed84     LIBCMTD:getqloc.obj
 0002:00012d90       ??_C@_0BK@CKLIAGJB@english?9trinidad?5y?5tobago?$AA@ 4009ed90     LIBCMTD:getqloc.obj
 0002:00012dac       ??_C@_0BF@JMJMGNNF@english?9south?5africa?$AA@ 4009edac     LIBCMTD:getqloc.obj
 0002:00012dc4       ??_C@_0L@DKIIFDFD@english?9nz?$AA@ 4009edc4     LIBCMTD:getqloc.obj
 0002:00012dd0       ??_C@_0BA@ONHGJCLH@english?9jamaica?$AA@ 4009edd0     LIBCMTD:getqloc.obj
 0002:00012de0       ??_C@_0M@HJBGHOPO@english?9ire?$AA@ 4009ede0     LIBCMTD:getqloc.obj
 0002:00012dec       ??_C@_0BC@LFEKMIFB@english?9caribbean?$AA@ 4009edec     LIBCMTD:getqloc.obj
 0002:00012e00       ??_C@_0M@OLDPFKHI@english?9can?$AA@ 4009ee00     LIBCMTD:getqloc.obj
 0002:00012e0c       ??_C@_0P@OMDEHBMP@english?9belize?$AA@ 4009ee0c     LIBCMTD:getqloc.obj
 0002:00012e1c       ??_C@_0M@KFHFPFED@english?9aus?$AA@ 4009ee1c     LIBCMTD:getqloc.obj
 0002:00012e28       ??_C@_0BB@MNMBKDFE@english?9american?$AA@ 4009ee28     LIBCMTD:getqloc.obj
 0002:00012e3c       ??_C@_0O@KIDLNNBA@dutch?9belgian?$AA@ 4009ee3c     LIBCMTD:getqloc.obj
 0002:00012e4c       ??_C@_0BE@JBKABBMH@chinese?9traditional?$AA@ 4009ee4c     LIBCMTD:getqloc.obj
 0002:00012e60       ??_C@_0BC@MJJMPKCG@chinese?9singapore?$AA@ 4009ee60     LIBCMTD:getqloc.obj
 0002:00012e74       ??_C@_0BD@FDKADDCP@chinese?9simplified?$AA@ 4009ee74     LIBCMTD:getqloc.obj
 0002:00012e88       ??_C@_0BB@DBEFDDME@chinese?9hongkong?$AA@ 4009ee88     LIBCMTD:getqloc.obj
 0002:00012e9c       ??_C@_07DHNMFMCI@chinese?$AA@ 4009ee9c     LIBCMTD:getqloc.obj
 0002:00012ea4       ??_C@_03FNDDCHI@chi?$AA@   4009eea4     LIBCMTD:getqloc.obj
 0002:00012ea8       ??_C@_03BMMIADDJ@chh?$AA@  4009eea8     LIBCMTD:getqloc.obj
 0002:00012eac       ??_C@_08OAIPJDGI@canadian?$AA@ 4009eeac     LIBCMTD:getqloc.obj
 0002:00012eb8       ??_C@_07HBPMNPNJ@belgian?$AA@ 4009eeb8     LIBCMTD:getqloc.obj
 0002:00012ec0       ??_C@_0L@OEKOPBEL@australian?$AA@ 4009eec0     LIBCMTD:getqloc.obj
 0002:00012ecc       ??_C@_0BB@MEIMBEDG@american?9english?$AA@ 4009eecc     LIBCMTD:getqloc.obj
 0002:00012ee0       ??_C@_0BB@DFMDPDGB@american?5english?$AA@ 4009eee0     LIBCMTD:getqloc.obj
 0002:00012ef4       ??_C@_08IJLOKOLL@american?$AA@ 4009eef4     LIBCMTD:getqloc.obj
 0002:00012f00       ___rg_language             4009ef00     LIBCMTD:getqloc.obj
 0002:00013108       ___rg_country              4009f108     LIBCMTD:getqloc.obj
 0002:000131c0       ___rglangidNotDefault      4009f1c0     LIBCMTD:getqloc.obj
 0002:000131d4       ??_C@_0BC@NFIEMBLL@Norwegian?9Nynorsk?$AA@ 4009f1d4     LIBCMTD:getqloc.obj
 0002:000131e8       ??_C@_1OM@OECHDGCF@?$AAs?$AAt?$AAr?$AAc?$AAp?$AAy?$AA_?$AAs?$AA?$CI?$AAl?$AAp?$AAO?$AAu?$AAt?$AAS?$AAt?$AAr?$AA?9?$AA?$DO?$AAs?$AAz?$AAL?$AAa?$AAn?$AAg?$AAu?$AAa?$AAg?$AAe?$AA?0?$AA?5?$AA?$CI@ 4009f1e8     LIBCMTD:getqloc.obj
 0002:000132d4       ??_C@_1CO@NJACLALJ@?$AA_?$AA_?$AAg?$AAe?$AAt?$AA_?$AAq?$AAu?$AAa?$AAl?$AAi?$AAf?$AAi?$AAe?$AAd?$AA_?$AAl?$AAo?$AAc?$AAa?$AAl?$AAe?$AA?$AA@ 4009f2d4     LIBCMTD:getqloc.obj
 0002:00013308       ??_C@_1GC@FECJGAE@?$AAf?$AA?3?$AA?2?$AAd?$AAd?$AA?2?$AAv?$AAc?$AAt?$AAo?$AAo?$AAl?$AAs?$AA?2?$AAc?$AAr?$AAt?$AA_?$AAb?$AAl?$AAd?$AA?2?$AAs?$AAe?$AAl?$AAf?$AA_?$AAx?$AA8?$AA6?$AA?2?$AAc@ 4009f308     LIBCMTD:getqloc.obj
 0002:0001336c       ??_C@_03NFKLAGEF@OCP?$AA@  4009f36c     LIBCMTD:getqloc.obj
 0002:00013370       ??_C@_03DFHEHBHG@ACP?$AA@  4009f370     LIBCMTD:getqloc.obj
 0002:00013374       ??_C@_0L@KDOEJCKC@_nextafter?$AA@ 4009f374     LIBCMTD:_fpexcept_.obj
 0002:00013380       ??_C@_05JGDBENOH@_logb?$AA@ 4009f380     LIBCMTD:_fpexcept_.obj
 0002:00013388       ??_C@_03ONILCKOB@_yn?$AA@  4009f388     LIBCMTD:_fpexcept_.obj
 0002:0001338c       ??_C@_03NAKIGLHK@_y1?$AA@  4009f38c     LIBCMTD:_fpexcept_.obj
 0002:00013390       ??_C@_03MJLDFKDL@_y0?$AA@  4009f390     LIBCMTD:_fpexcept_.obj
 0002:00013394       ??_C@_05GKKHEGJL@frexp?$AA@ 4009f394     LIBCMTD:_fpexcept_.obj
 0002:0001339c       ??_C@_04KEPJIHGP@fmod?$AA@ 4009f39c     LIBCMTD:_fpexcept_.obj
 0002:000133a4       ??_C@_06MEIMCGCF@_hypot?$AA@ 4009f3a4     LIBCMTD:_fpexcept_.obj
 0002:000133ac       ??_C@_05KBKMEMPO@_cabs?$AA@ 4009f3ac     LIBCMTD:_fpexcept_.obj
 0002:000133b4       ??_C@_05CEJMAHNP@ldexp?$AA@ 4009f3b4     LIBCMTD:_fpexcept_.obj
 0002:000133bc       ??_C@_04ODHECPBC@fabs?$AA@ 4009f3bc     LIBCMTD:_fpexcept_.obj
 0002:000133c4       ??_C@_04EIAKFFMI@sqrt?$AA@ 4009f3c4     LIBCMTD:_fpexcept_.obj
 0002:000133cc       ??_C@_05KNGEOGJB@atan2?$AA@ 4009f3cc     LIBCMTD:_fpexcept_.obj
 0002:000133d4       ??_C@_04FJHINJAO@tanh?$AA@ 4009f3d4     LIBCMTD:_fpexcept_.obj
 0002:000133dc       ??_C@_04HPJJNFIM@cosh?$AA@ 4009f3dc     LIBCMTD:_fpexcept_.obj
 0002:000133e4       ??_C@_04COOMCNPB@sinh?$AA@ 4009f3e4     LIBCMTD:_fpexcept_.obj
 0002:000133f0       ??_C@_1NK@LOFHIHFC@?$AAf?$AAM?$AAo?$AAd?$AAe?$AA?5?$AA?$DN?$AA?$DN?$AA?5?$AA_?$AAC?$AAR?$AAT?$AAD?$AAB?$AAG?$AA_?$AAR?$AAE?$AAP?$AAO?$AAR?$AAT?$AA_?$AAM?$AAO?$AAD?$AAE?$AA?5?$AA?$HM?$AA?$HM?$AA?5@ 4009f3f0     LIBCMTD:dbgrptt.obj
 0002:000134cc       ??_C@_1CE@FIHIECNJ@?$AA_?$AAC?$AAr?$AAt?$AAS?$AAe?$AAt?$AAR?$AAe?$AAp?$AAo?$AAr?$AAt?$AAM?$AAo?$AAd?$AAe?$AA?$AA@ 4009f4cc     LIBCMTD:dbgrptt.obj
 0002:000134f0       ??_C@_1GC@FIGJJMEN@?$AAf?$AA?3?$AA?2?$AAd?$AAd?$AA?2?$AAv?$AAc?$AAt?$AAo?$AAo?$AAl?$AAs?$AA?2?$AAc?$AAr?$AAt?$AA_?$AAb?$AAl?$AAd?$AA?2?$AAs?$AAe?$AAl?$AAf?$AA_?$AAx?$AA8?$AA6?$AA?2?$AAc@ 4009f4f0     LIBCMTD:dbgrptt.obj
 0002:00013558       ??_C@_1FA@IFFFOLDJ@?$AAn?$AAR?$AAp?$AAt?$AAT?$AAy?$AAp?$AAe?$AA?5?$AA?$DO?$AA?$DN?$AA?5?$AA0?$AA?5?$AA?$CG?$AA?$CG?$AA?5?$AAn?$AAR?$AAp?$AAt?$AAT?$AAy?$AAp?$AAe?$AA?5?$AA?$DM?$AA?5?$AA_?$AAC?$AAR?$AAT@ 4009f558     LIBCMTD:dbgrptt.obj
 0002:000135a8       ??_C@_1CE@IKKEDCME@?$AA_?$AAC?$AAr?$AAt?$AAS?$AAe?$AAt?$AAR?$AAe?$AAp?$AAo?$AAr?$AAt?$AAF?$AAi?$AAl?$AAe?$AA?$AA@ 4009f5a8     LIBCMTD:dbgrptt.obj
 0002:000135d0       ??_C@_1HO@PJOFIKFE@?$AA_?$AAC?$AAr?$AAt?$AAD?$AAb?$AAg?$AAR?$AAe?$AAp?$AAo?$AAr?$AAt?$AA?3?$AA?5?$AAS?$AAt?$AAr?$AAi?$AAn?$AAg?$AA?5?$AAt?$AAo?$AAo?$AA?5?$AAl?$AAo?$AAn?$AAg?$AA?5?$AAo@ 4009f5d0     LIBCMTD:dbgrptt.obj
 0002:00013650       ??_C@_1MC@IGEECMDB@?$AAw?$AAc?$AAs?$AAc?$AAp?$AAy?$AA_?$AAs?$AA?$CI?$AAs?$AAz?$AAO?$AAu?$AAt?$AAM?$AAe?$AAs?$AAs?$AAa?$AAg?$AAe?$AA2?$AA?0?$AA?5?$AA4?$AA0?$AA9?$AA6?$AA?0?$AA?5?$AAL?$AA?$CC@ 4009f650     LIBCMTD:dbgrptt.obj
 0002:00013718       ??_C@_1IM@OOKIFKOH@?$AAe?$AA?5?$AA?$DN?$AA?5?$AAm?$AAb?$AAs?$AAt?$AAo?$AAw?$AAc?$AAs?$AA_?$AAs?$AA?$CI?$AA?$CG?$AAr?$AAe?$AAt?$AA?0?$AA?5?$AAs?$AAz?$AAO?$AAu?$AAt?$AAM?$AAe?$AAs?$AAs?$AAa?$AAg@ 4009f718     LIBCMTD:dbgrptt.obj
 0002:000137a8       ??_C@_1FI@IBIOIHEG@?$AAs?$AAt?$AAr?$AAc?$AAp?$AAy?$AA_?$AAs?$AA?$CI?$AAs?$AAz?$AAO?$AAu?$AAt?$AAM?$AAe?$AAs?$AAs?$AAa?$AAg?$AAe?$AA?0?$AA?5?$AA4?$AA0?$AA9?$AA6?$AA?0?$AA?5?$AAs?$AAz?$AAL@ 4009f7a8     LIBCMTD:dbgrptt.obj
 0002:00013800       ??_C@_0M@IPILFDFN@?$CFs?$CI?$CFd?$CJ?5?3?5?$CFs?$AA@ 4009f800     LIBCMTD:dbgrptt.obj
 0002:00013810       ??_C@_1EI@LDHJEDO@?$AAs?$AAt?$AAr?$AAc?$AAa?$AAt?$AA_?$AAs?$AA?$CI?$AAs?$AAz?$AAL?$AAi?$AAn?$AAe?$AAM?$AAe?$AAs?$AAs?$AAa?$AAg?$AAe?$AA?0?$AA?5?$AA4?$AA0?$AA9?$AA6?$AA?0?$AA?5?$AA?$CC?$AA?2@ 4009f810     LIBCMTD:dbgrptt.obj
 0002:00013858       ??_C@_01LIIJDEN@?$AN?$AA@  4009f858     LIBCMTD:dbgrptt.obj
 0002:00013860       ??_C@_1EI@CACDLAFK@?$AAs?$AAt?$AAr?$AAc?$AAa?$AAt?$AA_?$AAs?$AA?$CI?$AAs?$AAz?$AAL?$AAi?$AAn?$AAe?$AAM?$AAe?$AAs?$AAs?$AAa?$AAg?$AAe?$AA?0?$AA?5?$AA4?$AA0?$AA9?$AA6?$AA?0?$AA?5?$AA?$CC?$AA?2@ 4009f860     LIBCMTD:dbgrptt.obj
 0002:000138a8       ??_C@_1FK@NPGBPOFO@?$AAs?$AAt?$AAr?$AAc?$AAa?$AAt?$AA_?$AAs?$AA?$CI?$AAs?$AAz?$AAL?$AAi?$AAn?$AAe?$AAM?$AAe?$AAs?$AAs?$AAa?$AAg?$AAe?$AA?0?$AA?5?$AA4?$AA0?$AA9?$AA6?$AA?0?$AA?5?$AAs?$AAz@ 4009f8a8     LIBCMTD:dbgrptt.obj
 0002:00013908       ??_C@_1KK@GIGAEDMO@?$AAs?$AAt?$AAr?$AAc?$AAp?$AAy?$AA_?$AAs?$AA?$CI?$AAs?$AAz?$AAL?$AAi?$AAn?$AAe?$AAM?$AAe?$AAs?$AAs?$AAa?$AAg?$AAe?$AA?0?$AA?5?$AA4?$AA0?$AA9?$AA6?$AA?0?$AA?5?$AAs?$AAz@ 4009f908     LIBCMTD:dbgrptt.obj
 0002:000139b4       ??_C@_0BC@LAIDCHCH@Assertion?5failed?$CB?$AA@ 4009f9b4     LIBCMTD:dbgrptt.obj
 0002:000139c8       ??_C@_0BD@CAENFOHP@Assertion?5failed?3?5?$AA@ 4009f9c8     LIBCMTD:dbgrptt.obj
 0002:000139e0       ??_C@_1JI@GAALPGBM@?$AAs?$AAt?$AAr?$AAc?$AAp?$AAy?$AA_?$AAs?$AA?$CI?$AAs?$AAz?$AAU?$AAs?$AAe?$AAr?$AAM?$AAe?$AAs?$AAs?$AAa?$AAg?$AAe?$AA?0?$AA?5?$AA4?$AA0?$AA9?$AA6?$AA?0?$AA?5?$AA?$CC?$AA_@ 4009f9e0     LIBCMTD:dbgrptt.obj
 0002:00013a78       ??_C@_07BHGABMGB@?0?5Line?5?$AA@ 4009fa78     LIBCMTD:dbgrptt.obj
 0002:00013a80       ??_C@_0P@DFJNDPOP@?$DMfile?5unknown?$DO?$AA@ 4009fa80     LIBCMTD:dbgrptt.obj
 0002:00013a90       ??_C@_0CG@BNGLOCEO@Second?5Chance?5Assertion?5Failed?3?5@ 4009fa90     LIBCMTD:dbgrptt.obj
 0002:00013ab8       ??_C@_1FA@JPHJBHEM@?$AA_?$AAi?$AAt?$AAo?$AAa?$AA_?$AAs?$AA?$CI?$AAn?$AAL?$AAi?$AAn?$AAe?$AA?0?$AA?5?$AAs?$AAz?$AAL?$AAi?$AAn?$AAe?$AAM?$AAe?$AAs?$AAs?$AAa?$AAg?$AAe?$AA?0?$AA?5?$AA4?$AA0@ 4009fab8     LIBCMTD:dbgrptt.obj
 0002:00013b08       ??_C@_1CA@KHJHLKA@?$AA_?$AAV?$AAC?$AAr?$AAt?$AAD?$AAb?$AAg?$AAR?$AAe?$AAp?$AAo?$AAr?$AAt?$AAA?$AA?$AA@ 4009fb08     LIBCMTD:dbgrptt.obj
 0002:00013b28       ??_C@_1IE@CPGKIAGP@?$AAw?$AAc?$AAs?$AAt?$AAo?$AAm?$AAb?$AAs?$AA_?$AAs?$AA?$CI?$AA?$CG?$AAr?$AAe?$AAt?$AA?0?$AA?5?$AAs?$AAz?$AAa?$AAO?$AAu?$AAt?$AAM?$AAe?$AAs?$AAs?$AAa?$AAg?$AAe?$AA?0?$AA?5@ 4009fb28     LIBCMTD:dbgrptt.obj
 0002:00013bac       ??_C@_0DP@GNPEPHJD@_CrtDbgReport?3?5String?5too?5long?5o@ 4009fbac     LIBCMTD:dbgrptt.obj
 0002:00013bf0       ??_C@_1MA@LBAMNNOB@?$AAs?$AAt?$AAr?$AAc?$AAp?$AAy?$AA_?$AAs?$AA?$CI?$AAs?$AAz?$AAO?$AAu?$AAt?$AAM?$AAe?$AAs?$AAs?$AAa?$AAg?$AAe?$AA2?$AA?0?$AA?5?$AA4?$AA0?$AA9?$AA6?$AA?0?$AA?5?$AA?$CC?$AA_@ 4009fbf0     LIBCMTD:dbgrptt.obj
 0002:00013cb0       ??_C@_1JC@EOAPFDLN@?$AAw?$AAc?$AAs?$AAt?$AAo?$AAm?$AAb?$AAs?$AA_?$AAs?$AA?$CI?$AA?$CI?$AA?$CI?$AAv?$AAo?$AAi?$AAd?$AA?5?$AA?$CK?$AA?$CJ?$AA0?$AA?$CJ?$AA?0?$AA?5?$AAs?$AAz?$AAO?$AAu?$AAt?$AAM?$AAe?$AAs@ 4009fcb0     LIBCMTD:dbgrptt.obj
 0002:00013d48       ??_C@_1FI@DBAIJPJE@?$AAw?$AAc?$AAs?$AAc?$AAp?$AAy?$AA_?$AAs?$AA?$CI?$AAs?$AAz?$AAO?$AAu?$AAt?$AAM?$AAe?$AAs?$AAs?$AAa?$AAg?$AAe?$AA?0?$AA?5?$AA4?$AA0?$AA9?$AA6?$AA?0?$AA?5?$AAs?$AAz?$AAL@ 4009fd48     LIBCMTD:dbgrptt.obj
 0002:00013da0       ??_C@_1BI@JIDBEPIG@?$AA?$CF?$AAs?$AA?$CI?$AA?$CF?$AAd?$AA?$CJ?$AA?5?$AA?3?$AA?5?$AA?$CF?$AAs?$AA?$AA@ 4009fda0     LIBCMTD:dbgrptt.obj
 0002:00013db8       ??_C@_1EK@PHCBEDKB@?$AAw?$AAc?$AAs?$AAc?$AAa?$AAt?$AA_?$AAs?$AA?$CI?$AAs?$AAz?$AAL?$AAi?$AAn?$AAe?$AAM?$AAe?$AAs?$AAs?$AAa?$AAg?$AAe?$AA?0?$AA?5?$AA4?$AA0?$AA9?$AA6?$AA?0?$AA?5?$AAL?$AA?$CC@ 4009fdb8     LIBCMTD:dbgrptt.obj
 0002:00013e04       ??_C@_13CMNBPIDO@?$AA?$AN?$AA?$AA@ 4009fe04     LIBCMTD:dbgrptt.obj
 0002:00013e08       ??_C@_1EK@NMDFGHMF@?$AAw?$AAc?$AAs?$AAc?$AAa?$AAt?$AA_?$AAs?$AA?$CI?$AAs?$AAz?$AAL?$AAi?$AAn?$AAe?$AAM?$AAe?$AAs?$AAs?$AAa?$AAg?$AAe?$AA?0?$AA?5?$AA4?$AA0?$AA9?$AA6?$AA?0?$AA?5?$AAL?$AA?$CC@ 4009fe08     LIBCMTD:dbgrptt.obj
 0002:00013e58       ??_C@_1FK@HPADHBBD@?$AAw?$AAc?$AAs?$AAc?$AAa?$AAt?$AA_?$AAs?$AA?$CI?$AAs?$AAz?$AAL?$AAi?$AAn?$AAe?$AAM?$AAe?$AAs?$AAs?$AAa?$AAg?$AAe?$AA?0?$AA?5?$AA4?$AA0?$AA9?$AA6?$AA?0?$AA?5?$AAs?$AAz@ 4009fe58     LIBCMTD:dbgrptt.obj
 0002:00013eb8       ??_C@_1KO@DGAHENCH@?$AAw?$AAc?$AAs?$AAc?$AAp?$AAy?$AA_?$AAs?$AA?$CI?$AAs?$AAz?$AAL?$AAi?$AAn?$AAe?$AAM?$AAe?$AAs?$AAs?$AAa?$AAg?$AAe?$AA?0?$AA?5?$AA4?$AA0?$AA9?$AA6?$AA?0?$AA?5?$AAs?$AAz@ 4009feb8     LIBCMTD:dbgrptt.obj
 0002:00013f68       ??_C@_1CE@OJBNHDMO@?$AAA?$AAs?$AAs?$AAe?$AAr?$AAt?$AAi?$AAo?$AAn?$AA?5?$AAf?$AAa?$AAi?$AAl?$AAe?$AAd?$AA?$CB?$AA?$AA@ 4009ff68     LIBCMTD:dbgrptt.obj
 0002:00013f8c       ??_C@_1CG@FFFGGODN@?$AAA?$AAs?$AAs?$AAe?$AAr?$AAt?$AAi?$AAo?$AAn?$AA?5?$AAf?$AAa?$AAi?$AAl?$AAe?$AAd?$AA?3?$AA?5?$AA?$AA@ 4009ff8c     LIBCMTD:dbgrptt.obj
 0002:00013fb8       ??_C@_1JK@KHFABAEO@?$AAw?$AAc?$AAs?$AAc?$AAp?$AAy?$AA_?$AAs?$AA?$CI?$AAs?$AAz?$AAU?$AAs?$AAe?$AAr?$AAM?$AAe?$AAs?$AAs?$AAa?$AAg?$AAe?$AA?0?$AA?5?$AA4?$AA0?$AA9?$AA6?$AA?0?$AA?5?$AAL?$AA?$CC@ 4009ffb8     LIBCMTD:dbgrptt.obj
 0002:00014054       ??_C@_13LBAGMAIH@?$AA?6?$AA?$AA@ 400a0054     LIBCMTD:dbgrptt.obj
 0002:00014058       ??_C@_1BA@ELMMDCFC@?$AA?0?$AA?5?$AAL?$AAi?$AAn?$AAe?$AA?5?$AA?$AA@ 400a0058     LIBCMTD:dbgrptt.obj
 0002:00014068       ??_C@_1BO@OCHMLCAG@?$AA?$DM?$AAf?$AAi?$AAl?$AAe?$AA?5?$AAu?$AAn?$AAk?$AAn?$AAo?$AAw?$AAn?$AA?$DO?$AA?$AA@ 400a0068     LIBCMTD:dbgrptt.obj
 0002:00014088       ??_C@_1EM@MJFLEDMB@?$AAS?$AAe?$AAc?$AAo?$AAn?$AAd?$AA?5?$AAC?$AAh?$AAa?$AAn?$AAc?$AAe?$AA?5?$AAA?$AAs?$AAs?$AAe?$AAr?$AAt?$AAi?$AAo?$AAn?$AA?5?$AAF?$AAa?$AAi?$AAl?$AAe?$AAd?$AA?3?$AA?5@ 400a0088     LIBCMTD:dbgrptt.obj
 0002:000140d8       ??_C@_1FA@CNLLOMHI@?$AA_?$AAi?$AAt?$AAo?$AAw?$AA_?$AAs?$AA?$CI?$AAn?$AAL?$AAi?$AAn?$AAe?$AA?0?$AA?5?$AAs?$AAz?$AAL?$AAi?$AAn?$AAe?$AAM?$AAe?$AAs?$AAs?$AAa?$AAg?$AAe?$AA?0?$AA?5?$AA4?$AA0@ 400a00d8     LIBCMTD:dbgrptt.obj
 0002:00014128       ??_C@_1CA@HPALHDOD@?$AA_?$AAV?$AAC?$AAr?$AAt?$AAD?$AAb?$AAg?$AAR?$AAe?$AAp?$AAo?$AAr?$AAt?$AAW?$AA?$AA@ 400a0128     LIBCMTD:dbgrptt.obj
 0002:00014148       ??_C@_0BI@DFKBFLJE@GetProcessWindowStation?$AA@ 400a0148     LIBCMTD:crtmboxw.obj
 0002:00014160       ??_C@_0BK@DEKFELLI@GetUserObjectInformationW?$AA@ 400a0160     LIBCMTD:crtmboxw.obj
 0002:0001417c       ??_C@_0BD@HHGDFDBJ@GetLastActivePopup?$AA@ 400a017c     LIBCMTD:crtmboxw.obj
 0002:00014190       ??_C@_0BA@HNOPNCHB@GetActiveWindow?$AA@ 400a0190     LIBCMTD:crtmboxw.obj
 0002:000141a0       ??_C@_0M@DLDCCGNP@MessageBoxW?$AA@ 400a01a0     LIBCMTD:crtmboxw.obj
 0002:000141ac       ??_C@_1BG@GOEBHBDC@?$AAU?$AAS?$AAE?$AAR?$AA3?$AA2?$AA?4?$AAD?$AAL?$AAL?$AA?$AA@ 400a01ac     LIBCMTD:crtmboxw.obj
 0002:000141c4       ??_C@_1BE@BMIJMLDD@?$AA_?$AAs?$AAw?$AAp?$AAr?$AAi?$AAn?$AAt?$AAf?$AA?$AA@ 400a01c4     LIBCMTD:swprintf.obj
 0002:000141d8       ??_C@_1GE@DKGHLBLP@?$AAf?$AA?3?$AA?2?$AAd?$AAd?$AA?2?$AAv?$AAc?$AAt?$AAo?$AAo?$AAl?$AAs?$AA?2?$AAc?$AAr?$AAt?$AA_?$AAb?$AAl?$AAd?$AA?2?$AAs?$AAe?$AAl?$AAf?$AA_?$AAx?$AA8?$AA6?$AA?2?$AAc@ 400a01d8     LIBCMTD:swprintf.obj
 0002:0001423c       ??_C@_1CK@DDKKOLAN@?$AAs?$AAi?$AAz?$AAe?$AAI?$AAn?$AAB?$AAy?$AAt?$AAe?$AAs?$AA?5?$AA?$DO?$AA?$DN?$AA?5?$AAc?$AAo?$AAu?$AAn?$AAt?$AA?$AA@ 400a023c     LIBCMTD:memcpy_s.obj
 0002:00014268       ??_C@_1BI@DCHLDCPP@?$AAs?$AAr?$AAc?$AA?5?$AA?$CB?$AA?$DN?$AA?5?$AAN?$AAU?$AAL?$AAL?$AA?$AA@ 400a0268     LIBCMTD:memcpy_s.obj
 0002:00014280       ??_C@_1BC@GKHDJMGB@?$AAm?$AAe?$AAm?$AAc?$AAp?$AAy?$AA_?$AAs?$AA?$AA@ 400a0280     LIBCMTD:memcpy_s.obj
 0002:00014298       ??_C@_1GE@NEOPGGBM@?$AAf?$AA?3?$AA?2?$AAd?$AAd?$AA?2?$AAv?$AAc?$AAt?$AAo?$AAo?$AAl?$AAs?$AA?2?$AAc?$AAr?$AAt?$AA_?$AAb?$AAl?$AAd?$AA?2?$AAs?$AAe?$AAl?$AAf?$AA_?$AAx?$AA8?$AA6?$AA?2?$AAc@ 400a0298     LIBCMTD:memcpy_s.obj
 0002:000142fc       ??_C@_1BI@GKKCBDMD@?$AAd?$AAs?$AAt?$AA?5?$AA?$CB?$AA?$DN?$AA?5?$AAN?$AAU?$AAL?$AAL?$AA?$AA@ 400a02fc     LIBCMTD:memcpy_s.obj
 0002:00014314       ??_C@_1BC@KIONAFPO@?$AAw?$AAc?$AAs?$AAc?$AAp?$AAy?$AA_?$AAs?$AA?$AA@ 400a0314     LIBCMTD:wcscpy_s.obj
 0002:00014328       ??_C@_1FC@PFMLEHKI@?$AA?$CI?$AA?$CI?$AA_?$AAD?$AAs?$AAt?$AA?$CJ?$AA?$CJ?$AA?5?$AA?$CB?$AA?$DN?$AA?5?$AAN?$AAU?$AAL?$AAL?$AA?5?$AA?$CG?$AA?$CG?$AA?5?$AA?$CI?$AA?$CI?$AA_?$AAS?$AAi?$AAz?$AAe?$AAI?$AAn?$AAW?$AAo?$AAr@ 400a0328     LIBCMTD:wcscpy_s.obj
 0002:00014380       ??_C@_1JE@ECKHFIFP@?$AA?$CI?$AA?$CC?$AAI?$AAn?$AAv?$AAa?$AAl?$AAi?$AAd?$AA?5?$AAf?$AAi?$AAl?$AAe?$AA?5?$AAd?$AAe?$AAs?$AAc?$AAr?$AAi?$AAp?$AAt?$AAo?$AAr?$AA?4?$AA?5?$AAF?$AAi?$AAl?$AAe?$AA?5@ 400a0380     LIBCMTD:lseeki64.obj
 0002:00014414       ??_C@_1CM@OKGMMMDH@?$AA?$CI?$AA_?$AAo?$AAs?$AAf?$AAi?$AAl?$AAe?$AA?$CI?$AAf?$AAh?$AA?$CJ?$AA?5?$AA?$CG?$AA?5?$AAF?$AAO?$AAP?$AAE?$AAN?$AA?$CJ?$AA?$AA@ 400a0414     LIBCMTD:lseeki64.obj
 0002:00014440       ??_C@_1BE@KHFBJMNM@?$AA_?$AAl?$AAs?$AAe?$AAe?$AAk?$AAi?$AA6?$AA4?$AA?$AA@ 400a0440     LIBCMTD:lseeki64.obj
 0002:00014458       ??_C@_1GE@MINKPNPH@?$AAf?$AA?3?$AA?2?$AAd?$AAd?$AA?2?$AAv?$AAc?$AAt?$AAo?$AAo?$AAl?$AAs?$AA?2?$AAc?$AAr?$AAt?$AA_?$AAb?$AAl?$AAd?$AA?2?$AAs?$AAe?$AAl?$AAf?$AA_?$AAx?$AA8?$AA6?$AA?2?$AAc@ 400a0458     LIBCMTD:lseeki64.obj
 0002:000144c0       ??_C@_1FO@LPCLHKGE@?$AA?$CI?$AAf?$AAh?$AA?5?$AA?$DO?$AA?$DN?$AA?5?$AA0?$AA?5?$AA?$CG?$AA?$CG?$AA?5?$AA?$CI?$AAu?$AAn?$AAs?$AAi?$AAg?$AAn?$AAe?$AAd?$AA?$CJ?$AAf?$AAh?$AA?5?$AA?$DM?$AA?5?$AA?$CI?$AAu?$AAn?$AAs?$AAi@ 400a04c0     LIBCMTD:lseeki64.obj
 0002:00014520       ??_C@_1O@KOFKDHPL@?$AA_?$AAw?$AAr?$AAi?$AAt?$AAe?$AA?$AA@ 400a0520     LIBCMTD:write.obj
 0002:00014530       ??_C@_1FO@EPLDPDDL@?$AAf?$AA?3?$AA?2?$AAd?$AAd?$AA?2?$AAv?$AAc?$AAt?$AAo?$AAo?$AAl?$AAs?$AA?2?$AAc?$AAr?$AAt?$AA_?$AAb?$AAl?$AAd?$AA?2?$AAs?$AAe?$AAl?$AAf?$AA_?$AAx?$AA8?$AA6?$AA?2?$AAc@ 400a0530     LIBCMTD:write.obj
 0002:00014590       ??_C@_1DI@CNMHHHLG@?$AAi?$AAs?$AAl?$AAe?$AAa?$AAd?$AAb?$AAy?$AAt?$AAe?$AA?$CI?$AA_?$AAd?$AAb?$AAc?$AAs?$AAB?$AAu?$AAf?$AAf?$AAe?$AAr?$AA?$CI?$AAf?$AAh?$AA?$CJ?$AA?$CJ?$AA?$AA@ 400a0590     LIBCMTD:write.obj
 0002:000145c8       ??_C@_1CC@EEOLPHGO@?$AA?$CI?$AA?$CI?$AAc?$AAn?$AAt?$AA?5?$AA?$CG?$AA?5?$AA1?$AA?$CJ?$AA?5?$AA?$DN?$AA?$DN?$AA?5?$AA0?$AA?$CJ?$AA?$AA@ 400a05c8     LIBCMTD:write.obj
 0002:000145ec       ??_C@_1BM@NCANHCIP@?$AA_?$AAw?$AAr?$AAi?$AAt?$AAe?$AA_?$AAn?$AAo?$AAl?$AAo?$AAc?$AAk?$AA?$AA@ 400a05ec     LIBCMTD:write.obj
 0002:00014608       ??_C@_1BM@KFJLMBPG@?$AA?$CI?$AAb?$AAu?$AAf?$AA?5?$AA?$CB?$AA?$DN?$AA?5?$AAN?$AAU?$AAL?$AAL?$AA?$CJ?$AA?$AA@ 400a0608     LIBCMTD:write.obj
 0002:00014624       ??_C@_0DB@JEHOCBEJ@f?3?2dd?2vctools?2crt_bld?2self_x86?2c@ 400a0624     LIBCMTD:_getbuf.obj
 0002:00014658       ??_C@_1GC@DKMGNNCC@?$AAf?$AA?3?$AA?2?$AAd?$AAd?$AA?2?$AAv?$AAc?$AAt?$AAo?$AAo?$AAl?$AAs?$AA?2?$AAc?$AAr?$AAt?$AA_?$AAb?$AAl?$AAd?$AA?2?$AAs?$AAe?$AAl?$AAf?$AA_?$AAx?$AA8?$AA6?$AA?2?$AAc@ 400a0658     LIBCMTD:_getbuf.obj
 0002:000146bc       ??_C@_1BA@LEBDGIHM@?$AA_?$AAi?$AAs?$AAa?$AAt?$AAt?$AAy?$AA?$AA@ 400a06bc     LIBCMTD:isatty.obj
 0002:000146d0       ??_C@_1GA@LPGDJDEN@?$AAf?$AA?3?$AA?2?$AAd?$AAd?$AA?2?$AAv?$AAc?$AAt?$AAo?$AAo?$AAl?$AAs?$AA?2?$AAc?$AAr?$AAt?$AA_?$AAb?$AAl?$AAd?$AA?2?$AAs?$AAe?$AAl?$AAf?$AA_?$AAx?$AA8?$AA6?$AA?2?$AAc@ 400a06d0     LIBCMTD:isatty.obj
 0002:00014730       ??_C@_0CP@BNKDODJJ@f?3?2dd?2vctools?2crt_bld?2self_x86?2c@ 400a0730     LIBCMTD:_file.obj
 0002:00014760       ??_C@_1BA@JGHIEKKM@?$AA_?$AAf?$AAi?$AAl?$AAe?$AAn?$AAo?$AA?$AA@ 400a0760     LIBCMTD:fileno.obj
 0002:00014770       ??_C@_1GA@PBJHELNC@?$AAf?$AA?3?$AA?2?$AAd?$AAd?$AA?2?$AAv?$AAc?$AAt?$AAo?$AAo?$AAl?$AAs?$AA?2?$AAc?$AAr?$AAt?$AA_?$AAb?$AAl?$AAd?$AA?2?$AAs?$AAe?$AAl?$AAf?$AA_?$AAx?$AA8?$AA6?$AA?2?$AAc@ 400a0770     LIBCMTD:fileno.obj
 0002:000147d0       ??_C@_1O@GKDHFACN@?$AAp?$AAr?$AAi?$AAn?$AAt?$AAf?$AA?$AA@ 400a07d0     LIBCMTD:printf.obj
 0002:000147e0       ??_C@_1GA@LHEGHOAF@?$AAf?$AA?3?$AA?2?$AAd?$AAd?$AA?2?$AAv?$AAc?$AAt?$AAo?$AAo?$AAl?$AAs?$AA?2?$AAc?$AAr?$AAt?$AA_?$AAb?$AAl?$AAd?$AA?2?$AAs?$AAe?$AAl?$AAf?$AA_?$AAx?$AA8?$AA6?$AA?2?$AAc@ 400a07e0     LIBCMTD:printf.obj
 0002:00014840       ??_C@_1DA@HPBFKMEB@?$AA?$CI?$AA?$CC?$AAB?$AAu?$AAf?$AAf?$AAe?$AAr?$AA?5?$AAt?$AAo?$AAo?$AA?5?$AAs?$AAm?$AAa?$AAl?$AAl?$AA?$CC?$AA?0?$AA?5?$AA0?$AA?$CJ?$AA?$AA@ 400a0840     LIBCMTD:wctomb.obj
 0002:00014870       ??_C@_1BI@IEADNOHF@?$AA_?$AAw?$AAc?$AAt?$AAo?$AAm?$AAb?$AA_?$AAs?$AA_?$AAl?$AA?$AA@ 400a0870     LIBCMTD:wctomb.obj
 0002:00014888       ??_C@_1GA@LDLHPOO@?$AAf?$AA?3?$AA?2?$AAd?$AAd?$AA?2?$AAv?$AAc?$AAt?$AAo?$AAo?$AAl?$AAs?$AA?2?$AAc?$AAr?$AAt?$AA_?$AAb?$AAl?$AAd?$AA?2?$AAs?$AAe?$AAl?$AAf?$AA_?$AAx?$AA8?$AA6?$AA?2?$AAc@ 400a0888     LIBCMTD:wctomb.obj
 0002:000148e8       ??_C@_1CO@HFMIILNF@?$AAs?$AAi?$AAz?$AAe?$AAI?$AAn?$AAB?$AAy?$AAt?$AAe?$AAs?$AA?5?$AA?$DM?$AA?$DN?$AA?5?$AAI?$AAN?$AAT?$AA_?$AAM?$AAA?$AAX?$AA?$AA@ 400a08e8     LIBCMTD:wctomb.obj
 0002:00014918       __atan_table               400a0918     LIBCMTD:_atan_table_.obj
 0002:00016128       ___lookuptable_s           400a2128     LIBCMTD:outputs.obj
 0002:00016184       ??_C@_1BI@COFBLHCG@?$AA_?$AAo?$AAu?$AAt?$AAp?$AAu?$AAt?$AA_?$AAs?$AA_?$AAl?$AA?$AA@ 400a2184     LIBCMTD:outputs.obj
 0002:0001619c       ??_C@_1BK@KHBCJPCH@?$AA_?$AAw?$AAm?$AAa?$AAk?$AAe?$AAp?$AAa?$AAt?$AAh?$AA_?$AAs?$AA?$AA@ 400a219c     LIBCMTD:wmakepath_s.obj
 0002:000161b8       ??_C@_1GO@DHMODCKM@?$AAf?$AA?3?$AA?2?$AAd?$AAd?$AA?2?$AAv?$AAc?$AAt?$AAo?$AAo?$AAl?$AAs?$AA?2?$AAc?$AAr?$AAt?$AA_?$AAb?$AAl?$AAd?$AA?2?$AAs?$AAe?$AAl?$AAf?$AA_?$AAx?$AA8?$AA6?$AA?2?$AAc@ 400a21b8     LIBCMTD:wmakepath_s.obj
 0002:00016228       ??_C@_1DE@MLEJGPLF@?$AA?$CI?$AAL?$AA?$CC?$AAI?$AAn?$AAv?$AAa?$AAl?$AAi?$AAd?$AA?5?$AAp?$AAa?$AAr?$AAa?$AAm?$AAe?$AAt?$AAe?$AAr?$AA?$CC?$AA?0?$AA?5?$AA0?$AA?$CJ?$AA?$AA@ 400a2228     LIBCMTD:wsplitpath_s.obj
 0002:0001625c       ??_C@_1BM@OEAFIBCF@?$AA_?$AAw?$AAs?$AAp?$AAl?$AAi?$AAt?$AAp?$AAa?$AAt?$AAh?$AA_?$AAs?$AA?$AA@ 400a225c     LIBCMTD:wsplitpath_s.obj
 0002:00016278       ??_C@_1HA@GHKPFCBF@?$AAf?$AA?3?$AA?2?$AAd?$AAd?$AA?2?$AAv?$AAc?$AAt?$AAo?$AAo?$AAl?$AAs?$AA?2?$AAc?$AAr?$AAt?$AA_?$AAb?$AAl?$AAd?$AA?2?$AAs?$AAe?$AAl?$AAf?$AA_?$AAx?$AA8?$AA6?$AA?2?$AAc@ 400a2278     LIBCMTD:wsplitpath_s.obj
 0002:000162e8       ??_C@_1CI@MLPLHPBP@?$AA?$CI?$AA?$CI?$AA?$CI?$AA_?$AAP?$AAa?$AAt?$AAh?$AA?$CJ?$AA?$CJ?$AA?$CJ?$AA?5?$AA?$CB?$AA?$DN?$AA?5?$AAN?$AAU?$AAL?$AAL?$AA?$AA@ 400a22e8     LIBCMTD:wsplitpath_s.obj
 0002:00016310       ??_C@_1CA@LFDHAMEM@?$AA_?$AAs?$AAe?$AAt?$AA_?$AAe?$AAr?$AAr?$AAo?$AAr?$AA_?$AAm?$AAo?$AAd?$AAe?$AA?$AA@ 400a2310     LIBCMTD:errmode.obj
 0002:00016330       ??_C@_1GC@FGMGFCNB@?$AAf?$AA?3?$AA?2?$AAd?$AAd?$AA?2?$AAv?$AAc?$AAt?$AAo?$AAo?$AAl?$AAs?$AA?2?$AAc?$AAr?$AAt?$AA_?$AAb?$AAl?$AAd?$AA?2?$AAs?$AAe?$AAl?$AAf?$AA_?$AAx?$AA8?$AA6?$AA?2?$AAc@ 400a2330     LIBCMTD:errmode.obj
 0002:00016394       ??_C@_1DE@BCNCAIK@?$AA?$CI?$AA?$CC?$AAI?$AAn?$AAv?$AAa?$AAl?$AAi?$AAd?$AA?5?$AAe?$AAr?$AAr?$AAo?$AAr?$AA_?$AAm?$AAo?$AAd?$AAe?$AA?$CC?$AA?0?$AA?5?$AA0?$AA?$CJ?$AA?$AA@ 400a2394     LIBCMTD:errmode.obj
 0002:000163c8       ??_C@_1BC@PLIEPKPJ@?$AAw?$AAc?$AAs?$AAc?$AAa?$AAt?$AA_?$AAs?$AA?$AA@ 400a23c8     LIBCMTD:wcscat_s.obj
 0002:000163dc       ??_C@_1BE@PMMBFFCC@?$AAw?$AAc?$AAs?$AAn?$AAc?$AAp?$AAy?$AA_?$AAs?$AA?$AA@ 400a23dc     LIBCMTD:wcsncpy_s.obj
 0002:000163f0       ??_C@_1BK@JMCGJOCC@?$AA_?$AAe?$AAx?$AAp?$AAa?$AAn?$AAd?$AA_?$AAb?$AAa?$AAs?$AAe?$AA?$AA@ 400a23f0     LIBCMTD:expand.obj
 0002:00016410       ??_C@_1GA@EBHFLDNH@?$AAf?$AA?3?$AA?2?$AAd?$AAd?$AA?2?$AAv?$AAc?$AAt?$AAo?$AAo?$AAl?$AAs?$AA?2?$AAc?$AAr?$AAt?$AA_?$AAb?$AAl?$AAd?$AA?2?$AAs?$AAe?$AAl?$AAf?$AA_?$AAx?$AA8?$AA6?$AA?2?$AAc@ 400a2410     LIBCMTD:expand.obj
 0002:00016470       ??_C@_1BO@KFIJIAEA@?$AAp?$AAB?$AAl?$AAo?$AAc?$AAk?$AA?5?$AA?$CB?$AA?$DN?$AA?5?$AAN?$AAU?$AAL?$AAL?$AA?$AA@ 400a2470     LIBCMTD:expand.obj
 0002:00016490       ??_C@_1BA@KBJJGFFE@?$AAs?$AAp?$AAr?$AAi?$AAn?$AAt?$AAf?$AA?$AA@ 400a2490     LIBCMTD:sprintf.obj
 0002:000164a0       ??_C@_1GC@BMNPEKNN@?$AAf?$AA?3?$AA?2?$AAd?$AAd?$AA?2?$AAv?$AAc?$AAt?$AAo?$AAo?$AAl?$AAs?$AA?2?$AAc?$AAr?$AAt?$AA_?$AAb?$AAl?$AAd?$AA?2?$AAs?$AAe?$AAl?$AAf?$AA_?$AAx?$AA8?$AA6?$AA?2?$AAc@ 400a24a0     LIBCMTD:sprintf.obj
 0002:00016504       ??_C@_0BK@CIDNPOGP@GetUserObjectInformationA?$AA@ 400a2504     LIBCMTD:crtmbox.obj
 0002:00016520       ??_C@_0M@CHKKJDAI@MessageBoxA?$AA@ 400a2520     LIBCMTD:crtmbox.obj
 0002:0001652c       __pDestructExceptionObject 400a252c     LIBCMTD:frame.obj
 0002:00016530       ??_C@_0O@DPKOEFFH@bad?5exception?$AA@ 400a2530     LIBCMTD:frame.obj
 0002:00016544       ??_7bad_exception@std@@6B@ 400a2544     LIBCMTD:frame.obj
 0002:0001654c       ?commonFlags@?1??_control87@@9@9 400a254c     LIBCMTD:_ieee87_.obj
 0002:00016550       ??_C@_1GO@OKJGOMCB@?$AA_?$AAc?$AAo?$AAn?$AAt?$AAr?$AAo?$AAl?$AAf?$AAp?$AA_?$AAs?$AA?$CI?$AA?$CI?$AA?$CI?$AAv?$AAo?$AAi?$AAd?$AA?5?$AA?$CK?$AA?$CJ?$AA0?$AA?$CJ?$AA?0?$AA?5?$AAn?$AAe?$AAw?$AAc?$AAt?$AAr@ 400a2550     LIBCMTD:_ieee87_.obj
 0002:000165c0       ??_C@_1BO@OFDNCLL@?$AA_?$AAs?$AAe?$AAt?$AA_?$AAc?$AAo?$AAn?$AAt?$AAr?$AAo?$AAl?$AAf?$AAp?$AA?$AA@ 400a25c0     LIBCMTD:_ieee87_.obj
 0002:000165e0       ??_C@_1HO@BFDKGHOI@?$AAf?$AA?3?$AA?2?$AAd?$AAd?$AA?2?$AAv?$AAc?$AAt?$AAo?$AAo?$AAl?$AAs?$AA?2?$AAc?$AAr?$AAt?$AA_?$AAb?$AAl?$AAd?$AA?2?$AAs?$AAe?$AAl?$AAf?$AA_?$AAx?$AA8?$AA6?$AA?2?$AAc@ 400a25e0     LIBCMTD:_ieee87_.obj
 0002:00016660       ??_C@_06IMKFLFPG@1?$CDQNAN?$AA@ 400a2660     LIBCMTD:_x10fout_.obj
 0002:00016668       ??_C@_1EG@MCFPJJEM@?$AAs?$AAt?$AAr?$AAc?$AAp?$AAy?$AA_?$AAs?$AA?$CI?$AAf?$AAo?$AAs?$AA?9?$AA?$DO?$AAm?$AAa?$AAn?$AA?0?$AA?5?$AA2?$AA1?$AA?$CL?$AA1?$AA?0?$AA?5?$AA?$CC?$AA1?$AA?$CD?$AAQ?$AAN?$AAA?$AAN@ 400a2668     LIBCMTD:_x10fout_.obj
 0002:000166b0       ??_C@_05DNEBIAHO@1?$CDINF?$AA@ 400a26b0     LIBCMTD:_x10fout_.obj
 0002:000166b8       ??_C@_1EE@ICBBBPAI@?$AAs?$AAt?$AAr?$AAc?$AAp?$AAy?$AA_?$AAs?$AA?$CI?$AAf?$AAo?$AAs?$AA?9?$AA?$DO?$AAm?$AAa?$AAn?$AA?0?$AA?5?$AA2?$AA1?$AA?$CL?$AA1?$AA?0?$AA?5?$AA?$CC?$AA1?$AA?$CD?$AAI?$AAN?$AAF?$AA?$CC@ 400a26b8     LIBCMTD:_x10fout_.obj
 0002:000166fc       ??_C@_05PHHOCPM@1?$CDIND?$AA@ 400a26fc     LIBCMTD:_x10fout_.obj
 0002:00016708       ??_C@_1EE@MADEBIHF@?$AAs?$AAt?$AAr?$AAc?$AAp?$AAy?$AA_?$AAs?$AA?$CI?$AAf?$AAo?$AAs?$AA?9?$AA?$DO?$AAm?$AAa?$AAn?$AA?0?$AA?5?$AA2?$AA1?$AA?$CL?$AA1?$AA?0?$AA?5?$AA?$CC?$AA1?$AA?$CD?$AAI?$AAN?$AAD?$AA?$CC@ 400a2708     LIBCMTD:_x10fout_.obj
 0002:0001674c       ??_C@_06PGGFOGJG@1?$CDSNAN?$AA@ 400a274c     LIBCMTD:_x10fout_.obj
 0002:00016758       ??_C@_1EG@CDDBFNOB@?$AAs?$AAt?$AAr?$AAc?$AAp?$AAy?$AA_?$AAs?$AA?$CI?$AAf?$AAo?$AAs?$AA?9?$AA?$DO?$AAm?$AAa?$AAn?$AA?0?$AA?5?$AA2?$AA1?$AA?$CL?$AA1?$AA?0?$AA?5?$AA?$CC?$AA1?$AA?$CD?$AAS?$AAN?$AAA?$AAN@ 400a2758     LIBCMTD:_x10fout_.obj
 0002:000167a0       ??_C@_1BI@ELMAAFLN@?$AA$?$AAI?$AA1?$AA0?$AA_?$AAO?$AAU?$AAT?$AAP?$AAU?$AAT?$AA?$AA@ 400a27a0     LIBCMTD:_x10fout_.obj
 0002:000167b8       ??_C@_1HG@HFJMHCFK@?$AAf?$AA?3?$AA?2?$AAd?$AAd?$AA?2?$AAv?$AAc?$AAt?$AAo?$AAo?$AAl?$AAs?$AA?2?$AAc?$AAr?$AAt?$AA_?$AAb?$AAl?$AAd?$AA?2?$AAs?$AAe?$AAl?$AAf?$AA_?$AAx?$AA8?$AA6?$AA?2?$AAc@ 400a27b8     LIBCMTD:_x10fout_.obj
 0002:00016830       ??_C@_1CM@HABGDNLJ@?$AAl?$AAe?$AAn?$AAg?$AAt?$AAh?$AA?5?$AA?$DM?$AA?5?$AAs?$AAi?$AAz?$AAe?$AAI?$AAn?$AAT?$AAC?$AAh?$AAa?$AAr?$AAs?$AA?$AA@ 400a2830     LIBCMTD:xtoas.obj
 0002:0001685c       ??_C@_1DE@PCJGDBBD@?$AA2?$AA?5?$AA?$DM?$AA?$DN?$AA?5?$AAr?$AAa?$AAd?$AAi?$AAx?$AA?5?$AA?$CG?$AA?$CG?$AA?5?$AAr?$AAa?$AAd?$AAi?$AAx?$AA?5?$AA?$DM?$AA?$DN?$AA?5?$AA3?$AA6?$AA?$AA@ 400a285c     LIBCMTD:xtoas.obj
 0002:00016890       ??_C@_1FA@MKGGAGEI@?$AAs?$AAi?$AAz?$AAe?$AAI?$AAn?$AAT?$AAC?$AAh?$AAa?$AAr?$AAs?$AA?5?$AA?$DO?$AA?5?$AA?$CI?$AAs?$AAi?$AAz?$AAe?$AA_?$AAt?$AA?$CJ?$AA?$CI?$AAi?$AAs?$AA_?$AAn?$AAe?$AAg?$AA?5?$AA?$DP@ 400a2890     LIBCMTD:xtoas.obj
 0002:000168e0       ??_C@_1CC@JNJFIMGE@?$AAs?$AAi?$AAz?$AAe?$AAI?$AAn?$AAT?$AAC?$AAh?$AAa?$AAr?$AAs?$AA?5?$AA?$DO?$AA?5?$AA0?$AA?$AA@ 400a28e0     LIBCMTD:xtoas.obj
 0002:00016904       ??_C@_1O@GIMBNLEI@?$AAx?$AAt?$AAo?$AAa?$AA_?$AAs?$AA?$AA@ 400a2904     LIBCMTD:xtoas.obj
 0002:00016918       ??_C@_1FM@MFCBFCGB@?$AAf?$AA?3?$AA?2?$AAd?$AAd?$AA?2?$AAv?$AAc?$AAt?$AAo?$AAo?$AAl?$AAs?$AA?2?$AAc?$AAr?$AAt?$AA_?$AAb?$AAl?$AAd?$AA?2?$AAs?$AAe?$AAl?$AAf?$AA_?$AAx?$AA8?$AA6?$AA?2?$AAc@ 400a2918     LIBCMTD:xtoas.obj
 0002:00016974       ??_C@_1BC@MJJNBNFN@?$AAx?$AA6?$AA4?$AAt?$AAo?$AAa?$AA_?$AAs?$AA?$AA@ 400a2974     LIBCMTD:xtoas.obj
 0002:00016988       ??_C@_1BG@GLLONOEH@?$AA_?$AAs?$AAt?$AAr?$AAi?$AAc?$AAm?$AAp?$AA_?$AAl?$AA?$AA@ 400a2988     LIBCMTD:stricmp.obj
 0002:000169a0       ??_C@_1GC@OILHAOLL@?$AAf?$AA?3?$AA?2?$AAd?$AAd?$AA?2?$AAv?$AAc?$AAt?$AAo?$AAo?$AAl?$AAs?$AA?2?$AAc?$AAr?$AAt?$AA_?$AAb?$AAl?$AAd?$AA?2?$AAs?$AAe?$AAl?$AAf?$AA_?$AAx?$AA8?$AA6?$AA?2?$AAc@ 400a29a0     LIBCMTD:stricmp.obj
 0002:00016a04       ??_C@_1BC@JLGKKIIG@?$AA_?$AAs?$AAt?$AAr?$AAi?$AAc?$AAm?$AAp?$AA?$AA@ 400a2a04     LIBCMTD:stricmp.obj
 0002:00016a18       ??_C@_1CC@JLPHKJPH@?$AAc?$AAo?$AAu?$AAn?$AAt?$AA?5?$AA?$DM?$AA?$DN?$AA?5?$AAI?$AAN?$AAT?$AA_?$AAM?$AAA?$AAX?$AA?$AA@ 400a2a18     LIBCMTD:strnicmp.obj
 0002:00016a3c       ??_C@_1BI@BJLEPLEF@?$AA_?$AAs?$AAt?$AAr?$AAn?$AAi?$AAc?$AAm?$AAp?$AA_?$AAl?$AA?$AA@ 400a2a3c     LIBCMTD:strnicmp.obj
 0002:00016a58       ??_C@_1GE@CONPOJMA@?$AAf?$AA?3?$AA?2?$AAd?$AAd?$AA?2?$AAv?$AAc?$AAt?$AAo?$AAo?$AAl?$AAs?$AA?2?$AAc?$AAr?$AAt?$AA_?$AAb?$AAl?$AAd?$AA?2?$AAs?$AAe?$AAl?$AAf?$AA_?$AAx?$AA8?$AA6?$AA?2?$AAc@ 400a2a58     LIBCMTD:strnicmp.obj
 0002:00016abc       ??_C@_1BE@BHJDFFNA@?$AA_?$AAs?$AAt?$AAr?$AAn?$AAi?$AAc?$AAm?$AAp?$AA?$AA@ 400a2abc     LIBCMTD:strnicmp.obj
 0002:00016ad0       ??_C@_1CG@JEHFHLNG@?$AA_?$AAm?$AAb?$AAs?$AAt?$AAo?$AAw?$AAc?$AAs?$AA_?$AAl?$AA_?$AAh?$AAe?$AAl?$AAp?$AAe?$AAr?$AA?$AA@ 400a2ad0     LIBCMTD:mbstowcs.obj
 0002:00016af8       ??_C@_1GE@LCCDHBMH@?$AAf?$AA?3?$AA?2?$AAd?$AAd?$AA?2?$AAv?$AAc?$AAt?$AAo?$AAo?$AAl?$AAs?$AA?2?$AAc?$AAr?$AAt?$AA_?$AAb?$AAl?$AAd?$AA?2?$AAs?$AAe?$AAl?$AAf?$AA_?$AAx?$AA8?$AA6?$AA?2?$AAc@ 400a2af8     LIBCMTD:mbstowcs.obj
 0002:00016b5c       ??_C@_1BE@EEKACIGI@?$AAs?$AA?5?$AA?$CB?$AA?$DN?$AA?5?$AAN?$AAU?$AAL?$AAL?$AA?$AA@ 400a2b5c     LIBCMTD:mbstowcs.obj
 0002:00016b70       ??_C@_1CO@JNPEPJAL@?$AAr?$AAe?$AAt?$AAs?$AAi?$AAz?$AAe?$AA?5?$AA?$DM?$AA?$DN?$AA?5?$AAs?$AAi?$AAz?$AAe?$AAI?$AAn?$AAW?$AAo?$AAr?$AAd?$AAs?$AA?$AA@ 400a2b70     LIBCMTD:mbstowcs.obj
 0002:00016ba0       ??_C@_1CM@LLECFMFH@?$AAb?$AAu?$AAf?$AAf?$AAe?$AAr?$AAS?$AAi?$AAz?$AAe?$AA?5?$AA?$DM?$AA?$DN?$AA?5?$AAI?$AAN?$AAT?$AA_?$AAM?$AAA?$AAX?$AA?$AA@ 400a2ba0     LIBCMTD:mbstowcs.obj
 0002:00016bcc       ??_C@_1BM@PHENIGHD@?$AA_?$AAm?$AAb?$AAs?$AAt?$AAo?$AAw?$AAc?$AAs?$AA_?$AAs?$AA_?$AAl?$AA?$AA@ 400a2bcc     LIBCMTD:mbstowcs.obj
 0002:00016be8       ??_C@_1JA@JKDFMOPO@?$AA?$CI?$AAp?$AAw?$AAc?$AAs?$AA?5?$AA?$DN?$AA?$DN?$AA?5?$AAN?$AAU?$AAL?$AAL?$AA?5?$AA?$CG?$AA?$CG?$AA?5?$AAs?$AAi?$AAz?$AAe?$AAI?$AAn?$AAW?$AAo?$AAr?$AAd?$AAs?$AA?5?$AA?$DN?$AA?$DN?$AA?5@ 400a2be8     LIBCMTD:mbstowcs.obj
 0002:00016c78       ??_C@_1CE@PCFPEIFI@?$AA_?$AAv?$AAs?$AAn?$AAp?$AAr?$AAi?$AAn?$AAt?$AAf?$AA_?$AAh?$AAe?$AAl?$AAp?$AAe?$AAr?$AA?$AA@ 400a2c78     LIBCMTD:vsnprnc.obj
 0002:00016ca0       ??_C@_1EE@OKCKIGFK@?$AAs?$AAt?$AAr?$AAi?$AAn?$AAg?$AA?5?$AA?$CB?$AA?$DN?$AA?5?$AAN?$AAU?$AAL?$AAL?$AA?5?$AA?$CG?$AA?$CG?$AA?5?$AAs?$AAi?$AAz?$AAe?$AAI?$AAn?$AAB?$AAy?$AAt?$AAe?$AAs?$AA?5?$AA?$DO?$AA?5@ 400a2ca0     LIBCMTD:vsnprnc.obj
 0002:00016ce4       ??_C@_1BM@BLJALHEF@?$AA_?$AAv?$AAs?$AAp?$AAr?$AAi?$AAn?$AAt?$AAf?$AA_?$AAs?$AA_?$AAl?$AA?$AA@ 400a2ce4     LIBCMTD:vsnprnc.obj
 0002:00016d00       ??_C@_1BO@MLMCMBKN@?$AAf?$AAo?$AAr?$AAm?$AAa?$AAt?$AA?5?$AA?$CB?$AA?$DN?$AA?5?$AAN?$AAU?$AAL?$AAL?$AA?$AA@ 400a2d00     LIBCMTD:vsnprnc.obj
 0002:00016d20       ??_C@_1BO@MMPELNIM@?$AA_?$AAv?$AAs?$AAn?$AAp?$AAr?$AAi?$AAn?$AAt?$AAf?$AA_?$AAs?$AA_?$AAl?$AA?$AA@ 400a2d20     LIBCMTD:vsnprnc.obj
 0002:00016d40       ??_C@_1CG@LLJCAOHF@?$AA_?$AAw?$AAc?$AAs?$AAt?$AAo?$AAm?$AAb?$AAs?$AA_?$AAl?$AA_?$AAh?$AAe?$AAl?$AAp?$AAe?$AAr?$AA?$AA@ 400a2d40     LIBCMTD:wcstombs.obj
 0002:00016d68       ??_C@_1GE@OAENIBOD@?$AAf?$AA?3?$AA?2?$AAd?$AAd?$AA?2?$AAv?$AAc?$AAt?$AAo?$AAo?$AAl?$AAs?$AA?2?$AAc?$AAr?$AAt?$AA_?$AAb?$AAl?$AAd?$AA?2?$AAs?$AAe?$AAl?$AAf?$AA_?$AAx?$AA8?$AA6?$AA?2?$AAc@ 400a2d68     LIBCMTD:wcstombs.obj
 0002:00016dcc       ??_C@_1BK@OIBENBPM@?$AAp?$AAw?$AAc?$AAs?$AA?5?$AA?$CB?$AA?$DN?$AA?5?$AAN?$AAU?$AAL?$AAL?$AA?$AA@ 400a2dcc     LIBCMTD:wcstombs.obj
 0002:00016de8       ??_C@_1CM@KEOGBFLI@?$AAs?$AAi?$AAz?$AAe?$AAI?$AAn?$AAB?$AAy?$AAt?$AAe?$AAs?$AA?5?$AA?$DO?$AA?5?$AAr?$AAe?$AAt?$AAs?$AAi?$AAz?$AAe?$AA?$AA@ 400a2de8     LIBCMTD:wcstombs.obj
 0002:00016e14       ??_C@_1BM@BDMCLLDL@?$AA_?$AAw?$AAc?$AAs?$AAt?$AAo?$AAm?$AAb?$AAs?$AA_?$AAs?$AA_?$AAl?$AA?$AA@ 400a2e14     LIBCMTD:wcstombs.obj
 0002:00016e30       ??_C@_1IM@MFGKHGBP@?$AA?$CI?$AAd?$AAs?$AAt?$AA?5?$AA?$CB?$AA?$DN?$AA?5?$AAN?$AAU?$AAL?$AAL?$AA?5?$AA?$CG?$AA?$CG?$AA?5?$AAs?$AAi?$AAz?$AAe?$AAI?$AAn?$AAB?$AAy?$AAt?$AAe?$AAs?$AA?5?$AA?$DO?$AA?5?$AA0?$AA?$CJ@ 400a2e30     LIBCMTD:wcstombs.obj
 0002:00016ebc       ??_C@_1CE@IGKFIJFD@?$AA_?$AAv?$AAs?$AAw?$AAp?$AAr?$AAi?$AAn?$AAt?$AAf?$AA_?$AAh?$AAe?$AAl?$AAp?$AAe?$AAr?$AA?$AA@ 400a2ebc     LIBCMTD:vswprnc.obj
 0002:00016ee0       ??_C@_1GE@KINELFI@?$AAf?$AA?3?$AA?2?$AAd?$AAd?$AA?2?$AAv?$AAc?$AAt?$AAo?$AAo?$AAl?$AAs?$AA?2?$AAc?$AAr?$AAt?$AA_?$AAb?$AAl?$AAd?$AA?2?$AAs?$AAe?$AAl?$AAf?$AA_?$AAx?$AA8?$AA6?$AA?2?$AAc@ 400a2ee0     LIBCMTD:vswprnc.obj
 0002:00016f48       ??_C@_1EE@MPCHJFGP@?$AAs?$AAt?$AAr?$AAi?$AAn?$AAg?$AA?5?$AA?$CB?$AA?$DN?$AA?5?$AAN?$AAU?$AAL?$AAL?$AA?5?$AA?$CG?$AA?$CG?$AA?5?$AAs?$AAi?$AAz?$AAe?$AAI?$AAn?$AAW?$AAo?$AAr?$AAd?$AAs?$AA?5?$AA?$DO?$AA?5@ 400a2f48     LIBCMTD:vswprnc.obj
 0002:00016f8c       ??_C@_1BO@OALHJLCI@?$AA_?$AAv?$AAs?$AAw?$AAp?$AAr?$AAi?$AAn?$AAt?$AAf?$AA_?$AAs?$AA_?$AAl?$AA?$AA@ 400a2f8c     LIBCMTD:vswprnc.obj
 0002:00016fac       ??_C@_1CA@BKFKMJFF@?$AA_?$AAv?$AAs?$AAn?$AAw?$AAp?$AAr?$AAi?$AAn?$AAt?$AAf?$AA_?$AAs?$AA_?$AAl?$AA?$AA@ 400a2fac     LIBCMTD:vswprnc.obj
 0002:00016fcc       ??_C@_1O@NCBFODOE@?$AAx?$AAt?$AAo?$AAw?$AA_?$AAs?$AA?$AA@ 400a2fcc     LIBCMTD:xtows.obj
 0002:00016fdc       ??_C@_1BC@HDEJCFPB@?$AAx?$AA6?$AA4?$AAt?$AAo?$AAw?$AA_?$AAs?$AA?$AA@ 400a2fdc     LIBCMTD:xtows.obj
 0002:00016ff0       ??_C@_1BG@BBCDFOMA@?$AA_?$AAw?$AAo?$AAu?$AAt?$AAp?$AAu?$AAt?$AA_?$AAl?$AA?$AA@ 400a2ff0     LIBCMTD:woutput.obj
 0002:00017008       ??_C@_1BK@EPLNBKAK@?$AA_?$AAv?$AAs?$AAw?$AAp?$AAr?$AAi?$AAn?$AAt?$AAf?$AA_?$AAl?$AA?$AA@ 400a3008     LIBCMTD:vswprint.obj
 0002:00017024       ??_C@_1CG@IMMIEPNA@?$AA_?$AAv?$AAs?$AAc?$AAw?$AAp?$AAr?$AAi?$AAn?$AAt?$AAf?$AA_?$AAh?$AAe?$AAl?$AAp?$AAe?$AAr?$AA?$AA@ 400a3024     LIBCMTD:vswprint.obj
 0002:0001704c       ??_C@_0DB@KIKNCIEC@f?3?2dd?2vctools?2crt_bld?2self_x86?2c@ 400a304c     LIBCMTD:osfinfo.obj
 0002:00017080       ??_C@_1BO@EMBOBGKE@?$AA_?$AAg?$AAe?$AAt?$AA_?$AAo?$AAs?$AAf?$AAh?$AAa?$AAn?$AAd?$AAl?$AAe?$AA?$AA@ 400a3080     LIBCMTD:osfinfo.obj
 0002:000170a0       ??_C@_1GC@MLKLDJJG@?$AAf?$AA?3?$AA?2?$AAd?$AAd?$AA?2?$AAv?$AAc?$AAt?$AAo?$AAo?$AAl?$AAs?$AA?2?$AAc?$AAr?$AAt?$AA_?$AAb?$AAl?$AAd?$AA?2?$AAs?$AAe?$AAl?$AAf?$AA_?$AAx?$AA8?$AA6?$AA?2?$AAc@ 400a30a0     LIBCMTD:osfinfo.obj
 0002:00017108       ??_C@_1GA@GFFDGGFH@?$AAf?$AA?3?$AA?2?$AAd?$AAd?$AA?2?$AAv?$AAc?$AAt?$AAo?$AAo?$AAl?$AAs?$AA?2?$AAc?$AAr?$AAt?$AA_?$AAb?$AAl?$AAd?$AA?2?$AAs?$AAe?$AAl?$AAf?$AA_?$AAx?$AA8?$AA6?$AA?2?$AAc@ 400a3108     LIBCMTD:mbtowc.obj
 0002:00017168       ??_C@_1NC@EINCOKCO@?$AA_?$AAl?$AAo?$AAc?$AA_?$AAu?$AAp?$AAd?$AAa?$AAt?$AAe?$AA?4?$AAG?$AAe?$AAt?$AAL?$AAo?$AAc?$AAa?$AAl?$AAe?$AAT?$AA?$CI?$AA?$CJ?$AA?9?$AA?$DO?$AAl?$AAo?$AAc?$AAi?$AAn?$AAf@ 400a3168     LIBCMTD:mbtowc.obj
 0002:0001723c       ??_C@_0DB@OLNNDFNH@f?3?2dd?2vctools?2crt_bld?2self_x86?2c@ 400a323c     LIBCMTD:_sftbuf.obj
 0002:00017270       ??_C@_1GC@DGAFOCMO@?$AAf?$AA?3?$AA?2?$AAd?$AAd?$AA?2?$AAv?$AAc?$AAt?$AAo?$AAo?$AAl?$AAs?$AA?2?$AAc?$AAr?$AAt?$AA_?$AAb?$AAl?$AAd?$AA?2?$AAs?$AAe?$AAl?$AAf?$AA_?$AAx?$AA8?$AA6?$AA?2?$AAc@ 400a3270     LIBCMTD:_sftbuf.obj
 0002:000172d4       ??_C@_1CO@KCKAACMI@?$AAf?$AAl?$AAa?$AAg?$AA?5?$AA?$DN?$AA?$DN?$AA?5?$AA0?$AA?5?$AA?$HM?$AA?$HM?$AA?5?$AAf?$AAl?$AAa?$AAg?$AA?5?$AA?$DN?$AA?$DN?$AA?5?$AA1?$AA?$AA@ 400a32d4     LIBCMTD:_sftbuf.obj
 0002:00017304       ??_C@_1BO@JGFPDJCP@?$AAv?$AAp?$AAr?$AAi?$AAn?$AAt?$AAf?$AA_?$AAh?$AAe?$AAl?$AAp?$AAe?$AAr?$AA?$AA@ 400a3304     LIBCMTD:vprintf.obj
 0002:00017328       ??_C@_1GC@DHFFJKMC@?$AAf?$AA?3?$AA?2?$AAd?$AAd?$AA?2?$AAv?$AAc?$AAt?$AAo?$AAo?$AAl?$AAs?$AA?2?$AAc?$AAr?$AAt?$AA_?$AAb?$AAl?$AAd?$AA?2?$AAs?$AAe?$AAl?$AAf?$AA_?$AAx?$AA8?$AA6?$AA?2?$AAc@ 400a3328     LIBCMTD:vprintf.obj
 0002:000173b0       ??_7type_info@@6B@         400a33b0     LIBCMTD:typinfo.obj
 0002:000173b8       ??_7exception@std@@6B@     400a33b8     LIBCMTD:stdexcpt.obj
 0002:000173c0       ??_C@_0BC@EOODALEL@Unknown?5exception?$AA@ 400a33c0     LIBCMTD:stdexcpt.obj
 0002:000173d8       ??_7bad_cast@std@@6B@      400a33d8     LIBCMTD:stdexcpt.obj
 0002:000173e4       ??_7bad_typeid@std@@6B@    400a33e4     LIBCMTD:stdexcpt.obj
 0002:000173f0       ??_7__non_rtti_object@std@@6B@ 400a33f0     LIBCMTD:stdexcpt.obj
 0002:000173f8       ??_C@_1GE@BDAODJCD@?$AAf?$AA?3?$AA?2?$AAd?$AAd?$AA?2?$AAv?$AAc?$AAt?$AAo?$AAo?$AAl?$AAs?$AA?2?$AAc?$AAr?$AAt?$AA_?$AAb?$AAl?$AAd?$AA?2?$AAs?$AAe?$AAl?$AAf?$AA_?$AAx?$AA8?$AA6?$AA?2?$AAc@ 400a33f8     LIBCMTD:dbgdel.obj
 0002:0001745c       ??_C@_1BK@ONMFGLDB@?$AA_?$AAw?$AAo?$AAu?$AAt?$AAp?$AAu?$AAt?$AA_?$AAs?$AA_?$AAl?$AA?$AA@ 400a345c     LIBCMTD:woutputs.obj
 0002:00017478       ??_C@_1BK@GDEKGMNC@?$AA_?$AAw?$AAo?$AAu?$AAt?$AAp?$AAu?$AAt?$AA_?$AAp?$AA_?$AAl?$AA?$AA@ 400a3478     LIBCMTD:woutputp.obj
 0002:00017494       ??_C@_1O@HJNPHHHB@?$AAf?$AAp?$AAu?$AAt?$AAw?$AAc?$AA?$AA@ 400a3494     LIBCMTD:fputwc.obj
 0002:000174a8       ??_C@_1GA@BJIGKGEA@?$AAf?$AA?3?$AA?2?$AAd?$AAd?$AA?2?$AAv?$AAc?$AAt?$AAo?$AAo?$AAl?$AAs?$AA?2?$AAc?$AAr?$AAt?$AA_?$AAb?$AAl?$AAd?$AA?2?$AAs?$AAe?$AAl?$AAf?$AA_?$AAx?$AA8?$AA6?$AA?2?$AAc@ 400a34a8     LIBCMTD:fputwc.obj
 0002:00017508       ??_C@_1BM@JMKHIAHP@?$AA?$CI?$AAs?$AAt?$AAr?$AA?5?$AA?$CB?$AA?$DN?$AA?5?$AAN?$AAU?$AAL?$AAL?$AA?$CJ?$AA?$AA@ 400a3508     LIBCMTD:fputwc.obj
 0002:00017524       ??_C@_1BA@BALFACEM@?$AAC?$AAO?$AAN?$AAO?$AAU?$AAT?$AA$?$AA?$AA@ 400a3524     LIBCMTD:initcon.obj
 0002:00017534       ??_C@_1O@EGMJNCOI@?$AAf?$AAc?$AAl?$AAo?$AAs?$AAe?$AA?$AA@ 400a3534     LIBCMTD:fclose.obj
 0002:00017548       ??_C@_1GA@KMIDAPAP@?$AAf?$AA?3?$AA?2?$AAd?$AAd?$AA?2?$AAv?$AAc?$AAt?$AAo?$AAo?$AAl?$AAs?$AA?2?$AAc?$AAr?$AAt?$AA_?$AAb?$AAl?$AAd?$AA?2?$AAs?$AAe?$AAl?$AAf?$AA_?$AAx?$AA8?$AA6?$AA?2?$AAc@ 400a3548     LIBCMTD:fclose.obj
 0002:000175a8       ??_C@_1BO@JINCABEC@?$AA_?$AAf?$AAc?$AAl?$AAo?$AAs?$AAe?$AA_?$AAn?$AAo?$AAl?$AAo?$AAc?$AAk?$AA?$AA@ 400a35a8     LIBCMTD:fclose.obj
 0002:000175c8       ??_C@_1DG@LNNHNFHJ@?$AA?$CI?$AA_?$AAo?$AAs?$AAf?$AAi?$AAl?$AAe?$AA?$CI?$AAf?$AAi?$AAl?$AAe?$AAd?$AAe?$AAs?$AA?$CJ?$AA?5?$AA?$CG?$AA?5?$AAF?$AAO?$AAP?$AAE?$AAN?$AA?$CJ?$AA?$AA@ 400a35c8     LIBCMTD:commit.obj
 0002:00017600       ??_C@_1BA@FLNMBBIM@?$AA_?$AAc?$AAo?$AAm?$AAm?$AAi?$AAt?$AA?$AA@ 400a3600     LIBCMTD:commit.obj
 0002:00017610       ??_C@_1GA@BOPCOCFN@?$AAf?$AA?3?$AA?2?$AAd?$AAd?$AA?2?$AAv?$AAc?$AAt?$AAo?$AAo?$AAl?$AAs?$AA?2?$AAc?$AAr?$AAt?$AA_?$AAb?$AAl?$AAd?$AA?2?$AAs?$AAe?$AAl?$AAf?$AA_?$AAx?$AA8?$AA6?$AA?2?$AAc@ 400a3610     LIBCMTD:commit.obj
 0002:00017670       ??_C@_1HC@KFLBHHBC@?$AA?$CI?$AAf?$AAi?$AAl?$AAe?$AAd?$AAe?$AAs?$AA?5?$AA?$DO?$AA?$DN?$AA?5?$AA0?$AA?5?$AA?$CG?$AA?$CG?$AA?5?$AA?$CI?$AAu?$AAn?$AAs?$AAi?$AAg?$AAn?$AAe?$AAd?$AA?$CJ?$AAf?$AAi?$AAl?$AAe?$AAd@ 400a3670     LIBCMTD:commit.obj
 0002:000176e8       ??_C@_1HG@KNCBMCDD@?$AAf?$AA?3?$AA?2?$AAd?$AAd?$AA?2?$AAv?$AAc?$AAt?$AAo?$AAo?$AAl?$AAs?$AA?2?$AAc?$AAr?$AAt?$AA_?$AAb?$AAl?$AAd?$AA?2?$AAs?$AAe?$AAl?$AAf?$AA_?$AAx?$AA8?$AA6?$AA?2?$AAc@ 400a36e8     LIBCMTD:typname.obj
 0002:00017760       ??_C@_1CK@GELGGBDK@?$AAp?$AAN?$AAo?$AAd?$AAe?$AA?9?$AA?$DO?$AA_?$AAN?$AAe?$AAx?$AAt?$AA?5?$AA?$CB?$AA?$DN?$AA?5?$AAN?$AAU?$AAL?$AAL?$AA?$AA@ 400a3760     LIBCMTD:typname.obj
 0002:00017790       ??_C@_1JK@NAFNEPGC@?$AAs?$AAt?$AAr?$AAc?$AAp?$AAy?$AA_?$AAs?$AA?5?$AA?$CI?$AA?$CI?$AAc?$AAh?$AAa?$AAr?$AA?5?$AA?$CK?$AA?$CJ?$AA?$CI?$AA?$CI?$AAt?$AAy?$AAp?$AAe?$AA_?$AAi?$AAn?$AAf?$AAo?$AA?5?$AA?$CK?$AA?$CJ@ 400a3790     LIBCMTD:typname.obj
 0002:0001782c       ??_C@_1CM@OOICDMK@?$AAt?$AAy?$AAp?$AAe?$AA_?$AAi?$AAn?$AAf?$AAo?$AA?3?$AA?3?$AA_?$AAN?$AAa?$AAm?$AAe?$AA_?$AAb?$AAa?$AAs?$AAe?$AA?$AA@ 400a382c     LIBCMTD:typname.obj
 0002:00017858       ??_C@_1GI@EAJKJPED@?$AAs?$AAt?$AAr?$AAc?$AAp?$AAy?$AA_?$AAs?$AA?5?$AA?$CI?$AAp?$AAT?$AAm?$AAp?$AAT?$AAy?$AAp?$AAe?$AAN?$AAa?$AAm?$AAe?$AA?0?$AA?5?$AAl?$AAe?$AAn?$AA?$CL?$AA2?$AA?0?$AA?5?$AA?$CI@ 400a3858     LIBCMTD:typname.obj
 0002:000178c0       ??_C@_1DO@OJJLFJPE@?$AAt?$AAy?$AAp?$AAe?$AA_?$AAi?$AAn?$AAf?$AAo?$AA?3?$AA?3?$AA_?$AAN?$AAa?$AAm?$AAe?$AA_?$AAb?$AAa?$AAs?$AAe?$AA_?$AAi?$AAn?$AAt?$AAe?$AAr?$AAn?$AAa?$AAl?$AA?$AA@ 400a38c0     LIBCMTD:typname.obj
 0002:00017900       ??_C@_1BA@PCFLFGNC@?$AAw?$AAc?$AAs?$AAt?$AAo?$AAx?$AAl?$AA?$AA@ 400a3900     LIBCMTD:wcstol.obj
 0002:00017910       ??_C@_1GA@CADFOND@?$AAf?$AA?3?$AA?2?$AAd?$AAd?$AA?2?$AAv?$AAc?$AAt?$AAo?$AAo?$AAl?$AAs?$AA?2?$AAc?$AAr?$AAt?$AA_?$AAb?$AAl?$AAd?$AA?2?$AAs?$AAe?$AAl?$AAf?$AA_?$AAx?$AA8?$AA6?$AA?2?$AAc@ 400a3910     LIBCMTD:wcstol.obj
 0002:00017970       ??_C@_1O@EDEJGJBM@?$AA_?$AAc?$AAl?$AAo?$AAs?$AAe?$AA?$AA@ 400a3970     LIBCMTD:close.obj
 0002:00017980       ??_C@_1FO@NNGNFGFH@?$AAf?$AA?3?$AA?2?$AAd?$AAd?$AA?2?$AAv?$AAc?$AAt?$AAo?$AAo?$AAl?$AAs?$AA?2?$AAc?$AAr?$AAt?$AA_?$AAb?$AAl?$AAd?$AA?2?$AAs?$AAe?$AAl?$AAf?$AA_?$AAx?$AA8?$AA6?$AA?2?$AAc@ 400a3980     LIBCMTD:close.obj
 0002:000179e0       ??_C@_1GE@MIMBMOF@?$AAf?$AA?3?$AA?2?$AAd?$AAd?$AA?2?$AAv?$AAc?$AAt?$AAo?$AAo?$AAl?$AAs?$AA?2?$AAc?$AAr?$AAt?$AA_?$AAb?$AAl?$AAd?$AA?2?$AAs?$AAe?$AAl?$AAf?$AA_?$AAx?$AA8?$AA6?$AA?2?$AAc@ 400a39e0     LIBCMTD:_freebuf.obj
 0002:00017a44       ??_C@_1BO@KIJENGPH@?$AAs?$AAt?$AAr?$AAe?$AAa?$AAm?$AA?5?$AA?$CB?$AA?$DN?$AA?5?$AAN?$AAU?$AAL?$AAL?$AA?$AA@ 400a3a44     LIBCMTD:_freebuf.obj
 0002:00017a64       ??_C@_0BK@CFCOFLF@?5Complete?5Object?5Locator?8?$AA@ 400a3a64     LIBCMTD:undname.obj
 0002:00017a80       ??_C@_0BN@MECKDCOJ@?5Class?5Hierarchy?5Descriptor?8?$AA@ 400a3a80     LIBCMTD:undname.obj
 0002:00017aa0       ??_C@_0BD@LGICGFMM@?5Base?5Class?5Array?8?$AA@ 400a3aa0     LIBCMTD:undname.obj
 0002:00017ab4       ??_C@_0BM@LDKODKLH@?5Base?5Class?5Descriptor?5at?5?$CI?$AA@ 400a3ab4     LIBCMTD:undname.obj
 0002:00017ad0       ??_C@_0BC@DAFEJGAK@?5Type?5Descriptor?8?$AA@ 400a3ad0     LIBCMTD:undname.obj
 0002:00017ae4       ??_C@_0BM@PMGGMLDN@?$GAlocal?5static?5thread?5guard?8?$AA@ 400a3ae4     LIBCMTD:undname.obj
 0002:00017b00       ??_C@_0CL@FGIJHLCE@?$GAmanaged?5vector?5copy?5constructor@ 400a3b00     LIBCMTD:undname.obj
 0002:00017b2c       ??_C@_0CJ@GJELGAMM@?$GAvector?5vbase?5copy?5constructor?5i@ 400a3b2c     LIBCMTD:undname.obj
 0002:00017b58       ??_C@_0CD@CGAJBKEJ@?$GAvector?5copy?5constructor?5iterato@ 400a3b58     LIBCMTD:undname.obj
 0002:00017b7c       ??_C@_0CB@PDBIFEP@?$GAdynamic?5atexit?5destructor?5for?5?8@ 400a3b7c     LIBCMTD:undname.obj
 0002:00017ba0       ??_C@_0BL@CLIPGLGB@?$GAdynamic?5initializer?5for?5?8?$AA@ 400a3ba0     LIBCMTD:undname.obj
 0002:00017bbc       ??_C@_0CM@FCBBDIGB@?$GAeh?5vector?5vbase?5copy?5constructo@ 400a3bbc     LIBCMTD:undname.obj
 0002:00017be8       ??_C@_0CG@HLDDJMAG@?$GAeh?5vector?5copy?5constructor?5iter@ 400a3be8     LIBCMTD:undname.obj
 0002:00017c10       ??_C@_0CF@IMGKMJNO@?$GAmanaged?5vector?5destructor?5itera@ 400a3c10     LIBCMTD:undname.obj
 0002:00017c38       ??_C@_0CG@CFDHKGGD@?$GAmanaged?5vector?5constructor?5iter@ 400a3c38     LIBCMTD:undname.obj
 0002:00017c60       ??_C@_0BN@CKNJLHMB@?$GAplacement?5delete?$FL?$FN?5closure?8?$AA@ 400a3c60     LIBCMTD:undname.obj
 0002:00017c80       ??_C@_0BL@CNOONJFP@?$GAplacement?5delete?5closure?8?$AA@ 400a3c80     LIBCMTD:undname.obj
 0002:00017c9c       ??_C@_0P@HJKNJFNN@?$GAomni?5callsig?8?$AA@ 400a3c9c     LIBCMTD:undname.obj
 0002:00017cac       ??_C@_09LBNFPBCA@?5delete?$FL?$FN?$AA@ 400a3cac     LIBCMTD:undname.obj
 0002:00017cb8       ??_C@_06FHBGPFGH@?5new?$FL?$FN?$AA@ 400a3cb8     LIBCMTD:undname.obj
 0002:00017cc0       ??_C@_0CE@IIHCMGGL@?$GAlocal?5vftable?5constructor?5closu@ 400a3cc0     LIBCMTD:undname.obj
 0002:00017ce4       ??_C@_0BA@KKLDJDLB@?$GAlocal?5vftable?8?$AA@ 400a3ce4     LIBCMTD:undname.obj
 0002:00017cf4       ??_C@_05KHLCHHI@?$GARTTI?$AA@ 400a3cf4     LIBCMTD:undname.obj
 0002:00017cfc       ??_C@_03KLGMFNMG@?$GAEH?$AA@ 400a3cfc     LIBCMTD:undname.obj
 0002:00017d00       ??_C@_0BA@KBCDOMBN@?$GAudt?5returning?8?$AA@ 400a3d00     LIBCMTD:undname.obj
 0002:00017d10       ??_C@_0BL@LLKPOHJI@?$GAcopy?5constructor?5closure?8?$AA@ 400a3d10     LIBCMTD:undname.obj
 0002:00017d2c       ??_C@_0CH@OOJPLCPH@?$GAeh?5vector?5vbase?5constructor?5ite@ 400a3d2c     LIBCMTD:undname.obj
 0002:00017d54       ??_C@_0CA@GCEOPDGL@?$GAeh?5vector?5destructor?5iterator?8?$AA@ 400a3d54     LIBCMTD:undname.obj
 0002:00017d74       ??_C@_0CB@JONCMFFK@?$GAeh?5vector?5constructor?5iterator?8@ 400a3d74     LIBCMTD:undname.obj
 0002:00017d98       ??_C@_0BL@NILFHHPC@?$GAvirtual?5displacement?5map?8?$AA@ 400a3d98     LIBCMTD:undname.obj
 0002:00017db4       ??_C@_0CE@IKBNEHA@?$GAvector?5vbase?5constructor?5iterat@ 400a3db4     LIBCMTD:undname.obj
 0002:00017dd8       ??_C@_0BN@LFPFMEDL@?$GAvector?5destructor?5iterator?8?$AA@ 400a3dd8     LIBCMTD:undname.obj
 0002:00017df8       ??_C@_0BO@PFGOCPJJ@?$GAvector?5constructor?5iterator?8?$AA@ 400a3df8     LIBCMTD:undname.obj
 0002:00017e18       ??_C@_0BN@IMDCHIKM@?$GAscalar?5deleting?5destructor?8?$AA@ 400a3e18     LIBCMTD:undname.obj
 0002:00017e38       ??_C@_0BO@OBMKPJIG@?$GAdefault?5constructor?5closure?8?$AA@ 400a3e38     LIBCMTD:undname.obj
 0002:00017e58       ??_C@_0BN@DEGPLNFK@?$GAvector?5deleting?5destructor?8?$AA@ 400a3e58     LIBCMTD:undname.obj
 0002:00017e78       ??_C@_0BD@JDLKDPAB@?$GAvbase?5destructor?8?$AA@ 400a3e78     LIBCMTD:undname.obj
 0002:00017e8c       ??_C@_08OBABFOLI@?$GAstring?8?$AA@ 400a3e8c     LIBCMTD:undname.obj
 0002:00017e98       ??_C@_0BF@KDPPACIK@?$GAlocal?5static?5guard?8?$AA@ 400a3e98     LIBCMTD:undname.obj
 0002:00017eb0       ??_C@_08LLFFHHDJ@?$GAtypeof?8?$AA@ 400a3eb0     LIBCMTD:undname.obj
 0002:00017ebc       ??_C@_07FEEIOKP@?$GAvcall?8?$AA@ 400a3ebc     LIBCMTD:undname.obj
 0002:00017ec4       ??_C@_09BLBHBJP@?$GAvbtable?8?$AA@ 400a3ec4     LIBCMTD:undname.obj
 0002:00017ed0       ??_C@_09IFPLHPGF@?$GAvftable?8?$AA@ 400a3ed0     LIBCMTD:undname.obj
 0002:00017edc       ??_C@_02MHEGNOJ@?$FO?$DN?$AA@ 400a3edc     LIBCMTD:undname.obj
 0002:00017ee0       ??_C@_02DHLNPPGH@?$HM?$DN?$AA@ 400a3ee0     LIBCMTD:undname.obj
 0002:00017ee4       ??_C@_02FGJGFEAB@?$CG?$DN?$AA@ 400a3ee4     LIBCMTD:undname.obj
 0002:00017ee8       ??_C@_03CDNPDDLA@?$DM?$DM?$DN?$AA@ 400a3ee8     LIBCMTD:undname.obj
 0002:00017eec       ??_C@_03IKFCCPFF@?$DO?$DO?$DN?$AA@ 400a3eec     LIBCMTD:undname.obj
 0002:00017ef0       ??_C@_02FENAOKFI@?$CF?$DN?$AA@ 400a3ef0     LIBCMTD:undname.obj
 0002:00017ef4       ??_C@_02FJEHGPIO@?1?$DN?$AA@ 400a3ef4     LIBCMTD:undname.obj
 0002:00017ef8       ??_C@_02FKMDLLOA@?9?$DN?$AA@ 400a3ef8     LIBCMTD:undname.obj
 0002:00017efc       ??_C@_02FOEOMHFC@?$CL?$DN?$AA@ 400a3efc     LIBCMTD:undname.obj
 0002:00017f00       ??_C@_02FPIMKNGF@?$CK?$DN?$AA@ 400a3f00     LIBCMTD:undname.obj
 0002:00017f04       ??_C@_02NONPIBCD@?$HM?$HM?$AA@ 400a3f04     LIBCMTD:undname.obj
 0002:00017f08       ??_C@_02PPKAJPJL@?$CG?$CG?$AA@ 400a3f08     LIBCMTD:undname.obj
 0002:00017f0c       ??_C@_01DNKMNLPK@?$HM?$AA@ 400a3f0c     LIBCMTD:undname.obj
 0002:00017f10       ??_C@_01JKBOJNNK@?$FO?$AA@ 400a3f10     LIBCMTD:undname.obj
 0002:00017f14       ??_C@_01PJKLJHI@?$HO?$AA@  400a3f14     LIBCMTD:undname.obj
 0002:00017f18       ??_C@_02HCKGKOFO@?$CI?$CJ?$AA@ 400a3f18     LIBCMTD:undname.obj
 0002:00017f1c       ??_C@_02EEKDKGMJ@?$DO?$DN?$AA@ 400a3f1c     LIBCMTD:undname.obj
 0002:00017f20       ??_C@_01PPODPGHN@?$DO?$AA@ 400a3f20     LIBCMTD:undname.obj
 0002:00017f24       ??_C@_02EHCHHCKH@?$DM?$DN?$AA@ 400a3f24     LIBCMTD:undname.obj
 0002:00017f28       ??_C@_01MNNFJEPP@?$DM?$AA@ 400a3f28     LIBCMTD:undname.obj
 0002:00017f2c       ??_C@_01FGNFDNOH@?$CF?$AA@ 400a3f2c     LIBCMTD:undname.obj
 0002:00017f30       ??_C@_03MNHNFDLC@?9?$DO?$CK?$AA@ 400a3f30     LIBCMTD:undname.obj
 0002:00017f34       ??_C@_01HNPIGOCE@?$CG?$AA@ 400a3f34     LIBCMTD:undname.obj
 0002:00017f38       ??_C@_01MIFGBAGJ@?$CL?$AA@ 400a3f38     LIBCMTD:undname.obj
 0002:00017f3c       ??_C@_01JOAMLHOP@?9?$AA@   400a3f3c     LIBCMTD:undname.obj
 0002:00017f40       ??_C@_02BAABKJLB@?9?9?$AA@ 400a3f40     LIBCMTD:undname.obj
 0002:00017f44       ??_C@_02ECNGHCIF@?$CL?$CL?$AA@ 400a3f44     LIBCMTD:undname.obj
 0002:00017f48       ??_C@_02HBOOOICD@?9?$DO?$AA@ 400a3f48     LIBCMTD:undname.obj
 0002:00017f4c       ??_C@_08LHJFAFGD@operator?$AA@ 400a3f4c     LIBCMTD:undname.obj
 0002:00017f58       ??_C@_02GPECMEKF@?$FL?$FN?$AA@ 400a3f58     LIBCMTD:undname.obj
 0002:00017f5c       ??_C@_02FDNJECIE@?$CB?$DN?$AA@ 400a3f5c     LIBCMTD:undname.obj
 0002:00017f60       ??_C@_02EGOFBIJA@?$DN?$DN?$AA@ 400a3f60     LIBCMTD:undname.obj
 0002:00017f64       ??_C@_01DCLJPIOD@?$CB?$AA@ 400a3f64     LIBCMTD:undname.obj
 0002:00017f68       ??_C@_02FODMEDOG@?$DM?$DM?$AA@ 400a3f68     LIBCMTD:undname.obj
 0002:00017f6c       ??_C@_02GPIOPFAK@?$DO?$DO?$AA@ 400a3f6c     LIBCMTD:undname.obj
 0002:00017f70       ??_C@_07FPCDHGMM@?5delete?$AA@ 400a3f70     LIBCMTD:undname.obj
 0002:00017f78       ??_C@_04NIHEBCM@?5new?$AA@ 400a3f78     LIBCMTD:undname.obj
 0002:00017f80       ??_C@_0M@GFIIJFMG@__unaligned?$AA@ 400a3f80     LIBCMTD:undname.obj
 0002:00017f8c       ??_C@_0L@PILCLIHE@__restrict?$AA@ 400a3f8c     LIBCMTD:undname.obj
 0002:00017f98       ??_C@_07JOMMBBKO@__ptr64?$AA@ 400a3f98     LIBCMTD:undname.obj
 0002:00017fa0       ??_C@_06GHPCKEAG@__eabi?$AA@ 400a3fa0     LIBCMTD:undname.obj
 0002:00017fa8       ??_C@_09HIJEGCPM@__clrcall?$AA@ 400a3fa8     LIBCMTD:undname.obj
 0002:00017fb4       ??_C@_0L@JMKHOMEK@__fastcall?$AA@ 400a3fb4     LIBCMTD:undname.obj
 0002:00017fc0       ??_C@_0L@NPHFGOKO@__thiscall?$AA@ 400a3fc0     LIBCMTD:undname.obj
 0002:00017fcc       ??_C@_09IFJBGAPI@__stdcall?$AA@ 400a3fcc     LIBCMTD:undname.obj
 0002:00017fd8       ??_C@_08GHMPAG@__pascal?$AA@ 400a3fd8     LIBCMTD:undname.obj
 0002:00017fe4       ??_C@_07KOLFKCDI@__cdecl?$AA@ 400a3fe4     LIBCMTD:undname.obj
 0002:00017fec       ??_C@_08EHJDFFNH@__based?$CI?$AA@ 400a3fec     LIBCMTD:undname.obj
 0002:0001817c       ??_C@_04HEJADOOB@CV?3?5?$AA@ 400a417c     LIBCMTD:undname.obj
 0002:00018184       ??_C@_02MOLJINC@?3?3?$AA@  400a4184     LIBCMTD:undname.obj
 0002:00018188       ??_C@_01GEODFPGF@?8?$AA@   400a4188     LIBCMTD:undname.obj
 0002:0001818c       ??_C@_01NLNLIGKH@?$GA?$AA@ 400a418c     LIBCMTD:undname.obj
 0002:00018190       ??_C@_0O@KHGCOMHP@generic?9type?9?$AA@ 400a4190     LIBCMTD:undname.obj
 0002:000181a0       ??_C@_0BE@JAEOCHPE@template?9parameter?9?$AA@ 400a41a0     LIBCMTD:undname.obj
 0002:000181b4       ??_C@_02OHHJMEON@?8?8?$AA@ 400a41b4     LIBCMTD:undname.obj
 0002:000181b8       ??_C@_0BG@JNJLAMPM@?$GAanonymous?5namespace?8?$AA@ 400a41b8     LIBCMTD:undname.obj
 0002:000181d0       ??_C@_0BN@IBLMMFAP@?$GAnon?9type?9template?9parameter?$AA@ 400a41d0     LIBCMTD:undname.obj
 0002:000181f0       ??_C@_0BE@EODMJLIF@?$GAtemplate?9parameter?$AA@ 400a41f0     LIBCMTD:undname.obj
 0002:00018204       ??_C@_04GKJNKENE@void?$AA@ 400a4204     LIBCMTD:undname.obj
 0002:0001820c       ??_C@_04HIBGFPH@NULL?$AA@  400a420c     LIBCMTD:undname.obj
 0002:00018214       ??_C@_0M@DHNBOJMP@extern?5?$CCC?$CC?5?$AA@ 400a4214     LIBCMTD:undname.obj
 0002:00018220       ??_C@_08KJLFOPNE@?$FLthunk?$FN?3?$AA@ 400a4220     LIBCMTD:undname.obj
 0002:0001822c       ??_C@_08GPDDCMKI@public?3?5?$AA@ 400a422c     LIBCMTD:undname.obj
 0002:00018238       ??_C@_0M@GAIFPFIP@protected?3?5?$AA@ 400a4238     LIBCMTD:undname.obj
 0002:00018244       ??_C@_09LAPHOOG@private?3?5?$AA@ 400a4244     LIBCMTD:undname.obj
 0002:00018250       ??_C@_08NIEOINHE@virtual?5?$AA@ 400a4250     LIBCMTD:undname.obj
 0002:0001825c       ??_C@_07PGOEDBHP@static?5?$AA@ 400a425c     LIBCMTD:undname.obj
 0002:00018264       ??_C@_0DA@HGFJFBBE@?$GAtemplate?5static?5data?5member?5des@ 400a4264     LIBCMTD:undname.obj
 0002:00018294       ??_C@_0DB@ILEFOCIJ@?$GAtemplate?5static?5data?5member?5con@ 400a4294     LIBCMTD:undname.obj
 0002:000182c8       ??_C@_0CB@KJDOOODE@?$GAlocal?5static?5destructor?5helper?8@ 400a42c8     LIBCMTD:undname.obj
 0002:000182ec       ??_C@_0L@HNGCOGAE@?$GAadjustor?$HL?$AA@ 400a42ec     LIBCMTD:undname.obj
 0002:000182f8       ??_C@_0L@GHPFDFH@?$GAvtordisp?$HL?$AA@ 400a42f8     LIBCMTD:undname.obj
 0002:00018304       ??_C@_0N@CBHHHENL@?$GAvtordispex?$HL?$AA@ 400a4304     LIBCMTD:undname.obj
 0002:00018314       ??_C@_02IGFCGPIL@?$HN?8?$AA@ 400a4314     LIBCMTD:undname.obj
 0002:00018318       ??_C@_03OPGICMGF@?$HN?8?5?$AA@ 400a4318     LIBCMTD:undname.obj
 0002:0001831c       ??_C@_02KCKGHPCA@?$CJ?5?$AA@ 400a431c     LIBCMTD:undname.obj
 0002:00018320       ??_C@_05BEFAKPML@void?5?$AA@ 400a4320     LIBCMTD:undname.obj
 0002:00018328       ??_C@_0P@GCOCNKDM@std?3?3nullptr_t?$AA@ 400a4328     LIBCMTD:undname.obj
 0002:00018338       ??_C@_08PABEKFH@volatile?$AA@ 400a4338     LIBCMTD:undname.obj
 0002:00018344       ??_C@_0M@ELJOJFFH@?0?$DMellipsis?$DO?$AA@ 400a4344     LIBCMTD:undname.obj
 0002:00018350       ??_C@_04EENFHACM@?0?4?4?4?$AA@ 400a4350     LIBCMTD:undname.obj
 0002:00018358       ??_C@_0L@EGPHHEKN@?$DMellipsis?$DO?$AA@ 400a4358     LIBCMTD:undname.obj
 0002:00018364       ??_C@_07HDJPLPEK@?5throw?$CI?$AA@ 400a4364     LIBCMTD:undname.obj
 0002:0001836c       ??_C@_09EFNPDFFP@?5volatile?$AA@ 400a436c     LIBCMTD:undname.obj
 0002:00018378       ??_C@_05BNCCCJPP@const?$AA@ 400a4378     LIBCMTD:undname.obj
 0002:00018380       ??_C@_07EDHNAJHC@signed?5?$AA@ 400a4380     LIBCMTD:undname.obj
 0002:00018388       ??_C@_09EBBEKKIH@unsigned?5?$AA@ 400a4388     LIBCMTD:undname.obj
 0002:00018394       ??_C@_07NFANNNEC@UNKNOWN?$AA@ 400a4394     LIBCMTD:undname.obj
 0002:0001839c       ??_C@_06GCICPBLB@__w64?5?$AA@ 400a439c     LIBCMTD:undname.obj
 0002:000183a4       ??_C@_07CLGGIAMF@wchar_t?$AA@ 400a43a4     LIBCMTD:undname.obj
 0002:000183ac       ??_C@_09EEKGDCPH@?$DMunknown?$DO?$AA@ 400a43ac     LIBCMTD:undname.obj
 0002:000183b8       ??_C@_08GAHOLHEO@__int128?$AA@ 400a43b8     LIBCMTD:undname.obj
 0002:000183c4       ??_C@_07LFCOJCAC@__int64?$AA@ 400a43c4     LIBCMTD:undname.obj
 0002:000183cc       ??_C@_07OFLPPHGP@__int32?$AA@ 400a43cc     LIBCMTD:undname.obj
 0002:000183d4       ??_C@_07ICFHOGAF@__int16?$AA@ 400a43d4     LIBCMTD:undname.obj
 0002:000183dc       ??_C@_06EBGKOKIG@__int8?$AA@ 400a43dc     LIBCMTD:undname.obj
 0002:000183e4       ??_C@_04DDKJGDCM@bool?$AA@ 400a43e4     LIBCMTD:undname.obj
 0002:000183ec       ??_C@_06BNJCAIGJ@double?$AA@ 400a43ec     LIBCMTD:undname.obj
 0002:000183f4       ??_C@_05CJIMAING@long?5?$AA@ 400a43f4     LIBCMTD:undname.obj
 0002:000183fc       ??_C@_05KNFBNCOH@float?$AA@ 400a43fc     LIBCMTD:undname.obj
 0002:00018404       ??_C@_04GOKPGOLB@long?$AA@ 400a4404     LIBCMTD:undname.obj
 0002:0001840c       ??_C@_03JBIPMCLC@int?$AA@  400a440c     LIBCMTD:undname.obj
 0002:00018410       ??_C@_05BFKKPKCG@short?$AA@ 400a4410     LIBCMTD:undname.obj
 0002:00018418       ??_C@_04ENMBGAPA@char?$AA@ 400a4418     LIBCMTD:undname.obj
 0002:00018420       ??_C@_05LJGMCFOG@enum?5?$AA@ 400a4420     LIBCMTD:undname.obj
 0002:00018428       ??_C@_0N@DLIEFKNA@cointerface?5?$AA@ 400a4428     LIBCMTD:undname.obj
 0002:00018438       ??_C@_08KOFANOFK@coclass?5?$AA@ 400a4438     LIBCMTD:undname.obj
 0002:00018444       ??_C@_06LJBABKPM@class?5?$AA@ 400a4444     LIBCMTD:undname.obj
 0002:0001844c       ??_C@_07DIBCDNGL@struct?5?$AA@ 400a444c     LIBCMTD:undname.obj
 0002:00018454       ??_C@_06MOJHIBMG@union?5?$AA@ 400a4454     LIBCMTD:undname.obj
 0002:0001845c       ??_C@_0P@GCIFDJCJ@?$GAunknown?5ecsu?8?$AA@ 400a445c     LIBCMTD:undname.obj
 0002:0001846c       ??_C@_04LAHKHJMA@int?5?$AA@ 400a446c     LIBCMTD:undname.obj
 0002:00018474       ??_C@_06EHJMALKF@short?5?$AA@ 400a4474     LIBCMTD:undname.obj
 0002:0001847c       ??_C@_05CIHEBHNO@char?5?$AA@ 400a447c     LIBCMTD:undname.obj
 0002:00018484       ??_C@_06LIJLOJAG@const?5?$AA@ 400a4484     LIBCMTD:undname.obj
 0002:0001848c       ??_C@_09GAIEOBLP@volatile?5?$AA@ 400a448c     LIBCMTD:undname.obj
 0002:00018498       ??_C@_0O@GKABPPIF@cli?3?3pin_ptr?$DM?$AA@ 400a4498     LIBCMTD:undname.obj
 0002:000184a8       ??_C@_0M@EALIELKG@cli?3?3array?$DM?$AA@ 400a44a8     LIBCMTD:undname.obj
 0002:000184b4       ??_C@_02GOGNNPBN@?$CJ?$FL?$AA@ 400a44b4     LIBCMTD:undname.obj
 0002:000184b8       ??_C@_06EEGAIFAK@?$HLflat?$HN?$AA@ 400a44b8     LIBCMTD:undname.obj
 0002:000184c0       ??_C@_02MDINNEEG@s?5?$AA@  400a44c0     LIBCMTD:undname.obj
 0002:000184c4       ??_C@_05JIBOFOHK@?$HLfor?5?$AA@ 400a44c4     LIBCMTD:undname.obj
 0002:000184cc       ??_7DNameNode@@6B@         400a44cc     LIBCMTD:undname.obj
 0002:000184d8       ??_7charNode@@6B@          400a44d8     LIBCMTD:undname.obj
 0002:000184e4       ??_7pcharNode@@6B@         400a44e4     LIBCMTD:undname.obj
 0002:000184f0       ??_7pDNameNode@@6B@        400a44f0     LIBCMTD:undname.obj
 0002:000184fc       ??_7DNameStatusNode@@6B@   400a44fc     LIBCMTD:undname.obj
 0002:00018508       ??_C@_04OKOHEJBO@?5?$DP?$DP?5?$AA@ 400a4508     LIBCMTD:undname.obj
 0002:00018510       ??_7pairNode@@6B@          400a4510     LIBCMTD:undname.obj
 0002:00018520       __load_config_used         400a4520     LIBCMTD:loadcfg.obj
 0002:000185a0       ??_R4bad_exception@std@@6B@ 400a45a0     LIBCMTD:frame.obj
 0002:000185b4       ??_R3bad_exception@std@@8  400a45b4     LIBCMTD:frame.obj
 0002:000185c4       ??_R2bad_exception@std@@8  400a45c4     LIBCMTD:frame.obj
 0002:000185d0       ??_R1A@?0A@EA@bad_exception@std@@8 400a45d0     LIBCMTD:frame.obj
 0002:000185ec       ??_R1A@?0A@EA@exception@std@@8 400a45ec     LIBCMTD:frame.obj
 0002:00018608       ??_R3exception@std@@8      400a4608     LIBCMTD:frame.obj
 0002:00018618       ??_R2exception@std@@8      400a4618     LIBCMTD:frame.obj
 0002:00018620       ??_R4type_info@@6B@        400a4620     LIBCMTD:typinfo.obj
 0002:00018634       ??_R3type_info@@8          400a4634     LIBCMTD:typinfo.obj
 0002:00018644       ??_R2type_info@@8          400a4644     LIBCMTD:typinfo.obj
 0002:0001864c       ??_R1A@?0A@EA@type_info@@8 400a464c     LIBCMTD:typinfo.obj
 0002:00018668       ??_R4exception@std@@6B@    400a4668     LIBCMTD:stdexcpt.obj
 0002:0001867c       ??_R4bad_cast@std@@6B@     400a467c     LIBCMTD:stdexcpt.obj
 0002:00018690       ??_R3bad_cast@std@@8       400a4690     LIBCMTD:stdexcpt.obj
 0002:000186a0       ??_R2bad_cast@std@@8       400a46a0     LIBCMTD:stdexcpt.obj
 0002:000186ac       ??_R1A@?0A@EA@bad_cast@std@@8 400a46ac     LIBCMTD:stdexcpt.obj
 0002:000186c8       ??_R4bad_typeid@std@@6B@   400a46c8     LIBCMTD:stdexcpt.obj
 0002:000186dc       ??_R3bad_typeid@std@@8     400a46dc     LIBCMTD:stdexcpt.obj
 0002:000186ec       ??_R2bad_typeid@std@@8     400a46ec     LIBCMTD:stdexcpt.obj
 0002:000186f8       ??_R1A@?0A@EA@bad_typeid@std@@8 400a46f8     LIBCMTD:stdexcpt.obj
 0002:00018714       ??_R4__non_rtti_object@std@@6B@ 400a4714     LIBCMTD:stdexcpt.obj
 0002:00018728       ??_R3__non_rtti_object@std@@8 400a4728     LIBCMTD:stdexcpt.obj
 0002:00018738       ??_R2__non_rtti_object@std@@8 400a4738     LIBCMTD:stdexcpt.obj
 0002:00018748       ??_R1A@?0A@EA@__non_rtti_object@std@@8 400a4748     LIBCMTD:stdexcpt.obj
 0002:00018770       ___safe_se_handler_table   400a4770     <linker-defined>
 0002:0001879c       ___rtc_iaa                 400a479c     LIBCMTD:_initsect_.obj
 0002:000187d8       ___rtc_izz                 400a47d8     LIBCMTD:_initsect_.obj
 0002:000187dc       ___rtc_taa                 400a47dc     LIBCMTD:_initsect_.obj
 0002:00018818       ___rtc_tzz                 400a4818     LIBCMTD:_initsect_.obj
 0002:00018e50       __TI2?AVbad_exception@std@@ 400a4e50     LIBCMTD:frame.obj
 0002:00018e60       __CTA2?AVbad_exception@std@@ 400a4e60     LIBCMTD:frame.obj
 0002:00018e6c       __CT??_R0?AVbad_exception@std@@@8??0bad_exception@std@@QAE@ABV01@@Z12 400a4e6c     LIBCMTD:frame.obj
 0002:00018e88       __CT??_R0?AVexception@std@@@8??0exception@std@@QAE@ABV01@@Z12 400a4e88     LIBCMTD:frame.obj
 0002:000192e8       __IMPORT_DESCRIPTOR_KERNEL32 400a52e8     kernel32:KERNEL32.dll
 0002:000192fc       __NULL_IMPORT_DESCRIPTOR   400a52fc     kernel32:KERNEL32.dll
 0003:00000000       _animStateStr              400a6000     bg_animation.obj
 0003:00000230       _animBodyPartsStr          400a6230     bg_animation.obj
 0003:00000580       _bg_allies_playerclasses   400a6580     bg_classes.obj
 0003:00000728       _bg_axis_playerclasses     400a6728     bg_classes.obj
 0003:000008d0       _HQMessages                400a68d0     bg_misc.obj
 0003:00000954       _syringeLoadout            400a6954     bg_misc.obj
 0003:0000097c       _skillNames                400a697c     bg_misc.obj
 0003:00000998       _medalNames                400a6998     bg_misc.obj
 0003:000009b4       _playerlegsProneMins       400a69b4     bg_misc.obj
 0003:000009c0       _skillLevels               400a69c0     bg_misc.obj
 0003:00000ad8       _playerlegsProneMaxs       400a6ad8     bg_misc.obj
 0003:00000ae4       _bg_numItems               400a6ae4     bg_misc.obj
 0003:00000ae8       _reloadableWeapons         400a6ae8     bg_misc.obj
 0003:00000b5c       _numVotesAvailable         400a6b5c     bg_misc.obj
 0003:00000b60       _WeaponTable               400a6b60     bg_misc.obj
 0003:00001c1c       _weapOverheat              400a7c1c     bg_misc.obj
 0003:00001c40       _weapAlts                  400a7c40     bg_misc.obj
 0003:00001d40       _weapTeamConversion        400a7d40     bg_misc.obj
 0003:00001e40       _weaponCanRestrict         400a7e40     bg_misc.obj
 0003:00001e80       _modWeaponTableMP          400a7e80     bg_misc.obj
 0003:00002340       _modFalloffDamage          400a8340     bg_misc.obj
 0003:00002470       _modHeadshotModeWeapon     400a8470     bg_misc.obj
 0003:000025a0       _WP_names                  400a85a0     bg_misc.obj
 0003:000026a0       _bg_itemlist               400a86a0     bg_misc.obj
 0003:00004000       _jP_GrenadesPerLevel       400aa000     bg_misc.obj
 0003:00004118       _eventnames                400aa118     bg_misc.obj
 0003:000042d0       _rankSoundNames_Allies     400aa2d0     bg_misc.obj
 0003:00004320       _rankSoundNames_Axis       400aa320     bg_misc.obj
 0003:00004370       _rankNames_Axis            400aa370     bg_misc.obj
 0003:000043c0       _rankNames_Allies          400aa3c0     bg_misc.obj
 0003:00004410       _miniRankNames_Axis        400aa410     bg_misc.obj
 0003:00004460       _miniRankNames_Allies      400aa460     bg_misc.obj
 0003:000044ac       _bg_fireteamNames          400aa4ac     bg_misc.obj
 0003:000044c8       _OSP_Colortable            400aa4c8     bg_misc.obj
 0003:00004570       _armSpeed_LandMine         400aa570     bg_misc.obj
 0003:00004598       _armSpeed_Dynamite         400aa598     bg_misc.obj
 0003:000045c0       _disarmSpeed_Dynamite      400aa5c0     bg_misc.obj
 0003:000045e8       _disarmSpeed_LandMine      400aa5e8     bg_misc.obj
 0003:00004610       _artilleryBombs            400aa610     bg_misc.obj
 0003:00004638       _disarmSpeed_Satchel       400aa638     bg_misc.obj
 0003:00004660       _chargeCost_Repair         400aa660     bg_misc.obj
 0003:00004688       _chargeCost_Construct      400aa688     bg_misc.obj
 0003:000046b0       _chargeCost_Landmine       400aa6b0     bg_misc.obj
 0003:000046d8       _chargeCost_Dynamite       400aa6d8     bg_misc.obj
 0003:00004700       _chargeCost_Riflenade      400aa700     bg_misc.obj
 0003:00004728       _chargeCost_Defuse         400aa728     bg_misc.obj
 0003:00004750       _chargeCost_Satchel        400aa750     bg_misc.obj
 0003:00004778       _chargeCost_Smoke          400aa778     bg_misc.obj
 0003:000047a0       _chargeCost_Health         400aa7a0     bg_misc.obj
 0003:000047c8       _chargeCost_Ammo           400aa7c8     bg_misc.obj
 0003:000047f0       _chargeCost_Adrenaline     400aa7f0     bg_misc.obj
 0003:00004818       _chargeCost_Artillery      400aa818     bg_misc.obj
 0003:00004840       _chargeCost_Airstrike      400aa840     bg_misc.obj
 0003:00004868       _chargeCost_Panzer         400aa868     bg_misc.obj
 0003:00004890       _chargeCost_Bazooka        400aa890     bg_misc.obj
 0003:000048b8       _chargeCost_Mortar         400aa8b8     bg_misc.obj
 0003:000048e0       _lightWeapon_Spread        400aa8e0     bg_misc.obj
 0003:00004908       _disguiseTestCost          400aa908     bg_misc.obj
 0003:00004930       _axisDefault               400aa930     q_math.obj
 0003:00004954       _colorBlack                400aa954     q_math.obj
 0003:00004964       _colorRed                  400aa964     q_math.obj
 0003:00004974       _colorGreen                400aa974     q_math.obj
 0003:00004984       _colorBlue                 400aa984     q_math.obj
 0003:00004994       _colorYellow               400aa994     q_math.obj
 0003:000049a4       _colorOrange               400aa9a4     q_math.obj
 0003:000049b4       _colorMagenta              400aa9b4     q_math.obj
 0003:000049c4       _colorCyan                 400aa9c4     q_math.obj
 0003:000049d4       _colorWhite                400aa9d4     q_math.obj
 0003:000049e4       _colorLtGrey               400aa9e4     q_math.obj
 0003:000049f4       _colorMdGrey               400aa9f4     q_math.obj
 0003:00004a04       _colorDkGrey               400aaa04     q_math.obj
 0003:00004a14       _colorMdRed                400aaa14     q_math.obj
 0003:00004a24       _colorMdGreen              400aaa24     q_math.obj
 0003:00004a34       _colorDkGreen              400aaa34     q_math.obj
 0003:00004a44       _colorMdCyan               400aaa44     q_math.obj
 0003:00004a54       _colorMdYellow             400aaa54     q_math.obj
 0003:00004a64       _colorMdOrange             400aaa64     q_math.obj
 0003:00004a74       _colorMdBlue               400aaa74     q_math.obj
 0003:00004a84       _colorPink                 400aaa84     q_math.obj
 0003:00004a94       _colorCthulhu              400aaa94     q_math.obj
 0003:00004aa4       _clrBrown                  400aaaa4     q_math.obj
 0003:00004ab4       _clrBrownDk                400aaab4     q_math.obj
 0003:00004ac4       _clrBrownLine              400aaac4     q_math.obj
 0003:00004ad4       _clrBrownLineFull          400aaad4     q_math.obj
 0003:00004ae4       _clrBrownTextLt2           400aaae4     q_math.obj
 0003:00004af4       _clrBrownTextLt            400aaaf4     q_math.obj
 0003:00004b04       _clrBrownText              400aab04     q_math.obj
 0003:00004b14       _clrBrownTextDk            400aab14     q_math.obj
 0003:00004b24       _clrBrownTextDk2           400aab24     q_math.obj
 0003:00004b38       _g_color_table             400aab38     q_math.obj
 0003:00004d38       _bytedirs                  400aad38     q_math.obj
 0003:000054d0       _missiondescriptionTxt     400ab4d0     ui_loadpanel.obj
 0003:000054f4       _missiondescriptionHeaderTxt 400ab4f4     ui_loadpanel.obj
 0003:00005518       _campaignpheaderTxt        400ab518     ui_loadpanel.obj
 0003:0000553c       _campaignpTxt              400ab53c     ui_loadpanel.obj
 0003:00005560       _loadScreenMeterBackTxt    400ab560     ui_loadpanel.obj
 0003:00005588       _loadScreenMap             400ab588     ui_loadpanel.obj
 0003:000055d8       _loadScreenBack            400ab5d8     ui_loadpanel.obj
 0003:00005628       _loadingPanelText          400ab628     ui_loadpanel.obj
 0003:00005678       _campaignPanelText         400ab678     ui_loadpanel.obj
 0003:000056c8       _loadScreenMeterBack       400ab6c8     ui_loadpanel.obj
 0003:00005718       _downloadScreenMeterBack   400ab718     ui_loadpanel.obj
 0003:00005768       _downloadScreenMeterBackText 400ab768     ui_loadpanel.obj
 0003:000057b8       _loadpanelButtons          400ab7b8     ui_loadpanel.obj
 0003:000059f0       _serverStatusCvars         400ab9f0     ui_main.obj
 0003:00005a40       _cvarTable                 400aba40     ui_main.obj
 0003:0000692c       _cvarTableSize             400ac92c     ui_main.obj
 0003:00006934       _scriptCommandCount        400ac934     ui_shared.obj
 0003:00006938       _commandList               400ac938     ui_shared.obj
 0003:00007268       _itemParseKeywords         400ad268     ui_shared.obj
 0003:00007658       _menuParseKeywords         400ad658     ui_shared.obj
 0003:00007800       ___security_cookie         400ad800     LIBCMTD:gs_cookie.obj
 0003:00007804       ___security_cookie_complement 400ad804     LIBCMTD:gs_cookie.obj
 0003:00007810       __fltused                  400ad810     LIBCMTD:_fpinit_.obj
 0003:00007814       __ldused                   400ad814     LIBCMTD:_fpinit_.obj
 0003:00007860       ?_RTC_ErrorLevels@@3PAHA   400ad860     LIBCMTD:_error_.obj
 0003:00007874       ___flsindex                400ad874     LIBCMTD:tidtable.obj
 0003:00007878       ___getvalueindex           400ad878     LIBCMTD:tidtable.obj
 0003:0000787c       __cfltcvt_tab              400ad87c     LIBCMTD:cmiscdat.obj
 0003:00007a18       ___initialmbcinfo          400ada18     LIBCMTD:mbctype.obj
 0003:00007c38       __mbctype                  400adc38     LIBCMTD:mbctype.obj
 0003:00007d40       __mbcasemap                400add40     LIBCMTD:mbctype.obj
 0003:00007e40       ___ptmbcinfo               400ade40     LIBCMTD:mbctype.obj
 0003:00007f38       ___globallocalestatus      400adf38     LIBCMTD:glstatus.obj
 0003:00007f3c       ___clocalestr              400adf3c     LIBCMTD:nlsdata2.obj
 0003:00007f40       ___lc_time_c               400adf40     LIBCMTD:nlsdata2.obj
 0003:000080a8       ___initiallocinfo          400ae0a8     LIBCMTD:nlsdata2.obj
 0003:00008180       ___ptlocinfo               400ae180     LIBCMTD:nlsdata2.obj
 0003:00008184       ___initiallocalestructinfo 400ae184     LIBCMTD:nlsdata2.obj
 0003:000081a4       ___nullstring              400ae1a4     LIBCMTD:output.obj
 0003:000081a8       ___wnullstring             400ae1a8     LIBCMTD:output.obj
 0003:000081b0       __crtDbgFlag               400ae1b0     LIBCMTD:dbgheap.obj
 0003:000081b4       ___crtDebugFillThreshold   400ae1b4     LIBCMTD:dbgheap.obj
 0003:000081bc       __crtBreakAlloc            400ae1bc     LIBCMTD:dbgheap.obj
 0003:000082e8       ___badioinfo               400ae2e8     LIBCMTD:ioinit.obj
 0003:00008328       __pfnAllocHook             400ae328     LIBCMTD:dbghook.obj
 0003:00008330       ___lconv_static_decimal    400ae330     LIBCMTD:lconv.obj
 0003:00008334       ___lconv_static_W_decimal  400ae334     LIBCMTD:lconv.obj
 0003:00008338       ___lconv_c                 400ae338     LIBCMTD:lconv.obj
 0003:00008388       ___lconv                   400ae388     LIBCMTD:lconv.obj
 0003:0000838c       __pctype                   400ae38c     LIBCMTD:ctype.obj
 0003:00008390       __pwctype                  400ae390     LIBCMTD:ctype.obj
 0003:00008394       ___mb_cur_max              400ae394     LIBCMTD:nlsdata1.obj
 0003:00008398       ___decimal_point           400ae398     LIBCMTD:nlsdata1.obj
 0003:0000839c       ___decimal_point_length    400ae39c     LIBCMTD:nlsdata1.obj
 0003:000083a0       __matherr_flag             400ae3a0     LIBCMTD:_matherr_.obj
 0003:00008490       __d_inf                    400ae490     LIBCMTD:_util_.obj
 0003:00008498       __d_ind                    400ae498     LIBCMTD:_util_.obj
 0003:000084a0       __d_max                    400ae4a0     LIBCMTD:_util_.obj
 0003:000084a8       __d_min                    400ae4a8     LIBCMTD:_util_.obj
 0003:000084b0       __d_mzero                  400ae4b0     LIBCMTD:_util_.obj
 0003:00008504       __crtAssertBusy            400ae504     LIBCMTD:dbgrptt.obj
 0003:00008508       __CrtDbgMode               400ae508     LIBCMTD:dbgrptt.obj
 0003:00008514       __CrtDbgFile               400ae514     LIBCMTD:dbgrptt.obj
 0003:00008520       __pow10pos                 400ae520     LIBCMTD:_constpow_.obj
 0003:00008680       __pow10neg                 400ae680     LIBCMTD:_constpow_.obj
 0003:000087e0       __iob                      400ae7e0     LIBCMTD:_file.obj
 0003:00008a60       ___abort_behavior          400aea60     LIBCMTD:abort.obj
 0003:00008a64       ??_R0?AVbad_exception@std@@@8 400aea64     LIBCMTD:frame.obj
 0003:00008a84       ??_R0?AVexception@std@@@8  400aea84     LIBCMTD:frame.obj
 0003:00008aa0       __NLG_Destination          400aeaa0     LIBCMTD:exsup.obj
 0003:00008ab0       ??_R0?AVtype_info@@@8      400aeab0     LIBCMTD:typinfo.obj
 0003:00008ac8       ??_R0?AVbad_cast@std@@@8   400aeac8     LIBCMTD:stdexcpt.obj
 0003:00008ae4       ??_R0?AVbad_typeid@std@@@8 400aeae4     LIBCMTD:stdexcpt.obj
 0003:00008b04       ??_R0?AV__non_rtti_object@std@@@8 400aeb04     LIBCMTD:stdexcpt.obj
 0003:00008b30       __confh                    400aeb30     LIBCMTD:initcon.obj
 0003:000568dc       _vec3_origin               400fc8dc     q_math.obj
 0003:0006dfa8       _bg_loadscreeninited       40113fa8     ui_loadpanel.obj
 0003:00077c0c       _defaultMenu               4011dc0c     ui_main.obj
 0003:004d9c68       _g_waitingForKey           4057fc68     ui_shared.obj
 0003:004d9c6c       _g_editingField            4057fc6c     ui_shared.obj
 0003:004d9c70       _g_bindItem                4057fc70     ui_shared.obj
 0003:004d9c74       _g_editItem                4057fc74     ui_shared.obj
 0003:004d9c78       _menuCount                 4057fc78     ui_shared.obj
 0003:004d9c7c       _scrolltime                4057fc7c     ui_shared.obj
 0003:004d9c80       _modalMenuCount            4057fc80     ui_shared.obj
 0003:004e96a0       ___fastflag                4058f6a0     LIBCMTD:_fpinit_.obj
 0003:004e96a4       ?wsprintffp@@3P6AHPADPBDZZA 4058f6a4     LIBCMTD:_error_.obj
 0003:004e96a8       __umaskval                 4058f6a8     LIBCMTD:crt0dat.obj
 0003:004e96ac       ___argc                    4058f6ac     LIBCMTD:crt0dat.obj
 0003:004e96b0       ___argv                    4058f6b0     LIBCMTD:crt0dat.obj
 0003:004e96b4       ___wargv                   4058f6b4     LIBCMTD:crt0dat.obj
 0003:004e96b8       __environ                  4058f6b8     LIBCMTD:crt0dat.obj
 0003:004e96bc       ___initenv                 4058f6bc     LIBCMTD:crt0dat.obj
 0003:004e96c0       __wenviron                 4058f6c0     LIBCMTD:crt0dat.obj
 0003:004e96c4       ___winitenv                4058f6c4     LIBCMTD:crt0dat.obj
 0003:004e96c8       __pgmptr                   4058f6c8     LIBCMTD:crt0dat.obj
 0003:004e96cc       __wpgmptr                  4058f6cc     LIBCMTD:crt0dat.obj
 0003:004e96d0       __exitflag                 4058f6d0     LIBCMTD:crt0dat.obj
 0003:004e96d4       __C_Termination_Done       4058f6d4     LIBCMTD:crt0dat.obj
 0003:004e96d8       __C_Exit_Done              4058f6d8     LIBCMTD:crt0dat.obj
 0003:004e96e4       __aenvptr                  4058f6e4     LIBCMTD:dllcrt0.obj
 0003:004e96e8       __wenvptr                  4058f6e8     LIBCMTD:dllcrt0.obj
 0003:004e96ec       ___error_mode              4058f6ec     LIBCMTD:dllcrt0.obj
 0003:004e96f0       ___app_type                4058f6f0     LIBCMTD:dllcrt0.obj
 0003:004e9a24       _gpFlsAlloc                4058fa24     LIBCMTD:tidtable.obj
 0003:004e9a28       _gpFlsGetValue             4058fa28     LIBCMTD:tidtable.obj
 0003:004e9a2c       _gpFlsSetValue             4058fa2c     LIBCMTD:tidtable.obj
 0003:004e9a30       _gpFlsFree                 4058fa30     LIBCMTD:tidtable.obj
 0003:004e9a38       ___mbulinfo                4058fa38     LIBCMTD:mbctype.obj
 0003:004e9a44       ___mbcodepage              4058fa44     LIBCMTD:mbctype.obj
 0003:004e9a48       ___ismbcodepage            4058fa48     LIBCMTD:mbctype.obj
 0003:004e9a4c       ___mblcid                  4058fa4c     LIBCMTD:mbctype.obj
 0003:004e9a50       ___locale_changed          4058fa50     LIBCMTD:setlocal.obj
 0003:004e9a58       ___pInvalidArgHandler      4058fa58     LIBCMTD:invarg.obj
 0003:004ea0a4       ?_pfnDumpClient@@3P6AXPAXI@ZA 405900a4     LIBCMTD:dbgheap.obj
 0003:004ea0ac       ___crtDebugCheckCount      405900ac     LIBCMTD:dbgheap.obj
 0003:004ea220       ?__pInconsistency@@3P6AXXZA 40590220     LIBCMTD:hooks.obj
 0003:004ea23c       ___pPurecall               4059023c     LIBCMTD:inithelp.obj
 0003:004ea240       ?_pnhHeap@@3P6AHI@ZA       40590240     LIBCMTD:handler.obj
 0003:004ea350       __crtheap                  40590350     LIBCMTD:heapinit.obj
 0003:004ea354       __outputformat             40590354     LIBCMTD:outputformat.obj
 0003:004ea358       ___lconv_static_null       40590358     LIBCMTD:lconv.obj
 0003:004ea35c       ___lconv_static_W_null     4059035c     LIBCMTD:lconv.obj
 0003:004ea374       __cflush                   40590374     LIBCMTD:_file.obj
 0003:004ea37c       __newmode                  4059037c     LIBCMTD:_newmode.obj
 0003:004ea394       __stdbuf                   40590394     LIBCMTD:_sftbuf.obj
 0003:004ea3b8       ?pArgList@UnDecorator@@0PAVReplicator@@A 405903b8     LIBCMTD:undname.obj
 0003:004ea3bc       ?pZNameList@UnDecorator@@0PAVReplicator@@A 405903bc     LIBCMTD:undname.obj
 0003:004ea3c0       ?pTemplateArgList@UnDecorator@@0PAVReplicator@@A 405903c0     LIBCMTD:undname.obj
 0003:004ea3c4       ?gName@UnDecorator@@0PBDB  405903c4     LIBCMTD:undname.obj
 0003:004ea3c8       ?name@UnDecorator@@0PBDB   405903c8     LIBCMTD:undname.obj
 0003:004ea3cc       ?outputString@UnDecorator@@0PADA 405903cc     LIBCMTD:undname.obj
 0003:004ea3d0       ?maxStringLength@UnDecorator@@0HA 405903d0     LIBCMTD:undname.obj
 0003:004ea3d4       ?disableFlags@UnDecorator@@0KA 405903d4     LIBCMTD:undname.obj
 0003:004ea3d8       ?m_pGetParameter@UnDecorator@@0P6APADJ@ZA 405903d8     LIBCMTD:undname.obj
 0003:004ea3dc       ?fExplicitTemplateParams@UnDecorator@@0_NA 405903dc     LIBCMTD:undname.obj
 0003:004ea3dd       ?fGetTemplateArgumentList@UnDecorator@@0_NA 405903dd     LIBCMTD:undname.obj
 0003:004ea430       ?nodes@?1??make@DNameStatusNode@@SAPAV2@W4DNameStatus@@@Z@4PAV2@A 40590430     LIBCMTD:undname.obj
 0003:004ea460       ??_B?1??make@DNameStatusNode@@SAPAV1@W4DNameStatus@@@Z@51 40590460     LIBCMTD:undname.obj
 0003:004ea464       _bg_focusButton            40590464     <common>
 0003:004ea480       _itemParseKeywordHash      40590480     <common>
 0003:004eac80       _Menus                     40590c80     <common>
 0003:0057c480       _g_nameBind1               40622480     <common>
 0003:0057c4a0       _scrollYmenu               406224a0     <common>
 0003:0057ccc0       _g_nameBind2               40622cc0     <common>
 0003:0057cce0       _menuParseKeywordHash      40622ce0     <common>
 0003:0057d4e0       _modalMenuStack            406234e0     <common>
 0003:0057d520       _ui_glCustom               40623520     <common>
 0003:0057d640       _ui_model                  40623640     <common>
 0003:0057d760       _ui_browserShowEmptyOrFull 40623760     <common>
 0003:0057d880       _ui_browserShowMaxlives    40623880     <common>
 0003:0057d9a0       _ui_prevTeam               406239a0     <common>
 0003:0057dac0       _ui_serverFilterType       40623ac0     <common>
 0003:0057dbe0       _ui_browserGameType        40623be0     <common>
 0003:0057dd00       _ui_selectedPlayerName     40623d00     <common>
 0003:0057de20       _ui_browserShowPunkBuster  40623e20     <common>
 0003:0057df40       _ui_netSource              40623f40     <common>
 0003:0057e060       _ui_limboPrevOptions       40624060     <common>
 0003:0057e180       _ui_gameType               40624180     <common>
 0003:0057e2a0       _ui_userAxisRespawnTime    406242a0     <common>
 0003:0057e3c0       _ui_friendlyFire           406243c0     <common>
 0003:0057e4e0       _ui_userAlliedRespawnTime  406244e0     <common>
 0003:0057e600       _cl_defaultProfile         40624600     <common>
 0003:0057e720       _ui_prevWeapon             40624720     <common>
 0003:0057e840       _ui_selectedPlayer         40624840     <common>
 0003:0057e960       _ui_Q3Model                40624960     <common>
 0003:0057ea80       _ui_isSpectator            40624a80     <common>
 0003:0057eba0       _ui_objective              40624ba0     <common>
 0003:0057ecc0       _ui_headModel              40624cc0     <common>
 0003:0057ede0       _cg_crosshairAlpha         40624de0     <common>
 0003:0057ef00       _ui_currentCampaign        40624f00     <common>
 0003:0057f020       _ui_currentNetMap          40625020     <common>
 0003:0057f140       _ui_mapIndex               40625140     <common>
 0003:0057f260       _ui_browserShowTeamBalanced 40625260     <common>
 0003:0057f380       _ui_profile                40625380     <common>
 0003:0057f4a0       _ui_browserShowAntilag     406254a0     <common>
 0003:0057f5c0       _ui_browserShowWeaponsRestricted 406255c0     <common>
 0003:0057f6e0       _ui_campaignIndex          406256e0     <common>
 0003:0057f800       _ui_browserSortKey         40625800     <common>
 0003:0057f920       _ui_limboMode              40625920     <common>
 0003:0057fa40       _ui_browserShowFriendlyFire 40625a40     <common>
 0003:0057fb60       _ui_browserNQonly          40625b60     <common>
 0003:0057fc80       _ui_browserMaster          40625c80     <common>
 0003:0057fda0       _ui_currentCampaignCompleted 40625da0     <common>
 0003:0057fec0       _ui_cmd                    40625ec0     <common>
 0003:0057ffe0       _ui_currentMap             40625fe0     <common>
 0003:00580100       _cg_crosshairColorAlt      40626100     <common>
 0003:00580220       _ui_netGameType            40626220     <common>
 0003:00580340       _cl_bypassMouseInput       40626340     <common>
 0003:00580460       _ui_joinGameType           40626460     <common>
 0003:00580580       _ui_cdkeychecked           40626580     <common>
 0003:005806a0       _uiInfo                    406266a0     <common>
 0003:005c1e60       _ui_clipboardName          40667e60     <common>
 0003:005c1f80       _g_gameType                40667f80     <common>
 0003:005c20a0       _ui_dedicated              406680a0     <common>
 0003:005c21c0       _ui_limboOptions           406681c0     <common>
 0003:005c22e0       _cl_profile                406682e0     <common>
 0003:005c2400       _ui_limboObjective         40668400     <common>
 0003:005c2520       _cg_crosshairAlphaAlt      40668520     <common>
 0003:005c2640       _ui_prevClass              40668640     <common>
 0003:005c2760       _ui_serverStatusTimeOut    40668760     <common>
 0003:005c2880       _ui_currentNetCampaign     40668880     <common>
 0003:005c29a0       _ui_autoredirect           406689a0     <common>
 0003:005c2ac0       _ui_menuFiles              40668ac0     <common>
 0003:005c2be0       _ui_blackout               40668be0     <common>
 0003:005c2d00       _cg_crosshairSize          40668d00     <common>
 0003:005c2e20       _cg_crosshairColor         40668e20     <common>
 0003:005c2f40       _ui_browserShowPasswordProtected 40668f40     <common>
 0003:005c3060       _ui_userTimeLimit          40669060     <common>
 0003:005c3180       _ui_master                 40669180     <common>
 0003:005c32a0       _bg_loadscreenfont2        406692a0     <common>
 0003:005c8300       _bg_loadscreenfont1        4066e300     <common>
 0003:005cd344       ?bops_initialized@?1??BoxOnPlaneSide_fast@@9@9 40673344     <common>
 0003:005cd360       ?Ljmptab@?1??BoxOnPlaneSide_fast@@9@9 40673360     <common>
 0003:005cd380       _pathCorners               40673380     <common>
 0003:005d6b80       _numPathCorners            4067cb80     <common>
 0003:005d6b84       _numSplinePaths            4067cb84     <common>
 0003:005d6ba0       _splinePaths               4067cba0     <common>
 0003:006493a0       _bg_characterPool          406ef3a0     <common>
 0003:00651160       _alliedClassCharacters     406f7160     <common>
 0003:006538c0       _bg_characterPoolInuse     406f98c0     <common>
 0003:00653900       _axisClassCharacters       406f9900     <common>
 0003:0065604c       _imgBlingbling             406fc04c     <common>
 0003:00656050       _imgFadeCircle             406fc050     <common>
 0003:00656054       _DC                        406fc054     <common>
 0003:00656058       _imgFadeToBlack            406fc058     <common>
 0003:00656060       _weapon_restrictions       406fc060     <common>
 0003:00656840       _BG_Weapons                406fc840     <common>
 0003:0065ca40       _weaponStrings             40702a40     <common>
 0003:0065cc38       ___piob                    40702c38     <common>
 0003:0065cc40       __bufin                    40702c40     <common>
 0003:0065dc40       __nstream                  40703c40     <common>
 0003:0065dc44       __pfnReportHook            40703c44     <common>
 0003:0065dc48       __pReportHookListW         40703c48     <common>
 0003:0065dc4c       __pReportHookList          40703c4c     <common>
 0003:0065dc50       __debugger_hook_dummy      40703c50     <common>
 0003:0065dc54       __nhandle                  40703c54     <common>
 0003:0065dc60       ___pioinfo                 40703c60     <common>
 0003:0065dd60       ___use_sse2_mathfcns       40703d60     <common>
 0003:0065dd64       __pmatherr                 40703d64     <common>
 0003:0065dd68       ___setlc_active            40703d68     <common>
 0003:0065dd6c       ___unguarded_readlc_active 40703d6c     <common>
 0003:0065dd70       ___sse2_available          40703d70     <common>
 0003:0065dd74       __acmdln                   40703d74     <common>
 0003:0065dd78       ___env_initialized         40703d78     <common>
 0003:0065dd7c       ___onexitend               40703d7c     <common>
 0003:0065dd80       ___onexitbegin             40703d80     <common>
 0003:0065dd84       ___mbctype_initialized     40703d84     <common>
 0003:0065dd88       ___dyn_tls_init_callback   40703d88     <common>

 entry point at        0001:00049e30

 Static symbols

 0001:00001600       _BG_ParseCommands          40002600 f   bg_animation.obj
 0001:00001a60       _BG_AnimationIndexForString 40002a60 f   bg_animation.obj
 0001:00002f80       _BG_RAG_ParseError         40003f80 f   bg_animgroup.obj
 0001:00003090       _BG_RAG_ParseAnimFile      40004090 f   bg_animgroup.obj
 0001:000032c0       _BG_RAG_ParseAnimation     400042c0 f   bg_animgroup.obj
 0001:00003540       _BG_RAG_FindFreeAnimation  40004540 f   bg_animgroup.obj
 0001:00003cf0       _BG_PCF_ParseError         40004cf0 f   bg_character.obj
 0001:00010300       _SkipWhitespace            40011300 f   q_shared.obj
 0001:000127b0       _UI_Cache_f                400137b0 f   ui_atoms.obj
 0001:00013500       _UI_LoadArenasFromFile     40014500 f   ui_gameinfo.obj
 0001:00014460       _UI_LoadCampaignsFromFile  40015460 f   ui_gameinfo.obj
 0001:0001a960       _UI_ServersQsortCompare    4001b960 f   ui_main.obj
 0001:0001fe10       _UI_SetCapFragLimits       40020e10 f   ui_main.obj
 0001:0001fe40       _UI_GameType_HandleKey     40020e40 f   ui_main.obj
 0001:0001ffa0       _UI_LoadMods               40020fa0 f   ui_main.obj
 0001:00020140       _UI_LoadProfiles           40021140 f   ui_main.obj
 0001:000204d0       _UI_DelSavegame            400214d0 f   ui_main.obj
 0001:00020590       _UI_LoadSavegames          40021590 f   ui_main.obj
 0001:000207a0       _UI_LoadMovies             400217a0 f   ui_main.obj
 0001:00020930       _UI_LoadDemos              40021930 f   ui_main.obj
 0001:00020b30       _UI_StartSkirmish          40021b30 f   ui_main.obj
 0001:00020b60       _UI_MapCountByGameType     40021b60 f   ui_main.obj
 0001:00020c70       _UI_BuildServerDisplayList 40021c70 f   ui_main.obj
 0001:00021480       _UI_RemoveServerFromDisplayList 40022480 f   ui_main.obj
 0001:00021520       _UI_BinaryServerInsertion  40022520 f   ui_main.obj
 0001:00021620       _UI_InsertServerIntoDisplayList 40022620 f   ui_main.obj
 0001:000216b0       _UI_BuildFindPlayerList    400226b0 f   ui_main.obj
 0001:00021ca0       _UI_GetServerStatusInfo    40022ca0 f   ui_main.obj
 0001:000222a0       _UI_SortServerStatusInfo   400232a0 f   ui_main.obj
 0001:00022430       _stristr                   40023430 f   ui_main.obj
 0001:000224f0       _UI_BuildServerStatus      400234f0 f   ui_main.obj
 0001:000226d0       _UI_GetIndexFromSelection  400236d0 f   ui_main.obj
 0001:00023290       _UI_SelectedMap            40024290 f   ui_main.obj
 0001:000233c0       _UI_SelectedCampaign       400243c0 f   ui_main.obj
 0001:00023450       _UI_FeederSelection        40024450 f   ui_main.obj
 0001:00023bd0       _UI_CampaignCount          40024bd0 f   ui_main.obj
 0001:00023f40       _UI_ParseGameInfo          40024f40 f   ui_main.obj
 0001:00024040       _GameType_Parse            40025040 f   ui_main.obj
 0001:000248c0       _UI_OwnerDrawWidth         400258c0 f   ui_main.obj
 0001:00024ca0       _UI_TeamIndexFromName      40025ca0 f   ui_main.obj
 0001:00024d30       _UI_ParseGLConfig          40025d30 f   ui_main.obj
 0001:00024e10       _UI_OwnerDraw              40025e10 f   ui_main.obj
 0001:00025530       _UI_DrawHandicap           40026530 f   ui_main.obj
 0001:000255f0       _UI_DrawClanName           400265f0 f   ui_main.obj
 0001:00025670       _UI_DrawGameType           40026670 f   ui_main.obj
 0001:000256f0       _UI_DrawSaveGameShot       400266f0 f   ui_main.obj
 0001:00025780       _UI_DrawClanLogo           40026780 f   ui_main.obj
 0001:000258d0       _UI_DrawClanCinematic      400268d0 f   ui_main.obj
 0001:00025a80       _UI_DrawPreviewCinematic   40026a80 f   ui_main.obj
 0001:00025b60       _UI_DrawTeamName           40026b60 f   ui_main.obj
 0001:00025c50       _UI_DrawTeamMember         40026c50 f   ui_main.obj
 0001:00025c80       _UI_DrawEffects            40026c80 f   ui_main.obj
 0001:00025d50       _UI_DrawMapCinematic       40026d50 f   ui_main.obj
 0001:00025fc0       _UI_DrawCampaignCinematic  40026fc0 f   ui_main.obj
 0001:00026180       _UI_DrawCampaignPreview    40027180 f   ui_main.obj
 0001:000262f0       _UI_DrawCampaignName       400272f0 f   ui_main.obj
 0001:00026400       _UI_DrawCampaignMapDescription 40027400 f   ui_main.obj
 0001:00026830       _UI_DrawCampaignMapPreview 40027830 f   ui_main.obj
 0001:00026b30       _UI_DrawMissionBriefingMap 40027b30 f   ui_main.obj
 0001:00026c60       _UI_DrawMissionBriefingTitle 40027c60 f   ui_main.obj
 0001:00026d50       _UI_DrawMissionBriefingObjectives 40027d50 f   ui_main.obj
 0001:000270f0       _UI_DrawNetFilter          400280f0 f   ui_main.obj
 0001:00027190       _UI_DrawPlayerLogo         40028190 f   ui_main.obj
 0001:000272c0       _UI_DrawPlayerLogoMetal    400282c0 f   ui_main.obj
 0001:000273f0       _UI_DrawPlayerLogoName     400283f0 f   ui_main.obj
 0001:00027520       _UI_DrawOpponentLogo       40028520 f   ui_main.obj
 0001:00027650       _UI_DrawOpponentLogoMetal  40028650 f   ui_main.obj
 0001:00027780       _UI_DrawOpponentLogoName   40028780 f   ui_main.obj
 0001:000278b0       _UI_DrawAllMapsSelection   400288b0 f   ui_main.obj
 0001:000278e0       _UI_DrawOpponentName       400288e0 f   ui_main.obj
 0001:00027960       _UI_DrawRedBlue            40028960 f   ui_main.obj
 0001:000279f0       _UI_DrawCrosshair          400289f0 f   ui_main.obj
 0001:00027bb0       _UI_DrawSelectedPlayer     40028bb0 f   ui_main.obj
 0001:00027c70       _UI_BuildPlayerList        40028c70 f   ui_main.obj
 0001:00028050       _UI_DrawServerRefreshDate  40029050 f   ui_main.obj
 0001:000282b0       _UI_DrawServerMOTD         400292b0 f   ui_main.obj
 0001:00028580       _Text_Paint_Limit          40029580 f   ui_main.obj
 0001:00028840       _UI_DrawKeyBindStatus      40029840 f   ui_main.obj
 0001:00028940       _UI_OwnerDrawHandleKey     40029940 f   ui_main.obj
 0001:00028ba0       _UI_Handicap_HandleKey     40029ba0 f   ui_main.obj
 0001:00028c90       _UI_Effects_HandleKey      40029c90 f   ui_main.obj
 0001:00028d60       _UI_ClanName_HandleKey     40029d60 f   ui_main.obj
 0001:00028e80       _UI_TeamName_HandleKey     40029e80 f   ui_main.obj
 0001:00028fa0       _UI_TeamMember_HandleKey   40029fa0 f   ui_main.obj
 0001:000290b0       _UI_NetFilter_HandleKey    4002a0b0 f   ui_main.obj
 0001:00029170       _UI_OpponentName_HandleKey 4002a170 f   ui_main.obj
 0001:000291f0       _UI_NextOpponent           4002a1f0 f   ui_main.obj
 0001:000292b0       _UI_PriorOpponent          4002a2b0 f   ui_main.obj
 0001:00029370       _UI_BotName_HandleKey      4002a370 f   ui_main.obj
 0001:00029420       _UI_RedBlue_HandleKey      4002a420 f   ui_main.obj
 0001:00029480       _UI_Crosshair_HandleKey    4002a480 f   ui_main.obj
 0001:00029550       _UI_SelectedPlayer_HandleKey 4002a550 f   ui_main.obj
 0001:00029670       _UI_GetValue               4002a670 f   ui_main.obj
 0001:000296a0       _UI_GetTeamColor           4002a6a0 f   ui_main.obj
 0001:000296d0       _UI_FeederCount            4002a6d0 f   ui_main.obj
 0001:000299a0       _UI_FeederAddItem          4002a9a0 f   ui_main.obj
 0001:000299d0       _UI_FileText               4002a9d0 f   ui_main.obj
 0001:00029a80       _UI_FeederItemImage        4002aa80 f   ui_main.obj
 0001:00029de0       _UI_Pause                  4002ade0 f   ui_main.obj
 0001:00029e60       _UI_PlayCinematic          4002ae60 f   ui_main.obj
 0001:00029ed0       _UI_StopCinematic          4002aed0 f   ui_main.obj
 0001:0002a010       _UI_DrawCinematic          4002b010 f   ui_main.obj
 0001:0002a080       _UI_RunCinematicFrame      4002b080 f   ui_main.obj
 0001:0002b020       _UI_StopServerRefresh      4002c020 f   ui_main.obj
 0001:0002b0c0       _UI_DoServerRefresh        4002c0c0 f   ui_main.obj
 0001:0002b1b0       _UI_StartServerRefresh     4002c1b0 f   ui_main.obj
 0001:0002b3c0       _UI_UpdatePendingPings     4002c3c0 f   ui_main.obj
 0001:0002c0a0       _hashForString             4002d0a0 f   ui_shared.obj
 0001:0002e930       _Menu_RunCloseScript       4002f930 f   ui_shared.obj
 0001:00035110       _Scroll_ListBox_AutoFunc   40036110 f   ui_shared.obj
 0001:000351d0       _Scroll_ListBox_ThumbFunc  400361d0 f   ui_shared.obj
 0001:000354d0       _Scroll_Slider_ThumbFunc   400364d0 f   ui_shared.obj
 0001:00036010       _Display_CloseCinematics   40037010 f   ui_shared.obj
 0001:00036080       _Menu_CloseCinematics      40037080 f   ui_shared.obj
 0001:00036150       _Window_CloseCinematic     40037150 f   ui_shared.obj
 0001:00036c00       _Item_CorrectedTextRect    40037c00 f   ui_shared.obj
 0001:00042520       _Menu_CacheContents        40043520 f   ui_shared.obj
 0001:000425f0       _Window_CacheContents      400435f0 f   ui_shared.obj
 0001:00042690       _Item_CacheContents        40043690 f   ui_shared.obj
 0001:000426e0       _Menu_OverActiveItem       400436e0 f   ui_shared.obj
 0001:00048960       _shortsort                 40049960 f   LIBCMTD:qsort.obj
 0001:000489d0       _swap                      400499d0 f   LIBCMTD:qsort.obj
 0001:00048d40       ?failwithmessage@@YAXPAXHHPBD@Z 40049d40 f   LIBCMTD:_error_.obj
 0001:00048f60       ?DebuggerProbe@@YAHK@Z     40049f60 f   LIBCMTD:_error_.obj
 0001:00048ff0       ?DebuggerRuntime@@YAHKHPAXPB_W@Z 40049ff0 f   LIBCMTD:_error_.obj
 0001:000492d0       ?_getMemBlockDataString@@YAXPAD00I@Z 4004a2d0 f   LIBCMTD:_error_.obj
 0001:000496d0       _doexit                    4004a6d0 f   LIBCMTD:crt0dat.obj
 0001:000499c0       __initterm                 4004a9c0 f   LIBCMTD:crt0dat.obj
 0001:00049e60       ___DllMainCRTStartup       4004ae60 f   LIBCMTD:dllcrt0.obj
 0001:0004a490       ?strtoxl@@YAKPAUlocaleinfo_struct@@PBDPAPBDHH@Z 4004b490 f   LIBCMTD:strtol.obj
 0001:0004aa70       ?strtoxq@@YA_KPAUlocaleinfo_struct@@PBDPAPBDHH@Z 4004ba70 f   LIBCMTD:strtoq.obj
 0001:0004bd20       __cftoe2_l                 4004cd20 f   LIBCMTD:cvt.obj
 0001:0004cac0       __cftof2_l                 4004dac0 f   LIBCMTD:cvt.obj
 0001:0004d0a0       __shift                    4004e0a0 f   LIBCMTD:cvt.obj
 0001:0004d170       ?__crtLCMapStringA_stat@@YAHPAUlocaleinfo_struct@@KKPBDHPADHHH@Z 4004e170 f   LIBCMTD:a_map.obj
 0001:0004d4a0       ?strncnt@@YAHPBDH@Z        4004e4a0 f   LIBCMTD:a_map.obj
 0001:0004e1c0       ?getSystemCP@@YAHH@Z       4004f1c0 f   LIBCMTD:mbctype.obj
 0001:0004e620       ?CPtoLCID@@YAHH@Z          4004f620 f   LIBCMTD:mbctype.obj
 0001:0004e6a0       ?setSBCS@@YAXPAUthreadmbcinfostruct@@@Z 4004f6a0 f   LIBCMTD:mbctype.obj
 0001:0004e780       ?setSBUpLow@@YAXPAUthreadmbcinfostruct@@@Z 4004f780 f   LIBCMTD:mbctype.obj
 0001:0004f6f0       __copytlocinfo_nolock      400506f0 f   LIBCMTD:setlocal.obj
 0001:0004faf0       _sync_legacy_variables_lk  40050af0 f   LIBCMTD:setlocal.obj
 0001:0004fb30       __setlocale_nolock         40050b30 f   LIBCMTD:setlocal.obj
 0001:0004ff20       __setlocale_set_cat        40050f20 f   LIBCMTD:setlocal.obj
 0001:00050450       __setlocale_get_all        40051450 f   LIBCMTD:setlocal.obj
 0001:000553b0       _write_char                400563b0 f   LIBCMTD:output.obj
 0001:00055460       _write_multi_char          40056460 f   LIBCMTD:output.obj
 0001:000554a0       _write_string              400564a0 f   LIBCMTD:output.obj
 0001:000598b0       _write_char                4005a8b0 f   LIBCMTD:outputp.obj
 0001:00059960       _write_multi_char          4005a960 f   LIBCMTD:outputp.obj
 0001:000599a0       _write_string              4005a9a0 f   LIBCMTD:outputp.obj
 0001:00059d30       ?GetPdbDll@@YAPAUHINSTANCE__@@XZ 4005ad30 f   LIBCMTD:_pdblkup_.obj
 0001:00059e20       ?GetPdbDllFromInstallPath@@YAPAUHINSTANCE__@@XZ 4005ae20 f   LIBCMTD:_pdblkup_.obj
 0001:00059fe0       ?GetPdbDllPathFromFilePath@@YAHPB_WPA_WI@Z 4005afe0 f   LIBCMTD:_pdblkup_.obj
 0001:0005a280       _ValidateLocalCookies      4005b280 f   LIBCMTD:chandler4.obj
 0001:0005a360       __onexit_nolock            4005b360 f   LIBCMTD:onexit.obj
 0001:0005ac20       __nh_malloc_dbg_impl       4005bc20 f   LIBCMTD:dbgheap.obj
 0001:0005acc0       __heap_alloc_dbg_impl      4005bcc0 f   LIBCMTD:dbgheap.obj
 0001:0005b290       _realloc_help              4005c290 f   LIBCMTD:dbgheap.obj
 0001:0005c350       _CheckBytes                4005d350 f   LIBCMTD:dbgheap.obj
 0001:0005d110       ?_CrtMemDumpAllObjectsSince_stat@@YAXPBU_CrtMemState@@PAUlocaleinfo_struct@@@Z 4005e110 f   LIBCMTD:dbgheap.obj
 0001:0005d420       __printMemBlockData        4005e420 f   LIBCMTD:dbgheap.obj
 0001:0005e900       _ctrlevent_capture@4       4005f900 f   LIBCMTD:winsig.obj
 0001:0005ed00       _siglookup                 4005fd00 f   LIBCMTD:winsig.obj
 0001:0005fb30       _parse_cmdline             40060b30 f   LIBCMTD:stdargv.obj
 0001:00060340       _xcptlookup                40061340 f   LIBCMTD:winxfltr.obj
 0001:00060db0       ?CatchGuardHandler@@YA?AW4_EXCEPTION_DISPOSITION@@PAUEHExceptionRecord@@PAUCatchGuardRN@@PAX2@Z 40061db0 f   LIBCMTD:_trnsctrl_.obj
 0001:00060ef0       ?TranslatorGuardHandler@@YA?AW4_EXCEPTION_DISPOSITION@@PAUEHExceptionRecord@@PAUTranslatorGuardRN@@PAX2@Z 40061ef0 f   LIBCMTD:_trnsctrl_.obj
 0001:00062b60       ?__crtGetStringTypeA_stat@@YAHPAUlocaleinfo_struct@@KPBDHPAGHHH@Z 40063b60 f   LIBCMTD:a_str.obj
 0001:00062d60       __get_lc_time              40063d60 f   LIBCMTD:inittime.obj
 0001:00064340       _fix_grouping              40065340 f   LIBCMTD:initnum.obj
 0001:000649e0       _fix_grouping              400659e0 f   LIBCMTD:initmon.obj
 0001:00065bb0       _cmpBYTE                   40066bb0 f   LIBCMTD:memcmp.obj
 0001:00065be0       _cmpResult                 40066be0 f   LIBCMTD:memcmp.obj
 0001:00065c00       _unaligned_memcmp          40066c00 f   LIBCMTD:memcmp.obj
 0001:00066310       _cmpWORD                   40067310 f   LIBCMTD:memcmp.obj
 0001:00066390       _cmpDWORD                  40067390 f   LIBCMTD:memcmp.obj
 0001:00066af0       _TranslateName             40067af0 f   LIBCMTD:getqloc.obj
 0001:00066b80       _GetLcidFromLangCountry    40067b80 f   LIBCMTD:getqloc.obj
 0001:00066c40       _LangCountryEnumProc@4     40067c40 f   LIBCMTD:getqloc.obj
 0001:00067080       _GetLcidFromLanguage       40068080 f   LIBCMTD:getqloc.obj
 0001:00067100       _LanguageEnumProc@4        40068100 f   LIBCMTD:getqloc.obj
 0001:000672a0       _GetLcidFromCountry        400682a0 f   LIBCMTD:getqloc.obj
 0001:000672f0       _CountryEnumProc@4         400682f0 f   LIBCMTD:getqloc.obj
 0001:000673f0       _GetLcidFromDefault        400683f0 f   LIBCMTD:getqloc.obj
 0001:00067430       _ProcessCodePage           40068430 f   LIBCMTD:getqloc.obj
 0001:000674e0       _TestDefaultCountry        400684e0 f   LIBCMTD:getqloc.obj
 0001:00067530       _TestDefaultLanguage       40068530 f   LIBCMTD:getqloc.obj
 0001:000675b0       _LcidFromHexString         400685b0 f   LIBCMTD:getqloc.obj
 0001:00067630       _GetPrimaryLen             40068630 f   LIBCMTD:getqloc.obj
 0001:000684e0       __get_fname                400694e0 f   LIBCMTD:_fpexcept_.obj
 0001:0006e390       _write_char                4006f390 f   LIBCMTD:outputs.obj
 0001:0006e440       _write_multi_char          4006f440 f   LIBCMTD:outputs.obj
 0001:0006e480       _write_string              4006f480 f   LIBCMTD:outputs.obj
 0001:0006efa0       __unwind_handler4          4006ffa0 f   LIBCMTD:exsup4.obj
 0001:0006fb40       __is_LFH_enabled           40070b40 f   LIBCMTD:expand.obj
 0001:00070190       ?__crtGetLocaleInfoA_stat@@YAHPAUlocaleinfo_struct@@KKPADH@Z 40071190 f   LIBCMTD:a_loc.obj
 0001:000705b0       ?x_ismbbtype_l@@YAHPAUlocaleinfo_struct@@IHH@Z 400715b0 f   LIBCMTD:ismbbyte.obj
 0001:00070a00       ?FindHandler@@YAXPAUEHExceptionRecord@@PAUEHRegistrationNode@@PAU_CONTEXT@@PAXPBU_s_FuncInfo@@EH1@Z 40071a00 f   LIBCMTD:frame.obj
 0001:00070f50       ?FindHandlerForForeignException@@YAXPAUEHExceptionRecord@@PAUEHRegistrationNode@@PAU_CONTEXT@@PAXPBU_s_FuncInfo@@HH1@Z 40071f50 f   LIBCMTD:frame.obj
 0001:00071390       ?CatchIt@@YAXPAUEHExceptionRecord@@PAUEHRegistrationNode@@PAU_CONTEXT@@PAXPBU_s_FuncInfo@@PBU_s_HandlerType@@PBU_s_CatchableType@@PBU_s_TryBlockMapEntry@@H1E@Z 40072390 f   LIBCMTD:frame.obj
 0001:00071450       ?CallCatchBlock@@YAPAXPAUEHExceptionRecord@@PAUEHRegistrationNode@@PAU_CONTEXT@@PBU_s_FuncInfo@@PAXHK@Z 40072450 f   LIBCMTD:frame.obj
 0001:000716e0       ?ExFilterRethrow@@YAHPAU_EXCEPTION_POINTERS@@@Z 400726e0 f   LIBCMTD:frame.obj
 0001:00072350       ?IsInExceptionSpec@@YAEPAUEHExceptionRecord@@PBU_s_ESTypeList@@@Z 40073350 f   LIBCMTD:frame.obj
 0001:00072410       ?CallUnexpected@@YAXPBU_s_ESTypeList@@@Z 40073410 f   LIBCMTD:frame.obj
 0001:0007245e       __catch$?CallUnexpected@@YAXPBU_s_ESTypeList@@@Z$0 4007345e f   LIBCMTD:frame.obj
 0001:000724a0       ?Is_bad_exception_allowed@@YAEPBU_s_ESTypeList@@@Z 400734a0 f   LIBCMTD:frame.obj
 0001:00072970       __abstract_cw              40073970 f   LIBCMTD:_ieee87_.obj
 0001:00072ac0       __hw_cw                    40073ac0 f   LIBCMTD:_ieee87_.obj
 0001:00072c20       __abstract_sw              40073c20 f   LIBCMTD:_ieee87_.obj
 0001:00072cb0       ___statusfp_sse2           40073cb0 f   LIBCMTD:_ieee87_.obj
 0001:00072cd0       ___clearfp_sse2            40073cd0 f   LIBCMTD:_ieee87_.obj
 0001:00072d00       ___control87_sse2          40073d00 f   LIBCMTD:_ieee87_.obj
 0001:00072d80       ___abstract_cw_sse2        40073d80 f   LIBCMTD:_ieee87_.obj
 0001:00072ed0       ___hw_cw_sse2              40073ed0 f   LIBCMTD:_ieee87_.obj
 0001:00073020       ___abstract_sw_sse2        40074020 f   LIBCMTD:_ieee87_.obj
 0001:000730b0       ___fpreset_sse2            400740b0 f   LIBCMTD:_ieee87_.obj
 0001:000736e0       _xtoa_s@20                 400746e0 f   LIBCMTD:xtoas.obj
 0001:00073b00       @x64toa_s@24               40074b00 f   LIBCMTD:xtoas.obj
 0001:00075bd0       ?wcsncnt@@YAIPB_WI@Z       40076bd0 f   LIBCMTD:wcstombs.obj
 0001:00076a50       _xtow_s@20                 40077a50 f   LIBCMTD:xtows.obj
 0001:00076e80       @x64tow_s@24               40077e80 f   LIBCMTD:xtows.obj
 0001:00078320       _write_char                40079320 f   LIBCMTD:woutput.obj
 0001:00078380       _write_multi_char          40079380 f   LIBCMTD:woutput.obj
 0001:000783c0       _write_string              400793c0 f   LIBCMTD:woutput.obj
 0001:00079770       _flsall                    4007a770 f   LIBCMTD:fflush.obj
 0001:00079d10       __unwind_handler           4007ad10 f   LIBCMTD:exsup.obj
 0001:0007b8a0       _write_char                4007c8a0 f   LIBCMTD:woutputs.obj
 0001:0007b900       _write_multi_char          4007c900 f   LIBCMTD:woutputs.obj
 0001:0007b940       _write_string              4007c940 f   LIBCMTD:woutputs.obj
 0001:0007f2a0       _write_char                400802a0 f   LIBCMTD:woutputp.obj
 0001:0007f300       _write_multi_char          40080300 f   LIBCMTD:woutputp.obj
 0001:0007f340       _write_string              40080340 f   LIBCMTD:woutputp.obj
 0001:00080340       ?wcstoxl@@YAKPB_WPAPB_WHH@Z 40081340 f   LIBCMTD:wcstol.obj
 0001:0008a4e0       ?und_strlen@@YAIPBD@Z      4008b4e0 f   LIBCMTD:undname.obj
 0001:0008a520       ?und_memcpy@@YAXPADPBDI@Z  4008b520 f   LIBCMTD:undname.obj
 0001:0008a560       ?und_strncmp@@YAIPBD0I@Z   4008b560 f   LIBCMTD:undname.obj
 0001:0008ab70       __unwindfunclet$?strtoxl@@YAKPAUlocaleinfo_struct@@PBDPAPBDHH@Z$0 4008bb70 f   LIBCMTD:strtol.obj
 0001:0008ab78       __ehhandler$?strtoxl@@YAKPAUlocaleinfo_struct@@PBDPAPBDHH@Z 4008bb78 f   LIBCMTD:strtol.obj
 0001:0008aba0       __unwindfunclet$?strtoxq@@YA_KPAUlocaleinfo_struct@@PBDPAPBDHH@Z$0 4008bba0 f   LIBCMTD:strtoq.obj
 0001:0008aba8       __ehhandler$?strtoxq@@YA_KPAUlocaleinfo_struct@@PBDPAPBDHH@Z 4008bba8 f   LIBCMTD:strtoq.obj
 0001:0008abd0       __unwindfunclet$?getSystemCP@@YAHH@Z$0 4008bbd0 f   LIBCMTD:mbctype.obj
 0001:0008abd8       __ehhandler$?getSystemCP@@YAHH@Z 4008bbd8 f   LIBCMTD:mbctype.obj
 0001:0008ac00       __unwindfunclet$?x_ismbbtype_l@@YAHPAUlocaleinfo_struct@@IHH@Z$0 4008bc00 f   LIBCMTD:ismbbyte.obj
 0001:0008ac08       __ehhandler$?x_ismbbtype_l@@YAHPAUlocaleinfo_struct@@IHH@Z 4008bc08 f   LIBCMTD:ismbbyte.obj
 0001:0008ac30       __ehhandler$?CallUnexpected@@YAXPBU_s_ESTypeList@@@Z 4008bc30 f   LIBCMTD:frame.obj
 0001:0008ac50       __unwindfunclet$?make@DNameStatusNode@@SAPAV1@W4DNameStatus@@@Z$0 4008bc50 f   LIBCMTD:undname.obj
 0001:0008ac5e       __ehhandler$?make@DNameStatusNode@@SAPAV1@W4DNameStatus@@@Z 4008bc5e f   LIBCMTD:undname.obj
