 cgame_mp_x86

 Timestamp is 4f8e6db6 (Wed Apr 18 09:31:02 2012)

 Preferred load address is 10000000

 Start         Length     Name                   Class
 0001:00000000 0009d76eH .text                   CODE
 0002:00000000 00000144H .idata$5                DATA
 0002:00000144 00000004H .CRT$XCA                DATA
 0002:00000148 00000004H .CRT$XCZ                DATA
 0002:0000014c 00000004H .CRT$XIA                DATA
 0002:00000150 00000014H .CRT$XIC                DATA
 0002:00000164 00000004H .CRT$XIZ                DATA
 0002:00000168 00000004H .CRT$XPA                DATA
 0002:0000016c 00000004H .CRT$XPX                DATA
 0002:00000170 00000004H .CRT$XPXA               DATA
 0002:00000174 00000004H .CRT$XPZ                DATA
 0002:00000178 00000004H .CRT$XTA                DATA
 0002:0000017c 00000004H .CRT$XTZ                DATA
 0002:00000180 00030ef0H .rdata                  DATA
 0002:00031070 0000000cH .rdata$sxdata           DATA
 0002:0003107c 00000004H .rtc$IAA                DATA
 0002:00031080 00000004H .rtc$IZZ                DATA
 0002:00031084 00000004H .rtc$TAA                DATA
 0002:00031088 00000004H .rtc$TZZ                DATA
 0002:00031090 0000041cH .xdata$x                DATA
 0002:000314ac 0000003cH .idata$2                DATA
 0002:000314e8 00000014H .idata$3                DATA
 0002:000314fc 00000144H .idata$4                DATA
 0002:00031640 000005a4H .idata$6                DATA
 0002:00031bf0 0000005dH .edata                  DATA
 0003:00000000 0001bda0H .data                   DATA
 0003:0001bda0 03e35084H .bss                    DATA

  Address         Publics by Value              Rva+Base       Lib:Object

 0000:00000000       __except_list              00000000     <absolute>
 0000:00000003       ___safe_se_handler_count   00000003     <absolute>
 0000:00000000       ___ImageBase               10000000     <linker-defined>
 0001:00000000       _BG_AnimParseError         10001000 f   bg_animation.obj
 0001:000000f0       _BG_IndexForString         100010f0 f   bg_animation.obj
 0001:00000170       _BG_CopyStringIntoBuffer   10001170 f   bg_animation.obj
 0001:000001e0       _BG_InitWeaponStrings      100011e0 f   bg_animation.obj
 0001:00000270       _BG_ParseConditionBits     10001270 f   bg_animation.obj
 0001:00000530       _BG_ParseConditions        10001530 f   bg_animation.obj
 0001:000009c0       _BG_AnimParseAnimScript    100019c0 f   bg_animation.obj
 0001:00001090       _BG_EvaluateConditions     10002090 f   bg_animation.obj
 0001:00001130       _BG_FirstValidItem         10002130 f   bg_animation.obj
 0001:00001170       _BG_PlayAnim               10002170 f   bg_animation.obj
 0001:00001270       _BG_ExecuteCommand         10002270 f   bg_animation.obj
 0001:00001360       _BG_AnimScriptEvent        10002360 f   bg_animation.obj
 0001:00001410       _BG_GetAnimString          10002410 f   bg_animation.obj
 0001:00001440       _BG_UpdateConditionValue   10002440 f   bg_animation.obj
 0001:000014b0       _BG_GetConditionValue      100024b0 f   bg_animation.obj
 0001:00001540       _BG_GetConditionBitFlag    10002540 f   bg_animation.obj
 0001:00001590       _BG_SetConditionBitFlag    10002590 f   bg_animation.obj
 0001:000015c0       _BG_ClearConditionBitFlag  100025c0 f   bg_animation.obj
 0001:000015f0       _BG_GetAnimScriptAnimation 100025f0 f   bg_animation.obj
 0001:00001680       _BG_GetAnimationForIndex   10002680 f   bg_animation.obj
 0001:000016c0       _BG_AnimUpdatePlayerStateConditions 100026c0 f   bg_animation.obj
 0001:00001870       _BG_AnimScriptAnimation    10002870 f   bg_animation.obj
 0001:00001960       _BG_ClearAnimationPool     10002960 f   bg_animgroup.obj
 0001:00001da0       _BG_R_RegisterAnimationGroup 10002da0 f   bg_animgroup.obj
 0001:00001f90       _BG_ParseCharacterFile     10002f90 f   bg_character.obj
 0001:00002320       _BG_GetCharacter           10003320 f   bg_character.obj
 0001:00002350       _BG_ClearCharacterPool     10003350 f   bg_character.obj
 0001:00002380       _BG_FindFreeCharacter      10003380 f   bg_character.obj
 0001:00002410       _BG_FindCharacter          10003410 f   bg_character.obj
 0001:00002460       _BG_GetPlayerClassInfo     10003460 f   bg_classes.obj
 0001:00002490       _BG_ShortClassnameForNumber 10003490 f   bg_classes.obj
 0001:000024e0       _BG_ClassnameForNumber     100034e0 f   bg_classes.obj
 0001:00002530       _BG_ClassnameForNumber_Filename 10003530 f   bg_classes.obj
 0001:00002580       _BG_ClassSkillForClass     10003580 f   bg_classes.obj
 0001:000025c0       _BG_StringHashValue        100035c0 f   bg_misc.obj
 0001:00002610       _BG_GetFromTable           10003610 f   bg_misc.obj
 0001:00002790       _BG_FindItemForWeapon      10003790 f   bg_misc.obj
 0001:00002800       _BG_FindClipForWeapon      10003800 f   bg_misc.obj
 0001:00002840       _Init_FindClipForWeapon    10003840 f   bg_misc.obj
 0001:00002870       _BG_FindAmmoForWeapon      10003870 f   bg_misc.obj
 0001:000028b0       _Init_FindAmmoForWeapon    100038b0 f   bg_misc.obj
 0001:000028e0       _BG_AkimboFireSequence     100038e0 f   bg_misc.obj
 0001:00002920       _BG_AkimboSidearm          10003920 f   bg_misc.obj
 0001:00002970       _BG_CalculateSpline_r      10003970 f   bg_misc.obj
 0001:00002d30       _BG_TraverseSpline         10003d30 f   bg_misc.obj
 0001:00002e00       _BG_RaySphereIntersection  10003e00 f   bg_misc.obj
 0001:00002ed0       _BG_LinearPathOrigin2      10003ed0 f   bg_misc.obj
 0001:00003190       _BG_ComputeSegments        10004190 f   bg_misc.obj
 0001:000032f0       _BG_EvaluateTrajectoryDelta 100042f0 f   bg_misc.obj
 0001:00003540       _BG_AddPredictableEventToPlayerstate 10004540 f   bg_misc.obj
 0001:00003570       _BG_PlayerStateToEntityState 10004570 f   bg_misc.obj
 0001:00003910       _BG_DuplicateWeapon        10004910 f   bg_misc.obj
 0001:000039a0       _BG_ValidStatWeapon        100049a0 f   bg_misc.obj
 0001:00003a20       _BG_Find_PathCorner        10004a20 f   bg_misc.obj
 0001:00003a70       _BG_AddPathCorner          10004a70 f   bg_misc.obj
 0001:00003ae0       _BG_Find_Spline            10004ae0 f   bg_misc.obj
 0001:00003b30       _BG_AddSplinePath          10004b30 f   bg_misc.obj
 0001:00003bd0       _BG_AddSplineControl       10004bd0 f   bg_misc.obj
 0001:00003c20       _BG_SplineLength           10004c20 f   bg_misc.obj
 0001:00003d40       _BG_BuildSplinePaths       10004d40 f   bg_misc.obj
 0001:00003e50       _BG_GetSplineData          10004e50 f   bg_misc.obj
 0001:00003e90       _BG_CreateRotationMatrix   10004e90 f   bg_misc.obj
 0001:00003ec0       _BG_RotatePoint            10004ec0 f   bg_misc.obj
 0001:00003f40       _PC_String_Parse           10004f40 f   bg_misc.obj
 0001:00003f90       _PC_String_ParseNoAlloc    10004f90 f   bg_misc.obj
 0001:00003fe0       _WeaponStatsName           10004fe0 f   bg_misc.obj
 0001:00004020       _BG_simpleWeaponState      10005020 f   bg_misc.obj
 0001:00004070       _BG_cleanName              10005070 f   bg_misc.obj
 0001:000040e0       _BG_setCrosshair           100050e0 f   bg_misc.obj
 0001:000043d0       _BG_isLightWeaponSupportingFastReload 100053d0 f   bg_misc.obj
 0001:00004440       _BG_InitLocations          10005440 f   bg_misc.obj
 0001:00004550       _BG_GetLocationString      10005550 f   bg_misc.obj
 0001:000045c0       _BG_BBoxCollision          100055c0 f   bg_misc.obj
 0001:00004630       _BG_FootstepForSurface     10005630 f   bg_misc.obj
 0001:000046c0       _BG_ChargeUsage            100056c0 f   bg_misc.obj
 0001:00004850       _BG_CheckCharge            10005850 f   bg_misc.obj
 0001:00004bc0       _Q_vsnprintf               10005bc0 f   bg_misc.obj
 0001:00004c00       _BG_EvaluateTrajectory     10005c00 f   bg_misc.obj
 0001:00005590       _PC_SourceError            10006590 f   bg_misc.obj
 0001:00005600       _PC_Float_Parse            10006600 f   bg_misc.obj
 0001:000056b0       _PC_Color_Parse            100066b0 f   bg_misc.obj
 0001:00005700       _PC_Vec_Parse              10006700 f   bg_misc.obj
 0001:00005750       _PC_Int_Parse              10006750 f   bg_misc.obj
 0001:000057e0       _CheckSilent               100067e0 f   bg_pmove.obj
 0001:00005820       _PM_AddEvent               10006820 f   bg_pmove.obj
 0001:00005840       _PM_AddEventExt            10006840 f   bg_pmove.obj
 0001:00005860       _PM_IdleAnimForWeapon      10006860 f   bg_pmove.obj
 0001:000058b0       _PM_AltSwitchFromForWeapon 100068b0 f   bg_pmove.obj
 0001:000058c0       _PM_AltSwitchToForWeapon   100068c0 f   bg_pmove.obj
 0001:00005920       _PM_AttackAnimForWeapon    10006920 f   bg_pmove.obj
 0001:00005970       _PM_LastAttackAnimForWeapon 10006970 f   bg_pmove.obj
 0001:000059d0       _PM_ReloadAnimForWeapon    100069d0 f   bg_pmove.obj
 0001:00005a50       _PM_RaiseAnimForWeapon     10006a50 f   bg_pmove.obj
 0001:00005ae0       _PM_DropAnimForWeapon      10006ae0 f   bg_pmove.obj
 0001:00005b40       _PM_AddTouchEnt            10006b40 f   bg_pmove.obj
 0001:00005bd0       _PM_ContinueWeaponAnim     10006bd0 f   bg_pmove.obj
 0001:00005c10       _PM_ClipVelocity           10006c10 f   bg_pmove.obj
 0001:00005c90       _PM_TraceLegs              10006c90 f   bg_pmove.obj
 0001:00005ec0       _PM_TraceHead              10006ec0 f   bg_pmove.obj
 0001:00005fd0       _PM_TraceAllParts          10006fd0 f   bg_pmove.obj
 0001:00006140       _PM_TraceAll               10007140 f   bg_pmove.obj
 0001:00009260       _PM_WeaponUseAmmo          1000a260 f   bg_pmove.obj
 0001:00009340       _PM_WeaponAmmoAvailable    1000a340 f   bg_pmove.obj
 0001:000093e0       _PM_WeaponClipEmpty        1000a3e0 f   bg_pmove.obj
 0001:00009410       _PM_CoolWeapons            1000a410 f   bg_pmove.obj
 0001:00009570       _PM_AdjustAimSpreadScale   1000a570 f   bg_pmove.obj
 0001:00009b10       _PM_AltFire                1000ab10 f   bg_pmove.obj
 0001:00009b50       _PM_AltFiring              1000ab50 f   bg_pmove.obj
 0001:0000a2e0       _PM_UpdateLean             1000b2e0 f   bg_pmove.obj
 0001:0000a5e0       _PM_UpdateViewAngles       1000b5e0 f   bg_pmove.obj
 0001:0000b0b0       _PM_CheckLadderMove        1000c0b0 f   bg_pmove.obj
 0001:0000b3a0       _PM_LadderMove             1000c3a0 f   bg_pmove.obj
 0001:0000b650       _PM_Sprint                 1000c650 f   bg_pmove.obj
 0001:0000b870       _PM_CheckAttack            1000c870 f   bg_pmove.obj
 0001:0000b8e0       _PM_BeginWeaponChange      1000c8e0 f   bg_pmove.obj
 0001:0000bd10       _PM_CheckForReload         1000cd10 f   bg_pmove.obj
 0001:0000e180       _PmoveSingle               1000f180 f   bg_pmove.obj
 0001:0000e900       _Pmove                     1000f900 f   bg_pmove.obj
 0001:0000ea00       _PM_SlideMove              1000fa00 f   bg_slidemove.obj
 0001:0000f1b0       _PM_StepSlideMove          100101b0 f   bg_slidemove.obj
 0001:0000f770       _BG_ClearScriptSpeakerPool 10010770 f   bg_sscript.obj
 0001:0000f780       _BG_NumScriptSpeakers      10010780 f   bg_sscript.obj
 0001:0000f790       _BG_GetIndexForSpeaker     10010790 f   bg_sscript.obj
 0001:0000f7b0       _BG_GetScriptSpeaker       100107b0 f   bg_sscript.obj
 0001:0000f7e0       _BG_SS_DeleteSpeaker       100107e0 f   bg_sscript.obj
 0001:0000f840       _BG_SS_StoreSpeaker        10010840 f   bg_sscript.obj
 0001:0000fdf0       _BG_LoadSpeakerScript      10010df0 f   bg_sscript.obj
 0001:0000ff30       _BG_WeapStatForWeapon      10010f30 f   bg_stats.obj
 0001:0000ff50       _BG_GetStatDeaths          10010f50 f   bg_stats.obj
 0001:0000ff70       _BG_GetStatBestSpree       10010f70 f   bg_stats.obj
 0001:0000ff90       _BG_GetStatBounty          10010f90 f   bg_stats.obj
 0001:0000ffb0       _BG_GetKillSpree           10010fb0 f   bg_stats.obj
 0001:0000ffe0       _CG_GenerateTracemap       10010fe0 f   bg_tracemap.obj
 0001:00010ce0       _BG_LoadTraceMap           10011ce0 f   bg_tracemap.obj
 0001:00011330       _etpro_FinalizeTracemapClamp 10012330 f   bg_tracemap.obj
 0001:00011380       _BG_GetSkyHeightAtPoint    10012380 f   bg_tracemap.obj
 0001:00011410       _BG_GetSkyGroundHeightAtPoint 10012410 f   bg_tracemap.obj
 0001:000114a0       _BG_InitWeaponInfo         100124a0 f   bg_weapons.obj
 0001:00013810       _BG_RegisterWeapon         10014810 f   bg_weapons.obj
 0001:00013d60       _CG_AtmosphericKludge      10014d60 f   cg_atmospheric.obj
 0001:00014e30       _CG_EffectParse            10015e30 f   cg_atmospheric.obj
 0001:00015320       _CG_AddAtmosphericEffects  10016320 f   cg_atmospheric.obj
 0001:00015a90       _CG_RegisterCharacter      10016a90 f   cg_character.obj
 0001:00015de0       _CG_CharacterForClientinfo 10016de0 f   cg_character.obj
 0001:00015e90       _CG_CharacterForPlayerstate 10016e90 f   cg_character.obj
 0001:00015f10       _CG_RegisterPlayerClasses  10016f10 f   cg_character.obj
 0001:00016020       _C_StorePlayerPath         10017020 f   cg_commandmap.obj
 0001:000160b0       _C_InterpolatePlayerPath   100170b0 f   cg_commandmap.obj
 0001:00016250       _C_ResetPlayerPath         10017250 f   cg_commandmap.obj
 0001:00016290       _CG_TransformToCommandMapCoord 10017290 f   cg_commandmap.obj
 0001:000162e0       _CG_CurLayerForZ           100172e0 f   cg_commandmap.obj
 0001:00016520       _CG_TransformAutomapEntity 10017520 f   cg_commandmap.obj
 0001:00016640       _CG_AdjustAutomapZoom      10017640 f   cg_commandmap.obj
 0001:000166d0       _CG_ParseMapEntity         100176d0 f   cg_commandmap.obj
 0001:00016880       _CG_ParseMapEntity2        10017880 f   cg_commandmap.obj
 0001:00016990       _CG_ParseMapEntityInfo     10017990 f   cg_commandmap.obj
 0001:000169f0       _CG_ParseMapEntityInfo2    100179f0 f   cg_commandmap.obj
 0001:000173e0       _CG_DisguiseMapCheck       100183e0 f   cg_commandmap.obj
 0001:00017460       _CG_DrawMortarMarker       10018460 f   cg_commandmap.obj
 0001:00017880       _CG_CommandCentreSpawnPointClick 10018880 f   cg_commandmap.obj
 0001:000179d0       _CG_CommandMap_SetHighlightText 100189d0 f   cg_commandmap.obj
 0001:00017a10       _CG_CommandMap_DrawHighlightText 10018a10 f   cg_commandmap.obj
 0001:00017a60       _CG_DrawMapEntity          10018a60 f   cg_commandmap.obj
 0001:000188d0       _CG_DrawSpawnPointInfo     100198d0 f   cg_commandmap.obj
 0001:00018e10       _CG_DrawMap                10019e10 f   cg_commandmap.obj
 0001:000194c0       _CG_DrawExpandedAutoMap    1001a4c0 f   cg_commandmap.obj
 0001:00019980       _CG_DrawAutoMap            1001a980 f   cg_commandmap.obj
 0001:00019be0       _CG_ClassMenu_f            1001abe0 f   cg_consolecmds.obj
 0001:00019c20       _CG_Class_f                1001ac20 f   cg_consolecmds.obj
 0001:00019e50       _CG_LimboMenu_f            1001ae50 f   cg_consolecmds.obj
 0001:00019fb0       _CG_topshotsDown_f         1001afb0 f   cg_consolecmds.obj
 0001:0001a040       _CG_topshotsUp_f           1001b040 f   cg_consolecmds.obj
 0001:0001a0a0       _CG_ScoresDown_f           1001b0a0 f   cg_consolecmds.obj
 0001:0001a110       _CG_ScoresUp_f             1001b110 f   cg_consolecmds.obj
 0001:0001a2c0       _CG_QuickMessage_f         1001b2c0 f   cg_consolecmds.obj
 0001:0001a2f0       _CG_QuickFireteamMessage_f 1001b2f0 f   cg_consolecmds.obj
 0001:0001a330       _CG_QuickFireteamAdmin_f   1001b330 f   cg_consolecmds.obj
 0001:0001b1d0       _CG_currentTime_f          1001c1d0 f   cg_consolecmds.obj
 0001:0001b220       _CG_autoRecord_f           1001c220 f   cg_consolecmds.obj
 0001:0001b240       _CG_autoScreenShot_f       1001c240 f   cg_consolecmds.obj
 0001:0001b270       _CG_vstrDown_f             1001c270 f   cg_consolecmds.obj
 0001:0001b2b0       _CG_vstrUp_f               1001c2b0 f   cg_consolecmds.obj
 0001:0001b2f0       _CG_keyOn_f                1001c2f0 f   cg_consolecmds.obj
 0001:0001b330       _CG_keyOff_f               1001c330 f   cg_consolecmds.obj
 0001:0001b350       _CG_dumpStats_f            1001c350 f   cg_consolecmds.obj
 0001:0001b500       _CG_ForceTapOut_f          1001c500 f   cg_consolecmds.obj
 0001:0001b540       _CG_TimerSet_f             1001c540 f   cg_consolecmds.obj
 0001:0001b660       _CG_ResetTimer_f           1001c660 f   cg_consolecmds.obj
 0001:0001b8c0       _CG_ConsoleCommand         1001c8c0 f   cg_consolecmds.obj
 0001:0001b920       _CG_InitConsoleCommands    1001c920 f   cg_consolecmds.obj
 0001:0001bc20       _Crash_Printf              1001cc20 f   cg_crash.obj
 0001:0001bc80       _EnumModules@12            1001cc80 f   cg_crash.obj
 0001:0001bcb0       _ExceptionName             1001ccb0 f   cg_crash.obj
 0001:0001bef0       _win32_exceptioninfo       1001cef0 f   cg_crash.obj
 0001:0001bf30       _win32_dllinfo             1001cf30 f   cg_crash.obj
 0001:0001bf60       _win32_backtrace           1001cf60 f   cg_crash.obj
 0001:0001c0b0       _win32_exception_handler@4 1001d0b0 f   cg_crash.obj
 0001:0001c200       _win32_initialize_handler  1001d200 f   cg_crash.obj
 0001:0001c310       _win32_deinitialize_handler 1001d310 f   cg_crash.obj
 0001:0001c360       _EnableStackTrace          1001d360 f   cg_crash.obj
 0001:0001c370       _DisableStackTrace         1001d370 f   cg_crash.obj
 0001:0001c380       _CG_MapVoteList_KeyDown    1001d380 f   cg_debriefing.obj
 0001:0001c3e0       _CG_MapVote_VoteButton_KeyDown 1001d3e0 f   cg_debriefing.obj
 0001:0001c440       _CG_MapVoteList_Draw       1001d440 f   cg_debriefing.obj
 0001:0001c7d0       _CG_MapVote_MultiVoteButton_KeyDown 1001d7d0 f   cg_debriefing.obj
 0001:0001c860       _CG_Debriefing_ChatEdit_Draw 1001d860 f   cg_debriefing.obj
 0001:0001c9d0       _CG_Debriefing_ChatBox_Draw 1001d9d0 f   cg_debriefing.obj
 0001:0001cc50       _CG_ChatPanel_Setup        1001dc50 f   cg_debriefing.obj
 0001:0001ccf0       _CG_Debriefing_Startup     1001dcf0 f   cg_debriefing.obj
 0001:0001cdc0       _CG_Debriefing_Shutdown    1001ddc0 f   cg_debriefing.obj
 0001:0001cdd0       _CG_Debriefing_InfoRequests 1001ddd0 f   cg_debriefing.obj
 0001:0001cea0       _CG_Debriefing_GetNextWeaponStat 1001dea0 f   cg_debriefing.obj
 0001:0001cee0       _CG_DebriefingPlayerWeaponStats_Draw 1001dee0 f   cg_debriefing.obj
 0001:0001d0f0       _WM_TimeToString           1001e0f0 f   cg_scoreboard.obj
 0001:0001d0f0       _CG_Debriefing_TimeToString 1001e0f0 f   cg_debriefing.obj
 0001:0001d150       _CG_DebriefingTitle_Draw   1001e150 f   cg_debriefing.obj
 0001:0001d360       _CG_DebriefingXPHeader_Draw 1001e360 f   cg_debriefing.obj
 0001:0001d3a0       _CG_SortPlayersByXP        1001e3a0 f   cg_debriefing.obj
 0001:0001d400       _CG_Debriefing_FullRankNameForClientInfo 1001e400 f   cg_debriefing.obj
 0001:0001d440       _CG_Debriefing_RankNameForClientInfo 1001e440 f   cg_debriefing.obj
 0001:0001d480       _CG_Debriefing_ParseWeaponAccuracies 1001e480 f   cg_debriefing.obj
 0001:0001d4d0       _CG_Debriefing_ParsePlayerKillsDeaths 1001e4d0 f   cg_debriefing.obj
 0001:0001d540       _CG_Debriefing_ParseWeaponStats 1001e540 f   cg_debriefing.obj
 0001:0001d5f0       _CG_Debriefing_ScrollGetMax 1001e5f0 f   cg_debriefing.obj
 0001:0001d640       _CG_Debriefing_ScrollGetOffset 1001e640 f   cg_debriefing.obj
 0001:0001d690       _CG_Debriefing_ScrollSetOffset 1001e690 f   cg_debriefing.obj
 0001:0001d6f0       _CG_Debriefing_Scrollbar_KeyUp 1001e6f0 f   cg_debriefing.obj
 0001:0001d720       _CG_Debriefing_KeyEvent    1001e720 f   cg_debriefing.obj
 0001:0001d7b0       _CG_Debriefing_PlayerHitRegions_Draw 1001e7b0 f   cg_debriefing.obj
 0001:0001de40       _CG_Debriefing_PlayerTime_Draw 1001ee40 f   cg_debriefing.obj
 0001:0001df50       _CG_Debrieing_SetSelectedClient 1001ef50 f   cg_debriefing.obj
 0001:0001df80       _CG_Debriefing_ChatButton_KeyDown 1001ef80 f   cg_debriefing.obj
 0001:0001e000       _CG_Debriefing_ReadyButton_KeyDown 1001f000 f   cg_debriefing.obj
 0001:0001e040       _CG_Debriefing_QCButton_KeyDown 1001f040 f   cg_debriefing.obj
 0001:0001e060       _CG_Debriefing_NextButton_KeyDown 1001f060 f   cg_debriefing.obj
 0001:0001e0b0       _CG_Debriefing_ChatEditFinish 1001f0b0 f   cg_debriefing.obj
 0001:0001e140       _CG_TeamDebriefingMapList_KeyDown 1001f140 f   cg_debriefing.obj
 0001:0001e190       _CG_TeamDebriefingOutcome_Draw 1001f190 f   cg_debriefing.obj
 0001:0001e300       _CG_TeamDebriefingMapList_Draw 1001f300 f   cg_debriefing.obj
 0001:0001e450       _CG_TeamDebriefing_CalcXP  1001f450 f   cg_debriefing.obj
 0001:0001e510       _CG_TeamDebriefingTeamSkillXP_Draw 1001f510 f   cg_debriefing.obj
 0001:0001e5a0       _CG_TeamDebriefingMapShot_Draw 1001f5a0 f   cg_debriefing.obj
 0001:0001e650       _CG_RunMenuScript          1001f650 f   cg_newDraw.obj
 0001:0001e650       _CG_TeamDebriefingMapWinner_Draw 1001f650 f   cg_debriefing.obj
 0001:0001e650       _Script_NotebookShowpage   1001f650 f   ui_shared.obj
 0001:0001e650       _CG_OwnerDraw              1001f650 f   cg_newDraw.obj
 0001:0001e650       _Script_Clipboard          1001f650 f   ui_shared.obj
 0001:0001e660       _CG_PanelButtonsRender_Button_Ext 1001f660 f   cg_debriefing.obj
 0001:0001e7f0       _CG_PanelButtonsRender_Button 1001f7f0 f   cg_debriefing.obj
 0001:0001e810       _CG_PanelButtonsRender_Window_Ext 1001f810 f   cg_debriefing.obj
 0001:0001e9b0       _CG_PanelButtonsRender_Window 1001f9b0 f   cg_debriefing.obj
 0001:0001e9e0       _CG_Debreifing2_WinStringForTeam 1001f9e0 f   cg_debriefing.obj
 0001:0001ea10       _CG_Debreifing2_Awards_Parse 1001fa10 f   cg_debriefing.obj
 0001:0001ebd0       _CG_Debreifing2_Awards_Draw 1001fbd0 f   cg_debriefing.obj
 0001:0001ed60       _CG_Debriefing_FindWinningTeamForMap 1001fd60 f   cg_debriefing.obj
 0001:0001eda0       _CG_Debriefing_FindWinningTeamForPos 1001fda0 f   cg_debriefing.obj
 0001:0001eee0       _CG_Debriefing_FindOveralWinningTeam 1001fee0 f   cg_debriefing.obj
 0001:0001eef0       _CG_Debriefing_FindWinningTeam 1001fef0 f   cg_debriefing.obj
 0001:0001ef10       _CG_Debriefing2_Maps_KeyDown 1001ff10 f   cg_debriefing.obj
 0001:0001ef70       _CG_Debriefing2TeamSkillHeaders_Draw 1001ff70 f   cg_debriefing.obj
 0001:0001f090       _CG_Debriefing2TeamSkillXP_Draw 10020090 f   cg_debriefing.obj
 0001:0001f230       _CG_parseMapVoteListInfo   10020230 f   cg_debriefing.obj
 0001:0001f380       _CG_parseMapVoteTally      10020380 f   cg_debriefing.obj
 0001:0001f3c0       _CG_MapVote_MultiVoteButton_Draw 100203c0 f   cg_debriefing.obj
 0001:0001f4a0       _CG_MapVote_VoteButton_Draw 100204a0 f   cg_debriefing.obj
 0001:0001f560       _CG_Debriefing_Draw        10020560 f   cg_debriefing.obj
 0001:0001f6b0       _CG_DebriefingPlayerList_KeyDown 100206b0 f   cg_debriefing.obj
 0001:0001f720       _CG_DebriefingPlayerList_Draw 10020720 f   cg_debriefing.obj
 0001:0001fb80       _CG_Debriefing_ScrollGetCount 10020b80 f   cg_debriefing.obj
 0001:0001fc80       _CG_Debriefing_ScrollGetBarRect 10020c80 f   cg_debriefing.obj
 0001:0001fd20       _CG_Debriefing_ScrollCheckOffset 10020d20 f   cg_debriefing.obj
 0001:0001fd80       _CG_Debriefing_Scrollbar_Draw 10020d80 f   cg_debriefing.obj
 0001:0001feb0       _CG_Debriefing_Scrollbar_KeyDown 10020eb0 f   cg_debriefing.obj
 0001:0001ff10       _CG_Debriefing_GetSelectedClientInfo 10020f10 f   cg_debriefing.obj
 0001:0001ff60       _CG_Debriefing_HTMLButton_Draw 10020f60 f   cg_debriefing.obj
 0001:0001ff80       _CG_Debriefing_ReadyButton_Draw 10020f80 f   cg_debriefing.obj
 0001:0001ffb0       _CG_Debriefing_ChatButton_Draw 10020fb0 f   cg_debriefing.obj
 0001:00020010       _CG_Debriefing_NextButton_Draw 10021010 f   cg_debriefing.obj
 0001:00020020       _CG_Debreifing2_MissionTitle_Draw 10021020 f   cg_debriefing.obj
 0001:000202a0       _CG_Debreifing2_Maps_Draw  100212a0 f   cg_debriefing.obj
 0001:00020540       _CG_Debreifing2_Mission_Draw 10021540 f   cg_debriefing.obj
 0001:000210c0       _CG_Debriefing_MouseEvent  100220c0 f   cg_debriefing.obj
 0001:00021200       _CG_Debriefing_PlayerSkills_Draw 10022200 f   cg_debriefing.obj
 0001:00021480       _CG_Debriefing_PlayerACC_Draw 10022480 f   cg_debriefing.obj
 0001:00021560       _CG_Debriefing_PlayerXP_Draw 10022560 f   cg_debriefing.obj
 0001:00021640       _CG_Debriefing_PlayerMedals_Draw 10022640 f   cg_debriefing.obj
 0001:00021740       _CG_Debriefing_PlayerRank_Draw 10022740 f   cg_debriefing.obj
 0001:00021810       _CG_Debriefing_PlayerName_Draw 10022810 f   cg_debriefing.obj
 0001:00021860       _CG_Text_SetActiveFont     10022860 f   cg_draw.obj
 0001:00021870       _CG_Text_Width_Ext         10022870 f   cg_draw.obj
 0001:00021910       _CG_Text_Width             10022910 f   cg_draw.obj
 0001:00021940       _CG_Text_Height_Ext        10022940 f   cg_draw.obj
 0001:000219f0       _CG_Text_Height            100229f0 f   cg_draw.obj
 0001:00021a20       _CG_Text_PaintChar_Ext     10022a20 f   cg_draw.obj
 0001:00021aa0       _CG_Text_Paint_Ext         10022aa0 f   cg_draw.obj
 0001:00021d60       _CG_Text_Paint             10022d60 f   cg_draw.obj
 0001:00022a30       _CG_DrawTime               10023a30 f   cg_draw.obj
 0001:00023030       _CG_PickupItemText         10024030 f   cg_draw.obj
 0001:00023190       _CG_AddLagometerFrameInfo  10024190 f   cg_draw.obj
 0001:000231c0       _CG_AddLagometerSnapshotInfo 100241c0 f   cg_draw.obj
 0001:00023830       _CG_CenterPrint            10024830 f   cg_draw.obj
 0001:00023920       _CG_PrintAnnouncement      10024920 f   cg_draw.obj
 0001:00023a10       _CG_PriorityCenterPrint    10024a10 f   cg_draw.obj
 0001:000256b0       _CG_ScanForCrosshairMine   100266b0 f   cg_draw.obj
 0001:00025780       _CG_ScanForCrosshairDynamite 10026780 f   cg_draw.obj
 0001:000259e0       _CG_CheckForCursorHints    100269e0 f   cg_draw.obj
 0001:00025d70       _CG_CrosshairClientMaxHealth 10026d70 f   cg_draw.obj
 0001:00027810       _CG_CalculateReinfTime_Float 10028810 f   cg_draw.obj
 0001:000278a0       _CG_CalculateReinfTime     100288a0 f   cg_draw.obj
 0001:00028510       _CG_ObjectivePrint         10029510 f   cg_draw.obj
 0001:000289c0       _CG_DrawObjectiveIcons     100299c0 f   cg_draw.obj
 0001:00028c60       _CG_DrawTimedMenus         10029c60 f   cg_draw.obj
 0001:00028ca0       _CG_Fade                   10029ca0 f   cg_draw.obj
 0001:00028e60       _CG_DrawCompassIcon        10029e60 f   cg_draw.obj
 0001:0002a230       _CG_CheckDisguise          1002b230 f   cg_draw.obj
 0001:0002aa10       _CG_ClassSkillForPosition  1002ba10 f   cg_draw.obj
 0001:0002aad0       _CG_DrawSkillLevels        1002bad0 f   cg_draw.obj
 0001:0002b0a0       _CG_DrawActivePowerups     1002c0a0 f   cg_draw.obj
 0001:0002b610       _CG_AltHudPowerups         1002c610 f   cg_draw.obj
 0001:0002ba00       _CG_InitStatsDebug         1002ca00 f   cg_draw.obj
 0001:0002ba40       _CG_StatsDebugAddText      1002ca40 f   cg_draw.obj
 0001:0002bd20       _CG_DrawDemoRecording      1002cd20 f   cg_draw.obj
 0001:0002be60       _CG_DrawOnScreenNames      1002ce60 f   cg_draw.obj
 0001:0002c010       _CG_StartShakeCamera       1002d010 f   cg_draw.obj
 0001:0002c080       _CG_ShakeCamera            1002d080 f   cg_draw.obj
 0001:0002c290       _CG_Coronas                1002d290 f   cg_draw.obj
 0001:0002c3f0       _CG_DrawMiscGamemodels     1002d3f0 f   cg_draw.obj
 0001:0002c580       _C_CSMethodData            1002d580 f   cg_draw.obj
 0001:0002c7b0       _CG_DrawMissileCamera      1002d7b0 f   cg_draw.obj
 0001:0002ca90       _CG_DrawKillerCamera       1002da90 f   cg_draw.obj
 0001:0002cd80       _CG_DrawAnnouncer          1002dd80 f   cg_draw.obj
 0001:0002d060       _CG_AddAnnouncer           1002e060 f   cg_draw.obj
 0001:0002d150       _CG_Text_Paint_Centred_Ext 1002e150 f   cg_draw.obj
 0001:0002e6c0       _CG_DrawActive             1002f6c0 f   cg_draw.obj
 0001:0002e850       _CG_AdjustFrom640          1002f850 f   cg_drawtools.obj
 0001:0002e8c0       _Ccg_Is43Screen            1002f8c0 f   cg_drawtools.obj
 0001:0002e8e0       _Ccg_WideX                 1002f8e0 f   cg_drawtools.obj
 0001:0002e920       _Ccg_WideXoffset           1002f920 f   cg_drawtools.obj
 0001:0002e970       _CG_FillRect               1002f970 f   cg_drawtools.obj
 0001:0002e9e0       _CG_FilledBar              1002f9e0 f   cg_drawtools.obj
 0001:0002ec60       _CG_DrawSides              1002fc60 f   cg_drawtools.obj
 0001:0002ed20       _CG_DrawTopBottom          1002fd20 f   cg_drawtools.obj
 0001:0002ede0       _CG_DrawSides_NoScale      1002fde0 f   cg_drawtools.obj
 0001:0002ee90       _CG_DrawTopBottom_NoScale  1002fe90 f   cg_drawtools.obj
 0001:0002ef40       _CG_DrawRect               1002ff40 f   cg_drawtools.obj
 0001:0002efb0       _CG_DrawRect_FixedBorder   1002ffb0 f   cg_drawtools.obj
 0001:0002f020       _CG_DrawPicST              10030020 f   cg_drawtools.obj
 0001:0002f090       _CG_DrawPic                10030090 f   cg_drawtools.obj
 0001:0002f160       _CG_DrawRotatedPic         10030160 f   cg_drawtools.obj
 0001:0002f1d0       _CG_DrawChar               100301d0 f   cg_drawtools.obj
 0001:0002f2c0       _CG_DrawChar2              100302c0 f   cg_drawtools.obj
 0001:0002f3b0       _CG_DrawStringExt          100303b0 f   cg_drawtools.obj
 0001:0002f560       _CG_DrawStringExt_Shadow   10030560 f   cg_drawtools.obj
 0001:0002f700       _CG_DrawStringExt2         10030700 f   cg_drawtools.obj
 0001:0002f740       _CG_DrawBigString          10030740 f   cg_drawtools.obj
 0001:0002f790       _CG_DrawSmallString        10030790 f   cg_drawtools.obj
 0001:0002f7e0       _CG_DrawSmallStringColor   100307e0 f   cg_drawtools.obj
 0001:0002f810       _CG_DrawTinyStringColor    10030810 f   cg_drawtools.obj
 0001:0002f840       _CG_DrawMicroStringColor   10030840 f   cg_drawtools.obj
 0001:0002f870       _CG_DrawStrlen             10030870 f   cg_drawtools.obj
 0001:0002f950       _CG_TileClear              10030950 f   cg_drawtools.obj
 0001:0002fa00       _CG_FadeColor              10030a00 f   cg_drawtools.obj
 0001:0002fa70       _CG_ColorForHealth         10030a70 f   cg_drawtools.obj
 0001:0002fb20       _CG_TranslateString        10030b20 f   cg_drawtools.obj
 0001:0002fb60       _CG_BubbleTrail            10030b60 f   cg_effects.obj
 0001:0002fe00       _CG_SmokePuff              10030e00 f   cg_effects.obj
 0001:0002ffd0       _CG_AddBloodTrails         10030fd0 f   cg_effects.obj
 0001:000301c0       _CG_Bleed                  100311c0 f   cg_effects.obj
 0001:00030310       _CG_LaunchGib              10031310 f   cg_effects.obj
 0001:00030600       _CG_GetOriginForTag        10031600 f   cg_effects.obj
 0001:000307c0       _CG_RumbleEfx              100317c0 f   cg_effects.obj
 0001:000309d0       _InitSmokeSprites          100319d0 f   cg_effects.obj
 0001:00030b90       _CG_SpawnSmokeSprite       10031b90 f   cg_effects.obj
 0001:00030c80       _CG_RenderSmokeGrenadeSmoke 10031c80 f   cg_effects.obj
 0001:00030f30       _CG_AddSmokeSprites        10031f30 f   cg_effects.obj
 0001:000312f0       _CG_LoseACC                100322f0 f   cg_effects.obj
 0001:000315f0       _CG_GibPlayer              100325f0 f   cg_effects.obj
 0001:00031c50       _CG_PositionEntityOnTag    10032c50 f   cg_ents.obj
 0001:00031e00       _CG_PositionRotatedEntityOnTag 10032e00 f   cg_ents.obj
 0001:000320e0       _CG_SetEntitySoundPosition 100330e0 f   cg_ents.obj
 0001:00032160       _CG_AddLightstyle          10033160 f   cg_ents.obj
 0001:00032eb0       _CG_PlayerSeesItem         10033eb0 f   cg_ents.obj
 0001:00034aa0       _CG_Beam_2                 10035aa0 f   cg_ents.obj
 0001:00034c10       _CG_Beam                   10035c10 f   cg_ents.obj
 0001:00035100       _CG_Cabinet                10036100 f   cg_ents.obj
 0001:000352d0       _CG_SetupCabinets          100362d0 f   cg_ents.obj
 0001:00035600       _CG_AddLinkedEntity        10036600 f   cg_ents.obj
 0001:00035b40       _CGRefEntityToTag          10036b40 f   cg_ents.obj
 0001:00035ba0       _CGTagToRefEntity          10036ba0 f   cg_ents.obj
 0001:00035c00       _CG_AdjustPositionForMover 10036c00 f   cg_ents.obj
 0001:00035ec0       _CG_CalcEntityLerpPositions 10036ec0 f   cg_ents.obj
 0001:00035fb0       _CG_AddCEntity             10036fb0 f   cg_ents.obj
 0001:00035ff0       _CG_AddEntityToTag         10036ff0 f   cg_ents.obj
 0001:00036280       _CG_AddCEntity_Filter      10037280 f   cg_ents.obj
 0001:000362e0       _CG_AttachBitsToTank       100372e0 f   cg_ents.obj
 0001:00036660       _CG_Mover_PostProcess      10037660 f   cg_ents.obj
 0001:000368f0       _CG_AddPacketEntities      100378f0 f   cg_ents.obj
 0001:00036b70       _Init_Obituaries           10037b70 f   cg_event.obj
 0001:00037600       _CG_PainEvent              10038600 f   cg_event.obj
 0001:00037630       _CG_PrecacheFXSounds       10038630 f   cg_event.obj
 0001:00037670       _CG_RubbleFx               10038670 f   cg_event.obj
 0001:00037e00       _CG_Explodef               10038e00 f   cg_event.obj
 0001:00038590       _CG_Shard                  10039590 f   cg_event.obj
 0001:00038940       _CG_ShardJunk              10039940 f   cg_event.obj
 0001:00038b30       _CG_Debris                 10039b30 f   cg_event.obj
 0001:00038ca0       _CG_MortarImpact           10039ca0 f   cg_event.obj
 0001:00038dd0       _CG_MortarMiss             10039dd0 f   cg_event.obj
 0001:00038e40       _SoundWithinDistance       10039e40 f   cg_event.obj
 0001:00038eb0       _CG_StartFallDamageSound   10039eb0 f   cg_event.obj
 0001:00038f30       _C_HandleAnnounce          10039f30 f   cg_event.obj
 0001:00039110       _CG_Explode                1003a110 f   cg_event.obj
 0001:00039230       _CG_Rubble                 1003a230 f   cg_event.obj
 0001:00039380       _CG_Effect                 1003a380 f   cg_event.obj
 0001:00039700       _CG_EntityEvent            1003a700 f   cg_event.obj
 0001:0003cbd0       _CG_CheckEvents            1003dbd0 f   cg_event.obj
 0001:0003ccd0       _CG_IsOnFireteam           1003dcd0 f   cg_fireteamoverlay.obj
 0001:0003cd00       _CG_IsFireTeamLeader       1003dd00 f   cg_fireteamoverlay.obj
 0001:0003cd30       _CG_SortedFireTeamPlayerForPosition 1003dd30 f   cg_fireteamoverlay.obj
 0001:0003cda0       _SkillNumForClass          1003dda0 f   cg_fireteamoverlay.obj
 0001:0003cdf0       _weaponIconScale           1003ddf0 f   cg_fireteamoverlay.obj
 0001:0003ce70       _CG_DrawFireTeamOverlay    1003de70 f   cg_fireteamoverlay.obj
 0001:0003d5f0       _CG_FireteamHasClass       1003e5f0 f   cg_fireteamoverlay.obj
 0001:0003d670       _CG_BuildSelectedFirteamString 1003e670 f   cg_fireteamoverlay.obj
 0001:0003d730       _CG_IsOnSameFireteam       1003e730 f   cg_fireteamoverlay.obj
 0001:0003d760       _CG_FireteamOverlayHeight  1003e760 f   cg_fireteamoverlay.obj
 0001:0003d7f0       _CG_SortFireTeam           1003e7f0 f   cg_fireteamoverlay.obj
 0001:0003d890       _CG_SortClientFireteam     1003e890 f   cg_fireteamoverlay.obj
 0001:0003d8d0       _CG_ParseFireteams         1003e8d0 f   cg_fireteamoverlay.obj
 0001:0003da40       _CG_Fireteams_MenuTitleText_Draw 1003ea40 f   cg_fireteams.obj
 0001:0003dc50       _CG_CountFireteamsByTeam   1003ec50 f   cg_fireteams.obj
 0001:0003dd30       _CG_DrawFireteamsByTeam    1003ed30 f   cg_fireteams.obj
 0001:0003de20       _CG_CountPlayersSF         1003ee20 f   cg_fireteams.obj
 0001:0003dea0       _CG_CountPlayersNF         1003eea0 f   cg_fireteams.obj
 0001:0003df00       _CG_PlayerSFFromPos        1003ef00 f   cg_fireteams.obj
 0001:0003dfe0       _CG_PlayerNFFromPos        1003efe0 f   cg_fireteams.obj
 0001:0003e0b0       _CG_DrawPlayerSF           1003f0b0 f   cg_fireteams.obj
 0001:0003e250       _CG_DrawPlayerNF           1003f250 f   cg_fireteams.obj
 0001:0003e3f0       _CG_Fireteams_MenuText_Draw 1003f3f0 f   cg_fireteams.obj
 0001:0003e940       _CG_Fireteams_Setup        1003f940 f   cg_fireteams.obj
 0001:0003e950       _CG_Fireteams_Draw         1003f950 f   cg_fireteams.obj
 0001:0003e960       _CG_FireteamCheckExecKey   1003f960 f   cg_fireteams.obj
 0001:0003f140       _CG_Fireteams_KeyHandling  10040140 f   cg_fireteams.obj
 0001:0003f160       _CG_FlameLerpVec           10040160 f   cg_flamethrower.obj
 0001:0003f1b0       _CG_FlameAdjustSpeed       100401b0 f   cg_flamethrower.obj
 0001:0003f210       _CG_ClearFlameChunks       10040210 f   cg_flamethrower.obj
 0001:0003f2a0       _CG_SpawnFlameChunk        100402a0 f   cg_flamethrower.obj
 0001:0003f350       _CG_FreeFlameChunk         10040350 f   cg_flamethrower.obj
 0001:0003f3f0       _CG_MergeFlameChunks       100403f0 f   cg_flamethrower.obj
 0001:0003f480       _CG_FlameCalcOrg           10040480 f   cg_flamethrower.obj
 0001:0003f4d0       _CG_MoveFlameChunk         100404d0 f   cg_flamethrower.obj
 0001:0003f810       _CG_AddFlameSpriteToScene  10040810 f   cg_flamethrower.obj
 0001:0003fdb0       _CG_AddFlameToScene        10040db0 f   cg_flamethrower.obj
 0001:00040590       _CG_InitFlameChunks        10041590 f   cg_flamethrower.obj
 0001:00040610       _CG_AddFlameChunks         10041610 f   cg_flamethrower.obj
 0001:00040760       _CG_UpdateFlamethrowerSounds 10041760 f   cg_flamethrower.obj
 0001:00040870       _CG_FireFlameChunks        10041870 f   cg_flamethrower.obj
 0001:00040f90       _CG_LoadingString          10041f90 f   cg_info.obj
 0001:00040fe0       _CG_DrawInformation        10041fe0 f   cg_info.obj
 0001:00041100       _CG_ShowHelp_On            10042100 f   cg_info.obj
 0001:00041160       _CG_ShowHelp_Off           10042160 f   cg_info.obj
 0001:000411c0       _CG_DemoClick              100421c0 f   cg_info.obj
 0001:000417f0       _CG_GameStatsDraw          100427f0 f   cg_info.obj
 0001:000421e0       _CG_TopShotsDraw           100431e0 f   cg_info.obj
 0001:00042750       _CG_DemoHelpDraw           10043750 f   cg_info.obj
 0001:00042b30       _CG_getBindKeyName         10043b30 f   cg_info.obj
 0001:00042bb0       _CG_DrawOverlays           10043bb0 f   cg_info.obj
 0001:00042bd0       _CG_LimboPanel_BriefingButton_KeyDown 10043bd0 f   cg_limbopanel.obj
 0001:00042c60       _CG_LimboPanel_BriefingButton_Draw 10043c60 f   cg_limbopanel.obj
 0001:00042ce0       _CG_LimboPanel_NameEditFinish 10043ce0 f   cg_limbopanel.obj
 0001:00042d20       _CG_LimboPanel_CancelButton_KeyDown 10043d20 f   cg_limbopanel.obj
 0001:00042d80       _CG_LimboPanel_PlusButton_KeyDown 10043d80 f   cg_limbopanel.obj
 0001:00042de0       _CG_LimboPanel_MinusButton_KeyDown 10043de0 f   cg_limbopanel.obj
 0001:00042e40       _CG_LimboPanel_RenderObjectiveBack 10043e40 f   cg_limbopanel.obj
 0001:00042e80       _CG_LimboPanel_RenderCommandMap 10043e80 f   cg_limbopanel.obj
 0001:00042ed0       _CG_DrawLimboPlayerHead    10043ed0 f   cg_limbopanel.obj
 0001:00043250       _CG_LimboPanel_Filter_KeyDown 10044250 f   cg_limbopanel.obj
 0001:00043290       _CG_LimboPanel_Filter_Draw 10044290 f   cg_limbopanel.obj
 0001:00043340       _CG_DrawBorder             10044340 f   cg_limbopanel.obj
 0001:00043630       _CG_LimboPanel_Border_Draw 10044630 f   cg_limbopanel.obj
 0001:00043670       _CG_LimboPanel_RenderCounterNumber 10044670 f   cg_limbopanel.obj
 0001:00043740       _CG_LimboPanel_RenderCounter_MaxChangeForButton 10044740 f   cg_limbopanel.obj
 0001:00043760       _CG_LimboPanel_RenderCounter_NumRollers 10044760 f   cg_limbopanel.obj
 0001:000437e0       _CG_LimboPanel_RenderCounter_CountsDown 100447e0 f   cg_limbopanel.obj
 0001:00043800       _CG_LimboPanel_RenderCounter_CountsUp 10044800 f   cg_limbopanel.obj
 0001:00043820       _CG_LimboPanel_RenderCounter_StartSet 10044820 f   cg_limbopanel.obj
 0001:00043840       _CG_LimboPanel_RenderMedal 10044840 f   cg_limbopanel.obj
 0001:000438e0       _CG_LimboPanel_RenderCounter_IsReversed 100448e0 f   cg_limbopanel.obj
 0001:00043900       _CG_LimboPanel_RenderCounter_GetShaders 10044900 f   cg_limbopanel.obj
 0001:00043950       _CG_LimboPanelRenderText_NoLMS 10044950 f   cg_limbopanel.obj
 0001:00043950       _CG_LimboPanelRenderText_SkillsText 10044950 f   cg_limbopanel.obj
 0001:00043970       _CG_LimboPanel_Init        10044970 f   cg_limbopanel.obj
 0001:000439a0       _CG_LimboPanel_KeyHandling 100449a0 f   cg_limbopanel.obj
 0001:00043a20       _CG_LimboPanel_GetWeaponCardIconData 10044a20 f   cg_limbopanel.obj
 0001:00043cf0       _CG_LimboPanel_GetTeam     10044cf0 f   cg_limbopanel.obj
 0001:00043d00       _CG_LimboPanel_GetRealTeam 10044d00 f   cg_limbopanel.obj
 0001:00043d20       _CG_LimboPanel_GetClass    10044d20 f   cg_limbopanel.obj
 0001:00043d30       _CG_LimboPanel_GetCharacter 10044d30 f   cg_limbopanel.obj
 0001:00043d50       _CG_LimboPanel_GetPlayerClass 10044d50 f   cg_limbopanel.obj
 0001:00043d70       _CG_LimboPanel_WeaponCount_ForSlot 10044d70 f   cg_limbopanel.obj
 0001:00043e40       _CG_LimboPanel_SetSelectedWeaponNumForSlot 10044e40 f   cg_limbopanel.obj
 0001:00043eb0       _CG_LimboPanel_ClassCount  10044eb0 f   cg_limbopanel.obj
 0001:00043f20       _CG_LimboPanel_TeamCount   10044f20 f   cg_limbopanel.obj
 0001:00043fa0       _CG_LimboPanel_TeamCount2  10044fa0 f   cg_limbopanel.obj
 0001:00043ff0       _CG_LimboPanel_ClassIsDisabled 10044ff0 f   cg_limbopanel.obj
 0001:00044070       _CG_LimboPanel_RealWeaponIsDisabled 10045070 f   cg_limbopanel.obj
 0001:00044130       _CG_LimboPanel_RenderTeamButton 10045130 f   cg_limbopanel.obj
 0001:000442d0       _CG_LimboPanel_ClassBar_Draw 100452d0 f   cg_limbopanel.obj
 0001:000444c0       _CG_LimboPanel_RenderClassButton 100454c0 f   cg_limbopanel.obj
 0001:000447b0       _CG_LimboPanel_GetMaxObjectives 100457b0 f   cg_limbopanel.obj
 0001:000447e0       _CG_LimboPanel_RenderObjectiveText 100457e0 f   cg_limbopanel.obj
 0001:00044b80       _CG_LimboPanel_RenderLight_GetValue 10045b80 f   cg_limbopanel.obj
 0001:00044bc0       _CG_LimboPanel_RenderLight 10045bc0 f   cg_limbopanel.obj
 0001:00044ca0       _CG_LimboPanel_RenderHead  10045ca0 f   cg_limbopanel.obj
 0001:00045050       _CG_LimboPanel_RenderSkillIcon 10046050 f   cg_limbopanel.obj
 0001:000450b0       _CG_LimboPanel_WeaponLights 100460b0 f   cg_limbopanel.obj
 0001:00045110       _CG_LimboPanel_WeaponPanel_KeyDown 10046110 f   cg_limbopanel.obj
 0001:00045160       _CG_LimboPanel_WeaponPanel_DrawWeapon 10046160 f   cg_limbopanel.obj
 0001:00045520       _CG_LimboPanel_RenderCounter_ValueForButton 10046520 f   cg_limbopanel.obj
 0001:00045760       _CG_LimboPanel_RenderCounter_RollTimeForButton 10046760 f   cg_limbopanel.obj
 0001:00045810       _CG_LimboPanel_RenderCounter 10046810 f   cg_limbopanel.obj
 0001:00045da0       _CG_LimboPanel_WeaponCount 10046da0 f   cg_limbopanel.obj
 0001:00045db0       _CG_LimboPanel_RequestObjective 10046db0 f   cg_limbopanel.obj
 0001:00045e20       _CG_LimboPanel_WeaponIsDisabled 10046e20 f   cg_limbopanel.obj
 0001:00045e40       _CG_LimboPanel_ObjectiveText_KeyDown 10046e40 f   cg_limbopanel.obj
 0001:00045eb0       _CG_LimboPanel_Draw        10046eb0 f   cg_limbopanel.obj
 0001:00045fd0       _CG_LimboPanel_GetWeaponForNumber 10046fd0 f   cg_limbopanel.obj
 0001:00046130       _CG_LimboPanel_GetSelectedWeaponForSlot 10047130 f   cg_limbopanel.obj
 0001:00046160       _CG_LimboPanel_GetSelectedWeaponNum 10047160 f   cg_limbopanel.obj
 0001:000461a0       _CG_LimboPanel_SendSetupMsg 100471a0 f   cg_limbopanel.obj
 0001:000462e0       _CG_LimboPanel_OkButton_KeyDown 100472e0 f   cg_limbopanel.obj
 0001:00046310       _CG_LimboPanel_GetSelectedWeapon 10047310 f   cg_limbopanel.obj
 0001:00046330       _CG_LimboPanel_GetSelectedWeaponStat 10047330 f   cg_limbopanel.obj
 0001:00046340       _CG_LimboPanel_WeaponPanel 10047340 f   cg_limbopanel.obj
 0001:00046720       _CG_LimboPanel_RequestWeaponStats 10047720 f   cg_limbopanel.obj
 0001:00046740       _CG_LimboPanel_SetSelectedWeaponNum 10047740 f   cg_limbopanel.obj
 0001:00046780       _CG_LimboPanel_TeamButton_KeyDown 10047780 f   cg_limbopanel.obj
 0001:00046800       _CG_LimboPanel_ClassButton_KeyDown 10047800 f   cg_limbopanel.obj
 0001:00046870       _CG_LimboPanel_WeaponLights_KeyDown 10047870 f   cg_limbopanel.obj
 0001:000468c0       _CG_LimboPanel_WeaponPanel_KeyUp 100478c0 f   cg_limbopanel.obj
 0001:00046990       _CG_LimboPanel_Setup       10047990 f   cg_limbopanel.obj
 0001:00046b80       _CG_LoadPanel_GameTypeName 10047b80 f   cg_loadpanel.obj
 0001:00046be0       _CG_DrawConnectScreen      10047be0 f   cg_loadpanel.obj
 0001:000472a0       _CG_LoadPanel_LoadingBarText 100482a0 f   cg_loadpanel.obj
 0001:000472f0       _CG_LoadPanel_RenderLoadingBar 100482f0 f   cg_loadpanel.obj
 0001:00047390       _CG_LoadPanel_RenderCampaignTypeText 10048390 f   cg_loadpanel.obj
 0001:00047400       _CG_LoadPanel_RenderCampaignNameText 10048400 f   cg_loadpanel.obj
 0001:00047550       _CG_LoadPanel_RenderMissionDescriptionText 10048550 f   cg_loadpanel.obj
 0001:000476c0       _CG_LoadPanel_KeyHandling  100486c0 f   cg_loadpanel.obj
 0001:000476e0       _CG_LoadPanel_DrawPin      100486e0 f   cg_loadpanel.obj
 0001:00047970       _CG_LoadPanel_RenderCampaignPins 10048970 f   cg_loadpanel.obj
 0001:00047b10       _CG_GetLocation            10048b10 f   cg_localents.obj
 0001:00047c50       _CG_GetLocationMsg         10048c50 f   cg_localents.obj
 0001:00047cb0       _CG_BuildLocationString    10048cb0 f   cg_localents.obj
 0001:00047e10       _CG_LoadLocations          10048e10 f   cg_localents.obj
 0001:00048190       _CG_InitLocalEntities      10049190 f   cg_localents.obj
 0001:000481f0       _CG_FreeLocalEntity        100491f0 f   cg_localents.obj
 0001:00048230       _CG_FindLocalEntity        10049230 f   cg_localents.obj
 0001:00048280       _CG_AllocLocalEntity       10049280 f   cg_localents.obj
 0001:000482e0       _CG_BloodTrail             100492e0 f   cg_localents.obj
 0001:000483e0       _CG_FragmentBounceMark     100493e0 f   cg_localents.obj
 0001:000484c0       _CG_FragmentBounceSound    100494c0 f   cg_localents.obj
 0001:00048660       _CG_ReflectVelocity        10049660 f   cg_localents.obj
 0001:00048890       _CG_AddEmitter             10049890 f   cg_localents.obj
 0001:00048900       _CG_AddFragment            10049900 f   cg_localents.obj
 0001:000493f0       _CG_AddMovingTracer        1004a3f0 f   cg_localents.obj
 0001:00049460       _CG_AddSparkElements       1004a460 f   cg_localents.obj
 0001:00049600       _CG_AddFuseSparkElements   1004a600 f   cg_localents.obj
 0001:00049710       _CG_AddBloodElements       1004a710 f   cg_localents.obj
 0001:000498a0       _CG_AddDebrisElements      1004a8a0 f   cg_localents.obj
 0001:00049a60       _CG_AddFadeRGB             1004aa60 f   cg_localents.obj
 0001:00049b40       _CG_AddConstRGB            1004ab40 f   cg_localents.obj
 0001:0004a120       _CG_AddLocalEntities       1004b120 f   cg_localents.obj
 0001:0004aa30       _MD5InitSeed               1004ba30 f   md5.obj
 0001:0004ab90       _CalculateGUID             1004bb90 f   md5.obj
 0001:0004af60       _CG_InitNQGUID             1004bf60 f   cg_uid.obj
 0001:0004af70       _CG_RestoreProfile         1004bf70 f   cg_main.obj
 0001:0004afc0       _CG_setClientFlags         1004bfc0 f   cg_main.obj
 0001:0004b060       _CG_CrosshairPlayer        1004c060 f   cg_main.obj
 0001:0004b080       _CG_LastAttacker           1004c080 f   cg_main.obj
 0001:0004b0a0       _CG_Printf                 1004c0a0 f   cg_main.obj
 0001:0004b170       _CG_Error                  1004c170 f   cg_main.obj
 0001:0004b1b0       _Com_Error                 1004c1b0 f   cg_main.obj
 0001:0004b1f0       _Com_Printf                1004c1f0 f   cg_main.obj
 0001:0004b230       _CG_Argv                   1004c230 f   cg_main.obj
 0001:0004b250       _CG_printConsoleString     1004c250 f   cg_main.obj
 0001:0004b270       _CG_LoadObjectiveData      1004c270 f   cg_main.obj
 0001:0004b5a0       _CG_ConfigString           1004c5a0 f   cg_main.obj
 0001:0004b5d0       _CG_ConfigStringCopy       1004c5d0 f   cg_main.obj
 0001:0004b610       _CG_StartMusic             1004c610 f   cg_main.obj
 0001:0004b690       _CG_QueueMusic             1004c690 f   cg_main.obj
 0001:0004b910       _CG_Cvar_Get               1004c910 f   cg_main.obj
 0001:0004b960       _CG_Text_PaintWithCursor   1004c960 f   cg_main.obj
 0001:0004b9a0       _CG_LoadHudMenu            1004c9a0 f   cg_main.obj
 0001:0004bc00       _CG_AssetCache             1004cc00 f   cg_main.obj
 0001:0004bd10       _CG_execFile               1004cd10 f   cg_main.obj
 0001:0004bd60       _checkExecutable           1004cd60 f   cg_main.obj
 0001:0004bf30       _CG_Shutdown               1004cf30 f   cg_main.obj
 0001:0004bf80       _CG_CheckExecKey           1004cf80 f   cg_main.obj
 0001:0004bfa0       _jP_SetHUDColors           1004cfa0 f   cg_main.obj
 0001:0004c470       _CG_GetGameModel           1004d470 f   cg_main.obj
 0001:0004c490       _CG_GetGameSound           1004d490 f   cg_main.obj
 0001:0004c4b0       _CG_GetRealTime            1004d4b0 f   cg_main.obj
 0001:0004c510       _CG_WriteToLog             1004d510 f   cg_main.obj
 0001:0004c5b0       _CG_ReceiveTeamInfo        1004d5b0 f   cg_main.obj
 0001:0004c670       _CG_RegisterCvars          1004d670 f   cg_main.obj
 0001:0004c770       _CG_UpdateCvars            1004d770 f   cg_main.obj
 0001:0004c9e0       _CG_generateFilename       1004d9e0 f   cg_main.obj
 0001:0004ca40       _CG_SetupDlightstyles      1004da40 f   cg_main.obj
 0001:0004f100       _CG_Init                   10050100 f   cg_main.obj
 0001:0004f640       _vmMain                    10050640 f   cg_main.obj
 0001:0004f7f0       _CG_InitMarkPolys          100507f0 f   cg_marks.obj
 0001:0004f840       _CG_FreeMarkPoly           10050840 f   cg_marks.obj
 0001:0004f880       _CG_ImpactMark             10050880 f   cg_marks.obj
 0001:0004f9f0       _CG_AddMarks               100509f0 f   cg_marks.obj
 0001:0004fb70       _CG_DescriptionForCampaign 10050b70 f   cg_missionbriefing.obj
 0001:0004fb80       _CG_NameForCampaign        10050b80 f   cg_missionbriefing.obj
 0001:0004fb90       _CG_FindCampaignInFile     10050b90 f   cg_missionbriefing.obj
 0001:0004ff80       _CG_FindArenaInfo          10050f80 f   cg_missionbriefing.obj
 0001:000503e0       _CG_LocateCampaign         100513e0 f   cg_missionbriefing.obj
 0001:000504e0       _CG_LocateArena            100514e0 f   cg_missionbriefing.obj
 0001:00050530       _CG_InitMM                 10051530 f   cg_missionmessages.obj
 0001:00050560       _CG_TimeForPopupMM         10051560 f   cg_missionmessages.obj
 0001:00050560       _CG_TimeForPopup           10051560 f   cg_popupmessages.obj
 0001:00050580       _CG_AddToListFront         10051580 f   cg_popupmessages.obj
 0001:00050580       _CG_AddToListFrontMM       10051580 f   cg_missionmessages.obj
 0001:000505a0       _CG_UpdateMMLists          100515a0 f   cg_missionmessages.obj
 0001:000506c0       _CG_FindFreeMMItem         100516c0 f   cg_missionmessages.obj
 0001:000507b0       _CG_AddMMItem              100517b0 f   cg_missionmessages.obj
 0001:000509a0       _CG_MMPosY                 100519a0 f   cg_missionmessages.obj
 0001:000509e0       _CG_MMHeight               100519e0 f   cg_missionmessages.obj
 0001:00050a10       _CG_DrawMMItems            10051a10 f   cg_missionmessages.obj
 0001:00051030       _CG_GetMMItemText          10052030 f   cg_missionmessages.obj
 0001:00051500       _CG_PlayMMItemSound        10052500 f   cg_missionmessages.obj
 0001:00051760       _CG_GetMMItemIcon          10052760 f   cg_missionmessages.obj
 0001:00051760       _CG_GetPMItemIcon          10052760 f   cg_popupmessages.obj
 0001:000517b0       _CG_FitTextToWidth_Ext     100527b0 f   cg_newDraw.obj
 0001:00051900       _CG_DrawPlayerWeaponIcon   10052900 f   cg_newDraw.obj
 0001:00051c30       _CG_DrawCursorhint         10052c30 f   cg_newDraw.obj
 0001:000520e0       _CG_GetValue               100530e0 f   cg_newDraw.obj
 0001:000520f0       _CG_OwnerDrawVisible       100530f0 f   cg_newDraw.obj
 0001:00052100       _CG_DrawWeapStability      10053100 f   cg_newDraw.obj
 0001:000521b0       _CG_DrawWeapHeat           100531b0 f   cg_newDraw.obj
 0001:00052230       _CG_MouseEvent             10053230 f   cg_newDraw.obj
 0001:00052380       _CG_EventHandling          10053380 f   cg_newDraw.obj
 0001:00052530       _CG_KeyEvent               10053530 f   cg_newDraw.obj
 0001:000525c0       _CG_GetTeamColor           100535c0 f   cg_newDraw.obj
 0001:00052650       _CG_ClearParticles         10053650 f   cg_particles.obj
 0001:00052770       _CG_AddParticleToScene     10053770 f   cg_particles.obj
 0001:00054430       _CG_AddParticles           10055430 f   cg_particles.obj
 0001:00054710       _CG_ParticleSnowFlurry     10055710 f   cg_particles.obj
 0001:00054910       _CG_ParticleSmoke          10055910 f   cg_particles.obj
 0001:00054df0       _CG_ParticleBulletDebris   10055df0 f   cg_particles.obj
 0001:00054ef0       _CG_ParticleDirtBulletDebris_Core 10055ef0 f   cg_particles.obj
 0001:00054fe0       _CG_ParticleExplosion      10055fe0 f   cg_particles.obj
 0001:00055180       _CG_ParticleExplosionTrail 10056180 f   cg_particles.obj
 0001:00055320       _CG_ParticleImpactSmokePuffExtended 10056320 f   cg_particles.obj
 0001:00055490       _CG_ParticleImpactSmokePuff 10056490 f   cg_particles.obj
 0001:000554d0       _CG_Particle_OilParticle   100564d0 f   cg_particles.obj
 0001:00055620       _CG_Particle_OilSlick      10056620 f   cg_particles.obj
 0001:000557e0       _CG_OilSlickRemove         100567e0 f   cg_particles.obj
 0001:00055850       _CG_ParticleBloodCloud     10056850 f   cg_particles.obj
 0001:00055a50       _CG_ParticleSparks         10056a50 f   cg_particles.obj
 0001:00055c70       _CG_ParticleDust           10056c70 f   cg_particles.obj
 0001:00056020       _CG_EntOnFire              10057020 f   cg_players.obj
 0001:00056080       _CG_IsCrouchingAnim        10057080 f   cg_players.obj
 0001:000560b0       _CG_CustomSound            100570b0 f   cg_players.obj
 0001:000560d0       _CG_ParseTeamXPs           100570d0 f   cg_players.obj
 0001:00056140       _CG_SortValidClients       10057140 f   cg_players.obj
 0001:00056180       _CG_PlayerClassForClientinfo 10057180 f   cg_players.obj
 0001:00056280       _CG_RunLerpFrame           10057280 f   cg_players.obj
 0001:00056420       _CG_SetLerpFrameAnimationRate 10057420 f   cg_players.obj
 0001:000565d0       _CG_RunLerpFrameRate       100575d0 f   cg_players.obj
 0001:00056b10       _CG_ClearLerpFrameRate     10057b10 f   cg_players.obj
 0001:00056b60       _CG_SetLerpFrameAnimationRateCorpse 10057b60 f   cg_players.obj
 0001:00056c70       _CG_RunLerpFrameRateCorpse 10057c70 f   cg_players.obj
 0001:00057240       _CG_PredictLean            10058240 f   cg_players.obj
 0001:00057c30       _CG_WorldCoordToScreenCoordFloat 10058c30 f   cg_players.obj
 0001:00057db0       _CG_AddOnScreenText        10058db0 f   cg_players.obj
 0001:00058a90       _CG_AddRefEntityWithPowerups 10059a90 f   cg_players.obj
 0001:00058cf0       _CG_AnimPlayerConditions   10059cf0 f   cg_players.obj
 0001:00058e70       _CG_ResetPlayerEntity      10059e70 f   cg_players.obj
 0001:00059000       _CG_GetTag                 1005a000 f   cg_players.obj
 0001:000592a0       _CG_GetWeaponTag           1005a2a0 f   cg_players.obj
 0001:00059540       _CG_SetHudHeadLerpFrameAnimation 1005a540 f   cg_players.obj
 0001:00059590       _CG_ClearHudHeadLerpFrame  1005a590 f   cg_players.obj
 0001:000595e0       _CG_RunHudHeadLerpFrame    1005a5e0 f   cg_players.obj
 0001:00059710       _CG_HudHeadAnimation       1005a710 f   cg_players.obj
 0001:00059780       _CG_NewClientInfo          1005a780 f   cg_players.obj
 0001:00059ea0       _CG_Player                 1005aea0 f   cg_players.obj
 0001:0005b180       _CG_DamageFeedback         1005c180 f   cg_playerstate.obj
 0001:0005b500       _CG_TeamnameForNumber      1005c500 f   cg_playerstate.obj
 0001:0005b550       _CG_Respawn                1005c550 f   cg_playerstate.obj
 0001:0005b760       _CG_CheckPlayerstateEvents 1005c760 f   cg_playerstate.obj
 0001:0005b830       _CG_CheckLocalSounds       1005c830 f   cg_playerstate.obj
 0001:0005bb40       _CG_TransitionPlayerState  1005cb40 f   cg_playerstate.obj
 0001:0005bd70       _CG_PB_FindFreePolyBuffer  1005cd70 f   cg_polybus.obj
 0001:0005be30       _CG_PB_ClearPolyBuffers    1005ce30 f   cg_polybus.obj
 0001:0005be50       _CG_PB_RenderPolyBuffers   1005ce50 f   cg_polybus.obj
 0001:0005be90       _CG_InitPMGraphics         1005ce90 f   cg_popupmessages.obj
 0001:0005bfa0       _CG_InitPM                 1005cfa0 f   cg_popupmessages.obj
 0001:0005bff0       _CG_TimeForBigPopup        1005cff0 f   cg_popupmessages.obj
 0001:0005c010       _CG_FindFreePMItem2        1005d010 f   cg_popupmessages.obj
 0001:0005c040       _CG_FindFreePMItem         1005d040 f   cg_popupmessages.obj
 0001:0005c140       _CG_AddPMItem              1005d140 f   cg_popupmessages.obj
 0001:0005c2f0       _CG_AddPMItem2             1005d2f0 f   cg_popupmessages.obj
 0001:0005c4e0       _CG_PMItemBigSound         1005d4e0 f   cg_popupmessages.obj
 0001:0005c520       _CG_AddPMItemBig           1005d520 f   cg_popupmessages.obj
 0001:0005c600       _CG_DrawPMItems            1005d600 f   cg_popupmessages.obj
 0001:0005cc40       _CG_DrawPMItemsBig         1005dc40 f   cg_popupmessages.obj
 0001:0005ce10       _CG_GetPMItemText          1005de10 f   cg_popupmessages.obj
 0001:0005d340       _CG_PlayPMItemSound        1005e340 f   cg_popupmessages.obj
 0001:0005d5a0       _CG_UpdatePMLists          1005e5a0 f   cg_popupmessages.obj
 0001:0005d750       _CG_BuildSolidList         1005e750 f   cg_predict.obj
 0001:0005d850       _CG_ClientHitboxMaxZ       1005e850 f   cg_predict.obj
 0001:0005dab0       _CG_Trace                  1005eab0 f   cg_predict.obj
 0001:0005db30       _CG_TraceCapsule           1005eb30 f   cg_predict.obj
 0001:0005dbb0       _CG_TraceCapsule_World     1005ebb0 f   cg_predict.obj
 0001:0005dc10       _CG_PointContents          1005ec10 f   cg_predict.obj
 0001:0005e0e0       _CG_PredictionOk           1005f0e0 f   cg_predict.obj
 0001:0005e530       _CG_PredictPlayerState     1005f530 f   cg_predict.obj
 0001:0005f160       _cf_draw                   10060160 f   cg_scoreboard.obj
 0001:0005f2b0       _WM_DrawObjectives         100602b0 f   cg_scoreboard.obj
 0001:00061090       _CG_DrawScoreboard         10062090 f   cg_scoreboard.obj
 0001:00061460       _CG_ParseServerinfo        10062460 f   cg_servercmds.obj
 0001:00061650       _InitSkillLevelStructure   10062650 f   cg_servercmds.obj
 0001:00061820       _CG_UpdateSkills           10062820 f   cg_servercmds.obj
 0001:00061950       _CG_UpdateForceCvars       10062950 f   cg_servercmds.obj
 0001:00061a30       _CG_UpdateSvCvars          10062a30 f   cg_servercmds.obj
 0001:00061b60       _CG_ParseNQinfo            10062b60 f   cg_servercmds.obj
 0001:00061d50       _C_ResetWeaponRestrictions 10062d50 f   cg_servercmds.obj
 0001:00061d90       _C_WeaponRestrictions      10062d90 f   cg_servercmds.obj
 0001:00061f40       _C_ParseCSMethodInfo       10062f40 f   cg_servercmds.obj
 0001:00061fa0       _CG_ParseOIDInfo           10062fa0 f   cg_servercmds.obj
 0001:00062150       _CG_ParseOIDInfos          10063150 f   cg_servercmds.obj
 0001:00062170       _CG_ParseSpawns            10063170 f   cg_servercmds.obj
 0001:00062640       _CG_ParseReinforcementTimes 10063640 f   cg_servercmds.obj
 0001:000626f0       _CG_SetConfigValues        100636f0 f   cg_servercmds.obj
 0001:000627c0       _CG_ShaderStateChanged     100637c0 f   cg_servercmds.obj
 0001:000628d0       _CG_ChargeTimesChanged     100638d0 f   cg_servercmds.obj
 0001:00062c00       _CG_AddToNotify            10063c00 f   cg_servercmds.obj
 0001:00062d90       _CG_ParseVoiceChats        10063d90 f   cg_servercmds.obj
 0001:00063150       _CG_LoadVoiceChats         10064150 f   cg_servercmds.obj
 0001:00063210       _CG_GetVoiceChat           10064210 f   cg_servercmds.obj
 0001:000632a0       _CG_VoiceChatListForClient 100642a0 f   cg_servercmds.obj
 0001:000632e0       _CG_PlayVoiceChat          100642e0 f   cg_servercmds.obj
 0001:00063450       _CG_PlayBufferedVoiceChats 10064450 f   cg_servercmds.obj
 0001:000634c0       _CG_AddBufferedVoiceChat   100644c0 f   cg_servercmds.obj
 0001:000634f0       _CG_VoiceChatLocal         100644f0 f   cg_servercmds.obj
 0001:00063750       _CG_VoiceChat              10064750 f   cg_servercmds.obj
 0001:00063870       _CG_LocalizeServerCommand  10064870 f   cg_servercmds.obj
 0001:00063a20       _CG_topshotsParse_cmd      10064a20 f   cg_servercmds.obj
 0001:00063b60       _CG_ParseWeaponStats       10064b60 f   cg_servercmds.obj
 0001:00063b90       _CG_ParsePortalPos         10064b90 f   cg_servercmds.obj
 0001:00063c20       _CG_parseWeaponStatsGS_cmd 10064c20 f   cg_servercmds.obj
 0001:000641a0       _CG_parseWeaponStats_cmd   100651a0 f   cg_servercmds.obj
 0001:000646e0       _CG_parseBestShotsStats_cmd 100656e0 f   cg_servercmds.obj
 0001:000648d0       _CG_parseTopShotsStats_cmd 100658d0 f   cg_servercmds.obj
 0001:00064a80       _CG_scores_cmd             10065a80 f   cg_servercmds.obj
 0001:00064ba0       _CG_printFile              10065ba0 f   cg_servercmds.obj
 0001:00064c10       _CG_dumpStats              10065c10 f   cg_servercmds.obj
 0001:00064d10       _C_CSMethodDone            10065d10 f   cg_servercmds.obj
 0001:00064d30       _C_CSMethodRequest         10065d30 f   cg_servercmds.obj
 0001:00064d60       _C_BindSearch              10065d60 f   cg_servercmds.obj
 0001:00064f10       _CG_ParseWolfinfo          10065f10 f   cg_servercmds.obj
 0001:00065720       _CG_wstatsParse_cmd        10066720 f   cg_servercmds.obj
 0001:000657a0       _CG_ServerCommand_gs       100667a0 f   cg_servercmds.obj
 0001:00066a80       _CG_ExecuteNewServerCommands 10067a80 f   cg_servercmds.obj
 0001:00066ac0       _C_CSMethodCheck           10067ac0 f   cg_servercmds.obj
 0001:00066e80       _CG_SetInitialSnapshot     10067e80 f   cg_snapshot.obj
 0001:000674f0       _CG_ProcessSnapshots       100684f0 f   cg_snapshot.obj
 0001:00067660       _CG_SoundScriptPrecache    10068660 f   cg_sound.obj
 0001:000676f0       _CG_SoundPickOldestRandomSound 100686f0 f   cg_sound.obj
 0001:000677e0       _CG_AddBufferedSoundScript 100687e0 f   cg_sound.obj
 0001:00067830       _CG_UpdateBufferedSoundScripts 10068830 f   cg_sound.obj
 0001:00067930       _CG_SoundPlaySoundScript   10068930 f   cg_sound.obj
 0001:000679c0       _CG_SoundPlayIndexedScript 100689c0 f   cg_sound.obj
 0001:00067fc0       _CG_SoundInit              10068fc0 f   cg_sound.obj
 0001:00068020       _CG_SaveSpeakersToScript   10069020 f   cg_sound.obj
 0001:00068320       _CG_AddLineToScene         10069320 f   cg_sound.obj
 0001:00068440       _CG_SetViewanglesForSpeakerEditor 10069440 f   cg_sound.obj
 0001:000688a0       _CG_SpeakerInfo_Text       100698a0 f   cg_sound.obj
 0001:00068ef0       _CG_SpeakerEditor_RenderEdit 10069ef0 f   cg_sound.obj
 0001:00068fd0       _CG_SpeakerEditor_RenderButton 10069fd0 f   cg_sound.obj
 0001:00069180       _CG_GetStrFromStrArray     1006a180 f   cg_sound.obj
 0001:000691b0       _CG_SpeakerEditor_RenderDropdown 1006a1b0 f   cg_sound.obj
 0001:00069720       _CG_SpeakerEditor_Back     1006a720 f   cg_sound.obj
 0001:00069840       _CG_SpeakerEditor_LocInfo  1006a840 f   cg_sound.obj
 0001:000698c0       _CG_SpeakerEditor_NoiseEdit_KeyDown 1006a8c0 f   cg_sound.obj
 0001:00069b40       _CG_SpeakerEditor_NoiseEditFinish 1006ab40 f   cg_sound.obj
 0001:00069b90       _CG_SpeakerEditor_TargetnameEditFinish 1006ab90 f   cg_sound.obj
 0001:00069bb0       _CG_SpeakerEditor_Delete_KeyDown 1006abb0 f   cg_sound.obj
 0001:00069bb0       _CG_SpeakerEditor_Cancel_KeyDown 1006abb0 f   cg_sound.obj
 0001:00069bb0       _CG_SpeakerEditor_Ok_KeyDown 1006abb0 f   cg_sound.obj
 0001:00069bb0       _CG_SpeakerEditor_Dropdown_KeyDown 1006abb0 f   cg_sound.obj
 0001:00069be0       _CG_SpeakerEditor_Looped_KeyUp 1006abe0 f   cg_sound.obj
 0001:00069c80       _CG_SpeakerEditor_Broadcast_KeyUp 1006ac80 f   cg_sound.obj
 0001:00069d20       _CG_SpeakerEditor_WaitEditFinish 1006ad20 f   cg_sound.obj
 0001:00069d90       _CG_SpeakerEditor_RandomEditFinish 1006ad90 f   cg_sound.obj
 0001:00069e10       _CG_SpeakerEditor_VolumeEditFinish 1006ae10 f   cg_sound.obj
 0001:00069ea0       _CG_SpeakerEditor_RangeEditFinish 1006aea0 f   cg_sound.obj
 0001:00069f20       _CG_SpeakerEditor_Ok_KeyUp 1006af20 f   cg_sound.obj
 0001:00069f80       _CG_SpeakerEditor_Cancel_KeyUp 1006af80 f   cg_sound.obj
 0001:0006a000       _CG_SpeakerEditor_Delete_KeyUp 1006b000 f   cg_sound.obj
 0001:0006a080       _CG_SpeakerEditorDraw      1006b080 f   cg_sound.obj
 0001:0006a580       _CG_SpeakerEditor_KeyHandling 1006b580 f   cg_sound.obj
 0001:0006a7e0       _CG_SpeakerEditorMouseMove_Handling 1006b7e0 f   cg_sound.obj
 0001:0006a8e0       _CG_ActivateEditSoundMode  1006b8e0 f   cg_sound.obj
 0001:0006a960       _CG_DeActivateEditSoundMode 1006b960 f   cg_sound.obj
 0001:0006a9c0       _CG_ModifyEditSpeaker      1006b9c0 f   cg_sound.obj
 0001:0006ab10       _CG_UndoEditSpeaker        1006bb10 f   cg_sound.obj
 0001:0006abf0       _CG_ToggleActiveOnScriptSpeaker 1006bbf0 f   cg_sound.obj
 0001:0006ac20       _CG_UnsetActiveOnScriptSpeaker 1006bc20 f   cg_sound.obj
 0001:0006ac40       _CG_SetActiveOnScriptSpeaker 1006bc40 f   cg_sound.obj
 0001:0006acf0       _CG_AddScriptSpeakers      1006bcf0 f   cg_sound.obj
 0001:0006ae00       _CG_PlayItemPickupSound    1006be00 f   cg_sound.obj
 0001:0006afd0       _CG_SpawnString            1006bfd0 f   cg_spawn.obj
 0001:0006b070       _CG_SpawnFloat             1006c070 f   cg_spawn.obj
 0001:0006b0a0       _CG_SpawnInt               1006c0a0 f   cg_spawn.obj
 0001:0006b0d0       _CG_SpawnVector            1006c0d0 f   cg_spawn.obj
 0001:0006b110       _CG_SpawnVector2D          1006c110 f   cg_spawn.obj
 0001:0006b150       _vtos                      1006c150 f   cg_spawn.obj
 0001:0006b1a0       _SP_path_corner_2          1006c1a0 f   cg_spawn.obj
 0001:0006b220       _SP_info_train_spline_main 1006c220 f   cg_spawn.obj
 0001:0006b350       _SP_misc_gamemodel         1006c350 f   cg_spawn.obj
 0001:0006b5b0       _SP_corona                 1006c5b0 f   cg_spawn.obj
 0001:0006b710       _SP_trigger_objective_info 1006c710 f   cg_spawn.obj
 0001:0006b790       _CG_ParseEntityFromSpawnVars 1006c790 f   cg_spawn.obj
 0001:0006b810       _CG_AddSpawnVarToken       1006c810 f   cg_spawn.obj
 0001:0006b880       _CG_ParseSpawnVars         1006c880 f   cg_spawn.obj
 0001:0006b9a0       _SP_worldspawn             1006c9a0 f   cg_spawn.obj
 0001:0006bd90       _CG_ParseEntitiesFromString 1006cd90 f   cg_spawn.obj
 0001:0006bdf0       _CG_LoadRankIcons          1006cdf0 f   cg_statsranksmedals.obj
 0001:0006be40       _dllEntry                  1006ce40 f   cg_syscalls.obj
 0001:0006be50       _trap_Print                1006ce50 f   cg_syscalls.obj
 0001:0006be70       _trap_Error                1006ce70 f   cg_syscalls.obj
 0001:0006be90       _trap_Milliseconds         1006ce90 f   cg_syscalls.obj
 0001:0006bea0       _trap_Cvar_Register        1006cea0 f   cg_syscalls.obj
 0001:0006bec0       _trap_Cvar_Update          1006cec0 f   cg_syscalls.obj
 0001:0006bee0       _trap_Cvar_Set             1006cee0 f   cg_syscalls.obj
 0001:0006bf00       _trap_Cvar_VariableStringBuffer 1006cf00 f   cg_syscalls.obj
 0001:0006bf20       _trap_Argc                 1006cf20 f   cg_syscalls.obj
 0001:0006bf30       _trap_Argv                 1006cf30 f   cg_syscalls.obj
 0001:0006bf50       _trap_Args                 1006cf50 f   cg_syscalls.obj
 0001:0006bf70       _trap_FS_FOpenFile         1006cf70 f   cg_syscalls.obj
 0001:0006bf90       _trap_FS_Read              1006cf90 f   cg_syscalls.obj
 0001:0006bfb0       _trap_FS_Write             1006cfb0 f   cg_syscalls.obj
 0001:0006bfd0       _trap_FS_FCloseFile        1006cfd0 f   cg_syscalls.obj
 0001:0006bff0       _trap_FS_GetFileList       1006cff0 f   cg_syscalls.obj
 0001:0006c010       _trap_FS_Delete            1006d010 f   cg_syscalls.obj
 0001:0006c030       _trap_SendConsoleCommand   1006d030 f   cg_syscalls.obj
 0001:0006c050       _trap_AddCommand           1006d050 f   cg_syscalls.obj
 0001:0006c070       _trap_RemoveCommand        1006d070 f   cg_syscalls.obj
 0001:0006c090       _trap_SendClientCommand    1006d090 f   cg_syscalls.obj
 0001:0006c0b0       _trap_UpdateScreen         1006d0b0 f   cg_syscalls.obj
 0001:0006c0c0       _trap_CM_NumInlineModels   1006d0c0 f   cg_syscalls.obj
 0001:0006c0d0       _trap_CM_InlineModel       1006d0d0 f   cg_syscalls.obj
 0001:0006c0f0       _trap_CM_TempBoxModel      1006d0f0 f   cg_syscalls.obj
 0001:0006c110       _trap_CM_PointContents     1006d110 f   cg_syscalls.obj
 0001:0006c130       _trap_CM_TransformedPointContents 1006d130 f   cg_syscalls.obj
 0001:0006c150       _trap_CM_BoxTrace          1006d150 f   cg_syscalls.obj
 0001:0006c180       _trap_CM_TransformedBoxTrace 1006d180 f   cg_syscalls.obj
 0001:0006c1c0       _trap_CM_CapsuleTrace      1006d1c0 f   cg_syscalls.obj
 0001:0006c1f0       _trap_CM_TransformedCapsuleTrace 1006d1f0 f   cg_syscalls.obj
 0001:0006c230       _trap_R_ProjectDecal       1006d230 f   cg_syscalls.obj
 0001:0006c260       _trap_R_ClearDecals        1006d260 f   cg_syscalls.obj
 0001:0006c270       _trap_S_StartSound         1006d270 f   cg_syscalls.obj
 0001:0006c2a0       _trap_S_StartSoundVControl 1006d2a0 f   cg_syscalls.obj
 0001:0006c2d0       _trap_S_StartSoundEx       1006d2d0 f   cg_syscalls.obj
 0001:0006c300       _trap_S_StartLocalSound    1006d300 f   cg_syscalls.obj
 0001:0006c320       _trap_S_ClearLoopingSounds 1006d320 f   cg_syscalls.obj
 0001:0006c330       _trap_S_ClearSounds        1006d330 f   cg_syscalls.obj
 0001:0006c350       _trap_S_AddLoopingSound    1006d350 f   cg_syscalls.obj
 0001:0006c380       _trap_S_AddRealLoopingSound 1006d380 f   cg_syscalls.obj
 0001:0006c3b0       _trap_S_StopStreamingSound 1006d3b0 f   cg_syscalls.obj
 0001:0006c3d0       _trap_S_UpdateEntityPosition 1006d3d0 f   cg_syscalls.obj
 0001:0006c3f0       _trap_S_Respatialize       1006d3f0 f   cg_syscalls.obj
 0001:0006c410       _trap_S_GetSoundLength     1006d410 f   cg_syscalls.obj
 0001:0006c430       _trap_S_GetCurrentSoundTime 1006d430 f   cg_syscalls.obj
 0001:0006c440       _trap_S_StartBackgroundTrack 1006d440 f   cg_syscalls.obj
 0001:0006c460       _trap_S_FadeBackgroundTrack 1006d460 f   cg_syscalls.obj
 0001:0006c480       _trap_S_FadeAllSound       1006d480 f   cg_syscalls.obj
 0001:0006c4a0       _trap_S_StartStreamingSound 1006d4a0 f   cg_syscalls.obj
 0001:0006c4d0       _trap_R_GetSkinModel       1006d4d0 f   cg_syscalls.obj
 0001:0006c4f0       _trap_R_GetShaderFromModel 1006d4f0 f   cg_syscalls.obj
 0001:0006c510       _trap_R_ClearScene         1006d510 f   cg_syscalls.obj
 0001:0006c520       _trap_R_AddRefEntityToScene 1006d520 f   cg_syscalls.obj
 0001:0006c540       _trap_R_AddPolyToScene     1006d540 f   cg_syscalls.obj
 0001:0006c560       _trap_R_AddPolyBufferToScene 1006d560 f   cg_syscalls.obj
 0001:0006c580       _trap_R_AddPolysToScene    1006d580 f   cg_syscalls.obj
 0001:0006c5a0       _trap_R_AddLightToScene    1006d5a0 f   cg_syscalls.obj
 0001:0006c5d0       _trap_R_AddCoronaToScene   1006d5d0 f   cg_syscalls.obj
 0001:0006c600       _trap_R_SetFog             1006d600 f   cg_syscalls.obj
 0001:0006c630       _trap_R_SetGlobalFog       1006d630 f   cg_syscalls.obj
 0001:0006c660       _trap_R_RenderScene        1006d660 f   cg_syscalls.obj
 0001:0006c680       _trap_R_SaveViewParms      1006d680 f   cg_syscalls.obj
 0001:0006c690       _trap_R_RestoreViewParms   1006d690 f   cg_syscalls.obj
 0001:0006c6a0       _trap_R_SetColor           1006d6a0 f   cg_syscalls.obj
 0001:0006c6c0       _trap_R_DrawStretchPic     1006d6c0 f   cg_syscalls.obj
 0001:0006c700       _trap_R_DrawRotatedPic     1006d700 f   cg_syscalls.obj
 0001:0006c740       _trap_R_Add2dPolys         1006d740 f   cg_syscalls.obj
 0001:0006c760       _trap_R_ModelBounds        1006d760 f   cg_syscalls.obj
 0001:0006c780       _trap_R_LerpTag            1006d780 f   cg_syscalls.obj
 0001:0006c7a0       _trap_R_RemapShader        1006d7a0 f   cg_syscalls.obj
 0001:0006c7c0       _trap_GetGlconfig          1006d7c0 f   cg_syscalls.obj
 0001:0006c7e0       _trap_GetGameState         1006d7e0 f   cg_syscalls.obj
 0001:0006c800       _trap_GetCurrentSnapshotNumber 1006d800 f   cg_syscalls.obj
 0001:0006c820       _trap_GetSnapshot          1006d820 f   cg_syscalls.obj
 0001:0006c840       _trap_GetServerCommand     1006d840 f   cg_syscalls.obj
 0001:0006c860       _trap_GetCurrentCmdNumber  1006d860 f   cg_syscalls.obj
 0001:0006c870       _trap_GetUserCmd           1006d870 f   cg_syscalls.obj
 0001:0006c890       _trap_SetUserCmdValue      1006d890 f   cg_syscalls.obj
 0001:0006c8b0       _trap_SetClientLerpOrigin  1006d8b0 f   cg_syscalls.obj
 0001:0006c8d0       _trap_Key_GetCatcher       1006d8d0 f   cg_syscalls.obj
 0001:0006c8e0       _trap_Key_GetOverstrikeMode 1006d8e0 f   cg_syscalls.obj
 0001:0006c8f0       _trap_Key_SetOverstrikeMode 1006d8f0 f   cg_syscalls.obj
 0001:0006c910       _trap_Key_KeysForBinding   1006d910 f   cg_syscalls.obj
 0001:0006c930       _trap_Key_SetCatcher       1006d930 f   cg_syscalls.obj
 0001:0006c950       _trap_PC_LoadSource        1006d950 f   cg_syscalls.obj
 0001:0006c970       _trap_PC_FreeSource        1006d970 f   cg_syscalls.obj
 0001:0006c990       _trap_PC_ReadToken         1006d990 f   cg_syscalls.obj
 0001:0006c9b0       _trap_PC_SourceFileAndLine 1006d9b0 f   cg_syscalls.obj
 0001:0006c9d0       _trap_S_StopBackgroundTrack 1006d9d0 f   cg_syscalls.obj
 0001:0006c9e0       _trap_RealTime             1006d9e0 f   cg_syscalls.obj
 0001:0006ca00       _trap_SnapVector           1006da00 f   cg_syscalls.obj
 0001:0006ca20       _trap_GetEntityToken       1006da20 f   cg_syscalls.obj
 0001:0006ca40       _trap_UI_Popup             1006da40 f   cg_syscalls.obj
 0001:0006ca60       _trap_Key_GetBindingBuf    1006da60 f   cg_syscalls.obj
 0001:0006ca80       _trap_Key_SetBinding       1006da80 f   cg_syscalls.obj
 0001:0006caa0       _trap_Key_KeynumToStringBuf 1006daa0 f   cg_syscalls.obj
 0001:0006cac0       _trap_TranslateString      1006dac0 f   cg_syscalls.obj
 0001:0006cae0       _trap_S_RegisterSound      1006dae0 f   cg_syscalls.obj
 0001:0006cb00       _trap_R_RegisterModel      1006db00 f   cg_syscalls.obj
 0001:0006cb20       _trap_R_RegisterSkin       1006db20 f   cg_syscalls.obj
 0001:0006cb40       _trap_R_RegisterShader     1006db40 f   cg_syscalls.obj
 0001:0006cb60       _trap_R_RegisterShaderNoMip 1006db60 f   cg_syscalls.obj
 0001:0006cb80       _trap_R_RegisterFont       1006db80 f   cg_syscalls.obj
 0001:0006cbb0       _trap_CM_LoadMap           1006dbb0 f   cg_syscalls.obj
 0001:0006cbd0       _trap_R_LoadWorldMap       1006dbd0 f   cg_syscalls.obj
 0001:0006cbf0       _trap_R_inPVS              1006dbf0 f   cg_syscalls.obj
 0001:0006cc10       _trap_GetHunkData          1006dc10 f   cg_syscalls.obj
 0001:0006cc30       _isET260                   1006dc30 f   cg_syscalls.obj
 0001:0006cc90       _trap_SendMessage          1006dc90 f   cg_syscalls.obj
 0001:0006ccb0       _CG_ClearTrails            1006dcb0 f   cg_trails.obj
 0001:0006cd20       _CG_SpawnTrailJunc         1006dd20 f   cg_trails.obj
 0001:0006cde0       _CG_AddTrailJunc           1006dde0 f   cg_trails.obj
 0001:0006cf60       _CG_AddSparkJunc           1006df60 f   cg_trails.obj
 0001:0006d070       _CG_AddSmokeJunc           1006e070 f   cg_trails.obj
 0001:0006d1a0       _CG_KillTrail              1006e1a0 f   cg_trails.obj
 0001:0006d1f0       _CG_AddTrailToScene        1006e1f0 f   cg_trails.obj
 0001:0006e240       _CG_FreeTrailJunc          1006f240 f   cg_trails.obj
 0001:0006e2e0       _CG_AddTrails              1006f2e0 f   cg_trails.obj
 0001:0006e500       _CG_Letterbox              1006f500 f   cg_view.obj
 0001:0006e660       _C_ViewlockTransition      1006f660 f   cg_view.obj
 0001:0006e8e0       _CG_OffsetThirdPersonView  1006f8e0 f   cg_view.obj
 0001:0006ec90       _CG_KickAngles             1006fc90 f   cg_view.obj
 0001:0006f7f0       _CG_AdjustZoomVal          100707f0 f   cg_view.obj
 0001:0006f860       _CG_ZoomIn_f               10070860 f   cg_view.obj
 0001:0006f8b0       _CG_ZoomOut_f              100708b0 f   cg_view.obj
 0001:0006f8f0       _CG_Zoom                   100708f0 f   cg_view.obj
 0001:0006fa10       _C_CalcFovy                10070a10 f   cg_view.obj
 0001:000701c0       _CG_CalcViewValues         100711c0 f   cg_view.obj
 0001:00070840       _CG_MustParse              10071840 f   cg_view.obj
 0001:00070870       _CG_ParseSkyBox            10071870 f   cg_view.obj
 0001:00070a20       _CG_ParseTagConnect        10071a20 f   cg_view.obj
 0001:00070ad0       _CG_DrawSkyBoxPortal       10071ad0 f   cg_view.obj
 0001:00070d40       _CG_SetupFrustum           10071d40 f   cg_view.obj
 0001:00070fc0       _CG_CullPoint              10071fc0 f   cg_view.obj
 0001:000710b0       _CG_CullPointAndRadius     100720b0 f   cg_view.obj
 0001:00071210       _CG_DrawActiveFrame        10072210 f   cg_view.obj
 0001:00071b70       _CG_ParseTagConnects       10072b70 f   cg_view.obj
 0001:00071c00       _AddLean                   10072c00 f   cg_weapons.obj
 0001:00071c70       _CG_MachineGunEjectBrassNew 10072c70 f   cg_weapons.obj
 0001:00071ff0       _CG_MachineGunEjectBrass   10072ff0 f   cg_weapons.obj
 0001:000724e0       _CG_PanzerFaustEjectBrass  100734e0 f   cg_weapons.obj
 0001:00072720       _CG_GetWindVector          10073720 f   cg_weapons.obj
 0001:00072790       _CG_PyroSmokeTrail         10073790 f   cg_weapons.obj
 0001:00072b30       _CG_RocketTrail            10073b30 f   cg_weapons.obj
 0001:00072f60       _CG_DynamiteTrail          10073f60 f   cg_weapons.obj
 0001:00073060       _CG_GrenadeTrail           10074060 f   cg_weapons.obj
 0001:000731e0       _CG_RailTrail2             100741e0 f   cg_weapons.obj
 0001:000732d0       _CG_RailTrail              100742d0 f   cg_weapons.obj
 0001:000734b0       _CG_ParseWeaponConfig      100744b0 f   cg_weapons.obj
 0001:00073700       _CG_RW_ParseError          10074700 f   cg_weapons.obj
 0001:00073770       _CG_RW_ParseWeaponLinkPart 10074770 f   cg_weapons.obj
 0001:00073a70       _CG_RW_ParseWeaponLink     10074a70 f   cg_weapons.obj
 0001:00073b60       _CG_RW_ParseViewType       10074b60 f   cg_weapons.obj
 0001:00073e90       _CG_RW_ParseModModel       10074e90 f   cg_weapons.obj
 0001:00073f80       _CG_RegisterItemVisuals    10074f80 f   cg_weapons.obj
 0001:00074020       _CG_GetPartFramesFromWeap  10075020 f   cg_weapons.obj
 0001:00074120       _CG_ClearWeapLerpFrame     10075120 f   cg_weapons.obj
 0001:00074a50       _CG_AddPlayerFoot          10075a50 f   cg_weapons.obj
 0001:00074c50       _CG_WeaponSelectable       10075c50 f   cg_weapons.obj
 0001:00074ca0       _CG_WeaponIndex            10075ca0 f   cg_weapons.obj
 0001:00074ed0       _CG_SetSniperZoom          10075ed0 f   cg_weapons.obj
 0001:00074fd0       _CG_PlaySwitchSound        10075fd0 f   cg_weapons.obj
 0001:00075090       _CG_FinishWeaponChange     10076090 f   cg_weapons.obj
 0001:00075340       _CG_AltWeapon_f            10076340 f   cg_weapons.obj
 0001:00075350       _CG_NextWeap               10076350 f   cg_weapons.obj
 0001:00075680       _CG_PrevWeap               10076680 f   cg_weapons.obj
 0001:00075980       _CG_LastWeaponUsed_f       10076980 f   cg_weapons.obj
 0001:00075a20       _CG_NextWeaponInBank_f     10076a20 f   cg_weapons.obj
 0001:00075a80       _CG_PrevWeaponInBank_f     10076a80 f   cg_weapons.obj
 0001:00075ae0       _CG_NextWeapon_f           10076ae0 f   cg_weapons.obj
 0001:00075b60       _CG_PrevWeapon_f           10076b60 f   cg_weapons.obj
 0001:00075be0       _CG_WeaponBank_f           10076be0 f   cg_weapons.obj
 0001:00075dc0       _CG_Weapon_f               10076dc0 f   cg_weapons.obj
 0001:00075e20       _ChooseWeapon              10076e20 f   cg_weapons.obj
 0001:00075eb0       _CG_OutOfAmmoChange        10076eb0 f   cg_weapons.obj
 0001:00076300       _CG_MG42EFX                10077300 f   cg_weapons.obj
 0001:00076470       _CG_MortarEFX              10077470 f   cg_weapons.obj
 0001:00076570       _CG_WeaponFireRecoil       10077570 f   cg_weapons.obj
 0001:000767d0       _CG_DrawHitBoxOnHit        100777d0 f   cg_weapons.obj
 0001:00076bb0       _CG_FireWeapon             10077bb0 f   cg_weapons.obj
 0001:00077060       _CG_AddSparks              10078060 f   cg_weapons.obj
 0001:00077260       _CG_AddBulletParticles     10078260 f   cg_weapons.obj
 0001:000773b0       _CG_AddDirtBulletParticles 100783b0 f   cg_weapons.obj
 0001:00077510       _CG_AddDebris              10078510 f   cg_weapons.obj
 0001:000777c0       _CG_WaterRipple            100787c0 f   cg_weapons.obj
 0001:00077870       _CG_MissileHitWall         10078870 f   cg_weapons.obj
 0001:00078bf0       _CG_MissileHitWallSmall    10079bf0 f   cg_weapons.obj
 0001:00078cf0       _CG_MissileHitPlayer       10079cf0 f   cg_weapons.obj
 0001:00078da0       _CG_SpawnTracer            10079da0 f   cg_weapons.obj
 0001:00078fb0       _CG_DrawTracer             10079fb0 f   cg_weapons.obj
 0001:000791a0       _CG_Tracer                 1007a1a0 f   cg_weapons.obj
 0001:000792d0       _CG_CalcMuzzlePoint        1007a2d0 f   cg_weapons.obj
 0001:00079780       _SnapVectorTowards         1007a780 f   cg_weapons.obj
 0001:00079830       _CG_BulletWhizz            1007a830 f   cg_weapons.obj
 0001:00079ac0       _CG_Bullet                 1007aac0 f   cg_weapons.obj
 0001:0007a840       _CG_BulletFire             1007b840 f   cg_weapons.obj
 0001:0007b2c0       _CG_CalcMuzzlePoints       1007c2c0 f   cg_weapons.obj
 0001:0007b460       _CG_AddPlayerWeapon        1007c460 f   cg_weapons.obj
 0001:0007d090       _CG_AddViewWeapon          1007e090 f   cg_weapons.obj
 0001:0007d840       _CG_windowInit             1007e840 f   cg_window.obj
 0001:0007d890       _CG_windowReset            1007e890 f   cg_window.obj
 0001:0007d990       _CG_windowAlloc            1007e990 f   cg_window.obj
 0001:0007da00       _CG_demoAviFPSDraw         1007ea00 f   cg_window.obj
 0001:0007da70       _CG_demoTimescaleDraw      1007ea70 f   cg_window.obj
 0001:0007db70       _CG_windowNormalizeOnText  1007eb70 f   cg_window.obj
 0001:0007dd00       _CG_initStrings            1007ed00 f   cg_window.obj
 0001:0007dd30       _CG_addString              1007ed30 f   cg_window.obj
 0001:0007de10       _CG_removeStrings          1007ee10 f   cg_window.obj
 0001:0007de80       _CG_createStatsWindow      1007ee80 f   cg_window.obj
 0001:0007df10       _CG_windowFree             1007ef10 f   cg_window.obj
 0001:0007dfd0       _CG_windowCleanup          1007efd0 f   cg_window.obj
 0001:0007e020       _CG_windowDraw             1007f020 f   cg_window.obj
 0001:0007e3d0       _CG_printWindow            1007f3d0 f   cg_window.obj
 0001:0007e4b0       _in_word_set               1007f4b0 f   g_match_tokens.obj
 0001:0007e520       _G_GetTokenForString       1007f520 f   g_strparse.obj
 0001:0007e560       _Q_rand                    1007f560 f   q_math.obj
 0001:0007e580       _Q_random                  1007f580 f   q_math.obj
 0001:0007e5b0       _Q_crandom                 1007f5b0 f   q_math.obj
 0001:0007e5e0       _ByteToDir2                1007f5e0 f   q_math.obj
 0001:0007e640       _vectoangles               1007f640 f   q_math.obj
 0001:0007e780       _AxisClear                 1007f780 f   q_math.obj
 0001:0007e7c0       _AxisCopy                  1007f7c0 f   q_math.obj
 0001:0007e800       _ProjectPointOnPlane       1007f800 f   q_math.obj
 0001:0007e8e0       _Q_rsqrt                   1007f8e0 f   q_math.obj
 0001:0007e930       _Q_fabs                    1007f930 f   q_math.obj
 0001:0007e950       _myftol                    1007f950 f   q_math.obj
 0001:0007e970       _LerpAngle                 1007f970 f   q_math.obj
 0001:0007e9f0       _AngleSubtract             1007f9f0 f   q_math.obj
 0001:0007ea60       _AnglesSubtract            1007fa60 f   q_math.obj
 0001:0007eab0       _AngleMod                  1007fab0 f   q_math.obj
 0001:0007eab0       _AngleNormalize360         1007fab0 f   q_math.obj
 0001:0007eae0       _AngleNormalizeInt         1007fae0 f   q_math.obj
 0001:0007eb10       _AngleNormalize180         1007fb10 f   q_math.obj
 0001:0007eb50       _AngleDelta                1007fb50 f   q_math.obj
 0001:0007eb70       _VectorCompare             1007fb70 f   q_math.obj
 0001:0007ebc0       _VectorNormalize           1007fbc0 f   q_math.obj
 0001:0007ec30       _VectorNormalizeFast       1007fc30 f   q_math.obj
 0001:0007ec90       _VectorNormalize2          1007fc90 f   q_math.obj
 0001:0007ed20       _CrossProduct              1007fd20 f   q_math.obj
 0001:0007ed60       _VectorLength              1007fd60 f   q_math.obj
 0001:0007ed90       _VectorLengthSquared       1007fd90 f   q_math.obj
 0001:0007edc0       _DistanceSquared           1007fdc0 f   q_math.obj
 0001:0007ee10       _VectorInverse             1007fe10 f   q_math.obj
 0001:0007ee50       _MatrixTranspose           1007fe50 f   q_math.obj
 0001:0007ee90       _AngleVectors              1007fe90 f   q_math.obj
 0001:0007f000       _PerpendicularVector       10080000 f   q_math.obj
 0001:0007f0c0       _GetPerpendicularViewVector 100800c0 f   q_math.obj
 0001:0007f140       _ProjectPointOntoVector    10080140 f   q_math.obj
 0001:0007f200       _Distance                  10080200 f   q_math.obj
 0001:0007f200       _VectorDistance            10080200 f   q_math.obj
 0001:0007f240       _VectorDistanceSquared     10080240 f   q_math.obj
 0001:0007f280       _rint                      10080280 f   q_math.obj
 0001:0007f2a0       _ByteToDir                 100802a0 f   q_math.obj
 0001:0007f300       _RotatePointAroundVector   10080300 f   q_math.obj
 0001:0007f630       _RotateAroundDirection     10080630 f   q_math.obj
 0001:0007f6a0       _AnglesToAxis              100806a0 f   q_math.obj
 0001:0007f6f0       _RadiusFromBounds          100806f0 f   q_math.obj
 0001:0007f770       _AxisToAngles              10080770 f   q_math.obj
 0001:0007f880       _COM_SkipPath              10080880 f   q_shared.obj
 0001:0007f8b0       _COM_BitCheck              100808b0 f   q_shared.obj
 0001:0007f8e0       _COM_BitSet                100808e0 f   q_shared.obj
 0001:0007f910       _COM_BitClear              10080910 f   q_shared.obj
 0001:0007f940       _COM_BackupParseSession    10080940 f   q_shared.obj
 0001:0007f960       _COM_RestoreParseSession   10080960 f   q_shared.obj
 0001:0007f980       _COM_GetCurrentParseLine   10080980 f   q_shared.obj
 0001:0007f9d0       _COM_ParseExt              100809d0 f   q_shared.obj
 0001:0007fba0       _Q_strncpyz                10080ba0 f   q_shared.obj
 0001:0007fbf0       _Q_stricmpn                10080bf0 f   q_shared.obj
 0001:0007fc50       _Q_strncmp                 10080c50 f   q_shared.obj
 0001:0007fc90       _Q_stricmp                 10080c90 f   q_shared.obj
 0001:0007fcc0       _Q_strlwr                  10080cc0 f   q_shared.obj
 0001:0007fcf0       _Q_strupr                  10080cf0 f   q_shared.obj
 0001:0007fd20       _Q_strCapitalize           10080d20 f   q_shared.obj
 0001:0007fd50       _Q_strcat                  10080d50 f   q_shared.obj
 0001:0007fda0       _Q_CleanStr                10080da0 f   q_shared.obj
 0001:0007fdf0       _Q_isBadDirChar            10080df0 f   q_shared.obj
 0001:0007fe40       _Q_CleanDirName            10080e40 f   q_shared.obj
 0001:0007fe90       _Com_sprintf               10080e90 f   q_shared.obj
 0001:0007fed0       _va                        10080ed0 f   q_shared.obj
 0001:0007ff60       _tv                        10080f60 f   q_shared.obj
 0001:0007ffa0       _Info_ValueForKey          10080fa0 f   q_shared.obj
 0001:000800a0       _Info_NextPair             100810a0 f   q_shared.obj
 0001:00080120       _COM_StripExtensionSafe    10081120 f   q_shared.obj
 0001:00080170       _COM_StripFilename         10081170 f   q_shared.obj
 0001:000801b0       _COM_BeginParseSession     100811b0 f   q_shared.obj
 0001:000801e0       _COM_Parse                 100811e0 f   q_shared.obj
 0001:00080200       _RestoreYcoords            10081200 f   ui_shared.obj
 0001:00080290       _BackupYcoords             10081290 f   ui_shared.obj
 0001:00080310       _Tooltip_Initialize        10081310 f   ui_shared.obj
 0001:000803f0       _Tooltip_ComputePosition   100813f0 f   ui_shared.obj
 0001:00080510       _UI_Alloc                  10081510 f   ui_shared.obj
 0001:00080570       _UI_InitMemory             10081570 f   ui_shared.obj
 0001:000805c0       _String_Alloc              100815c0 f   ui_shared.obj
 0001:000806c0       _LerpColor                 100816c0 f   ui_shared.obj
 0001:000807d0       _Float_Parse               100817d0 f   ui_shared.obj
 0001:00080810       _Color_Parse               10081810 f   ui_shared.obj
 0001:00080860       _Int_Parse                 10081860 f   ui_shared.obj
 0001:000808a0       _Rect_Parse                100818a0 f   ui_shared.obj
 0001:00080900       _String_Parse              10081900 f   ui_shared.obj
 0001:00080940       _PC_Char_Parse             10081940 f   ui_shared.obj
 0001:00080980       _PC_Script_Parse           10081980 f   ui_shared.obj
 0001:00080ab0       _Init_Display              10081ab0 f   ui_shared.obj
 0001:00080ac0       _GradientBar_Paint         10081ac0 f   ui_shared.obj
 0001:00080b20       _Window_Init               10081b20 f   ui_shared.obj
 0001:00080b70       _Fade                      10081b70 f   ui_shared.obj
 0001:00080bf0       _Window_Paint              10081bf0 f   ui_shared.obj
 0001:00081070       _Item_SetScreenCoords      10082070 f   ui_shared.obj
 0001:00081120       _Item_UpdatePosition       10082120 f   ui_shared.obj
 0001:00081150       _Menu_ItemsMatchingGroup   10082150 f   ui_shared.obj
 0001:00081210       _Menu_GetMatchingItemByNumber 10082210 f   ui_shared.obj
 0001:00081310       _Script_SetColor           10082310 f   ui_shared.obj
 0001:000813e0       _Script_SetAsset           100823e0 f   ui_shared.obj
 0001:00081400       _Script_SetBackground      10082400 f   ui_shared.obj
 0001:00081440       _Menu_FindItemByName       10082440 f   ui_shared.obj
 0001:000814a0       _Script_SetTeamColor       100824a0 f   ui_shared.obj
 0001:00081500       _Script_SetItemColor       10082500 f   ui_shared.obj
 0001:00081620       _Menu_FadeItemByName       10082620 f   ui_shared.obj
 0001:00081680       _Menus_FindByName          10082680 f   ui_shared.obj
 0001:000816d0       _Script_FadeIn             100826d0 f   ui_shared.obj
 0001:00081710       _Script_FadeOut            10082710 f   ui_shared.obj
 0001:00081750       _Menu_FadeMenuByName       10082750 f   ui_shared.obj
 0001:000817b0       _Script_FadeInMenu         100827b0 f   ui_shared.obj
 0001:000817f0       _Script_FadeOutMenu        100827f0 f   ui_shared.obj
 0001:00081830       _Menu_TransitionItemByName 10082830 f   ui_shared.obj
 0001:00081940       _Script_Transition         10082940 f   ui_shared.obj
 0001:00081a20       _Menu_OrbitItemByName      10082a20 f   ui_shared.obj
 0001:00081aa0       _Script_Orbit              10082aa0 f   ui_shared.obj
 0001:00081b80       _Script_SetPlayerModel     10082b80 f   ui_shared.obj
 0001:00081bc0       _Script_SetPlayerHead      10082bc0 f   ui_shared.obj
 0001:00081c00       _Script_ClearCvar          10082c00 f   ui_shared.obj
 0001:00081c40       _Script_SetCvar            10082c40 f   ui_shared.obj
 0001:00081c90       _Script_ToggleCvarBit      10082c90 f   ui_shared.obj
 0001:00081d20       _Script_CopyCvar           10082d20 f   ui_shared.obj
 0001:00081d90       _Script_Exec               10082d90 f   ui_shared.obj
 0001:00081de0       _Script_ExecNOW            10082de0 f   ui_shared.obj
 0001:00081e30       _Script_Play               10082e30 f   ui_shared.obj
 0001:00081e80       _Script_playLooped         10082e80 f   ui_shared.obj
 0001:00081ed0       _Script_AddListItem        10082ed0 f   ui_shared.obj
 0001:00081f80       _Script_CheckAutoUpdate    10082f80 f   ui_shared.obj
 0001:00081f90       _Script_GetAutoUpdate      10082f90 f   ui_shared.obj
 0001:00081fa0       _FileExists                10082fa0 f   ui_shared.obj
 0001:00081ff0       _Script_CheckProfile       10082ff0 f   ui_shared.obj
 0001:00082090       _Script_WriteProfile       10083090 f   ui_shared.obj
 0001:00082140       _Script_ExecWolfConfig     10083140 f   ui_shared.obj
 0001:00082350       _Script_Abort              10083350 f   ui_shared.obj
 0001:00082360       _Item_RunScript            10083360 f   ui_shared.obj
 0001:00082480       _Item_EnableShowViaCvar    10083480 f   ui_shared.obj
 0001:000825c0       _Item_SettingShow          100835c0 f   ui_shared.obj
 0001:00082680       _Item_ListBox_MaxScroll    10083680 f   ui_shared.obj
 0001:000826e0       _Item_ListBox_ThumbPosition 100836e0 f   ui_shared.obj
 0001:000827b0       _Item_ListBox_ThumbDrawPosition 100837b0 f   ui_shared.obj
 0001:000828b0       _Item_Slider_ThumbPosition 100838b0 f   ui_shared.obj
 0001:00082980       _Item_MouseLeave           10083980 f   ui_shared.obj
 0001:000829d0       _Item_SetMouseOver         100839d0 f   ui_shared.obj
 0001:000829f0       _Item_Multi_Setting        100839f0 f   ui_shared.obj
 0001:00082b90       _Menus_Activate            10083b90 f   ui_shared.obj
 0001:00082cb0       _ToWindowCoords            10083cb0 f   ui_shared.obj
 0001:00082cd0       _Item_SetTextExtents       10083cd0 f   ui_shared.obj
 0001:00082ed0       _Item_TextColor            10083ed0 f   ui_shared.obj
 0001:000830d0       _Item_Text_AutoWrapped_Paint 100840d0 f   ui_shared.obj
 0001:00083300       _Item_Text_Wrapped_Paint   10084300 f   ui_shared.obj
 0001:00083480       _Controls_GetConfig        10084480 f   ui_shared.obj
 0001:000834c0       _BindingFromName           100844c0 f   ui_shared.obj
 0001:000835a0       _AdjustFrom640             100845a0 f   ui_shared.obj
 0001:00083630       _Item_Model_Paint          10084630 f   ui_shared.obj
 0001:00083960       _Item_ListBox_Paint        10084960 f   ui_shared.obj
 0001:00084260       _Menu_GetFocused           10085260 f   ui_shared.obj
 0001:000842a0       _Menus_ActivateByName      100852a0 f   ui_shared.obj
 0001:00084360       _Item_Init                 10085360 f   ui_shared.obj
 0001:000843b0       _Item_ValidateTypeData     100853b0 f   ui_shared.obj
 0001:000844a0       _Item_ValidateTooltipData  100854a0 f   ui_shared.obj
 0001:000844f0       _KeywordHash_Key           100854f0 f   ui_shared.obj
 0001:00084540       _KeywordHash_Add           10085540 f   ui_shared.obj
 0001:00084570       _KeywordHash_Find          10085570 f   ui_shared.obj
 0001:000845c0       _ItemParse_name            100855c0 f   ui_shared.obj
 0001:000845c0       _MenuParse_name            100855c0 f   ui_shared.obj
 0001:000845e0       _ItemParse_focusSound      100855e0 f   ui_shared.obj
 0001:00084630       _ItemParse_text            10085630 f   ui_shared.obj
 0001:00084650       _ItemParse_textfile        10085650 f   ui_shared.obj
 0001:000846b0       _ItemParse_group           100856b0 f   ui_shared.obj
 0001:000846d0       _ItemParse_asset_model     100856d0 f   ui_shared.obj
 0001:00084730       _ItemParse_asset_shader    10085730 f   ui_shared.obj
 0001:00084780       _ItemParse_model_origin    10085780 f   ui_shared.obj
 0001:000847e0       _ItemParse_model_rotation  100857e0 f   ui_shared.obj
 0001:00084810       _ItemParse_model_angle     10085810 f   ui_shared.obj
 0001:00084840       _ItemParse_model_animplay  10085840 f   ui_shared.obj
 0001:000848e0       _ItemParse_origin          100858e0 f   ui_shared.obj
 0001:00084940       _ItemParse_style           10085940 f   ui_shared.obj
 0001:00084960       _ItemParse_decoration      10085960 f   ui_shared.obj
 0001:00084980       _ItemParse_textasint       10085980 f   ui_shared.obj
 0001:000849a0       _ItemParse_textasfloat     100859a0 f   ui_shared.obj
 0001:000849c0       _ItemParse_notselectable   100859c0 f   ui_shared.obj
 0001:00084a00       _ItemParse_wrapped         10085a00 f   ui_shared.obj
 0001:00084a20       _ItemParse_autowrapped     10085a20 f   ui_shared.obj
 0001:00084a40       _ItemParse_bitflag         10085a40 f   ui_shared.obj
 0001:00084a60       _ItemParse_horizontalscroll 10085a60 f   ui_shared.obj
 0001:00084a80       _ItemParse_type            10085a80 f   ui_shared.obj
 0001:00084ac0       _ItemParse_model_fovx      10085ac0 f   ui_shared.obj
 0001:00084ac0       _ItemParse_elementwidth    10085ac0 f   ui_shared.obj
 0001:00084af0       _ItemParse_model_fovy      10085af0 f   ui_shared.obj
 0001:00084af0       _ItemParse_elementheight   10085af0 f   ui_shared.obj
 0001:00084b20       _ItemParse_elementtype     10085b20 f   ui_shared.obj
 0001:00084b60       _ItemParse_columns         10085b60 f   ui_shared.obj
 0001:00084c30       _ItemParse_bordersize      10085c30 f   ui_shared.obj
 0001:00084c30       _MenuParse_borderSize      10085c30 f   ui_shared.obj
 0001:00084c50       _ItemParse_visible         10085c50 f   ui_shared.obj
 0001:00084c50       _MenuParse_visible         10085c50 f   ui_shared.obj
 0001:00084c90       _ItemParse_ownerdraw       10085c90 f   ui_shared.obj
 0001:00084cc0       _ItemParse_textalign       10085cc0 f   ui_shared.obj
 0001:00084ce0       _ItemParse_textaligny      10085ce0 f   ui_shared.obj
 0001:00084d00       _ItemParse_textscale       10085d00 f   ui_shared.obj
 0001:00084d20       _ItemParse_textstyle       10085d20 f   ui_shared.obj
 0001:00084d40       _ItemParse_textfont        10085d40 f   ui_shared.obj
 0001:00084d60       _ItemParse_doubleClick     10085d60 f   ui_shared.obj
 0001:00084da0       _ItemParse_onEsc           10085da0 f   ui_shared.obj
 0001:00084dc0       _ItemParse_onEnter         10085dc0 f   ui_shared.obj
 0001:00084de0       _ItemParse_contextMenu     10085de0 f   ui_shared.obj
 0001:00084e20       _ItemParse_onFocus         10085e20 f   ui_shared.obj
 0001:00084e40       _ItemParse_leaveFocus      10085e40 f   ui_shared.obj
 0001:00084e60       _ItemParse_mouseEnter      10085e60 f   ui_shared.obj
 0001:00084e80       _ItemParse_mouseExit       10085e80 f   ui_shared.obj
 0001:00084ea0       _ItemParse_mouseEnterText  10085ea0 f   ui_shared.obj
 0001:00084ec0       _ItemParse_mouseExitText   10085ec0 f   ui_shared.obj
 0001:00084ee0       _ItemParse_action          10085ee0 f   ui_shared.obj
 0001:00084f00       _ItemParse_accept          10085f00 f   ui_shared.obj
 0001:00084f20       _ItemParse_feeder          10085f20 f   ui_shared.obj
 0001:00084f20       _ItemParse_special         10085f20 f   ui_shared.obj
 0001:00084f40       _ItemParse_cvarTest        10085f40 f   ui_shared.obj
 0001:00084f60       _ItemParse_cvar            10085f60 f   ui_shared.obj
 0001:00084fc0       _ItemParse_maxChars        10085fc0 f   ui_shared.obj
 0001:00085020       _ItemParse_maxPaintChars   10086020 f   ui_shared.obj
 0001:00085080       _ItemParse_cvarFloat       10086080 f   ui_shared.obj
 0001:00085100       _ItemParse_cvarStrList     10086100 f   ui_shared.obj
 0001:00085230       _ItemParse_cvarFloatList   10086230 f   ui_shared.obj
 0001:00085330       _ItemParse_cvarListUndefined 10086330 f   ui_shared.obj
 0001:000853a0       _ParseColorRange           100863a0 f   ui_shared.obj
 0001:00085460       _ItemParse_addColorRangeRel 10086460 f   ui_shared.obj
 0001:00085480       _ItemParse_addColorRange   10086480 f   ui_shared.obj
 0001:000854a0       _ItemParse_enableCvar      100864a0 f   ui_shared.obj
 0001:000854e0       _ItemParse_disableCvar     100864e0 f   ui_shared.obj
 0001:00085520       _ItemParse_noToggle        10086520 f   ui_shared.obj
 0001:00085540       _ItemParse_showCvar        10086540 f   ui_shared.obj
 0001:00085580       _ItemParse_hideCvar        10086580 f   ui_shared.obj
 0001:000855c0       _ItemParse_execKey         100865c0 f   ui_shared.obj
 0001:00085610       _ItemParse_settingDisabled 10086610 f   ui_shared.obj
 0001:00085640       _ItemParse_settingEnabled  10086640 f   ui_shared.obj
 0001:00085670       _ItemParse_tooltip         10086670 f   ui_shared.obj
 0001:000856b0       _ItemParse_tooltipalignx   100866b0 f   ui_shared.obj
 0001:000856f0       _ItemParse_tooltipaligny   100866f0 f   ui_shared.obj
 0001:00085730       _ItemParse_voteFlag        10086730 f   ui_shared.obj
 0001:00085750       _Item_SetupKeywordHash     10086750 f   ui_shared.obj
 0001:000857a0       _Item_Parse                100867a0 f   ui_shared.obj
 0001:00085890       _Item_InitControls         10086890 f   ui_shared.obj
 0001:000858d0       _MenuParse_fullscreen      100868d0 f   ui_shared.obj
 0001:000858f0       _MenuParse_style           100868f0 f   ui_shared.obj
 0001:00085940       _MenuParse_onOpen          10086940 f   ui_shared.obj
 0001:00085960       _MenuParse_onClose         10086960 f   ui_shared.obj
 0001:00085980       _MenuParse_onESC           10086980 f   ui_shared.obj
 0001:000859a0       _MenuParse_onEnter         100869a0 f   ui_shared.obj
 0001:000859c0       _MenuParse_onTimeout       100869c0 f   ui_shared.obj
 0001:00085a00       _ItemParse_border          10086a00 f   ui_shared.obj
 0001:00085a00       _MenuParse_border          10086a00 f   ui_shared.obj
 0001:00085a20       _MenuParse_backcolor       10086a20 f   ui_shared.obj
 0001:00085a20       _ItemParse_backcolor       10086a20 f   ui_shared.obj
 0001:00085a80       _ItemParse_forecolor       10086a80 f   ui_shared.obj
 0001:00085a80       _MenuParse_forecolor       10086a80 f   ui_shared.obj
 0001:00085ae0       _ItemParse_bordercolor     10086ae0 f   ui_shared.obj
 0001:00085ae0       _MenuParse_bordercolor     10086ae0 f   ui_shared.obj
 0001:00085b40       _MenuParse_focuscolor      10086b40 f   ui_shared.obj
 0001:00085bb0       _MenuParse_disablecolor    10086bb0 f   ui_shared.obj
 0001:00085c10       _MenuParse_outlinecolor    10086c10 f   ui_shared.obj
 0001:00085c10       _ItemParse_outlinecolor    10086c10 f   ui_shared.obj
 0001:00085c30       _MenuParse_background      10086c30 f   ui_shared.obj
 0001:00085c30       _ItemParse_background      10086c30 f   ui_shared.obj
 0001:00085c80       _ItemParse_cinematic       10086c80 f   ui_shared.obj
 0001:00085c80       _MenuParse_cinematic       10086c80 f   ui_shared.obj
 0001:00085ca0       _MenuParse_ownerdrawFlag   10086ca0 f   ui_shared.obj
 0001:00085ca0       _ItemParse_ownerdrawFlag   10086ca0 f   ui_shared.obj
 0001:00085ce0       _MenuParse_ownerdraw       10086ce0 f   ui_shared.obj
 0001:00085d00       _MenuParse_popup           10086d00 f   ui_shared.obj
 0001:00085d20       _MenuParse_outOfBounds     10086d20 f   ui_shared.obj
 0001:00085d40       _MenuParse_soundLoop       10086d40 f   ui_shared.obj
 0001:00085d60       _MenuParse_fadeClamp       10086d60 f   ui_shared.obj
 0001:00085d80       _MenuParse_fadeAmount      10086d80 f   ui_shared.obj
 0001:00085d80       _ItemParse_textalignx      10086d80 f   ui_shared.obj
 0001:00085da0       _ItemParse_align           10086da0 f   ui_shared.obj
 0001:00085da0       _MenuParse_fadeCycle       10086da0 f   ui_shared.obj
 0001:00085dc0       _MenuParse_itemDef         10086dc0 f   ui_shared.obj
 0001:00085eb0       _MenuParse_execKey         10086eb0 f   ui_shared.obj
 0001:00085f00       _MenuParse_execKeyInt      10086f00 f   ui_shared.obj
 0001:00085f50       _MenuParse_drawAlwaysOnTop 10086f50 f   ui_shared.obj
 0001:00085f70       _MenuParse_itemHotkeyMode  10086f70 f   ui_shared.obj
 0001:00085f90       _MenuParse_modal           10086f90 f   ui_shared.obj
 0001:00085fb0       _Menu_SetupKeywordHash     10086fb0 f   ui_shared.obj
 0001:00086000       _Menu_Reset                10087000 f   ui_shared.obj
 0001:00086010       _PC_Rect_Parse             10087010 f   ui_shared.obj
 0001:00086070       _BG_RectContainsPoint      10087070 f   ui_shared.obj
 0001:000860b0       _BG_CursorInRect           100870b0 f   ui_shared.obj
 0001:00086110       _BG_PanelButtonsSetup      10087110 f   ui_shared.obj
 0001:00086140       _C_PanelButtonsSetup       10087140 f   ui_shared.obj
 0001:00086180       _BG_PanelButtonsGetHighlightButton 10087180 f   ui_shared.obj
 0001:000861c0       _BG_PanelButtonsRender     100871c0 f   ui_shared.obj
 0001:000861f0       _BG_PanelButtonsRender_TextExt 100871f0 f   ui_shared.obj
 0001:00086390       _BG_PanelButtonsRender_Text 10087390 f   ui_shared.obj
 0001:000863b0       _BG_PanelButtonsRender_Img 100873b0 f   ui_shared.obj
 0001:00086490       _BG_PanelButtons_GetFocusButton 10087490 f   ui_shared.obj
 0001:000864a0       _BG_PanelButtons_SetFocusButton 100874a0 f   ui_shared.obj
 0001:000864b0       _BG_FitTextToWidth_Ext     100874b0 f   ui_shared.obj
 0001:00086590       _String_Init               10087590 f   ui_shared.obj
 0001:000865f0       _Menu_ClearFocus           100875f0 f   ui_shared.obj
 0001:00086680       _Script_SetMenuItemColor   10087680 f   ui_shared.obj
 0001:000867c0       _Menu_ShowItemByName       100877c0 f   ui_shared.obj
 0001:00086850       _Menus_OpenByName          10087850 f   ui_shared.obj
 0001:000868b0       _Menus_CloseByName         100878b0 f   ui_shared.obj
 0001:00086970       _Menus_CloseAll            10087970 f   ui_shared.obj
 0001:000869a0       _Script_Show               100879a0 f   ui_shared.obj
 0001:000869e0       _Script_Hide               100879e0 f   ui_shared.obj
 0001:00086a20       _Script_Open               10087a20 f   ui_shared.obj
 0001:00086a50       _Script_ConditionalOpen    10087a50 f   ui_shared.obj
 0001:00086b30       _Script_ConditionalScript  10087b30 f   ui_shared.obj
 0001:000873f0       _Script_Close              100883f0 f   ui_shared.obj
 0001:00087420       _Script_CloseAll           10088420 f   ui_shared.obj
 0001:00087430       _Script_CloseAllOtherMenus 10088430 f   ui_shared.obj
 0001:00087480       _Script_SetFocus           10088480 f   ui_shared.obj
 0001:00087510       _Script_ClearFocus         10088510 f   ui_shared.obj
 0001:00087530       _Script_SetMenuFocus       10088530 f   ui_shared.obj
 0001:00087580       _Script_SetEditFocus       10088580 f   ui_shared.obj
 0001:00087650       _Item_Text_Paint           10088650 f   ui_shared.obj
 0001:00087980       _Item_TextField_Paint      10088980 f   ui_shared.obj
 0001:00087c40       _Item_CheckBox_Paint       10088c40 f   ui_shared.obj
 0001:00087f40       _Item_YesNo_Paint          10088f40 f   ui_shared.obj
 0001:00088140       _Item_Multi_Paint          10089140 f   ui_shared.obj
 0001:000882d0       _Item_Slider_Paint         100892d0 f   ui_shared.obj
 0001:000884a0       _Item_Bind_Paint           100894a0 f   ui_shared.obj
 0001:00088710       _Item_OwnerDraw_Paint      10089710 f   ui_shared.obj
 0001:00088b20       _Item_Paint                10089b20 f   ui_shared.obj
 0001:00088fd0       _Menu_Paint                10089fd0 f   ui_shared.obj
 0001:000894c0       _ItemParse_rect            1008a4c0 f   ui_shared.obj
 0001:000894e0       _MenuParse_rect            1008a4e0 f   ui_shared.obj
 0001:00089500       _Menu_PaintAll             1008a500 f   ui_shared.obj
 0001:00089670       _BG_PanelButton_RenderEdit 1008a670 f   ui_shared.obj
 0001:000898d0       _BG_PanelButton_EditClick  1008a8d0 f   ui_shared.obj
 0001:00089ab0       _BG_PanelButtonsKeyEvent   1008aab0 f   ui_shared.obj
 0001:00089bae       _GetModuleBaseNameA@16     1008abae f   psapi:PSAPI.DLL
 0001:00089bc0       _memset                    1008abc0 f   LIBCMT:memset.obj
 0001:00089c40       _strstr                    1008ac40 f   LIBCMT:strstr.obj
 0001:00089cc6       _atol                      1008acc6 f   LIBCMT:atox.obj
 0001:00089cdc       _atoi                      1008acdc f   LIBCMT:atox.obj
 0001:00089ce7       _rand                      1008ace7 f   LIBCMT:rand.obj
 0001:00089d08       __cfltcvt_init             1008ad08 f   LIBCMT:_fpinit_.obj
 0001:00089d68       __fpmath                   1008ad68 f   LIBCMT:_fpinit_.obj
 0001:00089d90       __ftol2_sse                1008ad90 f   LIBCMT:ftol2.obj
 0001:00089d99       __ftol2_pentium4           1008ad99 f   LIBCMT:ftol2.obj
 0001:00089dac       __ftol2_sse_excpt          1008adac f   LIBCMT:ftol2.obj
 0001:00089dc6       __ftol2                    1008adc6 f   LIBCMT:ftol2.obj
 0001:00089e3b       ??0_LocaleUpdate@@QAE@PAUlocaleinfo_struct@@@Z 1008ae3b f i LIBCMT:tolower.obj
 0001:00089ec2       __tolower_l                1008aec2 f   LIBCMT:tolower.obj
 0001:00089fd7       _tolower                   1008afd7 f   LIBCMT:tolower.obj
 0001:0008a010       __CIsqrt                   1008b010 f   LIBCMT:_sqrt_.obj
 0001:0008a024       _sqrt                      1008b024     LIBCMT:_sqrt_.obj
 0001:0008a0d0       _floor                     1008b0d0 f   LIBCMT:_floor_pentium4_.obj
 0001:0008a110       __floor_pentium4           1008b110 f   LIBCMT:_floor_pentium4_.obj
 0001:0008a200       _cos                       1008b200 f   LIBCMT:_cos_.obj
 0001:0008a240       __CIcos                    1008b240 f   LIBCMT:_cos_.obj
 0001:0008a27b       __CIcos_default            1008b27b f   LIBCMT:_cos_.obj
 0001:0008a28f       __cos_default              1008b28f     LIBCMT:_cos_.obj
 0001:0008a329       __vsnprintf_l              1008b329 f   LIBCMT:vsnprint.obj
 0001:0008a3d5       __vsnprintf                1008b3d5 f   LIBCMT:vsnprint.obj
 0001:0008a400       _sin                       1008b400 f   LIBCMT:_sin_.obj
 0001:0008a440       __CIsin                    1008b440 f   LIBCMT:_sin_.obj
 0001:0008a47b       __CIsin_default            1008b47b f   LIBCMT:_sin_.obj
 0001:0008a48f       __sin_default              1008b48f     LIBCMT:_sin_.obj
 0001:0008a530       _memcpy                    1008b530 f   LIBCMT:memcpy.obj
 0001:0008a891       __atof_l                   1008b891 f   LIBCMT:atof.obj
 0001:0008a93c       _atof                      1008b93c f   LIBCMT:atof.obj
 0001:0008a950       __chkstk                   1008b950 f   LIBCMT:chkstk.obj
 0001:0008a950       __alloca_probe             1008b950     LIBCMT:chkstk.obj
 0001:0008a97b       _fputs                     1008b97b f   LIBCMT:fputs.obj
 0001:0008aa81       __fclose_nolock            1008ba81 f   LIBCMT:fclose.obj
 0001:0008aaee       _fclose                    1008baee f   LIBCMT:fclose.obj
 0001:0008ab62       __fsopen                   1008bb62 f   LIBCMT:fopen.obj
 0001:0008ac1e       _fopen                     1008bc1e f   LIBCMT:fopen.obj
 0001:0008ac50       _strchr                    1008bc50 f   LIBCMT:strchr.obj
 0001:0008ac56       ___from_strstr_to_strchr   1008bc56     LIBCMT:strchr.obj
 0001:0008ada0       _qsort                     1008bda0 f   LIBCMT:qsort.obj
 0001:0008b030       _atan2                     1008c030 f   LIBCMT:_87ctriga_.obj
 0001:0008b03a       __CIatan2                  1008c03a f   LIBCMT:_87ctriga_.obj
 0001:0008b050       _tan                       1008c050 f   LIBCMT:_tan_.obj
 0001:0008b090       __CItan                    1008c090 f   LIBCMT:_tan_.obj
 0001:0008b0cb       __CItan_default            1008c0cb f   LIBCMT:_tan_.obj
 0001:0008b0df       __tan_default              1008c0df     LIBCMT:_tan_.obj
 0001:0008b180       _pow                       1008c180 f   LIBCMT:_pow_.obj
 0001:0008b1c0       __CIpow                    1008c1c0 f   LIBCMT:_pow_.obj
 0001:0008b1fb       __CIpow_default            1008c1fb f   LIBCMT:_pow_.obj
 0001:0008b214       __pow_default              1008c214     LIBCMT:_pow_.obj
 0001:0008b478       _sscanf                    1008c478 f   LIBCMT:sscanf.obj
 0001:0008b49a       __toupper_l                1008c49a f   LIBCMT:toupper.obj
 0001:0008b5b0       _toupper                   1008c5b0 f   LIBCMT:toupper.obj
 0001:0008b5dc       __localtime64_s            1008c5dc f   LIBCMT:loctim64.obj
 0001:0008b864       __localtime64              1008c864 f   LIBCMT:loctim64.obj
 0001:0008b88b       __time64                   1008c88b f   LIBCMT:time64.obj
 0001:0008b8dc       _strtok                    1008c8dc f   LIBCMT:strtok.obj
 0001:0008b999       __flush                    1008c999 f   LIBCMT:fflush.obj
 0001:0008ba01       __fflush_nolock            1008ca01 f   LIBCMT:fflush.obj
 0001:0008bb23       _fflush                    1008cb23 f   LIBCMT:fflush.obj
 0001:0008bb76       __flushall                 1008cb76 f   LIBCMT:fflush.obj
 0001:0008bb7f       ___iob_func                1008cb7f f   LIBCMT:_file.obj
 0001:0008bb85       ___initstdio               1008cb85 f   LIBCMT:_file.obj
 0001:0008bc36       ___endstdio                1008cc36 f   LIBCMT:_file.obj
 0001:0008bc56       __lock_file                1008cc56 f   LIBCMT:_file.obj
 0001:0008bc97       __lock_file2               1008cc97 f   LIBCMT:_file.obj
 0001:0008bcc9       __unlock_file              1008ccc9 f   LIBCMT:_file.obj
 0001:0008bd05       __unlock_file2             1008cd05 f   LIBCMT:_file.obj
 0001:0008bd40       _strncpy                   1008cd40 f   LIBCMT:strncpy.obj
 0001:0008be70       _strncat                   1008ce70 f   LIBCMT:strncat.obj
 0001:0008bfa5       ___crtCorExitProcess       1008cfa5 f   LIBCMT:crt0dat.obj
 0001:0008bfd0       ___crtExitProcess          1008cfd0 f   LIBCMT:crt0dat.obj
 0001:0008bfe8       __lockexit                 1008cfe8 f   LIBCMT:crt0dat.obj
 0001:0008bff1       __unlockexit               1008cff1 f   LIBCMT:crt0dat.obj
 0001:0008bffa       __init_pointers            1008cffa f   LIBCMT:crt0dat.obj
 0001:0008c02d       __initterm_e               1008d02d f   LIBCMT:crt0dat.obj
 0001:0008c051       __cinit                    1008d051 f   LIBCMT:crt0dat.obj
 0001:0008c228       _exit                      1008d228 f   LIBCMT:crt0dat.obj
 0001:0008c23e       __exit                     1008d23e f   LIBCMT:crt0dat.obj
 0001:0008c254       __cexit                    1008d254 f   LIBCMT:crt0dat.obj
 0001:0008c263       __amsg_exit                1008d263 f   LIBCMT:crt0dat.obj
 0001:0008c290       _ceil                      1008d290 f   LIBCMT:_ceil_pentium4_.obj
 0001:0008c2d0       __ceil_pentium4            1008d2d0 f   LIBCMT:_ceil_pentium4_.obj
 0001:0008c3b0       _atan                      1008d3b0 f   LIBCMT:_atan_.obj
 0001:0008c3f0       __CIatan                   1008d3f0 f   LIBCMT:_atan_.obj
 0001:0008c42b       __CIatan_default           1008d42b f   LIBCMT:_atan_.obj
 0001:0008c43f       __atan_default             1008d43f     LIBCMT:_atan_.obj
 0001:0008c4ca       __vsprintf_l               1008d4ca f   LIBCMT:vsprintf.obj
 0001:0008c54e       _vsprintf                  1008d54e f   LIBCMT:vsprintf.obj
 0001:0008c570       _memmove                   1008d570 f   LIBCMT:memmove.obj
 0001:0008c8d1       __CRT_INIT@12              1008d8d1 f   LIBCMT:dllcrt0.obj
 0001:0008cb2b       __DllMainCRTStartup@12     1008db2b f   LIBCMT:dllcrt0.obj
 0001:0008cb4e       __VEC_memzero              1008db4e f   LIBCMT:p4_memset.obj
 0001:0008cc08       ___sse2_available_init     1008dc08 f   LIBCMT:cpu_disp.obj
 0001:0008ce43       _strtol                    1008de43 f   LIBCMT:strtol.obj
 0001:0008ce6e       __encoded_null             1008de6e f   LIBCMT:tidtable.obj
 0001:0008ce77       ___crtTlsAlloc@4           1008de77 f   LIBCMT:tidtable.obj
 0001:0008ce80       ___set_flsgetvalue         1008de80 f   LIBCMT:tidtable.obj
 0001:0008ceb4       __mtterm                   1008deb4 f   LIBCMT:tidtable.obj
 0001:0008cef1       __initptd                  1008def1 f   LIBCMT:tidtable.obj
 0001:0008cfa8       __getptd_noexit            1008dfa8 f   LIBCMT:tidtable.obj
 0001:0008d021       __getptd                   1008e021 f   LIBCMT:tidtable.obj
 0001:0008d03b       __freefls@4                1008e03b f   LIBCMT:tidtable.obj
 0001:0008d16a       __freeptd                  1008e16a f   LIBCMT:tidtable.obj
 0001:0008d1d8       __mtinit                   1008e1d8 f   LIBCMT:tidtable.obj
 0001:0008d353       __forcdecpt_l              1008e353 f   LIBCMT:cvt.obj
 0001:0008d3c7       __cropzeros_l              1008e3c7 f   LIBCMT:cvt.obj
 0001:0008d449       __positive                 1008e449 f   LIBCMT:cvt.obj
 0001:0008d465       __fassign_l                1008e465 f   LIBCMT:cvt.obj
 0001:0008d4a7       __fassign                  1008e4a7 f   LIBCMT:cvt.obj
 0001:0008d4e0       __forcdecpt                1008e4e0 f   LIBCMT:cvt.obj
 0001:0008d4f3       __cropzeros                1008e4f3 f   LIBCMT:cvt.obj
 0001:0008d667       __cftoe_l                  1008e667 f   LIBCMT:cvt.obj
 0001:0008d72e       __cftoe                    1008e72e f   LIBCMT:cvt.obj
 0001:0008d74e       __cftoa_l                  1008e74e f   LIBCMT:cvt.obj
 0001:0008dbc7       __cftof_l                  1008ebc7 f   LIBCMT:cvt.obj
 0001:0008dc88       __cftog_l                  1008ec88 f   LIBCMT:cvt.obj
 0001:0008dd75       __cfltcvt_l                1008ed75 f   LIBCMT:cvt.obj
 0001:0008ddfd       __cfltcvt                  1008edfd f   LIBCMT:cvt.obj
 0001:0008de20       __initp_misc_cfltcvt_tab   1008ee20 f   LIBCMT:cmiscdat.obj
 0001:0008de43       __setdefaultprecision      1008ee43 f   LIBCMT:fp8.obj
 0001:0008e08e       ___updatetmbcinfo          1008f08e f   LIBCMT:mbctype.obj
 0001:0008e1ae       __setmbcp_nolock           1008f1ae f   LIBCMT:mbctype.obj
 0001:0008e397       __setmbcp                  1008f397 f   LIBCMT:mbctype.obj
 0001:0008e531       ___initmbctable            1008f531 f   LIBCMT:mbctype.obj
 0001:0008e54f       ___addlocaleref            1008f54f f   LIBCMT:localref.obj
 0001:0008e5de       ___removelocaleref         1008f5de f   LIBCMT:localref.obj
 0001:0008e677       ___freetlocinfo            1008f677 f   LIBCMT:localref.obj
 0001:0008e7c2       __updatetlocinfoEx_nolock  1008f7c2 f   LIBCMT:localref.obj
 0001:0008e80f       ___updatetlocinfo          1008f80f f   LIBCMT:localref.obj
 0001:0008e888       __freea                    1008f888 f i LIBCMT:a_map.obj
 0001:0008ea8f       ___crtLCMapStringA         1008fa8f f   LIBCMT:a_map.obj
 0001:0008ead5       __get_errno_from_oserr     1008fad5 f   LIBCMT:dosmap.obj
 0001:0008eb17       __errno                    1008fb17 f   LIBCMT:dosmap.obj
 0001:0008eb2a       ___doserrno                1008fb2a f   LIBCMT:dosmap.obj
 0001:0008eb3d       __dosmaperr                1008fb3d f   LIBCMT:dosmap.obj
 0001:0008eb60       __isleadbyte_l             1008fb60 f i LIBCMT:_wctype.obj
 0001:0008eb98       _isleadbyte                1008fb98 f i LIBCMT:_wctype.obj
 0001:0008ebab       __isctype_l                1008fbab f   LIBCMT:isctype.obj
 0001:0008ec70       __trandisp1                1008fc70 f   LIBCMT:_87disp_.obj
 0001:0008ecd7       __trandisp2                1008fcd7 f   LIBCMT:_87disp_.obj
 0001:0008ed63       __rttospopde               1008fd63     LIBCMT:_87disp_.obj
 0001:0008ed68       __rttospop                 1008fd68     LIBCMT:_87disp_.obj
 0001:0008ed6a       __rtnospop                 1008fd6a     LIBCMT:_87disp_.obj
 0001:0008ed6c       __rttosnpop                1008fd6c     LIBCMT:_87disp_.obj
 0001:0008ed6d       __rtnospopde               1008fd6d     LIBCMT:_87disp_.obj
 0001:0008ed74       __rtzeropop                1008fd74     LIBCMT:_87disp_.obj
 0001:0008ed76       __rtzeronpop               1008fd76     LIBCMT:_87disp_.obj
 0001:0008ed7b       __rtonepop                 1008fd7b     LIBCMT:_87disp_.obj
 0001:0008ed7d       __rtonenpop                1008fd7d     LIBCMT:_87disp_.obj
 0001:0008ed82       __tosnan1                  1008fd82     LIBCMT:_87disp_.obj
 0001:0008edad       __nosnan2                  1008fdad     LIBCMT:_87disp_.obj
 0001:0008edaf       __tosnan2                  1008fdaf     LIBCMT:_87disp_.obj
 0001:0008edd7       __nan2                     1008fdd7     LIBCMT:_87disp_.obj
 0001:0008ee16       __rtindfpop                1008fe16     LIBCMT:_87disp_.obj
 0001:0008ee18       __rtindfnpop               1008fe18     LIBCMT:_87disp_.obj
 0001:0008ee29       __rttosnpopde              1008fe29     LIBCMT:_87disp_.obj
 0001:0008ee33       __rtchsifneg               1008fe33     LIBCMT:_87disp_.obj
 0001:0008ee40       __startTwoArgErrorHandling 1008fe40 f   LIBCMT:_genexcep_.obj
 0001:0008ee57       __startOneArgErrorHandling 1008fe57 f   LIBCMT:_genexcep_.obj
 0001:0008eeb0       __twoToTOS                 1008feb0 f   LIBCMT:_common_.obj
 0001:0008eec5       __load_CW                  1008fec5 f   LIBCMT:_common_.obj
 0001:0008eedc       __convertTOStoQNaN         1008fedc f   LIBCMT:_common_.obj
 0001:0008eef5       __fload_withFB             1008fef5 f   LIBCMT:_common_.obj
 0001:0008ef38       __checkTOS_withFB          1008ff38 f   LIBCMT:_common_.obj
 0001:0008ef4e       __fast_exit                1008ff4e f   LIBCMT:_common_.obj
 0001:0008ef5b       __math_exit                1008ff5b f   LIBCMT:_common_.obj
 0001:0008ef85       __check_overflow_exit      1008ff85 f   LIBCMT:_common_.obj
 0001:0008ef99       __check_range_exit         1008ff99 f   LIBCMT:_common_.obj
 0001:0008f03c       ___libm_error_support      1009003c f   LIBCMT:_libm_error_.obj
 0001:0008f308       __sse2_mathfcns_init       10090308 f   LIBCMT:_mathfcns_.obj
 0001:0008f318       __floor_default            10090318 f   LIBCMT:_floor_.obj
 0001:0008f3f0       __CIcos_pentium4           100903f0 f   LIBCMT:_cos_pentium4_.obj
 0001:0008f408       __cos_pentium4             10090408     LIBCMT:_cos_pentium4_.obj
 0001:0008f59c       __flsbuf                   1009059c f   LIBCMT:_flsbuf.obj
 0001:0008f795       __output_l                 10090795 f   LIBCMT:output.obj
 0001:0009039d       __initp_misc_invarg        1009139d f   LIBCMT:invarg.obj
 0001:000903ac       __call_reportfault         100913ac f   LIBCMT:invarg.obj
 0001:000904d5       __invoke_watson            100914d5 f   LIBCMT:invarg.obj
 0001:000904fa       __invalid_parameter        100914fa f   LIBCMT:invarg.obj
 0001:00090527       __invalid_parameter_noinfo 10091527 f   LIBCMT:invarg.obj
 0001:00090540       __CIsin_pentium4           10091540 f   LIBCMT:_sin_pentium4_.obj
 0001:00090558       __sin_pentium4             10091558     LIBCMT:_sin_pentium4_.obj
 0001:00090708       __VEC_memcpy               10091708 f   LIBCMT:p4_memcpy.obj
 0001:0009080b       __fltin2                   1009180b f   LIBCMT:_cfin_.obj
 0001:000908b2       @__security_check_cookie@4 100918b2 f   LIBCMT:secchk.obj
 0001:000908c1       ___strgtold12_l            100918c1 f   LIBCMT:_strgtold_.obj
 0001:00090f9d       __stbuf                    10091f9d f   LIBCMT:_sftbuf.obj
 0001:00091039       __ftbuf                    10092039 f   LIBCMT:_sftbuf.obj
 0001:0009106d       __fwrite_nolock            1009206d f   LIBCMT:fwrite.obj
 0001:000911d0       _strlen                    100921d0 f   LIBCMT:strlen.obj
 0001:0009125b       __ioinit                   1009225b f   LIBCMT:ioinit.obj
 0001:000914a0       __ioterm                   100924a0 f   LIBCMT:ioinit.obj
 0001:000914f3       __fileno                   100924f3 f   LIBCMT:fileno.obj
 0001:00091520       __SEH_prolog4              10092520 f   LIBCMT:sehprolg4.obj
 0001:00091565       __SEH_epilog4              10092565 f   LIBCMT:sehprolg4.obj
 0001:00091580       __except_handler4          10092580 f   LIBCMT:chandler4.obj
 0001:0009170f       _free                      1009270f f   LIBCMT:free.obj
 0001:00091749       __close_nolock             10092749 f   LIBCMT:close.obj
 0001:000917e5       __close                    100927e5 f   LIBCMT:close.obj
 0001:000918a9       __freebuf                  100928a9 f   LIBCMT:_freebuf.obj
 0001:000918da       __openfile                 100928da f   LIBCMT:_open.obj
 0001:00091b71       __getstream                10092b71 f   LIBCMT:stream.obj
 0001:00091cb0       __local_unwind4            10092cb0 f   LIBCMT:exsup4.obj
 0001:00091d86       __seh_longjmp_unwind4@4    10092d86 f   LIBCMT:exsup4.obj
 0001:00091da2       @_EH4_CallFilterFunc@8     10092da2 f   LIBCMT:exsup4.obj
 0001:00091db9       @_EH4_TransferToHandler@8  10092db9 f   LIBCMT:exsup4.obj
 0001:00091dd2       @_EH4_GlobalUnwind2@8      10092dd2 f   LIBCMT:exsup4.obj
 0001:00091deb       @_EH4_LocalUnwind@16       10092deb f   LIBCMT:exsup4.obj
 0001:00091e2c       __fFATN2                   10092e2c     LIBCMT:_87triga_.obj
 0001:00091e7c       __rtpiby2                  10092e7c     LIBCMT:_87triga_.obj
 0001:00091ec0       __cintrindisp2             10092ec0 f   LIBCMT:_87cdisp_.obj
 0001:00091efe       __cintrindisp1             10092efe f   LIBCMT:_87cdisp_.obj
 0001:00091f3b       __ctrandisp2               10092f3b f   LIBCMT:_87cdisp_.obj
 0001:000920ca       __ctrandisp1               100930ca f   LIBCMT:_87cdisp_.obj
 0001:000920fd       __fload                    100930fd f   LIBCMT:_87cdisp_.obj
 0001:00092140       __CItan_pentium4           10093140 f   LIBCMT:_tan_pentium4_.obj
 0001:00092158       __tan_pentium4             10093158     LIBCMT:_tan_pentium4_.obj
 0001:000923a0       __CIpow_pentium4           100933a0 f   LIBCMT:_pow_pentium4_.obj
 0001:000923b9       __pow_pentium4             100933b9     LIBCMT:_pow_pentium4_.obj
 0001:00092f11       __fFEXP                    10093f11     LIBCMT:_87tran_.obj
 0001:00092f68       __rtinfpopse               10093f68     LIBCMT:_87tran_.obj
 0001:00092f6a       __rtinfnpopse              10093f6a     LIBCMT:_87tran_.obj
 0001:00092f7a       __fFLN                     10093f7a     LIBCMT:_87tran_.obj
 0001:0009302f       __rtinfpop                 1009402f     LIBCMT:_87tran_.obj
 0001:00093031       __rtinfnpop                10094031     LIBCMT:_87tran_.obj
 0001:0009304e       __ffexpm1                  1009404e     LIBCMT:_87tran_.obj
 0001:000930f7       __d_inttype                100940f7 f   LIBCMT:_powhlp_.obj
 0001:00093161       __powhlp                   10094161 f   LIBCMT:_powhlp_.obj
 0001:00093343       __input_l                  10094343 f   LIBCMT:input.obj
 0001:00094a28       ___tzset                   10095a28 f   LIBCMT:tzset.obj
 0001:00094a77       __isindst                  10095a77 f   LIBCMT:tzset.obj
 0001:00094ab8       __gmtime64_s               10095ab8 f   LIBCMT:gmtime64.obj
 0001:00094cf1       __get_daylight             10095cf1 f   LIBCMT:timeset.obj
 0001:00094d1e       __get_dstbias              10095d1e f   LIBCMT:timeset.obj
 0001:00094d4b       __get_timezone             10095d4b f   LIBCMT:timeset.obj
 0001:00094d78       ___daylight                10095d78 f   LIBCMT:timeset.obj
 0001:00094d7e       ___dstbias                 10095d7e f   LIBCMT:timeset.obj
 0001:00094d84       ___timezone                10095d84 f   LIBCMT:timeset.obj
 0001:00094d8a       ___tzname                  10095d8a f   LIBCMT:timeset.obj
 0001:00094d90       __alldiv                   10095d90 f   LIBCMT:lldiv.obj
 0001:00094e40       __allrem                   10095e40 f   LIBCMT:llrem.obj
 0001:00094ef2       ___getgmtimebuf            10095ef2 f   LIBCMT:gmtime.obj
 0001:00094f30       __aulldiv                  10095f30 f   LIBCMT:ulldiv.obj
 0001:00094f98       __lseek_nolock             10095f98 f   LIBCMT:lseek.obj
 0001:0009500d       __write_nolock             1009600d f   LIBCMT:write.obj
 0001:0009570a       __write                    1009670a f   LIBCMT:write.obj
 0001:000957de       __commit                   100967de f   LIBCMT:commit.obj
 0001:000958b7       __mtinitlocks              100968b7 f   LIBCMT:mlock.obj
 0001:00095901       __mtdeletelocks            10096901 f   LIBCMT:mlock.obj
 0001:00095958       __unlock                   10096958 f   LIBCMT:mlock.obj
 0001:0009596f       __mtinitlocknum            1009696f f   LIBCMT:mlock.obj
 0001:00095a31       __lock                     10096a31 f   LIBCMT:mlock.obj
 0001:00095a64       __malloc_crt               10096a64 f   LIBCMT:crtheap.obj
 0001:00095aa9       __calloc_crt               10096aa9 f   LIBCMT:crtheap.obj
 0001:00095af5       __realloc_crt              10096af5 f   LIBCMT:crtheap.obj
 0001:00095b43       __recalloc_crt             10096b43 f   LIBCMT:crtheap.obj
 0001:00095b95       __fcloseall                10096b95 f   LIBCMT:closeall.obj
 0001:00095c31       ?terminate@@YAXXZ          10096c31 f   LIBCMT:hooks.obj
 0001:00095c6a       __initp_eh_hooks           10096c6a f   LIBCMT:hooks.obj
 0001:00095c7b       __initp_misc_winsig        10096c7b f   LIBCMT:winsig.obj
 0001:00095cd0       ___get_sigabrt             10096cd0 f   LIBCMT:winsig.obj
 0001:00095cdd       _raise                     10096cdd f   LIBCMT:winsig.obj
 0001:00095e80       __initp_misc_rand_s        10096e80 f   LIBCMT:rand_s.obj
 0001:00095e8f       __initp_misc_purevirt      10096e8f f   LIBCMT:inithelp.obj
 0001:00095e9e       __initp_heap_handler       10096e9e f   LIBCMT:handler.obj
 0001:00095ead       __callnewh                 10096ead f   LIBCMT:handler.obj
 0001:00095f8b       ___onexitinit              10096f8b f   LIBCMT:onexit.obj
 0001:00095fbc       __onexit                   10096fbc f   LIBCMT:onexit.obj
 0001:00095ff8       _atexit                    10096ff8 f   LIBCMT:onexit.obj
 0001:0009600f       __RTC_Initialize           1009700f f   LIBCMT:_initsect_.obj
 0001:00096035       __RTC_Terminate            10097035 f   LIBCMT:_initsect_.obj
 0001:00096060       __ValidateImageBase        10097060 f   LIBCMT:pesect.obj
 0001:000960a0       __FindPESection            100970a0 f   LIBCMT:pesect.obj
 0001:000960f0       __IsNonwritableInCurrentImage 100970f0 f   LIBCMT:pesect.obj
 0001:000961ac       __GET_RTERRMSG             100971ac f   LIBCMT:crt0msg.obj
 0001:000961d2       __NMSG_WRITE               100971d2 f   LIBCMT:crt0msg.obj
 0001:00096381       __FF_MSGBANNER             10097381 f   LIBCMT:crt0msg.obj
 0001:000963ba       __ceil_default             100973ba f   LIBCMT:_ceil_.obj
 0001:000964a0       __CIatan_pentium4          100974a0 f   LIBCMT:_atan_pentium4_.obj
 0001:000964b8       __atan_pentium4            100974b8     LIBCMT:_atan_pentium4_.obj
 0001:0009678c       __setenvp                  1009778c f   LIBCMT:stdenvp.obj
 0001:00096a02       __setargv                  10097a02 f   LIBCMT:stdargv.obj
 0001:00096abd       ___crtGetEnvironmentStringsA 10097abd f   LIBCMT:a_env.obj
 0001:00096b54       __heap_init                10097b54 f   LIBCMT:heapinit.obj
 0001:00096b72       __heap_term                10097b72 f   LIBCMT:heapinit.obj
 0001:00096b86       __XcptFilter               10097b86 f   LIBCMT:winxfltr.obj
 0001:00096cd0       ___CppXcptFilter           10097cd0 f   LIBCMT:winxfltr.obj
 0001:00096cf0       _DllMain@12                10097cf0 f   LIBCMT:dllmain.obj
 0001:00096cf6       ___security_init_cookie    10097cf6 f   LIBCMT:gs_support.obj
 0001:00096da0       __allmul                   10097da0 f   LIBCMT:llmul.obj
 0001:00096de0       __aulldvrm                 10097de0 f   LIBCMT:ulldvrm.obj
 0001:00096e80       _strrchr                   10097e80 f   LIBCMT:strrchr.obj
 0001:00096ead       __isdigit_l                10097ead f i LIBCMT:_ctype.obj
 0001:00096efe       _isdigit                   10097efe f i LIBCMT:_ctype.obj
 0001:00096f2c       __isxdigit_l               10097f2c f i LIBCMT:_ctype.obj
 0001:00096f82       _isxdigit                  10097f82 f i LIBCMT:_ctype.obj
 0001:00096fb2       __isspace_l                10097fb2 f i LIBCMT:_ctype.obj
 0001:00097003       _isspace                   10098003 f i LIBCMT:_ctype.obj
 0001:00097031       __atodbl_l                 10098031 f   LIBCMT:atodbl.obj
 0001:000970d9       __atoflt_l                 100980d9 f   LIBCMT:atodbl.obj
 0001:00097181       _strcpy_s                  10098181 f   LIBCMT:strcpy_s.obj
 0001:000971e0       __fptostr                  100981e0 f   LIBCMT:_fptostr.obj
 0001:00097293       ___dtold                   10098293 f   LIBCMT:_cfout_.obj
 0001:00097346       __fltout2                  10098346 f   LIBCMT:_cfout_.obj
 0001:000973e0       __alldvrm                  100983e0 f   LIBCMT:lldvrm.obj
 0001:000974c0       __aullshr                  100984c0 f   LIBCMT:ullshr.obj
 0001:000974df       __fptrap                   100984df f   LIBCMT:crt0fp.obj
 0001:000974e8       __controlfp_s              100984e8 f   LIBCMT:_contrlfp_.obj
 0001:0009762e       ___crtGetStringTypeA       1009862e f   LIBCMT:a_str.obj
 0001:0009766e       ___free_lc_time            1009866e f   LIBCMT:inittime.obj
 0001:000979e5       ___free_lconv_num          100989e5 f   LIBCMT:initnum.obj
 0001:00097a4e       ___free_lconv_mon          10098a4e f   LIBCMT:initmon.obj
 0001:00097b4c       _malloc                    10098b4c f   LIBCMT:malloc.obj
 0001:00097be0       __alloca_probe_16          10098be0 f   LIBCMT:alloca16.obj
 0001:00097bf6       __alloca_probe_8           10098bf6     LIBCMT:alloca16.obj
 0001:00097c0c       ____lc_codepage_func       10098c0c f   LIBCMT:initctyp.obj
 0001:00097c40       _strcspn                   10098c40 f   LIBCMT:strcspn.obj
 0001:00097c86       _strncpy_s                 10098c86 f   LIBCMT:strncpy_s.obj
 0001:00097d40       _strcmp                    10098d40 f   LIBCMT:strcmp.obj
 0001:00097dc8       _strncmp                   10098dc8 f   LIBCMT:strncmp.obj
 0001:00097e90       _strpbrk                   10098e90 f   LIBCMT:strpbrk.obj
 0001:00097ed0       __87except                 10098ed0 f   LIBCMT:_87except_.obj
 0001:0009800f       __matherr                  1009900f f   LIBCMT:_matherr_.obj
 0001:00098012       __raise_exc_ex             10099012 f   LIBCMT:_fpexcept_.obj
 0001:000982ee       __raise_exc                100992ee f   LIBCMT:_fpexcept_.obj
 0001:00098311       __handle_exc               10099311 f   LIBCMT:_fpexcept_.obj
 0001:000984f5       __set_errno_from_matherr   100994f5 f   LIBCMT:_fpexcept_.obj
 0001:00098522       __errcode                  10099522 f   LIBCMT:_fpexcept_.obj
 0001:00098556       __umatherr                 10099556 f   LIBCMT:_fpexcept_.obj
 0001:000985f6       __handle_qnan1             100995f6 f   LIBCMT:_fpexcept_.obj
 0001:0009864b       __except1                  1009964b f   LIBCMT:_fpexcept_.obj
 0001:00098715       __frnd                     10099715 f   LIBCMT:_frnd_.obj
 0001:00098729       __set_exp                  10099729 f   LIBCMT:_util_.obj
 0001:00098756       __sptype                   10099756 f   LIBCMT:_util_.obj
 0001:000987bc       __decomp                   100997bc f   LIBCMT:_util_.obj
 0001:0009887f       __statfp                   1009987f f   LIBCMT:_fpctrl_.obj
 0001:0009888f       __clrfp                    1009988f f   LIBCMT:_fpctrl_.obj
 0001:000988a0       __ctrlfp                   100998a0 f   LIBCMT:_fpctrl_.obj
 0001:000988cb       __set_statfp               100998cb f   LIBCMT:_fpctrl_.obj
 0001:00098923       ___set_fpsr_sse2           10099923 f   LIBCMT:_fpctrl_.obj
 0001:00098995       __lseeki64_nolock          10099995 f   LIBCMT:lseeki64.obj
 0001:00098a1a       __lseeki64                 10099a1a f   LIBCMT:lseeki64.obj
 0001:00098b04       __getbuf                   10099b04 f   LIBCMT:_getbuf.obj
 0001:00098b4d       __isatty                   10099b4d f   LIBCMT:isatty.obj
 0001:00098ba3       __get_printf_count_output  10099ba3 f   LIBCMT:printf.obj
 0001:00098bb9       __wctomb_s_l               10099bb9 f   LIBCMT:wctomb.obj
 0001:00098d0e       _wctomb_s                  10099d0e f   LIBCMT:wctomb.obj
 0001:00098d2b       __crt_debugger_hook        10099d2b f   LIBCMT:dbghook.obj
 0001:00098d33       __ld12tod                  10099d33 f   LIBCMT:_intrncvt_.obj
 0001:00099284       __ld12tof                  1009a284 f   LIBCMT:_intrncvt_.obj
 0001:000997d5       ___report_gsfailure        1009a7d5 f   LIBCMT:gs_report.obj
 0001:000998db       ___mtold12                 1009a8db f   LIBCMT:_mantold_.obj
 0001:00099abf       __set_osfhnd               1009aabf f   LIBCMT:osfinfo.obj
 0001:00099b40       __free_osfhnd              1009ab40 f   LIBCMT:osfinfo.obj
 0001:00099bc6       __get_osfhandle            1009abc6 f   LIBCMT:osfinfo.obj
 0001:00099c2f       ___lock_fhandle            1009ac2f f   LIBCMT:osfinfo.obj
 0001:00099cce       __unlock_fhandle           1009acce f   LIBCMT:osfinfo.obj
 0001:00099cf5       __alloc_osfhnd             1009acf5 f   LIBCMT:osfinfo.obj
 0001:0009a5c2       __sopen_helper             1009b5c2 f   LIBCMT:open.obj
 0001:0009a686       __sopen_s                  1009b686 f   LIBCMT:open.obj
 0001:0009a6a6       __mbsnbicmp_l              1009b6a6 f   LIBCMT:mbsnbicm.obj
 0001:0009a8aa       __mbsnbicmp                1009b8aa f   LIBCMT:mbsnbicm.obj
 0001:0009a8c4       __mbsnbcmp_l               1009b8c4 f   LIBCMT:mbsnbcmp.obj
 0001:0009aa10       __mbsnbcmp                 1009ba10 f   LIBCMT:mbsnbcmp.obj
 0001:0009aa30       __global_unwind2           1009ba30 f   LIBCMT:exsup.obj
 0001:0009aa95       __local_unwind2            1009ba95 f   LIBCMT:exsup.obj
 0001:0009ab19       __abnormal_termination     1009bb19 f   LIBCMT:exsup.obj
 0001:0009ab3c       __NLG_Notify1              1009bb3c f   LIBCMT:exsup.obj
 0001:0009ab45       __NLG_Notify               1009bb45 f   LIBCMT:exsup.obj
 0001:0009ab5c       __NLG_Dispatch             1009bb5c     LIBCMT:exsup.obj
 0001:0009ab5c       __NLG_Dispatch2            1009bb5c     LIBCMT:exsup.obj
 0001:0009ab64       __NLG_Call                 1009bb64 f   LIBCMT:exsup.obj
 0001:0009ab66       __NLG_Return2              1009bb66     LIBCMT:exsup.obj
 0001:0009ab67       __fpclass                  1009bb67 f   LIBCMT:_ieeemisc_.obj
 0001:0009ac04       __filbuf                   1009bc04 f   LIBCMT:_filbuf.obj
 0001:0009ad26       __ungetc_nolock            1009bd26 f   LIBCMT:ungetc.obj
 0001:0009ae09       __mbtowc_l                 1009be09 f   LIBCMT:mbtowc.obj
 0001:0009af1f       _mbtowc                    1009bf1f f   LIBCMT:mbtowc.obj
 0001:0009af39       __getenv_helper_nolock     1009bf39 f   LIBCMT:getenv.obj
 0001:0009afc0       __putwch_nolock            1009bfc0 f   LIBCMT:putwch.obj
 0001:0009b002       __calloc_impl              1009c002 f   LIBCMT:calloc_impl.obj
 0001:0009b084       _realloc                   1009c084 f   LIBCMT:realloc.obj
 0001:0009b131       __recalloc                 1009c131 f   LIBCMT:recalloc.obj
 0001:0009b19f       _abort                     1009c19f f   LIBCMT:abort.obj
 0001:0009b1d2       __msize                    1009c1d2 f   LIBCMT:msize.obj
 0001:0009b205       ___crtMessageBoxW          1009c205 f   LIBCMT:crtmboxw.obj
 0001:0009b371       _wcscat_s                  1009c371 f   LIBCMT:wcscat_s.obj
 0001:0009b3e6       _wcsncpy_s                 1009c3e6 f   LIBCMT:wcsncpy_s.obj
 0001:0009b4b3       _wcslen                    1009c4b3 f   LIBCMT:wcslen.obj
 0001:0009b4ce       _wcscpy_s                  1009c4ce f   LIBCMT:wcscpy_s.obj
 0001:0009b531       __set_error_mode           1009c531 f   LIBCMT:errmode.obj
 0001:0009b5c3       __ismbblead                1009c5c3 f   LIBCMT:ismbbyte.obj
 0001:0009b5db       _$I10_OUTPUT               1009c5db f   LIBCMT:_x10fout_.obj
 0001:0009c001       __control87                1009d001 f i LIBCMT:_ieee87_.obj
 0001:0009c313       __strnicmp_l               1009d313 f   LIBCMT:strnicmp.obj
 0001:0009c3f5       __strnicmp                 1009d3f5 f   LIBCMT:strnicmp.obj
 0001:0009c448       __chsize_nolock            1009d448 f   LIBCMT:chsize.obj
 0001:0009c5fe       __read_nolock              1009d5fe f   LIBCMT:read.obj
 0001:0009cbb5       __read                     1009dbb5 f   LIBCMT:read.obj
 0001:0009ccab       __setmode_nolock           1009dcab f   LIBCMT:setmode.obj
 0001:0009cd66       __get_fmode                1009dd66 f   LIBCMT:setmode.obj
 0001:0009cd93       __mbsnbicoll_l             1009dd93 f   LIBCMT:mbsnbico.obj
 0001:0009ce71       __mbsnbicoll               1009de71 f   LIBCMT:mbsnbico.obj
 0001:0009ce8b       ___wtomb_environ           1009de8b f   LIBCMT:wtombenv.obj
 0001:0009cf22       ___initconout              1009df22 f   LIBCMT:initcon.obj
 0001:0009cf41       ___termconout              1009df41 f   LIBCMT:initcon.obj
 0001:0009cf60       ___ascii_strnicmp          1009df60 f   LIBCMT:_strnicm.obj
 0001:0009d22f       ___crtCompareStringA       1009e22f f   LIBCMT:a_cmp.obj
 0001:0009d271       __strnicoll_l              1009e271 f   LIBCMT:strnicol.obj
 0001:0009d40d       ___crtsetenv               1009e40d f   LIBCMT:setenv.obj
 0001:0009d64f       __strdup                   1009e64f f   LIBCMT:strdup.obj
 0001:0009d6a1       __mbschr_l                 1009e6a1 f   LIBCMT:mbschr.obj
 0001:0009d751       __mbschr                   1009e751 f   LIBCMT:mbschr.obj
 0001:0009d768       _RtlUnwind@16              1009e768 f   kernel32:KERNEL32.dll
 0002:00000000       __imp__InitializeCriticalSectionAndSpinCount@8 1009f000     kernel32:KERNEL32.dll
 0002:00000004       __imp__CompareStringW@24   1009f004     kernel32:KERNEL32.dll
 0002:00000008       __imp__GetCurrentProcess@0 1009f008     kernel32:KERNEL32.dll
 0002:0000000c       __imp__GlobalFree@4        1009f00c     kernel32:KERNEL32.dll
 0002:00000010       __imp__GetModuleFileNameA@12 1009f010     kernel32:KERNEL32.dll
 0002:00000014       __imp__IsBadReadPtr@8      1009f014     kernel32:KERNEL32.dll
 0002:00000018       __imp__GlobalAlloc@8       1009f018     kernel32:KERNEL32.dll
 0002:0000001c       __imp__FreeLibrary@4       1009f01c     kernel32:KERNEL32.dll
 0002:00000020       __imp__SetUnhandledExceptionFilter@4 1009f020     kernel32:KERNEL32.dll
 0002:00000024       __imp__GetProcAddress@8    1009f024     kernel32:KERNEL32.dll
 0002:00000028       __imp__LoadLibraryA@4      1009f028     kernel32:KERNEL32.dll
 0002:0000002c       __imp__CreateFileW@28      1009f02c     kernel32:KERNEL32.dll
 0002:00000030       __imp__ReadFile@20         1009f030     kernel32:KERNEL32.dll
 0002:00000034       __imp__GetSystemTimeAsFileTime@4 1009f034     kernel32:KERNEL32.dll
 0002:00000038       __imp__EnterCriticalSection@4 1009f038     kernel32:KERNEL32.dll
 0002:0000003c       __imp__LeaveCriticalSection@4 1009f03c     kernel32:KERNEL32.dll
 0002:00000040       __imp__GetModuleHandleW@4  1009f040     kernel32:KERNEL32.dll
 0002:00000044       __imp__ExitProcess@4       1009f044     kernel32:KERNEL32.dll
 0002:00000048       __imp__DecodePointer@4     1009f048     kernel32:KERNEL32.dll
 0002:0000004c       __imp__GetCurrentThreadId@0 1009f04c     kernel32:KERNEL32.dll
 0002:00000050       __imp__GetCommandLineA@0   1009f050     kernel32:KERNEL32.dll
 0002:00000054       __imp__IsProcessorFeaturePresent@4 1009f054     kernel32:KERNEL32.dll
 0002:00000058       __imp__EncodePointer@4     1009f058     kernel32:KERNEL32.dll
 0002:0000005c       __imp__TlsAlloc@0          1009f05c     kernel32:KERNEL32.dll
 0002:00000060       __imp__TlsGetValue@4       1009f060     kernel32:KERNEL32.dll
 0002:00000064       __imp__TlsSetValue@8       1009f064     kernel32:KERNEL32.dll
 0002:00000068       __imp__TlsFree@4           1009f068     kernel32:KERNEL32.dll
 0002:0000006c       __imp__InterlockedIncrement@4 1009f06c     kernel32:KERNEL32.dll
 0002:00000070       __imp__SetLastError@4      1009f070     kernel32:KERNEL32.dll
 0002:00000074       __imp__GetLastError@0      1009f074     kernel32:KERNEL32.dll
 0002:00000078       __imp__InterlockedDecrement@4 1009f078     kernel32:KERNEL32.dll
 0002:0000007c       __imp__GetCPInfo@8         1009f07c     kernel32:KERNEL32.dll
 0002:00000080       __imp__GetACP@0            1009f080     kernel32:KERNEL32.dll
 0002:00000084       __imp__GetOEMCP@0          1009f084     kernel32:KERNEL32.dll
 0002:00000088       __imp__IsValidCodePage@4   1009f088     kernel32:KERNEL32.dll
 0002:0000008c       __imp__WideCharToMultiByte@32 1009f08c     kernel32:KERNEL32.dll
 0002:00000090       __imp__LCMapStringW@24     1009f090     kernel32:KERNEL32.dll
 0002:00000094       __imp__MultiByteToWideChar@24 1009f094     kernel32:KERNEL32.dll
 0002:00000098       __imp__UnhandledExceptionFilter@4 1009f098     kernel32:KERNEL32.dll
 0002:0000009c       __imp__IsDebuggerPresent@0 1009f09c     kernel32:KERNEL32.dll
 0002:000000a0       __imp__TerminateProcess@8  1009f0a0     kernel32:KERNEL32.dll
 0002:000000a4       __imp__SetHandleCount@4    1009f0a4     kernel32:KERNEL32.dll
 0002:000000a8       __imp__GetStdHandle@4      1009f0a8     kernel32:KERNEL32.dll
 0002:000000ac       __imp__SetEnvironmentVariableA@8 1009f0ac     kernel32:KERNEL32.dll
 0002:000000b0       __imp__GetFileType@4       1009f0b0     kernel32:KERNEL32.dll
 0002:000000b4       __imp__GetStartupInfoW@4   1009f0b4     kernel32:KERNEL32.dll
 0002:000000b8       __imp__DeleteCriticalSection@4 1009f0b8     kernel32:KERNEL32.dll
 0002:000000bc       __imp__HeapFree@12         1009f0bc     kernel32:KERNEL32.dll
 0002:000000c0       __imp__CloseHandle@4       1009f0c0     kernel32:KERNEL32.dll
 0002:000000c4       __imp__RtlUnwind@16        1009f0c4     kernel32:KERNEL32.dll
 0002:000000c8       __imp__GetTimeZoneInformation@4 1009f0c8     kernel32:KERNEL32.dll
 0002:000000cc       __imp__SetFilePointer@16   1009f0cc     kernel32:KERNEL32.dll
 0002:000000d0       __imp__WriteFile@20        1009f0d0     kernel32:KERNEL32.dll
 0002:000000d4       __imp__GetConsoleCP@0      1009f0d4     kernel32:KERNEL32.dll
 0002:000000d8       __imp__GetConsoleMode@8    1009f0d8     kernel32:KERNEL32.dll
 0002:000000dc       __imp__FlushFileBuffers@4  1009f0dc     kernel32:KERNEL32.dll
 0002:000000e0       __imp__Sleep@4             1009f0e0     kernel32:KERNEL32.dll
 0002:000000e4       __imp__LoadLibraryW@4      1009f0e4     kernel32:KERNEL32.dll
 0002:000000e8       __imp__GetModuleFileNameW@12 1009f0e8     kernel32:KERNEL32.dll
 0002:000000ec       __imp__FreeEnvironmentStringsW@4 1009f0ec     kernel32:KERNEL32.dll
 0002:000000f0       __imp__GetEnvironmentStringsW@0 1009f0f0     kernel32:KERNEL32.dll
 0002:000000f4       __imp__HeapCreate@12       1009f0f4     kernel32:KERNEL32.dll
 0002:000000f8       __imp__HeapDestroy@4       1009f0f8     kernel32:KERNEL32.dll
 0002:000000fc       __imp__QueryPerformanceCounter@4 1009f0fc     kernel32:KERNEL32.dll
 0002:00000100       __imp__GetTickCount@0      1009f100     kernel32:KERNEL32.dll
 0002:00000104       __imp__GetCurrentProcessId@0 1009f104     kernel32:KERNEL32.dll
 0002:00000108       __imp__GetStringTypeW@16   1009f108     kernel32:KERNEL32.dll
 0002:0000010c       __imp__HeapAlloc@12        1009f10c     kernel32:KERNEL32.dll
 0002:00000110       __imp__RaiseException@16   1009f110     kernel32:KERNEL32.dll
 0002:00000114       __imp__SetStdHandle@8      1009f114     kernel32:KERNEL32.dll
 0002:00000118       __imp__CreateFileA@28      1009f118     kernel32:KERNEL32.dll
 0002:0000011c       __imp__WriteConsoleW@20    1009f11c     kernel32:KERNEL32.dll
 0002:00000120       __imp__HeapReAlloc@16      1009f120     kernel32:KERNEL32.dll
 0002:00000124       __imp__HeapSize@12         1009f124     kernel32:KERNEL32.dll
 0002:00000128       __imp__SetEndOfFile@4      1009f128     kernel32:KERNEL32.dll
 0002:0000012c       __imp__GetProcessHeap@0    1009f12c     kernel32:KERNEL32.dll
 0002:00000130       \177KERNEL32_NULL_THUNK_DATA 1009f130     kernel32:KERNEL32.dll
 0002:00000134       __imp__GetModuleBaseNameA@16 1009f134     psapi:PSAPI.DLL
 0002:00000138       \177PSAPI_NULL_THUNK_DATA  1009f138     psapi:PSAPI.DLL
 0002:0000013c       __imp__wsprintfA           1009f13c     user32:USER32.dll
 0002:00000140       \177USER32_NULL_THUNK_DATA 1009f140     user32:USER32.dll
 0002:00000144       ___xc_a                    1009f144     LIBCMT:crt0init.obj
 0002:00000148       ___xc_z                    1009f148     LIBCMT:crt0init.obj
 0002:0000014c       ___xi_a                    1009f14c     LIBCMT:crt0init.obj
 0002:00000164       ___xi_z                    1009f164     LIBCMT:crt0init.obj
 0002:00000168       ___xp_a                    1009f168     LIBCMT:crt0init.obj
 0002:00000174       ___xp_z                    1009f174     LIBCMT:crt0init.obj
 0002:00000178       ___xt_a                    1009f178     LIBCMT:crt0init.obj
 0002:0000017c       ___xt_z                    1009f17c     LIBCMT:crt0init.obj
 0002:00000180       ??_C@_06LLKHDPKL@events?$AA@ 1009f180     bg_animation.obj
 0002:00000188       ??_C@_0N@EHJNOHAA@statechanges?$AA@ 1009f188     bg_animation.obj
 0002:00000198       ??_C@_0BC@LGKLMCNI@canned_animations?$AA@ 1009f198     bg_animation.obj
 0002:000001ac       ??_C@_0L@HNGMIHEN@animations?$AA@ 1009f1ac     bg_animation.obj
 0002:000001b8       ??_C@_07MMIKLHCA@defines?$AA@ 1009f1b8     bg_animation.obj
 0002:000001c0       ??_C@_07CMODMDGJ@AISTATE?$AA@ 1009f1c0     bg_animation.obj
 0002:000001c8       ??_C@_0M@KPHDKAHE@GEN_BITFLAG?$AA@ 1009f1c8     bg_animation.obj
 0002:000001d4       ??_C@_0O@JKDLABHB@FLAILING_TYPE?$AA@ 1009f1d4     bg_animation.obj
 0002:000001e4       ??_C@_0N@KMEIFE@HEALTH_LEVEL?$AA@ 1009f1e4     bg_animation.obj
 0002:000001f4       ??_C@_0M@NGLGCLLM@PLAYERCLASS?$AA@ 1009f1f4     bg_animation.obj
 0002:00000200       ??_C@_08GOFIDABM@CHARGING?$AA@ 1009f200     bg_animation.obj
 0002:0000020c       ??_C@_09GCNACFAF@PARACHUTE?$AA@ 1009f20c     bg_animation.obj
 0002:00000218       ??_C@_0L@ILMKFMCE@ENEMY_TEAM?$AA@ 1009f218     bg_animation.obj
 0002:00000224       ??_C@_0P@GHDHBNEG@SHORT_REACTION?$AA@ 1009f224     bg_animation.obj
 0002:00000234       ??_C@_06MOMMJHC@FIRING?$AA@ 1009f234     bg_animation.obj
 0002:0000023c       ??_C@_07LEOBIMFP@STUNNED?$AA@ 1009f23c     bg_animation.obj
 0002:00000244       ??_C@_09HGGDFBHO@CROUCHING?$AA@ 1009f244     bg_animation.obj
 0002:00000250       ??_C@_0N@BKJFJGHI@IMPACT_POINT?$AA@ 1009f250     bg_animation.obj
 0002:00000260       ??_C@_07PCDLPMLE@LEANING?$AA@ 1009f260     bg_animation.obj
 0002:00000268       ??_C@_09KIADLDO@UNDERHAND?$AA@ 1009f268     bg_animation.obj
 0002:00000274       ??_C@_08EDCCCEMB@MOVETYPE?$AA@ 1009f274     bg_animation.obj
 0002:00000280       ??_C@_07IHKNNAIJ@MOUNTED?$AA@ 1009f280     bg_animation.obj
 0002:00000288       ??_C@_0L@IFAAMPME@UNDERWATER?$AA@ 1009f288     bg_animation.obj
 0002:00000294       ??_C@_0N@BFJCEKBK@ENEMY_WEAPON?$AA@ 1009f294     bg_animation.obj
 0002:000002a4       ??_C@_0P@JIMGNOCO@ENEMY_POSITION?$AA@ 1009f2a4     bg_animation.obj
 0002:000002b4       ??_C@_07HPPHAKD@WEAPONS?$AA@ 1009f2b4     bg_animation.obj
 0002:000002bc       ??_C@_09FPCBOPNI@COVERTOPS?$AA@ 1009f2bc     bg_animation.obj
 0002:000002c8       ??_C@_08HPCLEOBG@FIELDOPS?$AA@ 1009f2c8     bg_animation.obj
 0002:000002d4       ??_C@_08KNMKFDEP@ENGINEER?$AA@ 1009f2d4     bg_animation.obj
 0002:000002e0       ??_C@_05NNIBPFDE@MEDIC?$AA@ 1009f2e0     bg_animation.obj
 0002:000002e8       ??_C@_07DOBOICPH@SOLDIER?$AA@ 1009f2e8     bg_animation.obj
 0002:000002f0       ??_C@_07CECPKGHP@HOLDING?$AA@ 1009f2f0     bg_animation.obj
 0002:000002f8       ??_C@_07JBDFIAPG@ZOOMING?$AA@ 1009f2f8     bg_animation.obj
 0002:00000300       ??_C@_06KLJKJFEK@HCRASH?$AA@ 1009f300     bg_animation.obj
 0002:00000308       ??_C@_06JMHLHCNJ@VCRASH?$AA@ 1009f308     bg_animation.obj
 0002:00000310       ??_C@_05FFMHFFBB@INAIR?$AA@ 1009f310     bg_animation.obj
 0002:00000318       ??_C@_01EKENIIDA@3?$AA@    1009f318     bg_animation.obj
 0002:0000031c       ??_C@_01FDFGLJHB@2?$AA@    1009f31c     bg_animation.obj
 0002:00000320       ??_C@_01HIHLOKLC@1?$AA@    1009f320     bg_animation.obj
 0002:00000324       ??_C@_07GNLJHKAP@NEUTRAL?$AA@ 1009f324     bg_animation.obj
 0002:0000032c       ??_C@_06LFMMNBFA@SPARE4?$AA@ 1009f32c     bg_animation.obj
 0002:00000334       ??_C@_06PKINEHJH@SPARE3?$AA@ 1009f334     bg_animation.obj
 0002:0000033c       ??_C@_06ODJGHGNG@SPARE2?$AA@ 1009f33c     bg_animation.obj
 0002:00000344       ??_C@_06MILLCFBF@SPARE1?$AA@ 1009f344     bg_animation.obj
 0002:0000034c       ??_C@_07GKFEMEDF@MONSTER?$AA@ 1009f34c     bg_animation.obj
 0002:00000354       ??_C@_06GEKNHHBI@ALLIES?$AA@ 1009f354     bg_animation.obj
 0002:0000035c       ??_C@_04LNCGIOLI@NAZI?$AA@ 1009f35c     bg_animation.obj
 0002:00000364       ??_C@_09HNOAOLFL@KNEE_LEFT?$AA@ 1009f364     bg_animation.obj
 0002:00000370       ??_C@_0L@HDLPEDFM@KNEE_RIGHT?$AA@ 1009f370     bg_animation.obj
 0002:0000037c       ??_C@_0O@GNKADMCK@SHOULDER_LEFT?$AA@ 1009f37c     bg_animation.obj
 0002:0000038c       ??_C@_0P@FEKNECCB@SHOULDER_RIGHT?$AA@ 1009f38c     bg_animation.obj
 0002:0000039c       ??_C@_05MMHFGEIM@GROIN?$AA@ 1009f39c     bg_animation.obj
 0002:000003a4       ??_C@_03GMNIDEGM@GUT?$AA@  1009f3a4     bg_animation.obj
 0002:000003a8       ??_C@_05LDJFJFKA@CHEST?$AA@ 1009f3a8     bg_animation.obj
 0002:000003b0       ??_C@_04BINJNOJD@HEAD?$AA@ 1009f3b0     bg_animation.obj
 0002:000003b8       ??_C@_04FBGPONKD@MG42?$AA@ 1009f3b8     bg_animation.obj
 0002:000003c0       ??_C@_04KCNEHMIH@LEFT?$AA@ 1009f3c0     bg_animation.obj
 0002:000003c8       ??_C@_05PMAFOJDE@RIGHT?$AA@ 1009f3c8     bg_animation.obj
 0002:000003d0       ??_C@_07EEENPCFP@INFRONT?$AA@ 1009f3d0     bg_animation.obj
 0002:000003d8       ??_C@_06IOBMPBPK@BEHIND?$AA@ 1009f3d8     bg_animation.obj
 0002:000003e0       ??_C@_04ILIMAIMB@BOTH?$AA@ 1009f3e0     bg_animation.obj
 0002:000003e8       ??_C@_05HLJONPCP@TORSO?$AA@ 1009f3e8     bg_animation.obj
 0002:000003f0       ??_C@_04OMFHIAHH@LEGS?$AA@ 1009f3f0     bg_animation.obj
 0002:000003f8       ??_C@_0BB@HABODNHA@FIREWEAPON3PRONE?$AA@ 1009f3f8     bg_animation.obj
 0002:0000040c       ??_C@_0M@CHEKCHEF@FIREWEAPON3?$AA@ 1009f40c     bg_animation.obj
 0002:00000418       ??_C@_05GPAALKEH@RAISE?$AA@ 1009f418     bg_animation.obj
 0002:00000420       ??_C@_0BD@OOFDCPAE@RELOADPRONE_SG_END?$AA@ 1009f420     bg_animation.obj
 0002:00000434       ??_C@_0BE@EMBCAJH@RELOADPRONE_SG_LOOP?$AA@ 1009f434     bg_animation.obj
 0002:00000448       ??_C@_0BF@KGGMGMIN@RELOADPRONE_SG_BEGIN?$AA@ 1009f448     bg_animation.obj
 0002:00000460       ??_C@_0O@LOKCHADH@RELOAD_SG_END?$AA@ 1009f460     bg_animation.obj
 0002:00000470       ??_C@_0P@LLEBLANO@RELOAD_SG_LOOP?$AA@ 1009f470     bg_animation.obj
 0002:00000480       ??_C@_0BA@KJNDBFCJ@RELOAD_SG_BEGIN?$AA@ 1009f480     bg_animation.obj
 0002:00000490       ??_C@_0BC@IHKJANIM@DEATH_FROM_BEHIND?$AA@ 1009f490     bg_animation.obj
 0002:000004a4       ??_C@_06DDMBHNJG@SALUTE?$AA@ 1009f4a4     bg_animation.obj
 0002:000004ac       ??_C@_07GKKCHFFA@NOPOWER?$AA@ 1009f4ac     bg_animation.obj
 0002:000004b4       ??_C@_0M@FJILDHPC@RELOADPRONE?$AA@ 1009f4b4     bg_animation.obj
 0002:000004c0       ??_C@_0BB@BNBDJHJF@RAISEWEAPONPRONE?$AA@ 1009f4c0     bg_animation.obj
 0002:000004d4       ??_C@_0BB@NGGJDGME@FIREWEAPON2PRONE?$AA@ 1009f4d4     bg_animation.obj
 0002:000004e8       ??_C@_0BA@MGJKFIDA@FIREWEAPONPRONE?$AA@ 1009f4e8     bg_animation.obj
 0002:000004f8       ??_C@_0BL@CEMEHHOJ@UNDO_ALT_WEAPON_MODE_PRONE?$AA@ 1009f4f8     bg_animation.obj
 0002:00000514       ??_C@_0BJ@IKEGMMLP@DO_ALT_WEAPON_MODE_PRONE?$AA@ 1009f514     bg_animation.obj
 0002:00000530       ??_C@_0BF@LHJBOFNN@UNDO_ALT_WEAPON_MODE?$AA@ 1009f530     bg_animation.obj
 0002:00000548       ??_C@_0BD@DCLLNKHA@DO_ALT_WEAPON_MODE?$AA@ 1009f548     bg_animation.obj
 0002:0000055c       ??_C@_0BA@ILLJBFHJ@PRONE_TO_CROUCH?$AA@ 1009f55c     bg_animation.obj
 0002:0000056c       ??_C@_04JHINAIJO@DIVE?$AA@ 1009f56c     bg_animation.obj
 0002:00000574       ??_C@_06DNDMIHFO@REVIVE?$AA@ 1009f574     bg_animation.obj
 0002:0000057c       ??_C@_04JBLDNDFK@KICK?$AA@ 1009f57c     bg_animation.obj
 0002:00000584       ??_C@_06DCHFNDBF@RELOAD?$AA@ 1009f584     bg_animation.obj
 0002:0000058c       ??_C@_0O@IIAGBLJB@CLIMBDISMOUNT?$AA@ 1009f58c     bg_animation.obj
 0002:0000059c       ??_C@_0L@HNAMMBMD@CLIMBMOUNT?$AA@ 1009f59c     bg_animation.obj
 0002:000005a8       ??_C@_0M@JOEDMLH@RAISEWEAPON?$AA@ 1009f5a8     bg_animation.obj
 0002:000005b4       ??_C@_0L@BJEANHNA@DROPWEAPON?$AA@ 1009f5b4     bg_animation.obj
 0002:000005c0       ??_C@_04GJGHKIDJ@LAND?$AA@ 1009f5c0     bg_animation.obj
 0002:000005c8       ??_C@_06NFFGMPMI@JUMPBK?$AA@ 1009f5c8     bg_animation.obj
 0002:000005d0       ??_C@_04BFLEPEFN@JUMP?$AA@ 1009f5d0     bg_animation.obj
 0002:000005d8       ??_C@_0M@DOFBBGAE@FIREWEAPON2?$AA@ 1009f5d8     bg_animation.obj
 0002:000005e4       ??_C@_0L@PHLGIOGH@FIREWEAPON?$AA@ 1009f5e4     bg_animation.obj
 0002:000005f0       ??_C@_05DKFKLNCG@DEATH?$AA@ 1009f5f0     bg_animation.obj
 0002:000005f8       ??_C@_04DDNHCMLF@PAIN?$AA@ 1009f5f8     bg_animation.obj
 0002:00000600       ??_C@_04NNCJDDJC@DEAD?$AA@ 1009f600     bg_animation.obj
 0002:00000608       ??_C@_0L@LIBNAPII@RADIOPRONE?$AA@ 1009f608     bg_animation.obj
 0002:00000614       ??_C@_07JHKOJMIG@RADIOCR?$AA@ 1009f614     bg_animation.obj
 0002:0000061c       ??_C@_05HGDEKMLG@RADIO?$AA@ 1009f61c     bg_animation.obj
 0002:00000624       ??_C@_0O@KEEMELMC@RESUSCITATION?$AA@ 1009f624     bg_animation.obj
 0002:00000634       ??_C@_08LOEELIOA@FLAILING?$AA@ 1009f634     bg_animation.obj
 0002:00000640       ??_C@_09OPIFKDCJ@IDLEPRONE?$AA@ 1009f640     bg_animation.obj
 0002:0000064c       ??_C@_07KOCFBCDA@PRONEBK?$AA@ 1009f64c     bg_animation.obj
 0002:00000654       ??_C@_05DEBNJJOB@PRONE?$AA@ 1009f654     bg_animation.obj
 0002:0000065c       ??_C@_06NFCGMGGG@FALLEN?$AA@ 1009f65c     bg_animation.obj
 0002:00000664       ??_C@_09GJMNFBHN@CLIMBDOWN?$AA@ 1009f664     bg_animation.obj
 0002:00000670       ??_C@_07NHIBBMHA@CLIMBUP?$AA@ 1009f670     bg_animation.obj
 0002:00000678       ??_C@_08DBJPOBGO@TURNLEFT?$AA@ 1009f678     bg_animation.obj
 0002:00000684       ??_C@_09CFEAPIHF@TURNRIGHT?$AA@ 1009f684     bg_animation.obj
 0002:00000690       ??_C@_0L@JPAPNHHO@STRAFELEFT?$AA@ 1009f690     bg_animation.obj
 0002:0000069c       ??_C@_0M@DIFJHICH@STRAFERIGHT?$AA@ 1009f69c     bg_animation.obj
 0002:000006a8       ??_C@_06DNCLJOFM@SWIMBK?$AA@ 1009f6a8     bg_animation.obj
 0002:000006b0       ??_C@_04CKCIANOF@SWIM?$AA@ 1009f6b0     bg_animation.obj
 0002:000006b8       ??_C@_05OENAFHHF@RUNBK?$AA@ 1009f6b8     bg_animation.obj
 0002:000006c0       ??_C@_03LLDCGJBK@RUN?$AA@  1009f6c0     bg_animation.obj
 0002:000006c4       ??_C@_08BCACMKOP@WALKCRBK?$AA@ 1009f6c4     bg_animation.obj
 0002:000006d0       ??_C@_06GLKCEIEK@WALKCR?$AA@ 1009f6d0     bg_animation.obj
 0002:000006d8       ??_C@_06PBGAILGF@WALKBK?$AA@ 1009f6d8     bg_animation.obj
 0002:000006e0       ??_C@_04PKELMGAL@WALK?$AA@ 1009f6e0     bg_animation.obj
 0002:000006e8       ??_C@_06OMFBEJFJ@IDLECR?$AA@ 1009f6e8     bg_animation.obj
 0002:000006f0       ??_C@_04IMMGDCFE@IDLE?$AA@ 1009f6f0     bg_animation.obj
 0002:000006f8       ??_C@_0N@EDMDHGIH@?$CK?$CK?5UNUSED?5?$CK?$CK?$AA@ 1009f6f8     bg_animation.obj
 0002:00000708       ??_C@_06NHIPIEDF@COMBAT?$AA@ 1009f708     bg_animation.obj
 0002:00000710       ??_C@_05KBPPIFM@ALERT?$AA@ 1009f710     bg_animation.obj
 0002:00000718       ??_C@_05NBJHHBHJ@QUERY?$AA@ 1009f718     bg_animation.obj
 0002:00000720       ??_C@_07GKBJNHHK@RELAXED?$AA@ 1009f720     bg_animation.obj
 0002:00000728       ??_C@_02DKCKIIND@?$CFs?$AA@ 1009f728     bg_animation.obj
 0002:0000072c       ??_C@_0BC@PIFFBBDC@?$CFs?3?5?$CI?$CFs?0?5line?5?$CFi?$CJ?$AA@ 1009f72c     bg_animation.obj
 0002:00000740       ??_C@_0EI@KHABFLEN@BG_AnimationIndexForString?3?5unkn@ 1009f740     bg_animation.obj
 0002:00000788       ??_C@_0CG@HKIPDKP@BG_IndexForString?3?5unknown?5token@ 1009f788     bg_animation.obj
 0002:000007b0       ??_C@_0CN@DMHLIKB@BG_CopyStringIntoBuffer?3?5out?5of?5@ 1009f7b0     bg_animation.obj
 0002:000007e0       ??_C@_09GPGAJHPD@?$CIunknown?$CJ?$AA@ 1009f7e0     bg_animation.obj
 0002:000007ec       ??_C@_03NFKEKGGK@all?$AA@  1009f7ec     bg_animation.obj
 0002:000007f0       ??_C@_0CI@BCJNBAAM@BG_AnimParseAnimScript?3?5unexpect@ 1009f7f0     bg_animation.obj
 0002:00000818       ??_C@_0DE@OMHOPKAI@BG_AnimParseAnimScript?3?5unexpect@ 1009f818     bg_animation.obj
 0002:0000084c       ??_C@_01CLKCMJKC@?5?$AA@   1009f84c     bg_animation.obj
 0002:00000850       ??_C@_03BDACDFHA@AND?$AA@  1009f850     bg_animation.obj
 0002:00000854       ??_C@_05CIDCLABE@MINUS?$AA@ 1009f854     bg_animation.obj
 0002:0000085c       ??_C@_03GBFNEA@NOT?$AA@    1009f85c     bg_animation.obj
 0002:00000860       ??_C@_05MLHFDCLP@none?0?$AA@ 1009f860     bg_animation.obj
 0002:00000868       ??_C@_04CGFJFPFD@none?$AA@ 1009f868     bg_animation.obj
 0002:00000870       ??_C@_01IHBHIGKO@?0?$AA@   1009f870     bg_animation.obj
 0002:00000874       ??_C@_0CI@KLGMJPNH@BG_ParseConditions?3?5no?5condition@ 1009f874     bg_animation.obj
 0002:000008a0       ??_C@_0EE@NMBANDPE@BG_AnimParseAnimScript?3?5expected@ 1009f8a0     bg_animation.obj
 0002:000008e4       ??_C@_07DLHCIBDH@default?$AA@ 1009f8e4     bg_animation.obj
 0002:000008ec       ??_C@_0CJ@NDJEIEDA@BG_ParseCommands?3?5unknown?5parame@ 1009f8ec     bg_animation.obj
 0002:00000918       ??_C@_0DO@BILKBJDJ@BG_ParseCommands?3?5wav?5files?5not?5@ 1009f918     bg_animation.obj
 0002:00000958       ??_C@_04IBLEHOMF@?4wav?$AA@ 1009f958     bg_animation.obj
 0002:00000960       ??_C@_0CB@KJJHKKAM@BG_ParseCommands?3?5expected?5sound@ 1009f960     bg_animation.obj
 0002:00000984       ??_C@_05MHNANJII@sound?$AA@ 1009f984     bg_animation.obj
 0002:0000098c       ??_C@_0CK@OFKPAMJN@BG_ParseCommands?3?5expected?5durat@ 1009f98c     bg_animation.obj
 0002:000009b8       ??_C@_08LGBPINEC@duration?$AA@ 1009f9b8     bg_animation.obj
 0002:000009c4       ??_C@_0CF@IDKLLOPB@BG_ParseCommands?3?5expected?5anima@ 1009f9c4     bg_animation.obj
 0002:000009ec       ??_C@_0DN@PHOKFKLF@BG_ParseCommands?3?5exceeded?5maxim@ 1009f9ec     bg_animation.obj
 0002:00000a2c       ??_C@_01CELHOKLL@?$HN?$AA@ 1009fa2c     bg_animation.obj
 0002:00000a30       ??_C@_0DD@MDBCOIMN@BG_AnimParseAnimScript?3?5unexpect@ 1009fa30     bg_animation.obj
 0002:00000a64       ??_C@_0DL@CKDAIKPD@BG_AnimParseAnimScript?3?5exceeded@ 1009fa64     bg_animation.obj
 0002:00000aa0       ??_C@_0DP@JNENAFJB@BG_AnimParseAnimScript?3?5exceeded@ 1009faa0     bg_animation.obj
 0002:00000ae0       ??_C@_0CH@FDBPNPON@BG_AnimParseAnimScript?3?5internal@ 1009fae0     bg_animation.obj
 0002:00000b08       ??_C@_0CF@FDLDJDHC@BG_AnimParseAnimScript?3?5expected@ 1009fb08     bg_animation.obj
 0002:00000b30       ??_C@_0CM@FKBIFPHE@BG_AnimParseAnimScript?3?5expected@ 1009fb30     bg_animation.obj
 0002:00000b5c       ??_C@_0CJ@GOMKHFCN@BG_AnimParseAnimScript?3?5expected@ 1009fb5c     bg_animation.obj
 0002:00000b88       ??_C@_05HDBKIDE@state?$AA@ 1009fb88     bg_animation.obj
 0002:00000b90       ??_C@_01HCONENDN@?$HL?$AA@ 1009fb90     bg_animation.obj
 0002:00000b94       ??_C@_0DB@IIJMNBOP@BG_AnimParseAnimScript?3?5expected@ 1009fb94     bg_animation.obj
 0002:00000bc8       ??_C@_01NEMOKFLO@?$DN?$AA@ 1009fbc8     bg_animation.obj
 0002:00000bcc       ??_C@_0DI@DOJNJINO@BG_AnimParseAnimScript?3?5expected@ 1009fbcc     bg_animation.obj
 0002:00000c04       ??_C@_0DJ@INDHDBJB@BG_AnimParseAnimScript?3?5expected@ 1009fc04     bg_animation.obj
 0002:00000c40       ??_C@_0DH@PMLCNFHH@BG_AnimParseAnimScript?3?5expected@ 1009fc40     bg_animation.obj
 0002:00000c78       ??_C@_03KCHOJKKI@set?$AA@  1009fc78     bg_animation.obj
 0002:00000c7c       ??_C@_0BH@ECCOOEHL@BG_AnimParseAnimScript?$AA@ 1009fc7c     bg_animation.obj
 0002:00000c94       ??_C@_0CN@JCKPMIAD@BG_GetAnimString?3?5anim?5index?5is?5@ 1009fc94     bg_animation.obj
 0002:00000cc8       ??_C@_0EK@LAFIIABA@BG_GetConditionBitFlag?3?5animatio@ 1009fcc8     bg_animation.obj
 0002:00000d14       ??_C@_0CN@DLEGEFJG@BG_GetAnimationForIndex?3?5index?5o@ 1009fd14     bg_animation.obj
 0002:00000d44       __real@00000000            1009fd44     bg_animation.obj
 0002:00000d48       ??_C@_0BK@OKFEFFGN@?$FO1ERROR?3?5?$CFs?0?5line?5?$CFd?3?5?$CFs?6?$AA@ 1009fd48     bg_animgroup.obj
 0002:00000d64       ??_C@_06IMHBHKA@firing?$AA@ 1009fd64     bg_animgroup.obj
 0002:00000d6c       ??_C@_05MNHFFADL@climb?$AA@ 1009fd6c     bg_animgroup.obj
 0002:00000d74       ??_C@_0BK@FLIAOMB@expected?5reversed?5integer?$AA@ 1009fd74     bg_animgroup.obj
 0002:00000d90       ??_C@_0BM@BFEFIFBI@expected?5transition?5integer?$AA@ 1009fd90     bg_animgroup.obj
 0002:00000dac       ??_C@_0BM@HDALPJFB@expected?5move?5speed?5integer?$AA@ 1009fdac     bg_animgroup.obj
 0002:00000dc8       __real@408f400000000000    1009fdc8     bg_animgroup.obj
 0002:00000dd0       ??_C@_0BF@IDODNCCM@expected?5fps?5integer?$AA@ 1009fdd0     bg_animgroup.obj
 0002:00000de8       ??_C@_0BJ@PJOBADON@expected?5looping?5integer?$AA@ 1009fde8     bg_animgroup.obj
 0002:00000e04       ??_C@_0BI@ODMPOCFA@expected?5length?5integer?$AA@ 1009fe04     bg_animgroup.obj
 0002:00000e1c       ??_C@_0BN@HLFFIMPM@expected?5first?5frame?5integer?$AA@ 1009fe1c     bg_animgroup.obj
 0002:00000e3c       ??_C@_0N@HBKHDLKP@expected?5?8?$HL?8?$AA@ 1009fe3c     bg_animgroup.obj
 0002:00000e4c       ??_C@_0BP@JILEJOJD@out?5of?5animation?5storage?5space?$AA@ 1009fe4c     bg_animgroup.obj
 0002:00000e6c       ??_C@_0P@BFDGOIGG@unexpected?5EOF?$AA@ 1009fe6c     bg_animgroup.obj
 0002:00000e7c       ??_C@_0BC@JLAEEEKF@failed?5to?5load?5?$CFs?$AA@ 1009fe7c     bg_animgroup.obj
 0002:00000e90       ??_C@_0BG@PFGCPLLN@expected?5mdx?5filename?$AA@ 1009fe90     bg_animgroup.obj
 0002:00000ea8       ??_C@_0BF@ENDGGKLH@expected?5?8animgroup?8?$AA@ 1009fea8     bg_animgroup.obj
 0002:00000ec0       ??_C@_0BD@KLLJFPMA@unknown?5token?5?8?$CFs?8?$AA@ 1009fec0     bg_animgroup.obj
 0002:00000ed4       ??_C@_08DENAEOEP@animfile?$AA@ 1009fed4     bg_animgroup.obj
 0002:00000ee0       ??_C@_09BLJHIMBB@animgroup?$AA@ 1009fee0     bg_animgroup.obj
 0002:00000eec       ??_C@_0BI@BDKHJKHJ@expected?5?8characterDef?8?$AA@ 1009feec     bg_character.obj
 0002:00000f04       ??_C@_0BP@FLJCIJJ@expected?5hudheadanims?5filename?$AA@ 1009ff04     bg_character.obj
 0002:00000f24       ??_C@_0N@KIHKDELA@hudheadanims?$AA@ 1009ff24     bg_character.obj
 0002:00000f34       ??_C@_0BO@DKHKELON@expected?5hudheadskin?5filename?$AA@ 1009ff34     bg_character.obj
 0002:00000f54       ??_C@_0M@NCDEKCDI@hudheadskin?$AA@ 1009ff54     bg_character.obj
 0002:00000f60       ??_C@_0BK@EJMCICHM@expected?5hudhead?5filename?$AA@ 1009ff60     bg_character.obj
 0002:00000f7c       ??_C@_07FJNIBNFB@hudhead?$AA@ 1009ff7c     bg_character.obj
 0002:00000f84       ??_C@_0BH@JECGHBI@expected?5skin?5filename?$AA@ 1009ff84     bg_character.obj
 0002:00000f9c       ??_C@_04NHPAFEHJ@skin?$AA@ 1009ff9c     bg_character.obj
 0002:00000fa4       ??_C@_0BH@FABHMNJK@expected?5mesh?5filename?$AA@ 1009ffa4     bg_character.obj
 0002:00000fbc       ??_C@_04KPBEILIJ@mesh?$AA@ 1009ffbc     bg_character.obj
 0002:00000fc4       ??_C@_0CG@MEMANCED@expected?5undressedCorpseSkin?5fil@ 1009ffc4     bg_character.obj
 0002:00000fec       ??_C@_0BE@PKNBBHON@undressedCorpseSkin?$AA@ 1009ffec     bg_character.obj
 0002:00001000       ??_C@_0CH@JAPNHCPA@expected?5undressedCorpseModel?5fi@ 100a0000     bg_character.obj
 0002:00001028       ??_C@_0BF@CFGKJJGO@undressedCorpseModel?$AA@ 100a0028     bg_character.obj
 0002:00001040       ??_C@_0CC@BJHLMGJK@expected?5animationScript?5filenam@ 100a0040     bg_character.obj
 0002:00001064       ??_C@_0BA@JAPCLMGJ@animationScript?$AA@ 100a0064     bg_character.obj
 0002:00001074       ??_C@_0CB@LKKCFNPJ@expected?5animationGroup?5filename@ 100a0074     bg_character.obj
 0002:00001098       ??_C@_0P@GIEBGGMD@animationGroup?$AA@ 100a0098     bg_character.obj
 0002:000010a8       ??_C@_0N@LBLHOIAH@characterDef?$AA@ 100a00a8     bg_character.obj
 0002:000010b8       ??_C@_0BJ@MEABGLAC@ui?1assets?1mp_spy_red?4tga?$AA@ 100a00b8     bg_classes.obj
 0002:000010d4       ??_C@_0CF@LADOJIJE@characters?1temperate?1axis?1cvops?4@ 100a00d4     bg_classes.obj
 0002:000010fc       ??_C@_0BK@JLOKNMIC@ui?1assets?1mp_ammo_red?4tga?$AA@ 100a00fc     bg_classes.obj
 0002:00001118       ??_C@_0CI@EJJKLOOH@characters?1temperate?1axis?1fieldo@ 100a0118     bg_classes.obj
 0002:00001140       ??_C@_0BM@EEHPCACN@ui?1assets?1mp_wrench_red?4tga?$AA@ 100a0140     bg_classes.obj
 0002:0000115c       ??_C@_0CI@MFMEIBBF@characters?1temperate?1axis?1engine@ 100a015c     bg_classes.obj
 0002:00001184       ??_C@_0BM@PMKFMPBC@ui?1assets?1mp_health_red?4tga?$AA@ 100a0184     bg_classes.obj
 0002:000011a0       ??_C@_0CF@KIKOKBGK@characters?1temperate?1axis?1medic?4@ 100a01a0     bg_classes.obj
 0002:000011c8       ??_C@_0BL@PHEMDMKB@ui?1assets?1mp_arrow_red?4tga?$AA@ 100a01c8     bg_classes.obj
 0002:000011e4       ??_C@_0BJ@HPDKILFC@ui?1assets?1mp_gun_red?4tga?$AA@ 100a01e4     bg_classes.obj
 0002:00001200       ??_C@_0CH@DNCBOENF@characters?1temperate?1axis?1soldie@ 100a0200     bg_classes.obj
 0002:00001228       ??_C@_0BK@LBBHFNIH@ui?1assets?1mp_spy_blue?4tga?$AA@ 100a0228     bg_classes.obj
 0002:00001244       ??_C@_0CH@DLEALHFC@characters?1temperate?1allied?1cvop@ 100a0244     bg_classes.obj
 0002:0000126c       ??_C@_0BL@FMPADFBA@ui?1assets?1mp_ammo_blue?4tga?$AA@ 100a026c     bg_classes.obj
 0002:00001288       ??_C@_0CK@HJBJDAMI@characters?1temperate?1allied?1fiel@ 100a0288     bg_classes.obj
 0002:000012b4       ??_C@_0BN@BKEGBOJF@ui?1assets?1mp_wrench_blue?4tga?$AA@ 100a02b4     bg_classes.obj
 0002:000012d4       ??_C@_0CK@PFEHAPDK@characters?1temperate?1allied?1engi@ 100a02d4     bg_classes.obj
 0002:00001300       ??_C@_0BN@KMJIOJEH@ui?1assets?1mp_health_blue?4tga?$AA@ 100a0300     bg_classes.obj
 0002:00001320       ??_C@_0CH@CDNAIOKM@characters?1temperate?1allied?1medi@ 100a0320     bg_classes.obj
 0002:00001348       ??_C@_0BM@POPLOCIC@ui?1assets?1mp_arrow_blue?4tga?$AA@ 100a0348     bg_classes.obj
 0002:00001364       ??_C@_0BK@NKMHDHJD@ui?1assets?1mp_gun_blue?4tga?$AA@ 100a0364     bg_classes.obj
 0002:00001380       ??_C@_0CJ@LFACCDK@characters?1temperate?1allied?1sold@ 100a0380     bg_classes.obj
 0002:000013ac       ??_C@_07FLGMFKPC@?$FO1ERROR?$AA@ 100a03ac     bg_classes.obj
 0002:000013b4       ??_C@_07JPHEEIGE@?$FOwCvOps?$AA@ 100a03b4     bg_classes.obj
 0002:000013bc       ??_C@_07NFJJBNDF@?$FOwFdOps?$AA@ 100a03bc     bg_classes.obj
 0002:000013c4       ??_C@_06BMCFBOMK@?$FOwEngr?$AA@ 100a03c4     bg_classes.obj
 0002:000013cc       ??_C@_07KMDIGGNH@?$FOwMedic?$AA@ 100a03cc     bg_classes.obj
 0002:000013d4       ??_C@_07EBOBIFDB@?$FOwSoldr?$AA@ 100a03d4     bg_classes.obj
 0002:000013dc       ??_C@_0L@FJJNNBFP@Covert?5Ops?$AA@ 100a03dc     bg_classes.obj
 0002:000013e8       ??_C@_09GKDMDHJJ@Field?5Ops?$AA@ 100a03e8     bg_classes.obj
 0002:000013f4       ??_C@_08FAJHOPML@Engineer?$AA@ 100a03f4     bg_classes.obj
 0002:00001400       ??_C@_05BBLLBHEM@Medic?$AA@ 100a0400     bg_classes.obj
 0002:00001408       ??_C@_07DKDFFMCF@Soldier?$AA@ 100a0408     bg_classes.obj
 0002:00001410       ??_C@_05MBDEGLCK@ERROR?$AA@ 100a0410     bg_classes.obj
 0002:00001418       ??_C@_09CAINNBPP@Covertops?$AA@ 100a0418     bg_classes.obj
 0002:00001424       ??_C@_08ICHGPCJC@Fieldops?$AA@ 100a0424     bg_classes.obj
 0002:00001430       ??_C@_01GFHCPBMG@C?$AA@    100a0430     bg_classes.obj
 0002:00001434       ??_C@_01BIAFAFID@F?$AA@    100a0434     bg_classes.obj
 0002:00001438       ??_C@_01DDCIFGEA@E?$AA@    100a0438     bg_classes.obj
 0002:0000143c       ??_C@_01PLPBNMEI@M?$AA@    100a043c     bg_classes.obj
 0002:00001440       ??_C@_01CPLAODJH@S?$AA@    100a0440     bg_classes.obj
 0002:00001444       ??_C@_05EBJGJMAL@brown?$AA@ 100a0444     bg_misc.obj
 0002:0000144c       ??_C@_05BIMBDNDC@black?$AA@ 100a044c     bg_misc.obj
 0002:00001454       ??_C@_06CFJMLPNA@dkgrey?$AA@ 100a0454     bg_misc.obj
 0002:0000145c       ??_C@_06EBFCEING@mdgrey?$AA@ 100a045c     bg_misc.obj
 0002:00001464       ??_C@_06OEPDEBPJ@ltgrey?$AA@ 100a0464     bg_misc.obj
 0002:0000146c       ??_C@_06MDCFBJCH@mdblue?$AA@ 100a046c     bg_misc.obj
 0002:00001474       ??_C@_08PBNGCPKP@mdorange?$AA@ 100a0474     bg_misc.obj
 0002:00001480       ??_C@_08MPHFJJCJ@mdyellow?$AA@ 100a0480     bg_misc.obj
 0002:0000148c       ??_C@_06GBFJEFFN@mdcyan?$AA@ 100a048c     bg_misc.obj
 0002:00001494       ??_C@_07GILEFCFG@dkgreen?$AA@ 100a0494     bg_misc.obj
 0002:0000149c       ??_C@_07IBLDDJJE@mdgreen?$AA@ 100a049c     bg_misc.obj
 0002:000014a4       ??_C@_05BIFOFMCK@mdred?$AA@ 100a04a4     bg_misc.obj
 0002:000014ac       ??_C@_06HDDOCMMN@orange?$AA@ 100a04ac     bg_misc.obj
 0002:000014b4       ??_C@_04EDBDANFH@cyan?$AA@ 100a04b4     bg_misc.obj
 0002:000014bc       ??_C@_07EMDGAPCI@magenta?$AA@ 100a04bc     bg_misc.obj
 0002:000014c4       ??_C@_06ENJNJKEL@yellow?$AA@ 100a04c4     bg_misc.obj
 0002:000014cc       ??_C@_04OBGPFBCN@blue?$AA@ 100a04cc     bg_misc.obj
 0002:000014d4       ??_C@_05GBEEJKMC@green?$AA@ 100a04d4     bg_misc.obj
 0002:000014dc       ??_C@_03FAAAOPJM@red?$AA@  100a04dc     bg_misc.obj
 0002:000014e0       ??_C@_05PMAELIEO@white?$AA@ 100a04e0     bg_misc.obj
 0002:000014e8       ??_C@_04PIJKLOJC@JOHN?$AA@ 100a04e8     bg_misc.obj
 0002:000014f0       ??_C@_09LPNOPLMG@Foot?5Kick?$AA@ 100a04f0     bg_misc.obj
 0002:000014fc       ??_C@_04IIAILPMN@FOOT?$AA@ 100a04fc     bg_misc.obj
 0002:00001504       ??_C@_06ONLJKEMD@Poison?$AA@ 100a0504     bg_misc.obj
 0002:0000150c       ??_C@_04CMGEDHJK@POIS?$AA@ 100a050c     bg_misc.obj
 0002:00001514       ??_C@_04BNJHALAE@VENM?$AA@ 100a0514     bg_misc.obj
 0002:0000151c       ??_C@_04MMOJLDFH@BAZ?5?$AA@ 100a051c     bg_misc.obj
 0002:00001524       ??_C@_04MCPKOCOP@BAR?5?$AA@ 100a0524     bg_misc.obj
 0002:0000152c       ??_C@_06DCLEAJKA@StG?544?$AA@ 100a052c     bg_misc.obj
 0002:00001534       ??_C@_04MKPLCFAD@MP44?$AA@ 100a0534     bg_misc.obj
 0002:0000153c       ??_C@_0M@OPPJBMIL@Browning?5MG?$AA@ 100a053c     bg_misc.obj
 0002:00001548       ??_C@_04LPNGLNOK@BRNG?$AA@ 100a0548     bg_misc.obj
 0002:00001550       ??_C@_04LNNPJPIG@SHOT?$AA@ 100a0550     bg_misc.obj
 0002:00001558       ??_C@_04JDKPDOCF@K?943?$AA@ 100a0558     bg_misc.obj
 0002:00001560       ??_C@_04PBGECLLG@GARN?$AA@ 100a0560     bg_misc.obj
 0002:00001568       ??_C@_09NEGJIGCF@MG?942?5Gun?$AA@ 100a0568     bg_misc.obj
 0002:00001574       ??_C@_04MJKNOOLM@LNMN?$AA@ 100a0574     bg_misc.obj
 0002:0000157c       ??_C@_09HGGAMOMN@G?4Launchr?$AA@ 100a057c     bg_misc.obj
 0002:00001588       ??_C@_04KFHAFNLN@GRLN?$AA@ 100a0588     bg_misc.obj
 0002:00001590       ??_C@_07FLFCCDCE@Satchel?$AA@ 100a0590     bg_misc.obj
 0002:00001598       ??_C@_04EIHNNDJI@STCH?$AA@ 100a0598     bg_misc.obj
 0002:000015a0       ??_C@_04DNIGNOED@ARTY?$AA@ 100a05a0     bg_misc.obj
 0002:000015a8       ??_C@_09KHLPGPGB@Airstrike?$AA@ 100a05a8     bg_misc.obj
 0002:000015b4       ??_C@_04INGHLGIL@ARST?$AA@ 100a05b4     bg_misc.obj
 0002:000015bc       ??_C@_08FNEIIMLN@Dynamite?$AA@ 100a05bc     bg_misc.obj
 0002:000015c8       ??_C@_04LBMNGIMN@DYNA?$AA@ 100a05c8     bg_misc.obj
 0002:000015d0       ??_C@_04BLICOKIJ@MRTR?$AA@ 100a05d0     bg_misc.obj
 0002:000015d8       ??_C@_04FMBLGBFJ@GRND?$AA@ 100a05d8     bg_misc.obj
 0002:000015e0       ??_C@_09FEKCIACN@F?4Thrower?$AA@ 100a05e0     bg_misc.obj
 0002:000015ec       ??_C@_04LCDJEDB@FLAM?$AA@  100a05ec     bg_misc.obj
 0002:000015f4       ??_C@_06PDHLIOKC@Panzer?$AA@ 100a05f4     bg_misc.obj
 0002:000015fc       ??_C@_04JDKDHMJH@PNZR?$AA@ 100a05fc     bg_misc.obj
 0002:00001604       ??_C@_05OBKFFNKK@FG?942?$AA@ 100a0604     bg_misc.obj
 0002:0000160c       ??_C@_04CGLPNMLC@FG42?$AA@ 100a060c     bg_misc.obj
 0002:00001614       ??_C@_04BKKKAIKM@STEN?$AA@ 100a0614     bg_misc.obj
 0002:0000161c       ??_C@_04GABKMBCO@TMPS?$AA@ 100a061c     bg_misc.obj
 0002:00001624       ??_C@_05GLJEIEHJ@MP?940?$AA@ 100a0624     bg_misc.obj
 0002:0000162c       ??_C@_04ECKOIOOE@COLT?$AA@ 100a062c     bg_misc.obj
 0002:00001634       ??_C@_04KFFFOGKJ@LUGR?$AA@ 100a0634     bg_misc.obj
 0002:0000163c       ??_C@_04LEFNBAHI@KNIF?$AA@ 100a063c     bg_misc.obj
 0002:00001644       ??_C@_0BG@BFOKKGJA@vote_allow_maprestart?$AA@ 100a0644     bg_misc.obj
 0002:0000165c       ??_C@_0BA@IONFABE@vote_allow_poll?$AA@ 100a065c     bg_misc.obj
 0002:0000166c       ??_C@_0BI@DHIOBPN@vote_allow_nextcampaign?$AA@ 100a066c     bg_misc.obj
 0002:00001684       ??_C@_0BL@KHEHEHLP@vote_allow_restartcampaign?$AA@ 100a0684     bg_misc.obj
 0002:000016a0       ??_C@_0BF@CCONGFFD@vote_allow_surrender?$AA@ 100a06a0     bg_misc.obj
 0002:000016b8       ??_C@_0BC@OODKGFIE@vote_allow_muting?$AA@ 100a06b8     bg_misc.obj
 0002:000016cc       ??_C@_0BJ@NHFEAGDG@vote_allow_balancedteams?$AA@ 100a06cc     bg_misc.obj
 0002:000016e8       ??_C@_0BD@FMHFOJHO@vote_allow_antilag?$AA@ 100a06e8     bg_misc.obj
 0002:000016fc       ??_C@_0BI@NLJBAGJA@vote_allow_warmupdamage?$AA@ 100a06fc     bg_misc.obj
 0002:00001714       ??_C@_0BF@DKEANCDI@vote_allow_timelimit?$AA@ 100a0714     bg_misc.obj
 0002:0000172c       ??_C@_0BI@PFABBADB@vote_allow_friendlyfire?$AA@ 100a072c     bg_misc.obj
 0002:00001744       ??_C@_0BF@PGDMBKNA@vote_allow_swapteams?$AA@ 100a0744     bg_misc.obj
 0002:0000175c       ??_C@_0CE@CJDEKLPI@vote_allow_shuffleteamsxp_norest@ 100a075c     bg_misc.obj
 0002:00001780       ??_C@_0BK@OALPDKPA@vote_allow_shuffleteamsxp?$AA@ 100a0780     bg_misc.obj
 0002:0000179c       ??_C@_0BD@KCFBCPCP@vote_allow_referee?$AA@ 100a079c     bg_misc.obj
 0002:000017b0       ??_C@_0P@ELFLBPBG@vote_allow_pub?$AA@ 100a07b0     bg_misc.obj
 0002:000017c0       ??_C@_0BD@NFNPNPJD@vote_allow_nextmap?$AA@ 100a07c0     bg_misc.obj
 0002:000017d4       ??_C@_0BF@NAOJJNDM@vote_allow_mutespecs?$AA@ 100a07d4     bg_misc.obj
 0002:000017ec       ??_C@_0BG@OMGFOAJP@vote_allow_matchreset?$AA@ 100a07ec     bg_misc.obj
 0002:00001804       ??_C@_0P@IKPDOLCL@vote_allow_map?$AA@ 100a0804     bg_misc.obj
 0002:00001814       ??_C@_0BA@HOKLHIKB@vote_allow_kick?$AA@ 100a0814     bg_misc.obj
 0002:00001824       ??_C@_0BE@FMIBNCLG@vote_allow_gametype?$AA@ 100a0824     bg_misc.obj
 0002:00001838       ??_C@_0BA@MIBIIKCM@vote_allow_comp?$AA@ 100a0838     bg_misc.obj
 0002:00001848       ??_C@_07CKBMEGKL@Foxtrot?$AA@ 100a0848     bg_misc.obj
 0002:00001850       ??_C@_04CEPMGKMG@Echo?$AA@ 100a0850     bg_misc.obj
 0002:00001858       ??_C@_05NFMIDMMK@Delta?$AA@ 100a0858     bg_misc.obj
 0002:00001860       ??_C@_07OLFAKPLM@Charlie?$AA@ 100a0860     bg_misc.obj
 0002:00001868       ??_C@_05LODMLFHI@Bravo?$AA@ 100a0868     bg_misc.obj
 0002:00001870       ??_C@_05IHOGHNDL@Alpha?$AA@ 100a0870     bg_misc.obj
 0002:00001878       ??_C@_03HCJBLCDO@GoA?$AA@  100a0878     bg_misc.obj
 0002:0000187c       ??_C@_03OKKLIIDB@GLt?$AA@  100a087c     bg_misc.obj
 0002:00001880       ??_C@_03DPCINNNJ@GMj?$AA@  100a0880     bg_misc.obj
 0002:00001884       ??_C@_03GBANGNDJ@BGn?$AA@  100a0884     bg_misc.obj
 0002:00001888       ??_C@_03NMBLBFLB@Cnl?$AA@  100a0888     bg_misc.obj
 0002:0000188c       ??_C@_03IHNFBLCM@LtC?$AA@  100a088c     bg_misc.obj
 0002:00001890       ??_C@_03GBMCICDJ@Maj?$AA@  100a0890     bg_misc.obj
 0002:00001894       ??_C@_03EILIADJC@Cpt?$AA@  100a0894     bg_misc.obj
 0002:00001898       ??_C@_03FCBHOPFE@FLt?$AA@  100a0898     bg_misc.obj
 0002:0000189c       ??_C@_03DFNAEIPJ@SLt?$AA@  100a089c     bg_misc.obj
 0002:000018a0       ??_C@_03OAFDBNBB@SMj?$AA@  100a08a0     bg_misc.obj
 0002:000018a4       ??_C@_03PDIDMNIK@MSg?$AA@  100a08a4     bg_misc.obj
 0002:000018a8       ??_C@_03KIEAGNBL@SFC?$AA@  100a08a8     bg_misc.obj
 0002:000018ac       ??_C@_03EDEFONCG@SSg?$AA@  100a08ac     bg_misc.obj
 0002:000018b0       ??_C@_03BMIOBPI@Sgt?$AA@   100a08b0     bg_misc.obj
 0002:000018b4       ??_C@_03MKKDJLML@Cpl?$AA@  100a08b4     bg_misc.obj
 0002:000018b8       ??_C@_03LKPFMCPF@PFC?$AA@  100a08b8     bg_misc.obj
 0002:000018bc       ??_C@_03OJJIHFB@Pvt?$AA@   100a08bc     bg_misc.obj
 0002:000018c0       ??_C@_03PPEJFBBE@Fdm?$AA@  100a08c0     bg_misc.obj
 0002:000018c4       ??_C@_03GNBKAPIF@Gen?$AA@  100a08c4     bg_misc.obj
 0002:000018c8       ??_C@_03ODLJNOCI@LtG?$AA@  100a08c8     bg_misc.obj
 0002:000018cc       ??_C@_03HGFJLDJ@Gmj?$AA@   100a08cc     bg_misc.obj
 0002:000018d0       ??_C@_03FJEACLNJ@Bgn?$AA@  100a08d0     bg_misc.obj
 0002:000018d4       ??_C@_03FCINFNPD@Obs?$AA@  100a08d4     bg_misc.obj
 0002:000018d8       ??_C@_03JPNHFDGN@Obl?$AA@  100a08d8     bg_misc.obj
 0002:000018dc       ??_C@_03OPIMPFIB@Mjr?$AA@  100a08dc     bg_misc.obj
 0002:000018e0       ??_C@_03JPLJIEJD@Hpt?$AA@  100a08e0     bg_misc.obj
 0002:000018e4       ??_C@_03BHFCOGDO@Olt?$AA@  100a08e4     bg_misc.obj
 0002:000018e8       ??_C@_03KHPPEBMD@Ltn?$AA@  100a08e8     bg_misc.obj
 0002:000018ec       ??_C@_03HINMHCKA@Osf?$AA@  100a08ec     bg_misc.obj
 0002:000018f0       ??_C@_03CLCHNIAM@Sfw?$AA@  100a08f0     bg_misc.obj
 0002:000018f4       ??_C@_03KMDPAIJC@Hfw?$AA@  100a08f4     bg_misc.obj
 0002:000018f8       ??_C@_03DBOIDACL@Ofw?$AA@  100a08f8     bg_misc.obj
 0002:000018fc       ??_C@_03GGLBFAPC@Fwb?$AA@  100a08fc     bg_misc.obj
 0002:00001900       ??_C@_03IJCLOMIB@Gfr?$AA@  100a0900     bg_misc.obj
 0002:00001904       ??_C@_03JLOEDJHI@Otz?$AA@  100a0904     bg_misc.obj
 0002:00001908       ??_C@_03IBCLNBFP@Stz?$AA@  100a0908     bg_misc.obj
 0002:0000190c       ??_C@_0BE@HJKGCJPJ@General?5of?5the?5Army?$AA@ 100a090c     bg_misc.obj
 0002:00001920       ??_C@_0BD@NBFGKOJI@Lieutenant?5General?$AA@ 100a0920     bg_misc.obj
 0002:00001934       ??_C@_0O@KCPHOANC@Major?5General?$AA@ 100a0934     bg_misc.obj
 0002:00001944       ??_C@_0BC@EJAMAKDN@Brigadier?5General?$AA@ 100a0944     bg_misc.obj
 0002:00001958       ??_C@_07HIMIFLHJ@Colonel?$AA@ 100a0958     bg_misc.obj
 0002:00001960       ??_C@_0BD@OLNCAGHN@Lieutenant?5Colonel?$AA@ 100a0960     bg_misc.obj
 0002:00001974       ??_C@_07CIJMMPOH@Captain?$AA@ 100a0974     bg_misc.obj
 0002:0000197c       ??_C@_0BB@JNIIPJGA@First?5Lieutenant?$AA@ 100a097c     bg_misc.obj
 0002:00001990       ??_C@_0BC@BJHNOCHG@Second?5Lieutenant?$AA@ 100a0990     bg_misc.obj
 0002:000019a4       ??_C@_0P@EIPJLBOK@Sergeant?5Major?$AA@ 100a09a4     bg_misc.obj
 0002:000019b4       ??_C@_0BA@BMJEPCHL@Master?5Sergeant?$AA@ 100a09b4     bg_misc.obj
 0002:000019c4       ??_C@_0BF@KHKABHOI@Sergeant?5First?5Class?$AA@ 100a09c4     bg_misc.obj
 0002:000019dc       ??_C@_0P@MBLNMEJK@Staff?5Sergeant?$AA@ 100a09dc     bg_misc.obj
 0002:000019ec       ??_C@_08HPHGPEFO@Sergeant?$AA@ 100a09ec     bg_misc.obj
 0002:000019f8       ??_C@_08NNPOKHHA@Corporal?$AA@ 100a09f8     bg_misc.obj
 0002:00001a04       ??_C@_0BC@IMKFBNMP@Private?51st?5Class?$AA@ 100a0a04     bg_misc.obj
 0002:00001a18       ??_C@_07CFINJGKH@Private?$AA@ 100a0a18     bg_misc.obj
 0002:00001a20       ??_C@_0O@DJHPBGIM@Feldmarschall?$AA@ 100a0a20     bg_misc.obj
 0002:00001a30       ??_C@_07ECEMPDJM@General?$AA@ 100a0a30     bg_misc.obj
 0002:00001a38       ??_C@_0BA@NHCNCPGC@Generalleutnant?$AA@ 100a0a38     bg_misc.obj
 0002:00001a48       ??_C@_0N@CBMLOIAM@Generalmajor?$AA@ 100a0a48     bg_misc.obj
 0002:00001a58       ??_C@_0P@OKLJIMGI@Brigadegeneral?$AA@ 100a0a58     bg_misc.obj
 0002:00001a68       ??_C@_06BIOMHBJB@Oberst?$AA@ 100a0a68     bg_misc.obj
 0002:00001a70       ??_C@_0P@DIBOAHOM@Oberstleutnant?$AA@ 100a0a70     bg_misc.obj
 0002:00001a80       ??_C@_05FDLAJJBN@Major?$AA@ 100a0a80     bg_misc.obj
 0002:00001a88       ??_C@_09BJGEMGKL@Hauptmann?$AA@ 100a0a88     bg_misc.obj
 0002:00001a94       ??_C@_0N@NNBNAPAN@Oberleutnant?$AA@ 100a0a94     bg_misc.obj
 0002:00001aa4       ??_C@_08DLDKAGFE@Leutnant?$AA@ 100a0aa4     bg_misc.obj
 0002:00001ab0       ??_C@_0BD@OBOCDBBK@Oberstabsfeldwebel?$AA@ 100a0ab0     bg_misc.obj
 0002:00001ac4       ??_C@_0P@FHPJDBMB@Stabsfeldwebel?$AA@ 100a0ac4     bg_misc.obj
 0002:00001ad4       ??_C@_0P@JCNIPANN@Hauptfeldwebel?$AA@ 100a0ad4     bg_misc.obj
 0002:00001ae4       ??_C@_0O@CCEHOAHC@Oberfeldwebel?$AA@ 100a0ae4     bg_misc.obj
 0002:00001af4       ??_C@_09DABGCOCL@Feldwebel?$AA@ 100a0af4     bg_misc.obj
 0002:00001b00       ??_C@_09GAMHIJCE@Gefreiter?$AA@ 100a0b00     bg_misc.obj
 0002:00001b0c       ??_C@_0M@MPFLHNKD@Oberschutze?$AA@ 100a0b0c     bg_misc.obj
 0002:00001b18       ??_C@_07ILAOCFOM@Schutze?$AA@ 100a0b18     bg_misc.obj
 0002:00001b20       ??_C@_0BM@IOBMNPPG@axis_hq_promo_feldmarschall?$AA@ 100a0b20     bg_misc.obj
 0002:00001b3c       ??_C@_0BG@CCKHFHD@axis_hq_promo_general?$AA@ 100a0b3c     bg_misc.obj
 0002:00001b54       ??_C@_0CB@FFBKJAK@axis_hq_promo_general_lieutenant@ 100a0b54     bg_misc.obj
 0002:00001b78       ??_C@_0BO@NEINGNBL@axis_hq_promo_general_brigade?$AA@ 100a0b78     bg_misc.obj
 0002:00001b98       ??_C@_0BM@LPDDNAMN@axis_hq_promo_general_major?$AA@ 100a0b98     bg_misc.obj
 0002:00001bb4       ??_C@_0BG@DIKONNJG@axis_hq_promo_colonel?$AA@ 100a0bb4     bg_misc.obj
 0002:00001bcc       ??_C@_0BP@DDAIMHOJ@axis_hq_promo_colonel_leutnant?$AA@ 100a0bcc     bg_misc.obj
 0002:00001bec       ??_C@_0BE@LIONHKGL@axis_hq_promo_major?$AA@ 100a0bec     bg_misc.obj
 0002:00001c00       ??_C@_0BG@GIPKEJAI@axis_hq_promo_captain?$AA@ 100a0c00     bg_misc.obj
 0002:00001c18       ??_C@_0BO@ENKGKBCB@axis_hq_promo_lieutenant_ober?$AA@ 100a0c18     bg_misc.obj
 0002:00001c38       ??_C@_0BJ@BALGLEKA@axis_hq_promo_lieutenant?$AA@ 100a0c38     bg_misc.obj
 0002:00001c54       ??_C@_0CB@FCBGCEMB@axis_hq_promo_sergeant_oberstabs@ 100a0c54     bg_misc.obj
 0002:00001c78       ??_C@_0BN@LCAMLBPP@axis_hq_promo_sergeant_stabs?$AA@ 100a0c78     bg_misc.obj
 0002:00001c98       ??_C@_0BN@PMIFHKEE@axis_hq_promo_sergeant_haupt?$AA@ 100a0c98     bg_misc.obj
 0002:00001cb8       ??_C@_0BM@OFBPDPHC@axis_hq_promo_sergeant_ober?$AA@ 100a0cb8     bg_misc.obj
 0002:00001cd4       ??_C@_0BH@EPIDGNDB@axis_hq_promo_sergeant?$AA@ 100a0cd4     bg_misc.obj
 0002:00001cec       ??_C@_0BH@ONALDOBP@axis_hq_promo_corporal?$AA@ 100a0cec     bg_misc.obj
 0002:00001d04       ??_C@_0BG@GFOLBAEI@axis_hq_promo_private?$AA@ 100a0d04     bg_misc.obj
 0002:00001d1c       ??_C@_0BP@CEIKGCDA@allies_hq_promo_general_ofarmy?$AA@ 100a0d1c     bg_misc.obj
 0002:00001d3c       ??_C@_0BI@KCOFOFBP@allies_hq_promo_general?$AA@ 100a0d3c     bg_misc.obj
 0002:00001d54       ??_C@_0CD@FDAHAOAJ@allies_hq_promo_general_lieutena@ 100a0d54     bg_misc.obj
 0002:00001d78       ??_C@_0CC@GGJFIPMA@allies_hq_promo_general_brigadie@ 100a0d78     bg_misc.obj
 0002:00001d9c       ??_C@_0BO@OGFFJLMM@allies_hq_promo_general_major?$AA@ 100a0d9c     bg_misc.obj
 0002:00001dbc       ??_C@_0BI@JIGBENPK@allies_hq_promo_colonel?$AA@ 100a0dbc     bg_misc.obj
 0002:00001dd4       ??_C@_0CD@JAFOFFDP@allies_hq_promo_colonel_lieutena@ 100a0dd4     bg_misc.obj
 0002:00001df8       ??_C@_0BG@HAMCCEND@allies_hq_promo_major?$AA@ 100a0df8     bg_misc.obj
 0002:00001e10       ??_C@_0BI@MIDFNJGE@allies_hq_promo_captain?$AA@ 100a0e10     bg_misc.obj
 0002:00001e28       ??_C@_0BL@CLOBNDHP@allies_hq_promo_lieutenant?$AA@ 100a0e28     bg_misc.obj
 0002:00001e44       ??_C@_0CC@BLLNBPGH@allies_hq_promo_lieutenant_secon@ 100a0e44     bg_misc.obj
 0002:00001e68       ??_C@_0BP@JCEMLJCI@allies_hq_promo_sergeant_major?$AA@ 100a0e68     bg_misc.obj
 0002:00001e88       ??_C@_0CA@NLKPGPKP@allies_hq_promo_sergeant_master?$AA@ 100a0e88     bg_misc.obj
 0002:00001ea8       ??_C@_0BM@GPIEALI@allies_hq_promo_sergeant_fc?$AA@ 100a0ea8     bg_misc.obj
 0002:00001ec4       ??_C@_0BP@PFOOKJOK@allies_hq_promo_sergeant_staff?$AA@ 100a0ec4     bg_misc.obj
 0002:00001ee4       ??_C@_0BJ@LCHIPNC@allies_hq_promo_sergeant?$AA@ 100a0ee4     bg_misc.obj
 0002:00001f00       ??_C@_0BJ@KJKPNMPM@allies_hq_promo_corporal?$AA@ 100a0f00     bg_misc.obj
 0002:00001f1c       ??_C@_0BI@MFCEIACE@allies_hq_promo_private?$AA@ 100a0f1c     bg_misc.obj
 0002:00001f34       ??_C@_09MDBFHCAB@Blue?5Flag?$AA@ 100a0f34     bg_misc.obj
 0002:00001f40       ??_C@_0BC@NLKCOFAB@team_CTF_blueflag?$AA@ 100a0f40     bg_misc.obj
 0002:00001f54       ??_C@_09BFBOLFMF@Objective?$AA@ 100a0f54     bg_misc.obj
 0002:00001f60       ??_C@_0BB@JNMMCIHG@team_CTF_redflag?$AA@ 100a0f60     bg_misc.obj
 0002:00001f74       ??_C@_0N@BCPMGCMF@Johnson?5Clip?$AA@ 100a0f74     bg_misc.obj
 0002:00001f84       ??_C@_0N@LMFLNMAH@ammo_johnson?$AA@ 100a0f84     bg_misc.obj
 0002:00001f94       ??_C@_0BM@FEICAMDO@models?1ammo?1panzerfaust?4md3?$AA@ 100a0f94     bg_misc.obj
 0002:00001fb0       ??_C@_0BB@HPGOOBBD@ammo_panzerfaust?$AA@ 100a0fb0     bg_misc.obj
 0002:00001fc4       ??_C@_0P@KDLJFGAP@Bazooka?5Rocket?$AA@ 100a0fc4     bg_misc.obj
 0002:00001fd4       ??_C@_0BI@PPLLOMGH@models?1ammo?1bazooka?4md3?$AA@ 100a0fd4     bg_misc.obj
 0002:00001fec       ??_C@_0N@NGKBGKPL@ammo_bazooka?$AA@ 100a0fec     bg_misc.obj
 0002:00001ffc       ??_C@_0N@MEPFBIJM@Mortar?5Shell?$AA@ 100a0ffc     bg_misc.obj
 0002:0000200c       ??_C@_0BH@MBKBNNIG@models?1ammo?1mortar?4md3?$AA@ 100a100c     bg_misc.obj
 0002:00002024       ??_C@_0M@KHMIEMLK@ammo_mortar?$AA@ 100a1024     bg_misc.obj
 0002:00002030       ??_C@_0BA@GOCMNNCC@Venom?5Ammo?5Belt?$AA@ 100a1030     bg_misc.obj
 0002:00002040       ??_C@_0L@JEMJMKLH@ammo_venom?$AA@ 100a1040     bg_misc.obj
 0002:0000204c       ??_C@_0L@BIFLFAKA@Kar43?5Clip?$AA@ 100a104c     bg_misc.obj
 0002:00002058       ??_C@_0L@GLDDGOAG@ammo_kar98?$AA@ 100a1058     bg_misc.obj
 0002:00002064       ??_C@_08NMALHCIO@K43?5Clip?$AA@ 100a1064     bg_misc.obj
 0002:00002070       ??_C@_0BE@OEMBEPAF@models?1ammo?1k43?4md3?$AA@ 100a1070     bg_misc.obj
 0002:00002084       ??_C@_08ILKOFLBC@ammo_k43?$AA@ 100a1084     bg_misc.obj
 0002:00002090       ??_C@_09KBKNEHDB@Sten?5Clip?$AA@ 100a1090     bg_misc.obj
 0002:0000209c       ??_C@_0BF@POJFPBLD@models?1ammo?1sten?4md3?$AA@ 100a109c     bg_misc.obj
 0002:000020b4       ??_C@_09KLPJEPEG@ammo_sten?$AA@ 100a10b4     bg_misc.obj
 0002:000020c0       ??_C@_09FDDLGJHN@MP34?5Clip?$AA@ 100a10c0     bg_misc.obj
 0002:000020cc       ??_C@_0BF@PDMNJBLG@models?1ammo?1mp34?4md3?$AA@ 100a10cc     bg_misc.obj
 0002:000020e4       ??_C@_09NDCOBGCO@ammo_mp34?$AA@ 100a10e4     bg_misc.obj
 0002:000020f0       ??_C@_09KGPIBBB@FG42?5Clip?$AA@ 100a10f0     bg_misc.obj
 0002:000020fc       ??_C@_0BF@BEBIOKMK@models?1ammo?1fg42?4md3?$AA@ 100a10fc     bg_misc.obj
 0002:00002114       ??_C@_09DKCFPJBK@ammo_fg42?$AA@ 100a1114     bg_misc.obj
 0002:00002120       ??_C@_08LJNJBMHA@BAR?5Clip?$AA@ 100a1120     bg_misc.obj
 0002:0000212c       ??_C@_0BE@EOGHELPH@models?1ammo?1bar?4md3?$AA@ 100a112c     bg_misc.obj
 0002:00002140       ??_C@_08HFLDIGIH@ammo_bar?$AA@ 100a1140     bg_misc.obj
 0002:0000214c       ??_C@_0L@OOBJAGDC@Stg44?5Clip?$AA@ 100a114c     bg_misc.obj
 0002:00002158       ??_C@_0BG@MKJINHKI@models?1ammo?1stg44?4md3?$AA@ 100a1158     bg_misc.obj
 0002:00002170       ??_C@_0L@OPBMINPA@ammo_stg44?$AA@ 100a1170     bg_misc.obj
 0002:0000217c       ??_C@_0P@LOIGJEFL@Pack?5of?5Shells?$AA@ 100a117c     bg_misc.obj
 0002:0000218c       ??_C@_0BL@KLCDMAII@models?1ammo?1winchester?4md3?$AA@ 100a118c     bg_misc.obj
 0002:000021a8       ??_C@_0N@ODJHJBHM@ammo_shotgun?$AA@ 100a11a8     bg_misc.obj
 0002:000021b8       ??_C@_0BB@BJCCABDG@Browning?5Ammobox?$AA@ 100a11b8     bg_misc.obj
 0002:000021cc       ??_C@_0O@LEGHNEMP@ammo_browning?$AA@ 100a11cc     bg_misc.obj
 0002:000021dc       ??_C@_0P@EKFOAMDO@MG42?5Ammo?5Belt?$AA@ 100a11dc     bg_misc.obj
 0002:000021ec       ??_C@_0BJ@LJBBLCJB@models?1ammo?1ammoBelt?4md3?$AA@ 100a11ec     bg_misc.obj
 0002:00002208       ??_C@_09ENPFMIAL@ammo_mg42?$AA@ 100a1208     bg_misc.obj
 0002:00002214       ??_C@_0M@FDIBNCGH@Garand?5Clip?$AA@ 100a1214     bg_misc.obj
 0002:00002220       ??_C@_0N@EJAEHEIK@ammo_carbine?$AA@ 100a1220     bg_misc.obj
 0002:00002230       ??_C@_0BD@PCGHCLIM@Garand?5Sniper?5Clip?$AA@ 100a1230     bg_misc.obj
 0002:00002244       ??_C@_0BH@CKFLBLJB@models?1ammo?1garand?4md3?$AA@ 100a1244     bg_misc.obj
 0002:0000225c       ??_C@_0M@EJLBCHMD@ammo_garand?$AA@ 100a125c     bg_misc.obj
 0002:00002268       ??_C@_07JNNBFIJM@syringe?$AA@ 100a1268     bg_misc.obj
 0002:00002270       ??_C@_0N@IEFIKFCP@ammo_syringe?$AA@ 100a1270     bg_misc.obj
 0002:00002280       ??_C@_09HEHHMCNO@Colt?5Clip?$AA@ 100a1280     bg_misc.obj
 0002:0000228c       ??_C@_0BF@EEFBPKJB@models?1ammo?1colt?4md3?$AA@ 100a128c     bg_misc.obj
 0002:000022a4       ??_C@_09PDPNMJAO@ammo_colt?$AA@ 100a12a4     bg_misc.obj
 0002:000022b0       ??_C@_0O@GGLFFGAJ@smoke?5grenade?$AA@ 100a12b0     bg_misc.obj
 0002:000022c0       ??_C@_0BD@OGPDMOHE@ammo_smoke_grenade?$AA@ 100a12c0     bg_misc.obj
 0002:000022d4       ??_C@_0L@ICICOOBK@Luger?5Clip?$AA@ 100a12d4     bg_misc.obj
 0002:000022e0       ??_C@_0BG@FHOFBCPM@models?1ammo?1luger?4md3?$AA@ 100a12e0     bg_misc.obj
 0002:000022f8       ??_C@_0L@OLKBLIAK@ammo_luger?$AA@ 100a12f8     bg_misc.obj
 0002:00002304       ??_C@_0P@PLCJINDF@satchel?5charge?$AA@ 100a1304     bg_misc.obj
 0002:00002314       ??_C@_0BE@KHCPJLAF@ammo_satchel_charge?$AA@ 100a1314     bg_misc.obj
 0002:00002328       ??_C@_08IKEDDBIN@landmine?$AA@ 100a1328     bg_misc.obj
 0002:00002334       ??_C@_0O@NIDCFKEG@ammo_landmine?$AA@ 100a1334     bg_misc.obj
 0002:00002344       ??_C@_0BD@HNMJIHCO@airstrike?5canister?$AA@ 100a1344     bg_misc.obj
 0002:00002358       ??_C@_0P@OEAGAGOC@ammo_airstrike?$AA@ 100a1358     bg_misc.obj
 0002:00002368       ??_C@_08CGINOLOA@disguise?$AA@ 100a1368     bg_misc.obj
 0002:00002374       ??_C@_0O@HEPMIACL@ammo_disguise?$AA@ 100a1374     bg_misc.obj
 0002:00002384       ??_C@_08NPLJAOBO@dynamite?$AA@ 100a1384     bg_misc.obj
 0002:00002390       ??_C@_0O@INMIGFNF@ammo_dynamite?$AA@ 100a1390     bg_misc.obj
 0002:000023a0       ??_C@_09KNLBEEHH@MP40?5Clip?$AA@ 100a13a0     bg_misc.obj
 0002:000023ac       ??_C@_0BF@KNPLONCO@models?1ammo?1mp40?4md3?$AA@ 100a13ac     bg_misc.obj
 0002:000023c4       ??_C@_09LCANMFKP@ammo_mp40?$AA@ 100a13c4     bg_misc.obj
 0002:000023d0       ??_C@_0O@GJIGPKKB@Thompson?5Clip?$AA@ 100a13d0     bg_misc.obj
 0002:000023e0       ??_C@_0BJ@PNLFFCCM@models?1ammo?1thompson?4md3?$AA@ 100a13e0     bg_misc.obj
 0002:000023fc       ??_C@_0BH@DPAADLFH@sound?1misc?1am_pkup?4wav?$AA@ 100a13fc     bg_misc.obj
 0002:00002414       ??_C@_0O@BEPPKMEM@ammo_thompson?$AA@ 100a1414     bg_misc.obj
 0002:00002424       ??_C@_07LJACAEOJ@Dog?5Tag?$AA@ 100a1424     bg_misc.obj
 0002:0000242c       ??_C@_0CG@EHNDIEDE@models?1multiplayer?1dogtags?1dogta@ 100a142c     bg_misc.obj
 0002:00002454       ??_C@_0P@BBCFBOAJ@weapon_dogtags?$AA@ 100a1454     bg_misc.obj
 0002:00002464       ??_C@_05INBJFEEM@Venom?$AA@ 100a1464     bg_misc.obj
 0002:0000246c       ??_C@_0BC@MCLFPOGK@icons?1iconw_venom?$AA@ 100a146c     bg_misc.obj
 0002:00002480       ??_C@_0CC@DOIOBJAI@models?1weapons2?1venom?1v_venom?4md@ 100a1480     bg_misc.obj
 0002:000024a4       ??_C@_0CD@MCCBKGGI@models?1weapons2?1venom?1pu_venom?4m@ 100a14a4     bg_misc.obj
 0002:000024c8       ??_C@_0N@LHEAHOFN@weapon_venom?$AA@ 100a14c8     bg_misc.obj
 0002:000024d8       ??_C@_04MPLEDDIG@MP34?$AA@ 100a14d8     bg_misc.obj
 0002:000024e0       ??_C@_0CA@DPLDKGKF@models?1weapons2?1mp34?1v_mp34?4md3?$AA@ 100a14e0     bg_misc.obj
 0002:00002500       ??_C@_0CC@JJPLOKNN@models?1weapons2?1mp34?1mp34_3rd?4md@ 100a1500     bg_misc.obj
 0002:00002524       ??_C@_0M@IDPNEDNJ@weapon_mp34?$AA@ 100a1524     bg_misc.obj
 0002:00002530       ??_C@_07DGFOPFBO@Bazooka?$AA@ 100a1530     bg_misc.obj
 0002:00002538       ??_C@_0CK@MLNENNLB@models?1weapons2?1panzerfaust?1v_ba@ 100a1538     bg_misc.obj
 0002:00002564       ??_C@_0CM@KGFIEPBF@models?1weapons2?1panzerfaust?1bazo@ 100a1564     bg_misc.obj
 0002:00002590       ??_C@_0P@LODMCFIB@weapon_bazooka?$AA@ 100a1590     bg_misc.obj
 0002:000025a0       ??_C@_0O@FHHLJPCJ@Johnson?5Scope?$AA@ 100a15a0     bg_misc.obj
 0002:000025b0       ??_C@_0BF@JLPDOJEM@weapon_Johnson_Scope?$AA@ 100a15b0     bg_misc.obj
 0002:000025c8       ??_C@_07FMKEEDOC@Johnson?$AA@ 100a15c8     bg_misc.obj
 0002:000025d0       ??_C@_0BG@JHEHDEGP@icons?1iconw_johnson_1?$AA@ 100a15d0     bg_misc.obj
 0002:000025e8       ??_C@_0CE@PGOJIGJO@models?1weapons2?1johnson?1johnson?4@ 100a15e8     bg_misc.obj
 0002:0000260c       ??_C@_0P@CNLAPBCL@weapon_Johnson?$AA@ 100a160c     bg_misc.obj
 0002:0000261c       ??_C@_03BGHDGIHE@BAR?$AA@  100a161c     bg_misc.obj
 0002:00002620       ??_C@_0BP@DPKGONBI@models?1weapons2?1bar?1bar3rd?4md3?$AA@ 100a1620     bg_misc.obj
 0002:00002640       ??_C@_0L@KOGMIAIL@weapon_BAR?$AA@ 100a1640     bg_misc.obj
 0002:0000264c       ??_C@_09GIPKKGAO@BAR?5Bipod?$AA@ 100a164c     bg_misc.obj
 0002:00002658       ??_C@_0BC@IHNIAHMI@icons?1iconw_bar_1?$AA@ 100a1658     bg_misc.obj
 0002:0000266c       ??_C@_0BO@MNLFBAPA@models?1weapons2?1bar?1v_bar?4md3?$AA@ 100a166c     bg_misc.obj
 0002:0000268c       ??_C@_0CF@CJPFKDM@models?1weapons2?1bar?1bar3rd_bipod@ 100a168c     bg_misc.obj
 0002:000026b4       ??_C@_0P@OFMNGCKP@weapon_BAR_set?$AA@ 100a16b4     bg_misc.obj
 0002:000026c4       ??_C@_05FGPOLMDF@StG44?$AA@ 100a16c4     bg_misc.obj
 0002:000026cc       ??_C@_0BE@DDCKIGJI@icons?1iconw_stg44_1?$AA@ 100a16cc     bg_misc.obj
 0002:000026e0       ??_C@_0CB@ECJMKPOI@models?1weapons2?1StG44?1v_mp44?4md3@ 100a16e0     bg_misc.obj
 0002:00002704       ??_C@_0BP@CAHBPCIA@models?1weapons2?1StG44?1mp44?4md3?$AA@ 100a1704     bg_misc.obj
 0002:00002724       ??_C@_0N@GLALJDBC@weapon_StG44?$AA@ 100a1724     bg_misc.obj
 0002:00002734       ??_C@_0BA@PIIENDJA@Mobile?5Browning?$AA@ 100a1734     bg_misc.obj
 0002:00002744       ??_C@_0BH@OEPOHPDM@weapon_mobile_browning?$AA@ 100a1744     bg_misc.obj
 0002:0000275c       ??_C@_0BG@DKPFBFCL@Mobile?5Browning?5Bipod?$AA@ 100a175c     bg_misc.obj
 0002:00002774       ??_C@_0BH@NDEHLIOM@icons?1iconw_browning_1?$AA@ 100a1774     bg_misc.obj
 0002:0000278c       ??_C@_0CK@GDGFFID@models?1weapons2?1browning?1v_brown@ 100a178c     bg_misc.obj
 0002:000027b8       ??_C@_0CM@HKOGNKMA@models?1weapons2?1browning?1brown30@ 100a17b8     bg_misc.obj
 0002:000027e4       ??_C@_0BL@OIOGAHH@weapon_mobile_browning_set?$AA@ 100a17e4     bg_misc.obj
 0002:00002800       ??_C@_06LLGHBMJN@Ka?9Bar?$AA@ 100a1800     bg_misc.obj
 0002:00002808       ??_C@_0CK@IEBHMPIP@models?1multiplayer?1knife_kbar?1v_@ 100a1808     bg_misc.obj
 0002:00002834       ??_C@_0CI@GBDAPBJN@models?1multiplayer?1knife_kbar?1kn@ 100a1834     bg_misc.obj
 0002:0000285c       ??_C@_0BD@FHDEJFDP@weapon_knife_kabar?$AA@ 100a185c     bg_misc.obj
 0002:00002870       ??_C@_07DGIAOJJ@Shotgun?$AA@ 100a1870     bg_misc.obj
 0002:00002878       ??_C@_0BL@GKIMENNF@icons?1iconw_shotgun_1_wide?$AA@ 100a1878     bg_misc.obj
 0002:00002894       ??_C@_0CM@FBIDENAC@models?1weapons2?1winchester?1v_win@ 100a1894     bg_misc.obj
 0002:000028c0       ??_C@_0CO@FIBEEMLF@models?1weapons2?1winchester?1winch@ 100a18c0     bg_misc.obj
 0002:000028f0       ??_C@_0P@ILAKNOAG@weapon_shotgun?$AA@ 100a18f0     bg_misc.obj
 0002:00002900       ??_C@_05NLIPEJCP@BLANK?$AA@ 100a1900     bg_misc.obj
 0002:00002908       ??_C@_0N@KGCBOGJK@weapon_dummy?$AA@ 100a1908     bg_misc.obj
 0002:00002918       ??_C@_0L@ILFOJDGJ@sp5?5pistol?$AA@ 100a1918     bg_misc.obj
 0002:00002924       ??_C@_0BH@NFOOGGLB@icons?1iconw_silencer_1?$AA@ 100a1924     bg_misc.obj
 0002:0000293c       ??_C@_0CJ@PJFJNNPK@models?1weapons2?1silencer?1pu_sile@ 100a193c     bg_misc.obj
 0002:00002968       ??_C@_0CI@MKOIFLDA@models?1weapons2?1silencer?1v_silen@ 100a1968     bg_misc.obj
 0002:00002990       ??_C@_0CG@CGPGGACN@models?1weapons2?1silencer?1silence@ 100a1990     bg_misc.obj
 0002:000029b8       ??_C@_0BA@LFBOPKHB@weapon_silencer?$AA@ 100a19b8     bg_misc.obj
 0002:000029c8       ??_C@_0BC@KGGIDFDB@Mobile?5MG42?5Bipod?$AA@ 100a19c8     bg_misc.obj
 0002:000029dc       ??_C@_0BH@LPAECBIO@weapon_mobile_mg42_set?$AA@ 100a19dc     bg_misc.obj
 0002:000029f4       ??_C@_0M@PNMMDIAD@Mobile?5MG42?$AA@ 100a19f4     bg_misc.obj
 0002:00002a00       ??_C@_0BD@CPMCGCNO@icons?1iconw_mg42_1?$AA@ 100a1a00     bg_misc.obj
 0002:00002a14       ??_C@_0CD@HEBMOGN@models?1multiplayer?1mg42?1v_mg42?4m@ 100a1a14     bg_misc.obj
 0002:00002a38       ??_C@_0CF@OCGIPJGL@models?1multiplayer?1mg42?1mg42_3rd@ 100a1a38     bg_misc.obj
 0002:00002a60       ??_C@_0BD@LKEJMBNI@weapon_mobile_mg42?$AA@ 100a1a60     bg_misc.obj
 0002:00002a74       ??_C@_0L@NHPGFDDA@Smoke?5Bomb?$AA@ 100a1a74     bg_misc.obj
 0002:00002a80       ??_C@_0CN@DGNMGPJI@models?1multiplayer?1smokebomb?1v_s@ 100a1a80     bg_misc.obj
 0002:00002ab0       ??_C@_0CL@HDONIDIH@models?1multiplayer?1smokebomb?1smo@ 100a1ab0     bg_misc.obj
 0002:00002adc       ??_C@_0BB@NMEAKGJN@weapon_smokebomb?$AA@ 100a1adc     bg_misc.obj
 0002:00002af0       ??_C@_0BJ@HJKDBKOJ@Satchel?5Charge?5Detonator?$AA@ 100a1af0     bg_misc.obj
 0002:00002b0c       ??_C@_0BE@JAHNMEBI@icons?1iconw_radio_1?$AA@ 100a1b0c     bg_misc.obj
 0002:00002b20       ??_C@_0CF@MBEIHOMH@models?1multiplayer?1satchel?1radio@ 100a1b20     bg_misc.obj
 0002:00002b48       ??_C@_0BI@HPCONGBI@weapon_satchelDetonator?$AA@ 100a1b48     bg_misc.obj
 0002:00002b60       ??_C@_0P@LMFBIKDH@Satchel?5Charge?$AA@ 100a1b60     bg_misc.obj
 0002:00002b70       ??_C@_0BG@EHFFCCAJ@icons?1iconw_satchel_1?$AA@ 100a1b70     bg_misc.obj
 0002:00002b88       ??_C@_0CJ@KIJCLGLG@models?1multiplayer?1satchel?1v_sat@ 100a1b88     bg_misc.obj
 0002:00002bb4       ??_C@_0CH@BPJCFOGJ@models?1multiplayer?1satchel?1satch@ 100a1bb4     bg_misc.obj
 0002:00002bdc       ??_C@_0P@NDDAPDLL@weapon_satchel?$AA@ 100a1bdc     bg_misc.obj
 0002:00002bec       ??_C@_08ILCLDCO@Landmine?$AA@ 100a1bec     bg_misc.obj
 0002:00002bf8       ??_C@_0BH@DDAGFJJM@icons?1iconw_landmine_1?$AA@ 100a1bf8     bg_misc.obj
 0002:00002c10       ??_C@_0CL@CNGCMFFG@models?1multiplayer?1landmine?1v_la@ 100a1c10     bg_misc.obj
 0002:00002c3c       ??_C@_0CJ@DNFPCDBG@models?1multiplayer?1landmine?1land@ 100a1c3c     bg_misc.obj
 0002:00002c68       ??_C@_0BA@GIIKFPCL@weapon_landmine?$AA@ 100a1c68     bg_misc.obj
 0002:00002c78       ??_C@_0BF@NCDFOIGH@Mounted?5Granatwerfer?$AA@ 100a1c78     bg_misc.obj
 0002:00002c90       ??_C@_0BD@ICLJMJCJ@weapon_mortar2_set?$AA@ 100a1c90     bg_misc.obj
 0002:00002ca4       ??_C@_0N@HKMODPNA@Granatwerfer?$AA@ 100a1ca4     bg_misc.obj
 0002:00002cb4       ??_C@_0P@KOPOIJNF@weapon_mortar2?$AA@ 100a1cb4     bg_misc.obj
 0002:00002cc4       ??_C@_0P@MMMJHFLN@Mounted?5Mortar?$AA@ 100a1cc4     bg_misc.obj
 0002:00002cd4       ??_C@_0BC@CGGBACNL@weapon_mortar_set?$AA@ 100a1cd4     bg_misc.obj
 0002:00002ce8       ??_C@_06INLOLHLA@Mortar?$AA@ 100a1ce8     bg_misc.obj
 0002:00002cf0       ??_C@_0BF@KHDFOKKL@icons?1iconw_mortar_1?$AA@ 100a1cf0     bg_misc.obj
 0002:00002d08       ??_C@_0CH@GPOCMLDJ@models?1multiplayer?1mortar?1v_mort@ 100a1d08     bg_misc.obj
 0002:00002d30       ??_C@_0CJ@KFBPFJHI@models?1multiplayer?1mortar?1mortar@ 100a1d30     bg_misc.obj
 0002:00002d5c       ??_C@_0O@OHDEMOGI@weapon_mortar?$AA@ 100a1d5c     bg_misc.obj
 0002:00002d6c       ??_C@_0L@NGNNBKAH@FG42?5Scope?$AA@ 100a1d6c     bg_misc.obj
 0002:00002d78       ??_C@_0BB@IFLIELIJ@weapon_fg42scope?$AA@ 100a1d78     bg_misc.obj
 0002:00002d8c       ??_C@_0BF@NEOIPKLD@FG42?5Paratroop?5Rifle?$AA@ 100a1d8c     bg_misc.obj
 0002:00002da4       ??_C@_0M@NNHMELIL@icons?1ammo5?$AA@ 100a1da4     bg_misc.obj
 0002:00002db0       ??_C@_0BD@CNMFDGCE@icons?1iconw_fg42_1?$AA@ 100a1db0     bg_misc.obj
 0002:00002dc4       ??_C@_0CB@JHNGGBL@models?1weapons2?1fg42?1pu_fg42?4md3@ 100a1dc4     bg_misc.obj
 0002:00002de8       ??_C@_0CA@JIPGBDCM@models?1weapons2?1fg42?1v_fg42?4md3?$AA@ 100a1de8     bg_misc.obj
 0002:00002e08       ??_C@_0BO@DPAGMCPJ@models?1weapons2?1fg42?1fg42?4md3?$AA@ 100a1e08     bg_misc.obj
 0002:00002e28       ??_C@_0M@GKPGKMON@weapon_fg42?$AA@ 100a1e28     bg_misc.obj
 0002:00002e34       ??_C@_0BA@BDCBJLMI@M1?5Garand?5Scope?$AA@ 100a1e34     bg_misc.obj
 0002:00002e44       ??_C@_0BI@EGHKLNHO@weapon_garandRifleScope?$AA@ 100a1e44     bg_misc.obj
 0002:00002e5c       ??_C@_06GDMHNMMJ@Garand?$AA@ 100a1e5c     bg_misc.obj
 0002:00002e64       ??_C@_0BD@BMNLELGG@weapon_garandRifle?$AA@ 100a1e64     bg_misc.obj
 0002:00002e78       ??_C@_09LGFJFBBG@M1?5Garand?$AA@ 100a1e78     bg_misc.obj
 0002:00002e84       ??_C@_0BG@NOMJHDMG@weapon_M1CarbineRifle?$AA@ 100a1e84     bg_misc.obj
 0002:00002e9c       ??_C@_06LHCCBDPK@GPG40A?$AA@ 100a1e9c     bg_misc.obj
 0002:00002ea4       ??_C@_0BI@LDODFNDJ@icons?1iconw_m1_garand_1?$AA@ 100a1ea4     bg_misc.obj
 0002:00002ebc       ??_C@_0CN@JHAAHIHP@models?1multiplayer?1m1_garand?1v_m@ 100a1ebc     bg_misc.obj
 0002:00002eec       ??_C@_0CP@GBEAIANM@models?1multiplayer?1m1_garand?1m1_@ 100a1eec     bg_misc.obj
 0002:00002f1c       ??_C@_0BE@GEGCCGLD@weapon_gpg40_allied?$AA@ 100a1f1c     bg_misc.obj
 0002:00002f30       ??_C@_05JOJELAHI@GPG40?$AA@ 100a1f30     bg_misc.obj
 0002:00002f38       ??_C@_0N@MFDOBKFD@weapon_gpg40?$AA@ 100a1f38     bg_misc.obj
 0002:00002f48       ??_C@_03EFKHNHKD@K43?$AA@  100a1f48     bg_misc.obj
 0002:00002f4c       ??_C@_0BE@EIMPPHEO@icons?1iconw_kar98_1?$AA@ 100a1f4c     bg_misc.obj
 0002:00002f60       ??_C@_0BC@MGMKHEFB@weapon_kar98Rifle?$AA@ 100a1f60     bg_misc.obj
 0002:00002f74       ??_C@_0BA@PEIEBNAM@K43?5Rifle?5Scope?$AA@ 100a1f74     bg_misc.obj
 0002:00002f84       ??_C@_0BD@KLCHMOMN@weapon_kar43_scope?$AA@ 100a1f84     bg_misc.obj
 0002:00002f98       ??_C@_09FPGDCOLL@K43?5Rifle?$AA@ 100a1f98     bg_misc.obj
 0002:00002fa4       ??_C@_0M@ILCGOMAN@icons?1ammo3?$AA@ 100a1fa4     bg_misc.obj
 0002:00002fb0       ??_C@_0BF@JPJNFAGP@icons?1iconw_mauser_1?$AA@ 100a1fb0     bg_misc.obj
 0002:00002fc8       ??_C@_0CM@FCENNCEI@models?1multiplayer?1mauser?1mauser@ 100a1fc8     bg_misc.obj
 0002:00002ff4       ??_C@_0CF@BDODAJEP@models?1multiplayer?1kar98?1v_kar98@ 100a1ff4     bg_misc.obj
 0002:0000301c       ??_C@_0CH@POCOCE@models?1multiplayer?1kar98?1kar98_3@ 100a201c     bg_misc.obj
 0002:00003044       ??_C@_0N@KDJGJAHE@weapon_kar43?$AA@ 100a2044     bg_misc.obj
 0002:00003054       ??_C@_0L@MHEKHPIN@Binoculars?$AA@ 100a2054     bg_misc.obj
 0002:00003060       ??_C@_0BC@BDIBEFKD@weapon_binoculars?$AA@ 100a2060     bg_misc.obj
 0002:00003074       ??_C@_0P@JMIGMAIG@Huge?5Ammo?5Pack?$AA@ 100a2074     bg_misc.obj
 0002:00003084       ??_C@_0BC@PCBEOHOO@weapon_magicammo3?$AA@ 100a2084     bg_misc.obj
 0002:00003098       ??_C@_0P@MKLFHJBO@Mega?5Ammo?5Pack?$AA@ 100a2098     bg_misc.obj
 0002:000030a8       ??_C@_0CH@IJHLDMOA@models?1multiplayer?1binocs?1v_bino@ 100a20a8     bg_misc.obj
 0002:000030d0       ??_C@_0BC@OLAPNGKP@weapon_magicammo2?$AA@ 100a20d0     bg_misc.obj
 0002:000030e4       ??_C@_09IGIMIJAM@Ammo?5Pack?$AA@ 100a20e4     bg_misc.obj
 0002:000030f0       ??_C@_0BH@HEFMBIGH@icons?1iconw_ammopack_1?$AA@ 100a20f0     bg_misc.obj
 0002:00003108       ??_C@_0DA@BNKGGEGK@models?1multiplayer?1ammopack?1ammo@ 100a2108     bg_misc.obj
 0002:00003138       ??_C@_0CL@GLBHEPKK@models?1multiplayer?1ammopack?1v_am@ 100a2138     bg_misc.obj
 0002:00003164       ??_C@_0CJ@NEHCKBJG@models?1multiplayer?1ammopack?1ammo@ 100a2164     bg_misc.obj
 0002:00003190       ??_C@_0BB@MJDHMBEF@weapon_magicammo?$AA@ 100a2190     bg_misc.obj
 0002:000031a4       ??_C@_0BD@HGCEKHJD@Adrenaline?5Syringe?$AA@ 100a21a4     bg_misc.obj
 0002:000031b8       ??_C@_0BI@IHBCJDIP@weapon_medic_adrenaline?$AA@ 100a21b8     bg_misc.obj
 0002:000031d0       ??_C@_0P@NGMHGOIF@Poison?5Syringe?$AA@ 100a21d0     bg_misc.obj
 0002:000031e0       ??_C@_0BF@CHJJOBEH@icons?1iconw_poison_1?$AA@ 100a21e0     bg_misc.obj
 0002:000031f8       ??_C@_0BG@MAAKKANE@weapon_poison_syringe?$AA@ 100a21f8     bg_misc.obj
 0002:00003210       ??_C@_07GEKHDKMK@Syringe?$AA@ 100a2210     bg_misc.obj
 0002:00003218       ??_C@_0BF@EAONHALE@weapon_medic_syringe?$AA@ 100a2218     bg_misc.obj
 0002:00003230       ??_C@_09DOIKKMF@Artillery?$AA@ 100a2230     bg_misc.obj
 0002:0000323c       ??_C@_0BG@ODMDGLFO@icons?1iconw_syringe_1?$AA@ 100a223c     bg_misc.obj
 0002:00003254       ??_C@_0CJ@MCHDJPCA@models?1multiplayer?1syringe?1v_syr@ 100a2254     bg_misc.obj
 0002:00003280       ??_C@_0CH@JGJKKKDO@models?1multiplayer?1syringe?1syrin@ 100a2280     bg_misc.obj
 0002:000032a8       ??_C@_0M@NMAGMMFO@weapon_arty?$AA@ 100a22a8     bg_misc.obj
 0002:000032b4       ??_C@_07ONMEKKNJ@Special?$AA@ 100a22b4     bg_misc.obj
 0002:000032bc       ??_C@_0BF@EGJKNLFD@icons?1iconw_pliers_1?$AA@ 100a22bc     bg_misc.obj
 0002:000032d4       ??_C@_0CH@CCAPEGPE@models?1multiplayer?1pliers?1v_plie@ 100a22d4     bg_misc.obj
 0002:000032fc       ??_C@_0CF@KHODGCJJ@models?1multiplayer?1pliers?1pliers@ 100a22fc     bg_misc.obj
 0002:00003324       ??_C@_0BF@HGNENFHI@weapon_class_special?$AA@ 100a2324     bg_misc.obj
 0002:0000333c       ??_C@_0N@LDKIPHF@Flamethrower?$AA@ 100a233c     bg_misc.obj
 0002:0000334c       ??_C@_0N@KCPILIMM@icons?1ammo10?$AA@ 100a234c     bg_misc.obj
 0002:0000335c       ??_C@_0BL@DKJBHHMJ@icons?1iconw_flamethrower_1?$AA@ 100a235c     bg_misc.obj
 0002:00003378       ??_C@_0DB@MEFGGOBE@models?1weapons2?1flamethrower?1pu_@ 100a2378     bg_misc.obj
 0002:000033ac       ??_C@_0DA@OLBDONLO@models?1weapons2?1flamethrower?1v_f@ 100a23ac     bg_misc.obj
 0002:000033dc       ??_C@_0CO@NOBDPJNE@models?1weapons2?1flamethrower?1fla@ 100a23dc     bg_misc.obj
 0002:0000340c       ??_C@_0BE@MGDBILCA@weapon_flamethrower?$AA@ 100a240c     bg_misc.obj
 0002:00003420       ??_C@_0BA@EJJBCBOH@Dynamite?5Weapon?$AA@ 100a2420     bg_misc.obj
 0002:00003430       ??_C@_0M@HBMJAEIH@icons?1ammo9?$AA@ 100a2430     bg_misc.obj
 0002:0000343c       ??_C@_0BH@NPAMPIIC@icons?1iconw_dynamite_1?$AA@ 100a243c     bg_misc.obj
 0002:00003454       ??_C@_0CI@HOBCNAON@models?1weapons2?1dynamite?1v_dynam@ 100a2454     bg_misc.obj
 0002:0000347c       ??_C@_0CN@CCNMCHIK@models?1multiplayer?1dynamite?1dyna@ 100a247c     bg_misc.obj
 0002:000034ac       ??_C@_0BA@DNHAGALI@weapon_dynamite?$AA@ 100a24ac     bg_misc.obj
 0002:000034bc       ??_C@_09MPJALICA@medicheal?$AA@ 100a24bc     bg_misc.obj
 0002:000034c8       ??_C@_0BG@BEHMBCJB@icons?1iconw_medheal_1?$AA@ 100a24c8     bg_misc.obj
 0002:000034e0       ??_C@_0CJ@KMLLGJEP@models?1multiplayer?1medpack?1v_med@ 100a24e0     bg_misc.obj
 0002:0000350c       ??_C@_0CH@HJGJPBFB@models?1multiplayer?1medpack?1medpa@ 100a250c     bg_misc.obj
 0002:00003534       ??_C@_0BC@MGOLNGIC@weapon_medic_heal?$AA@ 100a2534     bg_misc.obj
 0002:00003548       ??_C@_0L@BJKNNJNH@smokeTrail?$AA@ 100a2548     bg_misc.obj
 0002:00003554       ??_C@_0BC@EMFGGJBI@weapon_smoketrail?$AA@ 100a2554     bg_misc.obj
 0002:00003568       ??_C@_0N@EPMNKMAI@smokeGrenade?$AA@ 100a2568     bg_misc.obj
 0002:00003578       ??_C@_0BL@MFPPHILJ@icons?1iconw_smokegrenade_1?$AA@ 100a2578     bg_misc.obj
 0002:00003594       ??_C@_0DD@NPJGCFLG@models?1multiplayer?1smokegrenade?1@ 100a2594     bg_misc.obj
 0002:000035c8       ??_C@_0DB@IBDPDLGI@models?1multiplayer?1smokegrenade?1@ 100a25c8     bg_misc.obj
 0002:000035fc       ??_C@_0BE@MOMMPDAI@weapon_grenadesmoke?$AA@ 100a25fc     bg_misc.obj
 0002:00003610       ??_C@_09EBEMMGPP@Pineapple?$AA@ 100a2610     bg_misc.obj
 0002:0000361c       ??_C@_0BG@BHAOAJFD@icons?1icona_pineapple?$AA@ 100a261c     bg_misc.obj
 0002:00003634       ??_C@_0BI@NHIHLINI@icons?1iconw_pineapple_1?$AA@ 100a2634     bg_misc.obj
 0002:0000364c       ??_C@_0CI@NAFKGHJD@models?1weapons2?1grenade?1v_pineap@ 100a264c     bg_misc.obj
 0002:00003674       ??_C@_0CG@NEBNAIOM@models?1weapons2?1grenade?1pineappl@ 100a2674     bg_misc.obj
 0002:0000369c       ??_C@_0BI@BDNAKMLM@weapon_grenadepineapple?$AA@ 100a269c     bg_misc.obj
 0002:000036b4       ??_C@_07GIIHBBNN@Grenade?$AA@ 100a26b4     bg_misc.obj
 0002:000036bc       ??_C@_0BE@LHOKGGAM@icons?1icona_grenade?$AA@ 100a26bc     bg_misc.obj
 0002:000036d0       ??_C@_0BG@EKPMBKKI@icons?1iconw_grenade_1?$AA@ 100a26d0     bg_misc.obj
 0002:000036e8       ??_C@_0CG@HPDANMDK@models?1weapons2?1grenade?1v_grenad@ 100a26e8     bg_misc.obj
 0002:00003710       ??_C@_0CE@DPFMPDPO@models?1weapons2?1grenade?1grenade?4@ 100a2710     bg_misc.obj
 0002:00003734       ??_C@_0BH@DGCCJPLM@weapon_grenadelauncher?$AA@ 100a2734     bg_misc.obj
 0002:0000374c       ??_C@_0M@FLKOLANO@Panzerfaust?$AA@ 100a274c     bg_misc.obj
 0002:00003758       ??_C@_0M@PGFBBIEI@icons?1ammo6?$AA@ 100a2758     bg_misc.obj
 0002:00003764       ??_C@_0BK@BNNIJHHA@icons?1iconw_panzerfaust_1?$AA@ 100a2764     bg_misc.obj
 0002:00003780       ??_C@_0CF@INJNBKLK@models?1weapons2?1panzerfaust?1v_pf@ 100a2780     bg_misc.obj
 0002:000037a8       ??_C@_0CD@KLGINFIC@models?1weapons2?1panzerfaust?1pf?4m@ 100a27a8     bg_misc.obj
 0002:000037cc       ??_C@_0BD@IHKMHGCL@weapon_panzerfaust?$AA@ 100a27cc     bg_misc.obj
 0002:000037e0       ??_C@_05BPFOPNCG@Knife?$AA@ 100a27e0     bg_misc.obj
 0002:000037e8       ??_C@_0BE@FELCPKJK@icons?1iconw_knife_1?$AA@ 100a27e8     bg_misc.obj
 0002:000037fc       ??_C@_0CF@CCDIOFP@models?1multiplayer?1knife?1v_knife@ 100a27fc     bg_misc.obj
 0002:00003824       ??_C@_0CD@EKBJCGJD@models?1multiplayer?1knife?1knife?4m@ 100a2824     bg_misc.obj
 0002:00003848       ??_C@_0N@CFAHNHDH@weapon_knife?$AA@ 100a2848     bg_misc.obj
 0002:00003858       ??_C@_0BF@JGCLIJOB@Silenced?5Akimbo?5Colt?$AA@ 100a2858     bg_misc.obj
 0002:00003870       ??_C@_0BK@LILPLFOO@weapon_akimbosilencedcolt?$AA@ 100a2870     bg_misc.obj
 0002:0000388c       ??_C@_0M@ECNDEPLM@Akimbo?5Colt?$AA@ 100a288c     bg_misc.obj
 0002:00003898       ??_C@_0CO@LNDDIOPH@models?1weapons2?1akimbo_colt?1v_ak@ 100a2898     bg_misc.obj
 0002:000038c8       ??_C@_0BC@JHJOELDN@weapon_akimbocolt?$AA@ 100a28c8     bg_misc.obj
 0002:000038dc       ??_C@_04EPFFEDJI@Colt?$AA@ 100a28dc     bg_misc.obj
 0002:000038e4       ??_C@_0CA@HEFFIJDL@models?1weapons2?1colt?1v_colt?4md3?$AA@ 100a28e4     bg_misc.obj
 0002:00003904       ??_C@_0M@KDCOJMPJ@weapon_colt?$AA@ 100a2904     bg_misc.obj
 0002:00003910       ??_C@_04BHFBMFNA@Sten?$AA@ 100a2910     bg_misc.obj
 0002:00003918       ??_C@_0BD@BJMJKDBJ@icons?1iconw_sten_1?$AA@ 100a2918     bg_misc.obj
 0002:0000392c       ??_C@_0CA@JCCOLKIK@models?1weapons2?1sten?1v_sten?4md3?$AA@ 100a292c     bg_misc.obj
 0002:0000394c       ??_C@_0BO@OLCNBIBF@models?1weapons2?1sten?1sten?4md3?$AA@ 100a294c     bg_misc.obj
 0002:0000396c       ??_C@_0M@PLCKBKLB@weapon_sten?$AA@ 100a296c     bg_misc.obj
 0002:00003978       ??_C@_0O@MMIFKCPM@Silenced?5Colt?$AA@ 100a2978     bg_misc.obj
 0002:00003988       ??_C@_0DD@BKIOEAL@models?1multiplayer?1silencedcolt?1@ 100a2988     bg_misc.obj
 0002:000039bc       ??_C@_0BO@LFGFJAPM@models?1weapons2?1colt?1colt?4md3?$AA@ 100a29bc     bg_misc.obj
 0002:000039dc       ??_C@_0BE@GGFMMMNL@weapon_silencedcolt?$AA@ 100a29dc     bg_misc.obj
 0002:000039f0       ??_C@_05PCHBCGPB@Luger?$AA@ 100a29f0     bg_misc.obj
 0002:000039f8       ??_C@_0CC@EKFIEFML@models?1weapons2?1luger?1v_luger?4md@ 100a29f8     bg_misc.obj
 0002:00003a1c       ??_C@_0N@MICIAMOA@weapon_luger?$AA@ 100a2a1c     bg_misc.obj
 0002:00003a2c       ??_C@_0BG@NLHBJBKD@Silenced?5Akimbo?5Luger?$AA@ 100a2a2c     bg_misc.obj
 0002:00003a44       ??_C@_0BL@ELOABIAO@weapon_akimbosilencedluger?$AA@ 100a2a44     bg_misc.obj
 0002:00003a60       ??_C@_0N@MOHPEECM@Akimbo?5Luger?$AA@ 100a2a60     bg_misc.obj
 0002:00003a70       ??_C@_0BD@CFLCBIAF@icons?1iconw_colt_1?$AA@ 100a2a70     bg_misc.obj
 0002:00003a84       ??_C@_0DA@JAPIIIBB@models?1weapons2?1akimbo_luger?1v_a@ 100a2a84     bg_misc.obj
 0002:00003ab4       ??_C@_0CA@JCGGEPBC@models?1weapons2?1luger?1luger?4md3?$AA@ 100a2ab4     bg_misc.obj
 0002:00003ad4       ??_C@_0BD@FEBFLKJO@weapon_akimboluger?$AA@ 100a2ad4     bg_misc.obj
 0002:00003ae8       ??_C@_08MEHPEFCE@Thompson?$AA@ 100a2ae8     bg_misc.obj
 0002:00003af4       ??_C@_0BH@JNDHCKPC@icons?1iconw_thompson_1?$AA@ 100a2af4     bg_misc.obj
 0002:00003b0c       ??_C@_0CI@KCIHJEOK@models?1weapons2?1thompson?1v_thomp@ 100a2b0c     bg_misc.obj
 0002:00003b34       ??_C@_0CG@LDIIPHD@models?1weapons2?1thompson?1thompso@ 100a2b34     bg_misc.obj
 0002:00003b5c       ??_C@_0BA@KEEHKJCB@weapon_thompson?$AA@ 100a2b5c     bg_misc.obj
 0002:00003b6c       ??_C@_04KOJHOAAH@MP40?$AA@ 100a2b6c     bg_misc.obj
 0002:00003b74       ??_C@_0M@JCDNNNEM@icons?1ammo2?$AA@ 100a2b74     bg_misc.obj
 0002:00003b80       ??_C@_0BD@JLBIJIHG@icons?1iconw_mp40_1?$AA@ 100a2b80     bg_misc.obj
 0002:00003b94       ??_C@_0CA@MEPBBKGL@models?1weapons2?1mp40?1v_mp40?4md3?$AA@ 100a2b94     bg_misc.obj
 0002:00003bb4       ??_C@_0BO@FIMFOHLD@models?1weapons2?1mp40?1mp40?4md3?$AA@ 100a2bb4     bg_misc.obj
 0002:00003bd4       ??_C@_0BG@BBKFHONL@sound?1misc?1w_pkup?4wav?$AA@ 100a2bd4     bg_misc.obj
 0002:00003bec       ??_C@_0M@OCNOJAFI@weapon_mp40?$AA@ 100a2bec     bg_misc.obj
 0002:00003bf8       ??_C@_0BB@ONKJGELP@item_health_wall?$AA@ 100a2bf8     bg_misc.obj
 0002:00003c0c       ??_C@_09DJPFKDBO@Cold?5Meal?$AA@ 100a2c0c     bg_misc.obj
 0002:00003c18       ??_C@_0CF@PNLILMOB@models?1powerups?1health?1health_b1@ 100a2c18     bg_misc.obj
 0002:00003c40       ??_C@_0CF@HLCMMOEP@models?1powerups?1health?1health_b2@ 100a2c40     bg_misc.obj
 0002:00003c68       ??_C@_0CF@LAHABNOK@models?1powerups?1health?1health_b3@ 100a2c68     bg_misc.obj
 0002:00003c90       ??_C@_0BM@MFEDMPAO@sound?1items?1cold_pickup?4wav?$AA@ 100a2c90     bg_misc.obj
 0002:00003cac       ??_C@_0BJ@PIFLNDBE@item_health_breadandmeat?$AA@ 100a2cac     bg_misc.obj
 0002:00003cc8       ??_C@_08EGDKBHCC@Hot?5Meal?$AA@ 100a2cc8     bg_misc.obj
 0002:00003cd4       ??_C@_0CF@PJLGBFBF@models?1powerups?1health?1health_t1@ 100a2cd4     bg_misc.obj
 0002:00003cfc       ??_C@_0CF@HPCCGHLL@models?1powerups?1health?1health_t2@ 100a2cfc     bg_misc.obj
 0002:00003d24       ??_C@_0CF@LEHOLEBO@models?1powerups?1health?1health_t3@ 100a2d24     bg_misc.obj
 0002:00003d4c       ??_C@_0BL@NGOPHJBM@sound?1items?1hot_pickup?4wav?$AA@ 100a2d4c     bg_misc.obj
 0002:00003d68       ??_C@_0BD@HCMLHKKB@item_health_turkey?$AA@ 100a2d68     bg_misc.obj
 0002:00003d7c       ??_C@_0N@OPDFKAFG@Small?5Health?$AA@ 100a2d7c     bg_misc.obj
 0002:00003d8c       ??_C@_0BJ@OLHMCLBI@sound?1items?1n_health?4wav?$AA@ 100a2d8c     bg_misc.obj
 0002:00003da8       ??_C@_0BC@DOHAFEBI@item_health_small?$AA@ 100a2da8     bg_misc.obj
 0002:00003dbc       ??_C@_0BC@JGDLKFIO@item_health_large?$AA@ 100a2dbc     bg_misc.obj
 0002:00003dd0       ??_C@_0L@ECDAPFKD@Med?5Health?$AA@ 100a2dd0     bg_misc.obj
 0002:00003ddc       ??_C@_0CO@LAKDKKND@models?1multiplayer?1medpack?1medpa@ 100a2ddc     bg_misc.obj
 0002:00003e0c       ??_C@_0M@KCNAKNNL@item_health?$AA@ 100a2e0c     bg_misc.obj
 0002:00003e18       ??_C@_06GGDALCBD@Health?$AA@ 100a2e18     bg_misc.obj
 0002:00003e20       ??_C@_0BN@FIAHAEDN@sound?1misc?1health_pickup?4wav?$AA@ 100a2e20     bg_misc.obj
 0002:00003e40       ??_C@_0BE@LEDEOIPH@item_health_cabinet?$AA@ 100a2e40     bg_misc.obj
 0002:00003e54       ??_C@_0BK@JLBLEBFC@Allied?5Covert?5Ops?5Uniform?$AA@ 100a2e54     bg_misc.obj
 0002:00003e70       ??_C@_0CN@LBNDOIJE@models?1powerups?1uniforms?1alliedC@ 100a2e70     bg_misc.obj
 0002:00003ea0       ??_C@_0BM@EEJJLNCC@item_alliedCovertOpsUniform?$AA@ 100a2ea0     bg_misc.obj
 0002:00003ebc       ??_C@_0BJ@NFABKMOF@Allied?5Field?5Ops?5Uniform?$AA@ 100a2ebc     bg_misc.obj
 0002:00003ed8       ??_C@_0CM@DCAJJBKO@models?1powerups?1uniforms?1alliedF@ 100a2ed8     bg_misc.obj
 0002:00003f04       ??_C@_0BL@INOJHLCB@item_alliedFieldOpsUniform?$AA@ 100a2f04     bg_misc.obj
 0002:00003f20       ??_C@_0BI@BMADAEND@Allied?5Engineer?5Uniform?$AA@ 100a2f20     bg_misc.obj
 0002:00003f38       ??_C@_0CM@EGDMPCKG@models?1powerups?1uniforms?1alliedE@ 100a2f38     bg_misc.obj
 0002:00003f64       ??_C@_0BO@JBBJKGEN@item_alliedEngineerOpsUniform?$AA@ 100a2f64     bg_misc.obj
 0002:00003f84       ??_C@_0BF@BJFHFDAO@Allied?5Medic?5Uniform?$AA@ 100a2f84     bg_misc.obj
 0002:00003f9c       ??_C@_0CJ@NAHOMBK@models?1powerups?1uniforms?1alliedM@ 100a2f9c     bg_misc.obj
 0002:00003fc8       ??_C@_0BI@OCKLKIHI@item_alliedMedicUniform?$AA@ 100a2fc8     bg_misc.obj
 0002:00003fe0       ??_C@_0BH@MAFMNJFJ@Allied?5Soldier?5Uniform?$AA@ 100a2fe0     bg_misc.obj
 0002:00003ff8       ??_C@_0CL@FLOHCLPK@models?1powerups?1uniforms?1alliedS@ 100a2ff8     bg_misc.obj
 0002:00004024       ??_C@_0BK@MPFCGFCB@item_alliedSoldierUniform?$AA@ 100a3024     bg_misc.obj
 0002:00004040       ??_C@_0BI@PBFMIMAN@Axis?5Covert?5Ops?5Uniform?$AA@ 100a3040     bg_misc.obj
 0002:00004058       ??_C@_0CL@ICNMCKJB@models?1powerups?1uniforms?1axisCov@ 100a3058     bg_misc.obj
 0002:00004084       ??_C@_0BK@CDMAJJFM@item_axisCovertOpsUniform?$AA@ 100a3084     bg_misc.obj
 0002:000040a0       ??_C@_0BH@CCOMABPE@Axis?5Field?5Ops?5Uniform?$AA@ 100a30a0     bg_misc.obj
 0002:000040b8       ??_C@_0CK@DONGHBMD@models?1powerups?1uniforms?1axisFie@ 100a30b8     bg_misc.obj
 0002:000040e4       ??_C@_0BJ@JIHMJLK@item_axisFieldOpsUniform?$AA@ 100a30e4     bg_misc.obj
 0002:00004100       ??_C@_0BG@JDPJEIEH@Axis?5Engineer?5Uniform?$AA@ 100a3100     bg_misc.obj
 0002:00004118       ??_C@_0CK@EKODBCML@models?1powerups?1uniforms?1axisEng@ 100a3118     bg_misc.obj
 0002:00004144       ??_C@_0BM@BMKGHBLN@item_axisEngineerOpsUniform?$AA@ 100a3144     bg_misc.obj
 0002:00004160       ??_C@_0BD@ELMKPOBL@Axis?5Medic?5Uniform?$AA@ 100a3160     bg_misc.obj
 0002:00004174       ??_C@_0CH@PIMLAFAA@models?1powerups?1uniforms?1axisMed@ 100a3174     bg_misc.obj
 0002:0000419c       ??_C@_0BG@LILANAPF@item_axisMedicUniform?$AA@ 100a319c     bg_misc.obj
 0002:000041b4       ??_C@_0BF@FPIOLCIF@Axis?5Soldier?5Uniform?$AA@ 100a31b4     bg_misc.obj
 0002:000041cc       ??_C@_0CJ@DCBMHODB@models?1powerups?1uniforms?1axisSol@ 100a31cc     bg_misc.obj
 0002:000041f8       ??_C@_0CC@KKABMBOC@sound?1pickup?1powerups?1uniform?4wa@ 100a31f8     bg_misc.obj
 0002:0000421c       ??_C@_0BI@BPKBCADC@item_axisSoldierUniform?$AA@ 100a321c     bg_misc.obj
 0002:00004234       ??_C@_06NNIPIFNN@Helmet?$AA@ 100a3234     bg_misc.obj
 0002:0000423c       ??_C@_0BL@PFNLJADM@models?1powerups?1helmet?4md3?$AA@ 100a323c     bg_misc.obj
 0002:00004258       ??_C@_0M@BJGPJKBF@item_helmet?$AA@ 100a3258     bg_misc.obj
 0002:00004264       ??_C@_0N@PIKINLFA@Helmet?5Armor?$AA@ 100a3264     bg_misc.obj
 0002:00004274       ??_C@_0CO@CHELONAH@models?1players?1temperate?1axis?1he@ 100a3274     bg_misc.obj
 0002:000042a4       ??_C@_0CB@POMDMHPD@sound?1pickup?1powerups?1helmet?4wav@ 100a32a4     bg_misc.obj
 0002:000042c8       ??_C@_0BC@FJLOBKFI@item_helmetshield?$AA@ 100a32c8     bg_misc.obj
 0002:000042dc       ??_C@_0M@MPGADHA@Flak?5Jacket?$AA@ 100a32dc     bg_misc.obj
 0002:000042e8       ??_C@_0BP@COBNKP@models?1powerups?1flakjacket?4md3?$AA@ 100a32e8     bg_misc.obj
 0002:00004308       ??_C@_0CF@GINMNNA@sound?1pickup?1powerups?1flakjacket@ 100a3308     bg_misc.obj
 0002:00004330       ??_C@_0BA@NFBKLJME@item_flakJacket?$AA@ 100a3330     bg_misc.obj
 0002:00004340       ??_C@_0L@EFOCNJPA@Adrenaline?$AA@ 100a3340     bg_misc.obj
 0002:0000434c       ??_C@_0BP@KPECCLGD@models?1powerups?1adrenaline?4md3?$AA@ 100a334c     bg_misc.obj
 0002:0000436b       ??_C@_00CNPNBAHC@?$AA@     100a336b     bg_misc.obj
 0002:0000436c       ??_C@_0BA@CDBGAOBB@item_adrenaline?$AA@ 100a336c     bg_misc.obj
 0002:0000437c       ??_C@_0BB@PIPBMGBP@WP_JOHNSON_SCOPE?$AA@ 100a337c     bg_misc.obj
 0002:00004390       ??_C@_0M@CMGPLEPH@WP_FOOTKICK?$AA@ 100a3390     bg_misc.obj
 0002:0000439c       ??_C@_0BC@JLHAGBOA@WP_POISON_SYRINGE?$AA@ 100a339c     bg_misc.obj
 0002:000043b0       ??_C@_08IAGAEFBO@WP_VENOM?$AA@ 100a33b0     bg_misc.obj
 0002:000043bc       ??_C@_0P@JONEJALH@WP_MORTAR2_SET?$AA@ 100a33bc     bg_misc.obj
 0002:000043cc       ??_C@_0L@PMOMANPH@WP_MORTAR2?$AA@ 100a33cc     bg_misc.obj
 0002:000043d8       ??_C@_07ONFKLCLI@WP_MP34?$AA@ 100a33d8     bg_misc.obj
 0002:000043e0       ??_C@_0L@HJKKIFAB@WP_BAZOOKA?$AA@ 100a33e0     bg_misc.obj
 0002:000043ec       ??_C@_0L@BDFADDPN@WP_JOHNSON?$AA@ 100a33ec     bg_misc.obj
 0002:000043f8       ??_C@_08FGHMGABL@WP_STG44?$AA@ 100a33f8     bg_misc.obj
 0002:00004404       ??_C@_0L@NCPNLDNH@WP_BAR_SET?$AA@ 100a3404     bg_misc.obj
 0002:00004410       ??_C@_06PKOEOPMC@WP_BAR?$AA@ 100a3410     bg_misc.obj
 0002:00004418       ??_C@_0BH@JOKAFGAB@WP_MOBILE_BROWNING_SET?$AA@ 100a3418     bg_misc.obj
 0002:00004430       ??_C@_0BD@FAJFNFOK@WP_MOBILE_BROWNING?$AA@ 100a3430     bg_misc.obj
 0002:00004444       ??_C@_0P@ECIJNPAP@WP_KNIFE_KABAR?$AA@ 100a3444     bg_misc.obj
 0002:00004454       ??_C@_0L@EMJMHOIG@WP_SHOTGUN?$AA@ 100a3454     bg_misc.obj
 0002:00004460       ??_C@_0BD@CLPJIPG@WP_MOBILE_MG42_SET?$AA@ 100a3460     bg_misc.obj
 0002:00004474       ??_C@_0BI@PPAOCEIH@WP_AKIMBO_SILENCEDLUGER?$AA@ 100a3474     bg_misc.obj
 0002:0000448c       ??_C@_0BH@GGFDCLNK@WP_AKIMBO_SILENCEDCOLT?$AA@ 100a348c     bg_misc.obj
 0002:000044a4       ??_C@_0BE@ODDPPPEJ@WP_MEDIC_ADRENALINE?$AA@ 100a34a4     bg_misc.obj
 0002:000044b8       ??_C@_0O@LMAFHBHM@WP_MORTAR_SET?$AA@ 100a34b8     bg_misc.obj
 0002:000044c8       ??_C@_0N@PDOPIODE@WP_FG42SCOPE?$AA@ 100a34c8     bg_misc.obj
 0002:000044d8       ??_C@_0N@CPJLNOKI@WP_K43_SCOPE?$AA@ 100a34d8     bg_misc.obj
 0002:000044e8       ??_C@_0BA@DKOGHDHC@WP_GARAND_SCOPE?$AA@ 100a34e8     bg_misc.obj
 0002:000044f8       ??_C@_0BB@INCHPCIE@WP_SILENCED_COLT?$AA@ 100a34f8     bg_misc.obj
 0002:0000450c       ??_C@_05BMIOAIIL@WP_M7?$AA@ 100a350c     bg_misc.obj
 0002:00004514       ??_C@_08FPNHEDFC@WP_GPG40?$AA@ 100a3514     bg_misc.obj
 0002:00004520       ??_C@_0BA@JLHLBHAD@WP_AKIMBO_LUGER?$AA@ 100a3520     bg_misc.obj
 0002:00004530       ??_C@_0P@HIMIGPMD@WP_AKIMBO_COLT?$AA@ 100a3530     bg_misc.obj
 0002:00004540       ??_C@_09JNFCNKNL@WP_MORTAR?$AA@ 100a3540     bg_misc.obj
 0002:0000454c       ??_C@_0O@KMCJPCGD@WP_DUMMY_MG42?$AA@ 100a354c     bg_misc.obj
 0002:0000455c       ??_C@_07EFBFNIM@WP_FG42?$AA@ 100a355c     bg_misc.obj
 0002:00004564       ??_C@_06KJDAFABF@WP_K43?$AA@ 100a3564     bg_misc.obj
 0002:0000456c       ??_C@_0P@MKCMNFAA@WP_MOBILE_MG42?$AA@ 100a356c     bg_misc.obj
 0002:0000457c       ??_C@_0O@GEIBKAJL@WP_SMOKE_BOMB?$AA@ 100a357c     bg_misc.obj
 0002:0000458c       ??_C@_0P@KNOEGAFA@WP_SATCHEL_DET?$AA@ 100a358c     bg_misc.obj
 0002:0000459c       ??_C@_0L@BEKGFDDL@WP_SATCHEL?$AA@ 100a359c     bg_misc.obj
 0002:000045a8       ??_C@_0M@BAHBGOAJ@WP_LANDMINE?$AA@ 100a35a8     bg_misc.obj
 0002:000045b4       ??_C@_09HDCLLBKC@WP_GARAND?$AA@ 100a35b4     bg_misc.obj
 0002:000045c0       ??_C@_0L@OGAPJLHA@WP_CARBINE?$AA@ 100a35c0     bg_misc.obj
 0002:000045cc       ??_C@_08NCFDIDON@WP_KAR98?$AA@ 100a35cc     bg_misc.obj
 0002:000045d8       ??_C@_0BA@OJEFLKAF@WP_SMOKE_MARKER?$AA@ 100a35d8     bg_misc.obj
 0002:000045e8       ??_C@_09OFCBOPHK@WP_PLIERS?$AA@ 100a35e8     bg_misc.obj
 0002:000045f4       ??_C@_0O@EICEBJAA@WP_BINOCULARS?$AA@ 100a35f4     bg_misc.obj
 0002:00004604       ??_C@_09IDFKCKGI@WP_MEDKIT?$AA@ 100a3604     bg_misc.obj
 0002:00004610       ??_C@_0BB@LKDHNLJO@VERYBIGEXPLOSION?$AA@ 100a3610     bg_misc.obj
 0002:00004624       ??_C@_0O@BHPDDFLL@WP_SMOKETRAIL?$AA@ 100a3624     bg_misc.obj
 0002:00004634       ??_C@_0M@EFILFBJK@WP_DYNAMITE?$AA@ 100a3634     bg_misc.obj
 0002:00004640       ??_C@_0M@MNOFMLFD@WP_SILENCER?$AA@ 100a3640     bg_misc.obj
 0002:0000464c       ??_C@_07BPGIFPHN@WP_ARTY?$AA@ 100a364c     bg_misc.obj
 0002:00004654       ??_C@_07BIHNDFJM@WP_AMMO?$AA@ 100a3654     bg_misc.obj
 0002:0000465c       ??_C@_0BB@KEGLJJDG@WP_MEDIC_SYRINGE?$AA@ 100a365c     bg_misc.obj
 0002:00004670       ??_C@_07DIEEIJJC@WP_STEN?$AA@ 100a3670     bg_misc.obj
 0002:00004678       ??_C@_0BF@NGEEJMKJ@WP_GRENADE_PINEAPPLE?$AA@ 100a3678     bg_misc.obj
 0002:00004690       ??_C@_0M@NMLMJIAD@WP_THOMPSON?$AA@ 100a3690     bg_misc.obj
 0002:0000469c       ??_C@_07GAEAAPNK@WP_COLT?$AA@ 100a369c     bg_misc.obj
 0002:000046a4       ??_C@_0BA@IMAPEADC@WP_FLAMETHROWER?$AA@ 100a36a4     bg_misc.obj
 0002:000046b4       ??_C@_0P@FNKMAFIH@WP_PANZERFAUST?$AA@ 100a36b4     bg_misc.obj
 0002:000046c4       ??_C@_0BE@CDEHBEMM@WP_GRENADE_LAUNCHER?$AA@ 100a36c4     bg_misc.obj
 0002:000046d8       ??_C@_07IMHJGBDJ@WP_MP40?$AA@ 100a36d8     bg_misc.obj
 0002:000046e0       ??_C@_08PPAIDHKD@WP_LUGER?$AA@ 100a36e0     bg_misc.obj
 0002:000046ec       ??_C@_08BCCHOMHE@WP_KNIFE?$AA@ 100a36ec     bg_misc.obj
 0002:000046f8       ??_C@_07MIINDMBF@WP_NONE?$AA@ 100a36f8     bg_misc.obj
 0002:00004700       ??_C@_0N@BEBPLGNB@Silver?5Snake?$AA@ 100a3700     bg_misc.obj
 0002:00004710       ??_C@_0BC@KBMCGIGN@Bombardment?5Medal?$AA@ 100a3710     bg_misc.obj
 0002:00004724       ??_C@_0P@EHPIKLII@Infantry?5Medal?$AA@ 100a3724     bg_misc.obj
 0002:00004734       ??_C@_0O@BNDNDGAH@Signals?5Medal?$AA@ 100a3734     bg_misc.obj
 0002:00004744       ??_C@_0N@FMKLPOOF@Silver?5Cross?$AA@ 100a3744     bg_misc.obj
 0002:00004754       ??_C@_0L@IADBKBPE@Steel?5Star?$AA@ 100a3754     bg_misc.obj
 0002:00004760       ??_C@_0BM@LPOLMAOL@Distinguished?5Service?5Medal?$AA@ 100a3760     bg_misc.obj
 0002:0000477c       ??_C@_0O@PLLMBMHD@Heavy?5Weapons?$AA@ 100a377c     bg_misc.obj
 0002:0000478c       ??_C@_0O@JOOJOLAO@Light?5Weapons?$AA@ 100a378c     bg_misc.obj
 0002:0000479c       ??_C@_07KKOMKDFM@Signals?$AA@ 100a379c     bg_misc.obj
 0002:000047a4       ??_C@_09HIKJIKEN@First?5Aid?$AA@ 100a37a4     bg_misc.obj
 0002:000047b0       ??_C@_0M@EKMDDPG@Engineering?$AA@ 100a37b0     bg_misc.obj
 0002:000047bc       ??_C@_0N@IMBJBHCF@Battle?5Sense?$AA@ 100a37bc     bg_misc.obj
 0002:000047cc       ??_C@_0CC@GDKEPGKC@?$FO7?$CIHQ?$CJ?3?5?$FO3Construction?5destroyed@ 100a37cc     bg_misc.obj
 0002:000047f0       ??_C@_0BE@OLHGJFCP@_hq_const_destroyed?$AA@ 100a37f0     bg_misc.obj
 0002:00004804       ??_C@_0O@OEPNPBKL@SYS_Destroyed?$AA@ 100a3804     bg_misc.obj
 0002:00004814       ??_C@_0BP@KCAAGEOC@?$FO7?$CIHQ?$CJ?3?5?$FO3Construction?5failed?$CB?$AA@ 100a3814     bg_misc.obj
 0002:00004834       ??_C@_0BB@GIBEEHMJ@_hq_const_failed?$AA@ 100a3834     bg_misc.obj
 0002:00004848       ??_C@_0BE@DLELADJK@SYS_ConstructFailed?$AA@ 100a3848     bg_misc.obj
 0002:0000485c       ??_C@_0CB@IHHOFHJ@?$FO7?$CIHQ?$CJ?3?5?$FO3Construction?5complete?$CB@ 100a385c     bg_misc.obj
 0002:00004880       ??_C@_0BE@IAPMKAFF@_hq_const_completed?$AA@ 100a3880     bg_misc.obj
 0002:00004894       ??_C@_0BG@DDDPODJF@SYS_ConstructComplete?$AA@ 100a3894     bg_misc.obj
 0002:000048ac       ??_C@_0BP@CPINNCFB@?$FO7?$CIHQ?$CJ?3?5?$FO3Objective?5destroyed?$CB?$AA@ 100a38ac     bg_misc.obj
 0002:000048cc       ??_C@_0BI@NPAEGJPI@_hq_objective_destroyed?$AA@ 100a38cc     bg_misc.obj
 0002:000048e4       ??_C@_0BB@IHEEODDC@SYS_ObjDestroyed?$AA@ 100a38e4     bg_misc.obj
 0002:000048f8       ??_C@_0BK@EDHFPABB@?$FO7?$CIHQ?$CJ?3?5?$FO3Objective?5lost?$CB?$AA@ 100a38f8     bg_misc.obj
 0002:00004914       ??_C@_0BD@DIBPGFGF@_hq_objective_lost?$AA@ 100a3914     bg_misc.obj
 0002:00004928       ??_C@_0M@JFKNHIHG@SYS_ObjLost?$AA@ 100a3928     bg_misc.obj
 0002:00004934       ??_C@_0BO@IMAONBCP@?$FO7?$CIHQ?$CJ?3?5?$FO3Objective?5captured?$CB?$AA@ 100a3934     bg_misc.obj
 0002:00004954       ??_C@_0BH@ODOONPEE@_hq_objective_captured?$AA@ 100a3954     bg_misc.obj
 0002:0000496c       ??_C@_0BA@MLCIAEHJ@SYS_ObjCaptured?$AA@ 100a396c     bg_misc.obj
 0002:0000497c       ??_C@_0CG@GMCCKHHI@?$FO7?$CIHQ?$CJ?3?5?$FO3We?8ve?5lost?5most?5of?5our@ 100a397c     bg_misc.obj
 0002:000049a4       ??_C@_0N@DBNNFKKL@_hq_men_down?$AA@ 100a39a4     bg_misc.obj
 0002:000049b4       ??_C@_0M@OOKBKFF@SYS_MenDown?$AA@ 100a39b4     bg_misc.obj
 0002:000049c0       ??_C@_0CB@FJDLLGND@?$FO7?$CIHQ?$CJ?3?5?$FO3We?5need?5an?5Covert?5Ops?$CB@ 100a39c0     bg_misc.obj
 0002:000049e4       ??_C@_0BD@GKEBFFOC@_hq_need_covertops?$AA@ 100a39e4     bg_misc.obj
 0002:000049f8       ??_C@_0BC@KDKFDOBD@SYS_NeedCovertOps?$AA@ 100a39f8     bg_misc.obj
 0002:00004a0c       ??_C@_0CA@JIFJAHEJ@?$FO7?$CIHQ?$CJ?3?5?$FO3We?5need?5an?5Field?5Ops?$CB?$AA@ 100a3a0c     bg_misc.obj
 0002:00004a2c       ??_C@_0BC@JBFHKOPG@_hq_need_fieldops?$AA@ 100a3a2c     bg_misc.obj
 0002:00004a40       ??_C@_0BB@EBFBJPGF@SYS_NeedFieldops?$AA@ 100a3a40     bg_misc.obj
 0002:00004a54       ??_C@_0BP@CNALELLB@?$FO7?$CIHQ?$CJ?3?5?$FO3We?5need?5an?5Engineer?$CB?$AA@ 100a3a54     bg_misc.obj
 0002:00004a74       ??_C@_0BC@EDLGLDKP@_hq_need_engineer?$AA@ 100a3a74     bg_misc.obj
 0002:00004a88       ??_C@_0BB@JDLAICDM@SYS_NeedEngineer?$AA@ 100a3a88     bg_misc.obj
 0002:00004a9c       ??_C@_0BL@NGMOELIL@?$FO7?$CIHQ?$CJ?3?5?$FO3We?5need?5a?5Medic?$CB?$AA@ 100a3a9c     bg_misc.obj
 0002:00004ab8       ??_C@_0P@JOLKOHAM@_hq_need_medic?$AA@ 100a3ab8     bg_misc.obj
 0002:00004ac8       ??_C@_0O@HFGBIIDI@SYS_NeedMedic?$AA@ 100a3ac8     bg_misc.obj
 0002:00004ad8       _voteToggles               100a3ad8     bg_misc.obj
 0002:00004b90       _aReinfSeeds               100a3b90     bg_misc.obj
 0002:00004bb0       _aWeaponInfo               100a3bb0     bg_misc.obj
 0002:00004d18       ??_C@_09NIIBNPFN@?$FO1invalid?$AA@ 100a3d18     bg_misc.obj
 0002:00004d28       ??_C@_0ED@OPKNALDP@?$FO1ERROR?5?3?5?$FO7BG_FindItemForWeapon@ 100a3d28     bg_misc.obj
 0002:00004d6c       __real@3f800000            100a3d6c     bg_misc.obj
 0002:00004d70       __real@3ff0000000000000    100a3d70     bg_misc.obj
 0002:00004d78       __real@3fe0000000000000    100a3d78     bg_misc.obj
 0002:00004d80       __real@4010000000000000    100a3d80     bg_misc.obj
 0002:00004d88       __real@3fb0000000000000    100a3d88     bg_misc.obj
 0002:00004d90       ??_C@_0EG@HGDIGOFN@BG_LinearPathOrigin2?3?5Splines?5to@ 100a3d90     bg_misc.obj
 0002:00004dd8       __real@4030000000000000    100a3dd8     bg_misc.obj
 0002:00004de0       ??_C@_0CP@MCFPOIMF@BG_EvaluateTrajectoryDelta?3?5unkn@ 100a3de0     bg_misc.obj
 0002:00004e10       __real@4064000000000000    100a3e10     bg_misc.obj
 0002:00004e18       __real@406e000000000000    100a3e18     bg_misc.obj
 0002:00004e20       __real@4089000000000000    100a3e20     bg_misc.obj
 0002:00004e28       __real@3f50624dd2f1a9fc    100a3e28     bg_misc.obj
 0002:00004e30       __real@400921fb60000000    100a3e30     bg_misc.obj
 0002:00004e38       __real@3f333333            100a3e38     bg_misc.obj
 0002:00004e40       __real@3fe99999a0000000    100a3e40     bg_misc.obj
 0002:00004e50       __mask@@NegFloat@          100a3e50     bg_misc.obj
 0002:00004e60       __real@3e99999a            100a3e60     bg_misc.obj
 0002:00004e68       __real@3f76800000000000    100a3e68     bg_misc.obj
 0002:00004e70       __real@4070000000000000    100a3e70     bg_misc.obj
 0002:00004e78       ??_C@_0BK@EIIMCABE@MAX?5PATH?5CORNERS?5?$CI?$CFi?$CJ?5hit?$AA@ 100a3e78     bg_misc.obj
 0002:00004e94       ??_C@_0BF@MNFCONKK@MAX?5SPLINES?5?$CI?$CFi?$CJ?5hit?$AA@ 100a3e94     bg_misc.obj
 0002:00004eac       ??_C@_0BN@LHEFCKBA@MAX?5SPLINE?5CONTROLS?5?$CI?$CFi?$CJ?5hit?$AA@ 100a3eac     bg_misc.obj
 0002:00004ed0       __real@3f847ae140000000    100a3ed0     bg_misc.obj
 0002:00004ed8       ??_C@_0CP@LIGHMFHP@?$FO1Cant?5find?5target?5point?5?$CI?$CFs?$CJ?5fo@ 100a3ed8     bg_misc.obj
 0002:00004f08       ??_C@_0DA@CFFAANPO@?$FO1Cant?5find?5control?5point?5?$CI?$CFs?$CJ?5f@ 100a3f08     bg_misc.obj
 0002:00004f38       ??_C@_05PLKILNHI@White?$AA@ 100a3f38     bg_misc.obj
 0002:00004f40       __real@406fe00000000000    100a3f40     bg_misc.obj
 0002:00004f48       __real@4049000000000000    100a3f48     bg_misc.obj
 0002:00004f50       __real@401c000000000000    100a3f50     bg_misc.obj
 0002:00004f58       __real@4092c00000000000    100a3f58     bg_misc.obj
 0002:00004f60       __real@44960000            100a3f60     bg_misc.obj
 0002:00004f64       ??_C@_05KHJDIDCH@?$CFc?0?$CFi?$AA@ 100a3f64     bg_misc.obj
 0002:00004f6c       __real@bf800000            100a3f6c     bg_misc.obj
 0002:00004f70       ??_C@_0CK@DNBGNAED@BG_EvaluateTrajectory?3?5unknown?5t@ 100a3f70     bg_misc.obj
 0002:00004fa0       __real@c08f400000000000    100a3fa0     bg_misc.obj
 0002:00004fa8       __real@40c3880000000000    100a3fa8     bg_misc.obj
 0002:00004fb0       __real@c61c4000            100a3fb0     bg_misc.obj
 0002:00004fb4       __real@461c4000            100a3fb4     bg_misc.obj
 0002:00004fb8       __real@0000000000000000    100a3fb8     bg_misc.obj
 0002:00004fc0       __real@4054000000000000    100a3fc0     bg_misc.obj
 0002:00004fc8       __real@405e000000000000    100a3fc8     bg_misc.obj
 0002:00004fd0       __real@4079000000000000    100a3fd0     bg_misc.obj
 0002:00004fd8       ??_C@_0BN@CKJPOGNB@expected?5float?5but?5found?5?$CFs?6?$AA@ 100a3fd8     bg_misc.obj
 0002:00004ff8       ??_C@_0BP@FLADEANJ@expected?5integer?5but?5found?5?$CFs?6?$AA@ 100a3ff8     bg_misc.obj
 0002:00005018       __real@c042000000000000    100a4018     bg_misc.obj
 0002:00005020       __real@4042000000000000    100a4020     bg_misc.obj
 0002:00005028       __real@4032000000000000    100a4028     bg_pmove.obj
 0002:00005030       __real@4040000000000000    100a4030     bg_pmove.obj
 0002:00005038       __real@c040000000000000    100a4038     bg_pmove.obj
 0002:00005040       __real@4066800000000000    100a4040     bg_pmove.obj
 0002:00005048       __real@41200000            100a4048     bg_pmove.obj
 0002:0000504c       __real@41900000            100a404c     bg_pmove.obj
 0002:00005050       __real@c0000000            100a4050     bg_pmove.obj
 0002:00005054       __real@c1900000            100a4054     bg_pmove.obj
 0002:00005058       __real@40400000            100a4058     bg_pmove.obj
 0002:00005060       __real@3ff8000000000000    100a4060     bg_pmove.obj
 0002:00005068       __real@4008000000000000    100a4068     bg_pmove.obj
 0002:00005070       __real@3f80204081020408    100a4070     bg_pmove.obj
 0002:00005078       __real@4014000000000000    100a4078     bg_pmove.obj
 0002:00005080       __real@43870000            100a4080     bg_pmove.obj
 0002:00005088       __real@4070e00000000000    100a4088     bg_pmove.obj
 0002:00005090       __real@43af0000            100a4090     bg_pmove.obj
 0002:00005098       __real@4069000000000000    100a4098     bg_pmove.obj
 0002:000050a0       __real@403e000000000000    100a40a0     bg_pmove.obj
 0002:000050a8       __real@3f8020c5            100a40a8     bg_pmove.obj
 0002:000050ac       __real@c2700000            100a40ac     bg_pmove.obj
 0002:000050b0       __real@4034000000000000    100a40b0     bg_pmove.obj
 0002:000050b8       __real@421b0000            100a40b8     bg_pmove.obj
 0002:000050bc       __real@42400000            100a40bc     bg_pmove.obj
 0002:000050c0       __real@404d000000000000    100a40c0     bg_pmove.obj
 0002:000050c8       __real@42860000            100a40c8     bg_pmove.obj
 0002:000050cc       __real@429a0000            100a40cc     bg_pmove.obj
 0002:000050d0       ??_C@_0O@OMFCNGJJ@delta?3?5?$CF5?42f?6?$AA@ 100a40d0     bg_pmove.obj
 0002:000050e0       __real@3fd0000000000000    100a40e0     bg_pmove.obj
 0002:000050e8       __real@3f1a36e2eb1c432d    100a40e8     bg_pmove.obj
 0002:000050f0       __real@c06b800000000000    100a40f0     bg_pmove.obj
 0002:000050f8       ??_C@_0N@KJCNHCBK@?$CFi?3allsolid?6?$AA@ 100a40f8     bg_pmove.obj
 0002:00005108       __real@4050000000000000    100a4108     bg_pmove.obj
 0002:00005110       ??_C@_08EOGJDHPF@?$CFi?3lift?6?$AA@ 100a4110     bg_pmove.obj
 0002:00005120       __real@c069000000000000    100a4120     bg_pmove.obj
 0002:00005128       ??_C@_08KACHPCJN@?$CFi?3Land?6?$AA@ 100a4128     bg_pmove.obj
 0002:00005134       ??_C@_09OPMLNNOA@?$CFi?3steep?6?$AA@ 100a4134     bg_pmove.obj
 0002:00005140       __real@3fe6666666666666    100a4140     bg_pmove.obj
 0002:00005148       ??_C@_0M@CKJFDFGH@?$CFi?3kickoff?6?$AA@ 100a4148     bg_pmove.obj
 0002:00005158       __real@4024000000000000    100a4158     bg_pmove.obj
 0002:00005160       __real@3ecccccd            100a4160     bg_pmove.obj
 0002:00005164       __real@3f000000            100a4164     bg_pmove.obj
 0002:00005168       __real@3e4ccccd            100a4168     bg_pmove.obj
 0002:0000516c       __real@40a00000            100a416c     bg_pmove.obj
 0002:00005170       __real@437f0000            100a4170     bg_pmove.obj
 0002:00005178       __real@4097700000000000    100a4178     bg_pmove.obj
 0002:00005180       __real@43480000            100a4180     bg_pmove.obj
 0002:00005188       __real@41f0000000000000    100a4188     bg_pmove.obj
 0002:00005190       __real@44bb8000            100a4190     bg_pmove.obj
 0002:00005198       __real@4072c00000000000    100a4198     bg_pmove.obj
 0002:000051a0       __real@4076800000000000    100a41a0     bg_pmove.obj
 0002:000051a8       __real@40f0000000000000    100a41a8     bg_pmove.obj
 0002:000051b0       __real@4004000000000000    100a41b0     bg_pmove.obj
 0002:000051b8       __real@c1e00000            100a41b8     bg_pmove.obj
 0002:000051c0       __real@c03c000000000000    100a41c0     bg_pmove.obj
 0002:000051c8       __real@41e00000            100a41c8     bg_pmove.obj
 0002:000051cc       __real@40800000            100a41cc     bg_pmove.obj
 0002:000051d0       __real@41000000            100a41d0     bg_pmove.obj
 0002:000051d4       __real@c0e00000            100a41d4     bg_pmove.obj
 0002:000051d8       __real@c1000000            100a41d8     bg_pmove.obj
 0002:000051e0       __real@403c000000000000    100a41e0     bg_pmove.obj
 0002:000051e8       __real@c1a00000            100a41e8     bg_pmove.obj
 0002:000051f0       __real@407f400000000000    100a41f0     bg_pmove.obj
 0002:000051f8       __real@41a00000            100a41f8     bg_pmove.obj
 0002:000051fc       __real@41600000            100a41fc     bg_pmove.obj
 0002:00005200       __real@c03e000000000000    100a4200     bg_pmove.obj
 0002:00005208       __real@404e000000000000    100a4208     bg_pmove.obj
 0002:00005210       __real@c066800000000000    100a4210     bg_pmove.obj
 0002:00005218       __real@c3340000            100a4218     bg_pmove.obj
 0002:0000521c       __real@43340000            100a421c     bg_pmove.obj
 0002:00005220       __real@42200000            100a4220     bg_pmove.obj
 0002:00005224       __real@42480000            100a4224     bg_pmove.obj
 0002:00005228       __real@3feccccccccccccd    100a4228     bg_pmove.obj
 0002:00005230       __real@3fcccccd            100a4230     bg_pmove.obj
 0002:00005238       __real@40b3880000000000    100a4238     bg_pmove.obj
 0002:00005240       __real@40a3880000000000    100a4240     bg_pmove.obj
 0002:00005248       __real@469c4000            100a4248     bg_pmove.obj
 0002:0000524c       ??_C@_06KEIHOBEK@?9zoom?6?$AA@ 100a424c     bg_pmove.obj
 0002:00005258       __real@40dfffc000000000    100a4258     bg_pmove.obj
 0002:00005260       __real@3fc99999a0000000    100a4260     bg_pmove.obj
 0002:00005268       __real@3fc3333340000000    100a4268     bg_pmove.obj
 0002:00005270       __real@3e19999a            100a4270     bg_pmove.obj
 0002:00005274       __real@3d4ccccd            100a4274     bg_pmove.obj
 0002:00005278       __real@3dcccccd            100a4278     bg_pmove.obj
 0002:0000527c       __real@3f19999a            100a427c     bg_pmove.obj
 0002:00005280       __real@3f400000            100a4280     bg_pmove.obj
 0002:00005284       __real@3e800000            100a4284     bg_pmove.obj
 0002:00005288       __real@3ee66666            100a4288     bg_pmove.obj
 0002:00005290       __real@bff0000000000000    100a4290     bg_pmove.obj
 0002:00005298       __real@44fa0000            100a4298     bg_pmove.obj
 0002:0000529c       __real@46fa0000            100a429c     bg_pmove.obj
 0002:000052a0       __real@457a0000            100a42a0     bg_pmove.obj
 0002:000052a4       __real@41400000            100a42a4     bg_pmove.obj
 0002:000052a8       __real@3f90000000000000    100a42a8     bg_pmove.obj
 0002:000052b0       ??_C@_0BF@BGNDKOKH@?$CFi?3planeoriginnudge?6?$AA@ 100a42b0     bg_slidemove.obj
 0002:000052c8       ??_C@_0BH@DOOHOMNP@?$CFi?3planevelocitynudge?6?$AA@ 100a42c8     bg_slidemove.obj
 0002:000052e0       __real@3fb999999999999a    100a42e0     bg_slidemove.obj
 0002:000052e8       __real@3fefae147ae147ae    100a42e8     bg_slidemove.obj
 0002:000052f0       ??_C@_0BF@DLOFDPCB@?$CFi?3?$CFd?5?$CFd?5?$CI?$CFf?5?$CFf?5?$CFf?$CJ?6?$AA@ 100a42f0     bg_slidemove.obj
 0002:00005308       ??_C@_0M@CDHDENEF@?$CFi?3stepped?6?$AA@ 100a4308     bg_slidemove.obj
 0002:00005318       __real@402e000000000000    100a4318     bg_slidemove.obj
 0002:00005320       __real@41300000            100a4320     bg_slidemove.obj
 0002:00005324       __real@40000000            100a4324     bg_slidemove.obj
 0002:00005328       ??_C@_0BF@JDOKPPHD@?$CFi?3head?5unsteppable?6?$AA@ 100a4328     bg_slidemove.obj
 0002:00005340       ??_C@_0BF@BELANBME@?$CFi?3legs?5unsteppable?6?$AA@ 100a4340     bg_slidemove.obj
 0002:00005358       ??_C@_0BE@FLPNHHPN@?$CFi?3bend?5can?8t?5step?6?$AA@ 100a4358     bg_slidemove.obj
 0002:0000536c       ??_C@_0N@BGDIHLMO@?$CFi?3stepping?6?$AA@ 100a436c     bg_slidemove.obj
 0002:0000537c       ??_C@_0DG@KNLEOEAO@?$CFi?3PM_SlideMove?5solidified?$CB?5?$CI?$CFf?5@ 100a437c     bg_slidemove.obj
 0002:000053b4       ??_C@_0BK@DOCPEFLL@range?5value?5?$CFi?5is?5invalid?$AA@ 100a43b4     bg_sscript.obj
 0002:000053d0       ??_C@_0BF@LOFBMHHF@expected?5range?5value?$AA@ 100a43d0     bg_sscript.obj
 0002:000053e8       ??_C@_0BG@CHDAOFOB@expected?5volume?5value?$AA@ 100a43e8     bg_sscript.obj
 0002:00005400       ??_C@_0BG@GDKLDMEN@expected?5random?5value?$AA@ 100a4400     bg_sscript.obj
 0002:00005418       ??_C@_0BE@DFHGKPDD@expected?5wait?5value?$AA@ 100a4418     bg_sscript.obj
 0002:0000542c       ??_C@_0BN@JLHOEDMA@unknown?5broadcast?5value?5?8?$CFs?8?$AA@ 100a442c     bg_sscript.obj
 0002:0000544c       ??_C@_0BJ@JOACKLLF@expected?5broadcast?5value?$AA@ 100a444c     bg_sscript.obj
 0002:00005468       ??_C@_0BI@KFDHNDG@unknown?5loop?5value?5?8?$CFs?8?$AA@ 100a4468     bg_sscript.obj
 0002:00005480       ??_C@_0BE@FBDIKLHP@expected?5loop?5value?$AA@ 100a4480     bg_sscript.obj
 0002:00005494       ??_C@_0BL@PCHAPEJJ@expected?5targetname?5string?$AA@ 100a4494     bg_sscript.obj
 0002:000054b0       ??_C@_0BI@DFPPPHLE@Failed?5to?5store?5speaker?$AA@ 100a44b0     bg_sscript.obj
 0002:000054c8       ??_C@_05CCGOGOBM@range?$AA@ 100a44c8     bg_sscript.obj
 0002:000054d0       ??_C@_0BL@CPEGNHLM@volume?5value?5?$CFi?5is?5invalid?$AA@ 100a44d0     bg_sscript.obj
 0002:000054ec       ??_C@_06EMCPHFGM@volume?$AA@ 100a44ec     bg_sscript.obj
 0002:000054f4       ??_C@_0BL@BOANIFFK@random?5value?5?$CFi?5is?5invalid?$AA@ 100a44f4     bg_sscript.obj
 0002:00005510       ??_C@_06NLFCANPD@random?$AA@ 100a4510     bg_sscript.obj
 0002:00005518       ??_C@_0BJ@PGOGNFP@wait?5value?5?$CFi?5is?5invalid?$AA@ 100a4518     bg_sscript.obj
 0002:00005534       ??_C@_04PNOAOIAG@wait?$AA@ 100a4534     bg_sscript.obj
 0002:0000553c       ??_C@_05FIPAEOKB@nopvs?$AA@ 100a453c     bg_sscript.obj
 0002:00005544       ??_C@_06FJKEMHGD@global?$AA@ 100a4544     bg_sscript.obj
 0002:0000554c       ??_C@_09OALBOHJN@broadcast?$AA@ 100a454c     bg_sscript.obj
 0002:00005558       ??_C@_03MCADLMAF@off?$AA@  100a4558     bg_sscript.obj
 0002:0000555c       ??_C@_02LIELOMNJ@on?$AA@   100a455c     bg_sscript.obj
 0002:00005560       ??_C@_02KAJCLHKP@no?$AA@   100a4560     bg_sscript.obj
 0002:00005564       ??_C@_06OIPHFMPH@looped?$AA@ 100a4564     bg_sscript.obj
 0002:0000556c       ??_C@_0L@FEPNPAJD@targetname?$AA@ 100a456c     bg_sscript.obj
 0002:00005578       ??_C@_0BH@LIIBPPDO@expected?5origin?5vector?$AA@ 100a4578     bg_sscript.obj
 0002:00005590       ??_C@_06NHCMNMEH@origin?$AA@ 100a4590     bg_sscript.obj
 0002:00005598       ??_C@_0BI@GHFIMFBH@expected?5sound?5filename?$AA@ 100a4598     bg_sscript.obj
 0002:000055b0       ??_C@_05GPLCCBII@noise?$AA@ 100a45b0     bg_sscript.obj
 0002:000055b8       ??_C@_0BH@GCCFPLDO@expected?5?8soundScript?8?$AA@ 100a45b8     bg_sscript.obj
 0002:000055d0       ??_C@_0L@DEBDKEGO@speakerDef?$AA@ 100a45d0     bg_sscript.obj
 0002:000055dc       ??_C@_0O@LEFAMCBJ@speakerScript?$AA@ 100a45dc     bg_sscript.obj
 0002:000057e8       ??_C@_0BD@IPJPEEBK@TRUEVISION?9XFILE?4?$AA?$AA@ 100a47e8     bg_tracemap.obj
 0002:000057fc       ??_C@_0BF@EOCEHCLN@maps?1?$CFs_tracemap?4tga?$AA@ 100a47fc     bg_tracemap.obj
 0002:00005818       __real@406fc00000000000    100a4818     bg_tracemap.obj
 0002:00005820       ??_C@_0BN@DONDPIEN@Generating?5sky?5groundmap?4?4?4?6?$AA@ 100a4820     bg_tracemap.obj
 0002:00005840       __real@477fff00            100a4840     bg_tracemap.obj
 0002:00005844       ??_C@_0CK@BBFLBLPE@Generating?5sky?5heightmap?5and?5sky@ 100a4844     bg_tracemap.obj
 0002:00005870       ??_C@_0DK@INKLFHAK@?$CFi?5of?5?$CFi?5gridpoints?5calculated?5?$CI@ 100a4870     bg_tracemap.obj
 0002:000058b0       __real@4059000000000000    100a48b0     bg_tracemap.obj
 0002:000058b8       __real@3ef0000000000000    100a48b8     bg_tracemap.obj
 0002:000058c0       __real@c77fff00            100a48c0     bg_tracemap.obj
 0002:000058c4       __real@c7800000            100a48c4     bg_tracemap.obj
 0002:000058c8       __real@47800000            100a48c8     bg_tracemap.obj
 0002:000058d0       __real@3f70000000000000    100a48d0     bg_tracemap.obj
 0002:000058d8       ??_C@_0CO@FIIAPGNO@Generating?5level?5heightmap?5and?5l@ 100a48d8     bg_tracemap.obj
 0002:00005908       ??_C@_0BO@IEPJGDEL@Mapcoords?5need?5to?5be?5square?4?6?$AA@ 100a4908     bg_tracemap.obj
 0002:00005928       ??_C@_0EL@ONLKFGNE@Need?5valid?5mapcoords?5in?5the?5worl@ 100a4928     bg_tracemap.obj
 0002:00005974       ??_C@_0DB@OINKJHCO@Can?5only?5generate?5a?5tracemap?5in?5@ 100a4974     bg_tracemap.obj
 0002:000059a8       ??_C@_0N@DANAKDDF@MOD_NUM_MODS?$AA@ 100a49a8     bg_weapons.obj
 0002:000059b8       ??_C@_0BC@NMHEODJO@MOD_JOHNSON_SCOPE?$AA@ 100a49b8     bg_weapons.obj
 0002:000059cc       ??_C@_0P@KIBHEOFG@MOD_THROWKNIFE?$AA@ 100a49cc     bg_weapons.obj
 0002:000059dc       ??_C@_09MKIBEKPO@MOD_SHOVE?$AA@ 100a49dc     bg_weapons.obj
 0002:000059e8       ??_C@_09BEOGKGO@MOD_VENOM?$AA@ 100a49e8     bg_weapons.obj
 0002:000059f4       ??_C@_08HNGDAPGM@MOD_MP34?$AA@ 100a49f4     bg_weapons.obj
 0002:00005a00       ??_C@_0M@JHLOPGHM@MOD_JOHNSON?$AA@ 100a4a00     bg_weapons.obj
 0002:00005a0c       ??_C@_0M@PNEEEAIA@MOD_BAZOOKA?$AA@ 100a4a0c     bg_weapons.obj
 0002:00005a18       ??_C@_09NHFCEPGL@MOD_STG44?$AA@ 100a4a18     bg_weapons.obj
 0002:00005a24       ??_C@_07HMEEKKMN@MOD_BAR?$AA@ 100a4a24     bg_weapons.obj
 0002:00005a2c       ??_C@_0BE@DJAJIMCC@MOD_MOBILE_BROWNING?$AA@ 100a4a2c     bg_weapons.obj
 0002:00005a40       ??_C@_0N@OLLHEMKG@MOD_BACKSTAB?$AA@ 100a4a40     bg_weapons.obj
 0002:00005a50       ??_C@_0M@MIHCLLAH@MOD_SHOTGUN?$AA@ 100a4a50     bg_weapons.obj
 0002:00005a5c       ??_C@_0N@CHPMJNCM@MOD_CENSORED?$AA@ 100a4a5c     bg_weapons.obj
 0002:00005a6c       ??_C@_08JKGOJMP@MOD_FEAR?$AA@ 100a4a6c     bg_weapons.obj
 0002:00005a78       ??_C@_0L@KNNBJGLL@MOD_POISON?$AA@ 100a4a78     bg_weapons.obj
 0002:00005a84       ??_C@_0L@LPGOGOGL@MOD_GOOMBA?$AA@ 100a4a84     bg_weapons.obj
 0002:00005a90       ??_C@_0P@OANIBGAE@MOD_SWITCHTEAM?$AA@ 100a4a90     bg_weapons.obj
 0002:00005aa0       ??_C@_0BA@BJBKEKKI@MOD_SWAP_PLACES?$AA@ 100a4aa0     bg_weapons.obj
 0002:00005ab0       ??_C@_0BB@LDHGGNBP@MOD_SMOKEGRENADE?$AA@ 100a4ab0     bg_weapons.obj
 0002:00005ac4       ??_C@_0BJ@NAFIFGMP@MOD_AKIMBO_SILENCEDLUGER?$AA@ 100a4ac4     bg_weapons.obj
 0002:00005ae0       ??_C@_0BI@FPFNOEOG@MOD_AKIMBO_SILENCEDCOLT?$AA@ 100a4ae0     bg_weapons.obj
 0002:00005af8       ??_C@_0BB@KKPNDAPA@MOD_AKIMBO_LUGER?$AA@ 100a4af8     bg_weapons.obj
 0002:00005b0c       ??_C@_0BA@JAGBHDGN@MOD_AKIMBO_COLT?$AA@ 100a4b0c     bg_weapons.obj
 0002:00005b1c       ??_C@_0L@MNNGIFMI@MOD_MORTAR?$AA@ 100a4b1c     bg_weapons.obj
 0002:00005b28       ??_C@_0O@OGANMFHD@MOD_K43_SCOPE?$AA@ 100a4b28     bg_weapons.obj
 0002:00005b38       ??_C@_07CPJABFBK@MOD_K43?$AA@ 100a4b38     bg_weapons.obj
 0002:00005b40       ??_C@_0CH@IPPGKIAF@MOD_CRUSH_CONSTRUCTIONDEATH_NOAT@ 100a4b40     bg_weapons.obj
 0002:00005b68       ??_C@_0BM@DPCDBDEF@MOD_CRUSH_CONSTRUCTIONDEATH?$AA@ 100a4b68     bg_weapons.obj
 0002:00005b84       ??_C@_0BH@HEINBMNC@MOD_CRUSH_CONSTRUCTION?$AA@ 100a4b84     bg_weapons.obj
 0002:00005b9c       ??_C@_0BB@LGAFEIB@MOD_GARAND_SCOPE?$AA@ 100a4b9c     bg_weapons.obj
 0002:00005bb0       ??_C@_0BC@KJKCNHAF@MOD_SILENCED_COLT?$AA@ 100a4bb0     bg_weapons.obj
 0002:00005bc4       ??_C@_0BA@CCIFMJKO@MOD_MOBILE_MG42?$AA@ 100a4bc4     bg_weapons.obj
 0002:00005bd4       ??_C@_0O@FFEKCDDB@MOD_SMOKEBOMB?$AA@ 100a4bd4     bg_weapons.obj
 0002:00005be4       ??_C@_0M@JAEIJGLK@MOD_SATCHEL?$AA@ 100a4be4     bg_weapons.obj
 0002:00005bf0       ??_C@_0N@IKEKDDHK@MOD_LANDMINE?$AA@ 100a4bf0     bg_weapons.obj
 0002:00005c00       ??_C@_06GPBJNDFL@MOD_M7?$AA@ 100a4c00     bg_weapons.obj
 0002:00005c08       ??_C@_09NOPJGMCC@MOD_GPG40?$AA@ 100a4c08     bg_weapons.obj
 0002:00005c14       ??_C@_09FDHNKMJN@MOD_KAR98?$AA@ 100a4c14     bg_weapons.obj
 0002:00005c20       ??_C@_0M@GCOBFOPB@MOD_CARBINE?$AA@ 100a4c20     bg_weapons.obj
 0002:00005c2c       ??_C@_0O@HPNDNAHH@MOD_EXPLOSIVE?$AA@ 100a4c2c     bg_weapons.obj
 0002:00005c3c       ??_C@_0BB@JHNHPELL@MOD_TRIGGER_HURT?$AA@ 100a4c3c     bg_weapons.obj
 0002:00005c50       ??_C@_0BB@HMLMKPCA@MOD_TARGET_LASER?$AA@ 100a4c50     bg_weapons.obj
 0002:00005c64       ??_C@_0M@NECNIJDJ@MOD_SUICIDE?$AA@ 100a4c64     bg_weapons.obj
 0002:00005c70       ??_C@_0M@JONLOPJN@MOD_FALLING?$AA@ 100a4c70     bg_weapons.obj
 0002:00005c7c       ??_C@_0N@IMHJNLFF@MOD_TELEFRAG?$AA@ 100a4c7c     bg_weapons.obj
 0002:00005c8c       ??_C@_09GPMGMMBL@MOD_CRUSH?$AA@ 100a4c8c     bg_weapons.obj
 0002:00005c98       ??_C@_08LEPCJCFO@MOD_LAVA?$AA@ 100a4c98     bg_weapons.obj
 0002:00005ca4       ??_C@_09KBJPPHD@MOD_SLIME?$AA@ 100a4ca4     bg_weapons.obj
 0002:00005cb0       ??_C@_09MAPLCDLI@MOD_WATER?$AA@ 100a4cb0     bg_weapons.obj
 0002:00005cbc       ??_C@_08IPFBOCKJ@MOD_ARTY?$AA@ 100a4cbc     bg_weapons.obj
 0002:00005cc8       ??_C@_08IIEEIIEI@MOD_AMMO?$AA@ 100a4cc8     bg_weapons.obj
 0002:00005cd4       ??_C@_0M@KPLNIPFE@MOD_SYRINGE?$AA@ 100a4cd4     bg_weapons.obj
 0002:00005ce0       ??_C@_0O@FOLPCGKO@MOD_AIRSTRIKE?$AA@ 100a4ce0     bg_weapons.obj
 0002:00005cf0       ??_C@_0N@NPLAAMOJ@MOD_DYNAMITE?$AA@ 100a4cf0     bg_weapons.obj
 0002:00005d00       ??_C@_0L@DGDELHBP@MOD_KICKED?$AA@ 100a4d00     bg_weapons.obj
 0002:00005d0c       ??_C@_0BF@POLGMKI@MOD_MAPMORTAR_SPLASH?$AA@ 100a4d0c     bg_weapons.obj
 0002:00005d24       ??_C@_0O@EJOJPIIM@MOD_MAPMORTAR?$AA@ 100a4d24     bg_weapons.obj
 0002:00005d34       ??_C@_0BG@MHNAEBCD@MOD_GRENADE_PINEAPPLE?$AA@ 100a4d34     bg_weapons.obj
 0002:00005d4c       ??_C@_0BB@LNIJGHMB@MOD_FLAMETHROWER?$AA@ 100a4d4c     bg_weapons.obj
 0002:00005d60       ??_C@_0BF@LGJBMCBH@MOD_GRENADE_LAUNCHER?$AA@ 100a4d60     bg_weapons.obj
 0002:00005d78       ??_C@_0BA@LFAFBJCJ@MOD_PANZERFAUST?$AA@ 100a4d78     bg_weapons.obj
 0002:00005d88       ??_C@_0P@KOJAJOIA@MOD_FG42_SCOPE?$AA@ 100a4d88     bg_weapons.obj
 0002:00005d98       ??_C@_08JEGIOAFI@MOD_FG42?$AA@ 100a4d98     bg_weapons.obj
 0002:00005da4       ??_C@_0N@FHNOJGCA@MOD_SILENCER?$AA@ 100a4da4     bg_weapons.obj
 0002:00005db4       ??_C@_0L@CDKPOOLB@MOD_GARAND?$AA@ 100a4db4     bg_weapons.obj
 0002:00005dc0       ??_C@_08KIHNDEEG@MOD_STEN?$AA@ 100a4dc0     bg_weapons.obj
 0002:00005dcc       ??_C@_0N@EGIHMFHA@MOD_THOMPSON?$AA@ 100a4dcc     bg_weapons.obj
 0002:00005ddc       ??_C@_08BMEANMON@MOD_MP40?$AA@ 100a4ddc     bg_weapons.obj
 0002:00005de8       ??_C@_08PAHJLCAO@MOD_COLT?$AA@ 100a4de8     bg_weapons.obj
 0002:00005df4       ??_C@_09HOCGBIND@MOD_LUGER?$AA@ 100a4df4     bg_weapons.obj
 0002:00005e00       ??_C@_09JDAJMDAE@MOD_KNIFE?$AA@ 100a4e00     bg_weapons.obj
 0002:00005e0c       ??_C@_0M@KDJNKEED@MOD_GRENADE?$AA@ 100a4e0c     bg_weapons.obj
 0002:00005e18       ??_C@_08ODLINBEJ@MOD_MG42?$AA@ 100a4e18     bg_weapons.obj
 0002:00005e24       ??_C@_0N@OGBPLNPD@MOD_BROWNING?$AA@ 100a4e24     bg_weapons.obj
 0002:00005e34       ??_C@_0P@DNHADEBJ@MOD_MACHINEGUN?$AA@ 100a4e34     bg_weapons.obj
 0002:00005e44       ??_C@_0M@BKDMLGAO@MOD_UNKNOWN?$AA@ 100a4e44     bg_weapons.obj
 0002:00005e50       ??_C@_0CJ@KHDFNMIB@Error?5parsing?5weapon?5animation?5f@ 100a4e50     bg_weapons.obj
 0002:00005e7c       ??_C@_0CI@BGBFKJG@unknown?5token?5in?5weapon?5cfg?5?8?$CFs?8@ 100a4e7c     bg_weapons.obj
 0002:00005ea4       ??_C@_06LPMAPJFB@newfmt?$AA@ 100a4ea4     bg_weapons.obj
 0002:00005eac       ??_C@_0BC@NFDFKMPA@File?5?$CFs?5too?5long?6?$AA@ 100a4eac     bg_weapons.obj
 0002:00005ec0       ??_C@_0BN@KAPICGAG@expected?5brassModel?5filename?$AA@ 100a4ec0     bg_weapons.obj
 0002:00005ee0       ??_C@_0CD@FLPPFPP@expected?5flashSmokeShader?5filena@ 100a4ee0     bg_weapons.obj
 0002:00005f04       ??_C@_0BI@MICJOPMO@expected?5ejectBrassFunc?$AA@ 100a4f04     bg_weapons.obj
 0002:00005f1c       ??_C@_0BK@BNJBJNDA@expected?5missileTrailFunc?$AA@ 100a4f1c     bg_weapons.obj
 0002:00005f38       ??_C@_0BP@NAHMLMO@expected?5missileSound?5filename?$AA@ 100a4f38     bg_weapons.obj
 0002:00005f58       ??_C@_0BP@GNGHGOA@expected?5missileModel?5filename?$AA@ 100a4f58     bg_weapons.obj
 0002:00005f78       ??_C@_0CF@NBIFNKCM@expected?5weaponSelectedIcon?5file@ 100a4f78     bg_weapons.obj
 0002:00005fa0       ??_C@_0BN@EDGBGLNO@expected?5weaponIcon?5filename?$AA@ 100a4fa0     bg_weapons.obj
 0002:00005fc0       ??_C@_0CC@OBBKDKFI@expected?5clipBounceSound?5filenam@ 100a4fc0     bg_weapons.obj
 0002:00005fe4       ??_C@_0BO@DGHBKMEO@expected?5bounceSound?5filename?$AA@ 100a4fe4     bg_weapons.obj
 0002:00006004       ??_C@_0BO@FJLFLAAI@expected?5switchSound?5filename?$AA@ 100a5004     bg_weapons.obj
 0002:00006024       ??_C@_0CA@GKJJDDBJ@expected?5spindownSound?5filename?$AA@ 100a5024     bg_weapons.obj
 0002:00006044       ??_C@_0BO@KBIGAAKI@expected?5spinupSound?5filename?$AA@ 100a5044     bg_weapons.obj
 0002:00006064       ??_C@_0CC@EALJKIAJ@expected?5reloadFastSound?5filenam@ 100a5064     bg_weapons.obj
 0002:00006088       ??_C@_0BO@HCIHAPPM@expected?5reloadSound?5filename?$AA@ 100a5088     bg_weapons.obj
 0002:000060a8       ??_C@_0CA@ENLJOJEM@expected?5overheatSound?5filename?$AA@ 100a50a8     bg_weapons.obj
 0002:000060c8       ??_C@_0BO@JOKFDCHO@expected?5firingSound?5filename?$AA@ 100a50c8     bg_weapons.obj
 0002:000060e8       ??_C@_0BN@NBODNPFG@expected?5readySound?5filename?$AA@ 100a50e8     bg_weapons.obj
 0002:00006108       ??_C@_0CC@DIGEKBHJ@expected?5deathBySoundFar?5filenam@ 100a5108     bg_weapons.obj
 0002:0000612c       ??_C@_0BP@DFIBEDPK@expected?5deathBySound?5filename?$AA@ 100a512c     bg_weapons.obj
 0002:0000614c       ??_C@_0CA@ODDGMPMA@expected?5lastShotSound?5filename?$AA@ 100a514c     bg_weapons.obj
 0002:0000616c       ??_C@_0CB@DDAIABIA@expected?5flashEchoSound?5filename@ 100a516c     bg_weapons.obj
 0002:00006190       ??_C@_0BN@NOAHEIMO@expected?5flashSound?5filename?$AA@ 100a5190     bg_weapons.obj
 0002:000061b0       ??_C@_0BN@IGEFHKMF@expected?5handsModel?5filename?$AA@ 100a51b0     bg_weapons.obj
 0002:000061d0       ??_C@_0BN@FPNNKIDM@expected?5pickupSkin?5filename?$AA@ 100a51d0     bg_weapons.obj
 0002:000061f0       ??_C@_0BO@FANMADCH@expected?5pickupModel?5filename?$AA@ 100a51f0     bg_weapons.obj
 0002:00006210       ??_C@_0BN@KGLEEBPC@expected?5standModel?5filename?$AA@ 100a5210     bg_weapons.obj
 0002:00006230       ??_C@_0BP@BBLGIEMC@missing?5weaponConfig?5string?$CB?$CB?$CB?$AA@ 100a5230     bg_weapons.obj
 0002:00006250       ??_C@_0M@NHPGJPHJ@thirdPerson?$AA@ 100a5250     bg_weapons.obj
 0002:0000625c       ??_C@_0M@ECNFGMKN@firstPerson?$AA@ 100a525c     bg_weapons.obj
 0002:00006268       ??_C@_08FJFMODFJ@modModel?$AA@ 100a5268     bg_weapons.obj
 0002:00006274       ??_C@_0BL@GLDPGPCM@expected?5foreShorten?5value?$AA@ 100a5274     bg_weapons.obj
 0002:00006290       ??_C@_0M@CMFOIDGG@foreShorten?$AA@ 100a5290     bg_weapons.obj
 0002:0000629c       ??_C@_0BJ@FJMLDIKH@expected?5offset?5as?5x?5y?5z?$AA@ 100a529c     bg_weapons.obj
 0002:000062b8       ??_C@_06KLHHMIGM@offset?$AA@ 100a52b8     bg_weapons.obj
 0002:000062c0       ??_C@_0L@EBIPEJHH@brassModel?$AA@ 100a52c0     bg_weapons.obj
 0002:000062cc       ??_C@_0CD@HIPNLILN@expected?5recoil_pitchAddRandom?5i@ 100a52cc     bg_weapons.obj
 0002:000062f0       ??_C@_0BG@NCPJBBIE@recoil_pitchAddRandom?$AA@ 100a52f0     bg_weapons.obj
 0002:00006308       ??_C@_0BO@KFLIBNIK@expected?5recoil_yawRandom?5int?$AA@ 100a5308     bg_weapons.obj
 0002:00006328       ??_C@_0BB@JCFPHLCN@recoil_yawRandom?$AA@ 100a5328     bg_weapons.obj
 0002:0000633c       ??_C@_0BN@GPKFPGGA@expected?5recoil_pitchAdd?5int?$AA@ 100a533c     bg_weapons.obj
 0002:0000635c       ??_C@_0BA@CJMLMMIA@recoil_pitchAdd?$AA@ 100a535c     bg_weapons.obj
 0002:0000636c       ??_C@_0BB@EGHEFODO@flashSmokeShader?$AA@ 100a536c     bg_weapons.obj
 0002:00006380       ??_C@_0BM@LGEAKJAI@expected?5flashSmokeLife?5int?$AA@ 100a5380     bg_weapons.obj
 0002:0000639c       ??_C@_0P@CMNHBOEH@flashSmokeLife?$AA@ 100a539c     bg_weapons.obj
 0002:000063ac       ??_C@_0BP@HLGMLLFF@expected?5flashSmokeAlpha?5value?$AA@ 100a53ac     bg_weapons.obj
 0002:000063cc       ??_C@_0BA@JNKGFOHF@flashSmokeAlpha?$AA@ 100a53cc     bg_weapons.obj
 0002:000063dc       ??_C@_0BO@LPOEMLNK@expected?5flashSmokeSize?5value?$AA@ 100a53dc     bg_weapons.obj
 0002:000063fc       ??_C@_0P@NLFLEEAA@flashSmokeSize?$AA@ 100a53fc     bg_weapons.obj
 0002:0000640c       ??_C@_0BG@KBEGIOOE@PanzerFaustEjectBrass?$AA@ 100a540c     bg_weapons.obj
 0002:00006424       ??_C@_0BF@IJNNPEGO@MachineGunEjectBrass?$AA@ 100a5424     bg_weapons.obj
 0002:0000643c       ??_C@_0P@IKDCKODN@ejectBrassFunc?$AA@ 100a543c     bg_weapons.obj
 0002:0000644c       ??_C@_0CF@IOFIODGN@expected?5missileDlightColor?5as?5r@ 100a544c     bg_weapons.obj
 0002:00006474       ??_C@_0BD@PMAOBIOK@missileDlightColor?$AA@ 100a5474     bg_weapons.obj
 0002:00006488       ??_C@_0BN@NHEEJGKO@expected?5missileDlight?5value?$AA@ 100a5488     bg_weapons.obj
 0002:000064a8       ??_C@_0O@FHIJFPHI@missileDlight?$AA@ 100a54a8     bg_weapons.obj
 0002:000064b8       ??_C@_0O@CHJNIHGL@DynamiteTrail?$AA@ 100a54b8     bg_weapons.obj
 0002:000064c8       ??_C@_0P@GJKLHGIK@PyroSmokeTrail?$AA@ 100a54c8     bg_weapons.obj
 0002:000064d8       ??_C@_0M@OKFFNIDM@RocketTrail?$AA@ 100a54d8     bg_weapons.obj
 0002:000064e4       ??_C@_0N@MJEHNKJE@GrenadeTrail?$AA@ 100a54e4     bg_weapons.obj
 0002:000064f4       ??_C@_0BB@CDNLBMFD@missileTrailFunc?$AA@ 100a54f4     bg_weapons.obj
 0002:00006508       ??_C@_0N@FGFKDMAG@missileSound?$AA@ 100a5508     bg_weapons.obj
 0002:00006518       ??_C@_0BA@FEOAKKNJ@missileAxisSkin?$AA@ 100a5518     bg_weapons.obj
 0002:00006528       ??_C@_0BC@LFICONFA@missileAlliedSkin?$AA@ 100a5528     bg_weapons.obj
 0002:0000653c       ??_C@_0BD@KCHKFEJA@AlliedMissileModel?$AA@ 100a553c     bg_weapons.obj
 0002:00006550       ??_C@_0BB@OCJNLAMH@AxisMissileModel?$AA@ 100a5550     bg_weapons.obj
 0002:00006564       ??_C@_0N@EDKPAKPO@missileModel?$AA@ 100a5564     bg_weapons.obj
 0002:00006574       ??_C@_0BD@MEMIOJFB@weaponSelectedIcon?$AA@ 100a5574     bg_weapons.obj
 0002:00006588       ??_C@_0BL@NEPCIIHB@expected?5weapon?5Icon?5Scale?$AA@ 100a5588     bg_weapons.obj
 0002:000065a4       ??_C@_0BA@OIHGAGJC@weaponIconScale?$AA@ 100a55a4     bg_weapons.obj
 0002:000065b4       ??_C@_0L@BIGCDIOH@weaponIcon?$AA@ 100a55b4     bg_weapons.obj
 0002:000065c0       ??_C@_0BA@OGHHELG@clipBounceSound?$AA@ 100a55c0     bg_weapons.obj
 0002:000065d0       ??_C@_0M@OAFPLOL@bounceSound?$AA@ 100a55d0     bg_weapons.obj
 0002:000065dc       ??_C@_0M@OICGLHLP@switchSound?$AA@ 100a55dc     bg_weapons.obj
 0002:000065e8       ??_C@_0O@BNGMEACJ@spindownSound?$AA@ 100a55e8     bg_weapons.obj
 0002:000065f8       ??_C@_0M@BGBGIANG@spinupSound?$AA@ 100a55f8     bg_weapons.obj
 0002:00006604       ??_C@_0BA@IKGPAPKD@reloadFastSound?$AA@ 100a5604     bg_weapons.obj
 0002:00006614       ??_C@_0M@MICAPMDL@reloadSound?$AA@ 100a5614     bg_weapons.obj
 0002:00006620       ??_C@_0O@KGEALIAE@overheatSound?$AA@ 100a5620     bg_weapons.obj
 0002:00006630       ??_C@_0M@GPJBHIJP@firingSound?$AA@ 100a5630     bg_weapons.obj
 0002:0000663c       ??_C@_0L@ONPAEGKJ@readySound?$AA@ 100a563c     bg_weapons.obj
 0002:00006648       ??_C@_0DO@OKABMCAJ@?$FO3WARNING?3?5only?5up?5to?54?5deathByS@ 100a5648     bg_weapons.obj
 0002:00006688       ??_C@_0BA@GFPNAAI@deathBySoundFar?$AA@ 100a5688     bg_weapons.obj
 0002:00006698       ??_C@_0DL@MMCMGKI@?$FO3WARNING?3?5only?5up?5to?54?5deathByS@ 100a5698     bg_weapons.obj
 0002:000066d4       ??_C@_0N@JLHKIPIB@deathBySound?$AA@ 100a56d4     bg_weapons.obj
 0002:000066e4       ??_C@_0DM@DKFHGPHP@?$FO3WARNING?3?5only?5up?5to?54?5lastShot@ 100a56e4     bg_weapons.obj
 0002:00006720       ??_C@_0O@GMBDDDKI@lastShotSound?$AA@ 100a5720     bg_weapons.obj
 0002:00006730       ??_C@_0DO@MNONAAKJ@?$FO3WARNING?3?5only?5up?5to?54?5flashEch@ 100a5730     bg_weapons.obj
 0002:00006770       ??_C@_0P@GJKKCAMK@flashEchoSound?$AA@ 100a5770     bg_weapons.obj
 0002:00006780       ??_C@_0DK@BICOMHE@?$FO3WARNING?3?5only?5up?5to?54?5flashSou@ 100a5780     bg_weapons.obj
 0002:000067bc       ??_C@_0L@LIBNHFGC@flashSound?$AA@ 100a57bc     bg_weapons.obj
 0002:000067c8       ??_C@_0CD@PHNBKCEG@expected?5flashDlightColor?5as?5r?5g@ 100a57c8     bg_weapons.obj
 0002:000067ec       ??_C@_0BB@JPDHPCLA@flashDlightColor?$AA@ 100a57ec     bg_weapons.obj
 0002:00006800       ??_C@_0L@MGHONMPL@handsModel?$AA@ 100a5800     bg_weapons.obj
 0002:0000680c       ??_C@_0BO@FLANLOAJ@expected?5pickupSound?5filename?$AA@ 100a580c     bg_weapons.obj
 0002:0000682c       ??_C@_0M@OJIGHNOO@pickupSound?$AA@ 100a582c     bg_weapons.obj
 0002:00006838       ??_C@_0BB@GGEFBMNE@alliedPickupSkin?$AA@ 100a5838     bg_weapons.obj
 0002:0000684c       ??_C@_0P@PHNADOBC@axisPickupSkin?$AA@ 100a584c     bg_weapons.obj
 0002:0000685c       ??_C@_0L@DFFJLDAE@pickupSkin?$AA@ 100a585c     bg_weapons.obj
 0002:00006868       ??_C@_0BC@HKPDIFGN@alliedPickupModel?$AA@ 100a5868     bg_weapons.obj
 0002:0000687c       ??_C@_0BA@IGFHHMK@axisPickupModel?$AA@ 100a587c     bg_weapons.obj
 0002:0000688c       ??_C@_0M@PMHDELBG@pickupModel?$AA@ 100a588c     bg_weapons.obj
 0002:00006898       ??_C@_0BC@LDAIDPJN@droppedAnglesHack?$AA@ 100a5898     bg_weapons.obj
 0002:000068ac       ??_C@_0L@GGCOKEIB@standModel?$AA@ 100a58ac     bg_weapons.obj
 0002:000068b8       ??_C@_0BJ@CJODLFNN@error?5in?5weaponConfig?$CB?$CB?$CB?$AA@ 100a58b8     bg_weapons.obj
 0002:000068d4       ??_C@_0N@HPOBFGHC@weaponConfig?$AA@ 100a58d4     bg_weapons.obj
 0002:000068e4       ??_C@_0BG@IPMDFANM@statname?5needs?5string?$AA@ 100a58e4     bg_weapons.obj
 0002:000068fc       ??_C@_0BP@NJBJANKO@valid?5MoD?5name?5must?5be?5entered?$AA@ 100a58fc     bg_weapons.obj
 0002:0000691c       ??_C@_08LIKNBNHG@statname?$AA@ 100a591c     bg_weapons.obj
 0002:00006928       ??_C@_0BC@HFBEIDKM@viewchange2spread?$AA@ 100a5928     bg_weapons.obj
 0002:0000693c       ??_C@_0BA@GAHCOKCE@velocity2spread?$AA@ 100a593c     bg_weapons.obj
 0002:0000694c       ??_C@_0BI@KNNNEKIH@spreadRatio?5needs?5float?$AA@ 100a594c     bg_weapons.obj
 0002:00006964       ??_C@_0M@KAGCGPH@spreadRatio?$AA@ 100a5964     bg_weapons.obj
 0002:00006970       ??_C@_0BM@PNMBOKEH@minHeadshotDamage?5needs?5int?$AA@ 100a5970     bg_weapons.obj
 0002:0000698c       ??_C@_0BC@LINPNAMF@minHeadshotDamage?$AA@ 100a598c     bg_weapons.obj
 0002:000069a0       ??_C@_0BK@HHALHFMJ@HeadshotRatio?5needs?5float?$AA@ 100a59a0     bg_weapons.obj
 0002:000069bc       ??_C@_0O@FDIBNPGK@HeadshotRatio?$AA@ 100a59bc     bg_weapons.obj
 0002:000069cc       ??_C@_0BP@MIIELJDP@movementSpeedScale?5needs?5float?$AA@ 100a59cc     bg_weapons.obj
 0002:000069ec       ??_C@_0BD@OFCNLFPE@movementSpeedScale?$AA@ 100a59ec     bg_weapons.obj
 0002:00006a00       ??_C@_0O@OFCJHHHK@GibbingWeapon?$AA@ 100a5a00     bg_weapons.obj
 0002:00006a10       ??_C@_0BA@FBAKHPKG@DistanceFalloff?$AA@ 100a5a10     bg_weapons.obj
 0002:00006a20       ??_C@_0P@BKPCCCOG@HeadshotWeapon?$AA@ 100a5a20     bg_weapons.obj
 0002:00006a30       ??_C@_0BK@GEPIHLFD@KillMessage2?5needs?5string?$AA@ 100a5a30     bg_weapons.obj
 0002:00006a4c       ??_C@_0N@MIAOBCEG@KillMessage2?$AA@ 100a5a4c     bg_weapons.obj
 0002:00006a5c       ??_C@_0BJ@NOAHFNPF@KillMessage?5needs?5string?$AA@ 100a5a5c     bg_weapons.obj
 0002:00006a78       ??_C@_0M@BBJEJHLC@KillMessage?$AA@ 100a5a78     bg_weapons.obj
 0002:00006a84       ??_C@_0BN@CKPHPFHD@selfKillMessage?5needs?5string?$AA@ 100a5a84     bg_weapons.obj
 0002:00006aa4       ??_C@_0BA@JNDPNIM@selfKillMessage?$AA@ 100a5aa4     bg_weapons.obj
 0002:00006ab4       ??_C@_0BA@INENOPOB@noMidclipReload?$AA@ 100a5ab4     bg_weapons.obj
 0002:00006ac4       ??_C@_0BB@LLMDEKEO@bulletReflection?$AA@ 100a5ac4     bg_weapons.obj
 0002:00006ad8       ??_C@_09GIIDNGJP@limboKill?$AA@ 100a5ad8     bg_weapons.obj
 0002:00006ae4       ??_C@_0BN@DCMDICNP@ProneSpreadRatio?5needs?5float?$AA@ 100a5ae4     bg_weapons.obj
 0002:00006b04       ??_C@_0BB@PAPAJFLE@ProneSpreadRatio?$AA@ 100a5b04     bg_weapons.obj
 0002:00006b18       ??_C@_0BC@MIEGCKMA@CrouchSpreadRatio?$AA@ 100a5b18     bg_weapons.obj
 0002:00006b2c       ??_C@_0BI@LMDAPMNN@recoilPitch?5needs?5float?$AA@ 100a5b2c     bg_weapons.obj
 0002:00006b44       ??_C@_0M@MMCEMOFA@recoilPitch?$AA@ 100a5b44     bg_weapons.obj
 0002:00006b50       ??_C@_0BG@CHLFHOHE@recoilYaw?5needs?5float?$AA@ 100a5b50     bg_weapons.obj
 0002:00006b68       ??_C@_09DHPAFHED@recoilYaw?$AA@ 100a5b68     bg_weapons.obj
 0002:00006b74       ??_C@_0BJ@HMDGFCMH@recoilDuration?5needs?5int?$AA@ 100a5b74     bg_weapons.obj
 0002:00006b90       ??_C@_0P@KKCNJLHL@recoilDuration?$AA@ 100a5b90     bg_weapons.obj
 0002:00006ba0       ??_C@_0BN@FCGLMCFE@SpreadScaleAddRand?5needs?5int?$AA@ 100a5ba0     bg_weapons.obj
 0002:00006bc0       ??_C@_0BD@KAGEEMGI@SpreadScaleAddRand?$AA@ 100a5bc0     bg_weapons.obj
 0002:00006bd4       ??_C@_0BJ@HBJIPBHL@SpreadScaleAdd?5needs?5int?$AA@ 100a5bd4     bg_weapons.obj
 0002:00006bf0       ??_C@_0P@FNBKGJC@SpreadScaleAdd?$AA@ 100a5bf0     bg_weapons.obj
 0002:00006c00       ??_C@_0BF@JBAJIBAM@reloadTime?5needs?5int?$AA@ 100a5c00     bg_weapons.obj
 0002:00006c18       ??_C@_0L@NLPILGLM@reloadTime?$AA@ 100a5c18     bg_weapons.obj
 0002:00006c24       ??_C@_0BH@DFEKINCH@nextShotTime?5needs?5int?$AA@ 100a5c24     bg_weapons.obj
 0002:00006c3c       ??_C@_0N@HJIIEBKK@nextShotTime?$AA@ 100a5c3c     bg_weapons.obj
 0002:00006c4c       ??_C@_03FFONCNID@mod?$AA@  100a5c4c     bg_weapons.obj
 0002:00006c50       ??_C@_0BC@JGGAGDBA@maxHeat?5needs?5int?$AA@ 100a5c50     bg_weapons.obj
 0002:00006c64       ??_C@_07HNLOFEFN@maxHeat?$AA@ 100a5c64     bg_weapons.obj
 0002:00006c6c       ??_C@_0BE@NFNMKJAN@skillclip?5needs?5int?$AA@ 100a5c6c     bg_weapons.obj
 0002:00006c80       ??_C@_09OEOCCIDE@skillclip?$AA@ 100a5c80     bg_weapons.obj
 0002:00006c8c       ??_C@_0BC@DHACOMCC@maxclip?5needs?5int?$AA@ 100a5c8c     bg_weapons.obj
 0002:00006ca0       ??_C@_07NMNIJBHO@maxclip?$AA@ 100a5ca0     bg_weapons.obj
 0002:00006ca8       ??_C@_0BC@LMLOKENO@maxammo?5needs?5int?$AA@ 100a5ca8     bg_weapons.obj
 0002:00006cbc       ??_C@_07NEPHADDJ@maxammo?$AA@ 100a5cbc     bg_weapons.obj
 0002:00006cc4       ??_C@_0BI@MEFIJFCG@fireDelayTime?5needs?5int?$AA@ 100a5cc4     bg_weapons.obj
 0002:00006cdc       ??_C@_0O@OOPKGMIO@fireDelayTime?$AA@ 100a5cdc     bg_weapons.obj
 0002:00006cec       ??_C@_0BO@FMKCPIND@defaultStartingClip?5needs?5int?$AA@ 100a5cec     bg_weapons.obj
 0002:00006d0c       ??_C@_0BE@NCOFABHP@defaultStartingClip?$AA@ 100a5d0c     bg_weapons.obj
 0002:00006d20       ??_C@_0BO@NHBOLACP@defaultStartingAmmo?5needs?5int?$AA@ 100a5d20     bg_weapons.obj
 0002:00006d40       ??_C@_0BE@NKMKJDDI@defaultStartingAmmo?$AA@ 100a5d40     bg_weapons.obj
 0002:00006d54       ??_C@_0BD@JBBLEBLD@coolRate?5needs?5int?$AA@ 100a5d54     bg_weapons.obj
 0002:00006d68       ??_C@_08PNCAEEKJ@coolRate?$AA@ 100a5d68     bg_weapons.obj
 0002:00006d74       ??_C@_0BB@DLDKPNJF@spread?5needs?5int?$AA@ 100a5d74     bg_weapons.obj
 0002:00006d88       ??_C@_06HDFPFMNM@spread?$AA@ 100a5d88     bg_weapons.obj
 0002:00006d90       ??_C@_0BO@BKHFGCDF@splashdamage_radius?5needs?5int?$AA@ 100a5d90     bg_weapons.obj
 0002:00006db0       ??_C@_0BE@JAHGJJCG@splashdamage_radius?$AA@ 100a5db0     bg_weapons.obj
 0002:00006dc4       ??_C@_0BH@GDCCJMMO@splashdamage?5needs?5int?$AA@ 100a5dc4     bg_weapons.obj
 0002:00006ddc       ??_C@_0N@HGEPNCLI@splashdamage?$AA@ 100a5ddc     bg_weapons.obj
 0002:00006dec       ??_C@_0BB@HGLAPHNH@damage?5needs?5int?$AA@ 100a5dec     bg_weapons.obj
 0002:00006e00       ??_C@_06GJOIPFFF@damage?$AA@ 100a5e00     bg_weapons.obj
 0002:00006e08       ??_C@_0BC@HDFOGBIF@name?5needs?5string?$AA@ 100a5e08     bg_weapons.obj
 0002:00006e1c       ??_C@_04MEMAJGDJ@name?$AA@ 100a5e1c     bg_weapons.obj
 0002:00006e24       ??_C@_0BF@BGKLADOF@expected?5?8weaponDef?8?$AA@ 100a5e24     bg_weapons.obj
 0002:00006e3c       ??_C@_0N@EAGOECP@both_altweap?$AA@ 100a5e3c     bg_weapons.obj
 0002:00006e4c       ??_C@_04EHLGOKLJ@both?$AA@ 100a5e4c     bg_weapons.obj
 0002:00006e54       ??_C@_06DGDLPBAN@client?$AA@ 100a5e54     bg_weapons.obj
 0002:00006e5c       ??_C@_09FIFAMDKO@weaponDef?$AA@ 100a5e5c     bg_weapons.obj
 0002:00006e68       ??_C@_0EJ@JAEJICCN@?$FO1BG_RegisterWeapon?5failed?4?5Ther@ 100a5e68     bg_weapons.obj
 0002:00006eb4       ??_C@_0L@KAFABLEP@weapons?1?$CFs?$AA@ 100a5eb4     bg_weapons.obj
 0002:00006ec0       ??_C@_05GFOLEBJA@?$CFs?1?$CFs?$AA@ 100a5ec0     bg_weapons.obj
 0002:00006ec8       ??_C@_09EODMGMKN@foot?4weap?$AA@ 100a5ec8     bg_weapons.obj
 0002:00006ed4       ??_C@_0L@NOKMFLNK@venom?4weap?$AA@ 100a5ed4     bg_weapons.obj
 0002:00006ee0       ??_C@_0BK@MEAGCLNE@akimbo_silenced_colt?4weap?$AA@ 100a5ee0     bg_weapons.obj
 0002:00006efc       ??_C@_0BB@ELGCBLMG@akimbo_colt?4weap?$AA@ 100a5efc     bg_weapons.obj
 0002:00006f10       ??_C@_0BL@HICHGDJB@akimbo_silenced_luger?4weap?$AA@ 100a5f10     bg_weapons.obj
 0002:00006f2c       ??_C@_0BC@ILBBHGOJ@akimbo_luger?4weap?$AA@ 100a5f2c     bg_weapons.obj
 0002:00006f40       ??_C@_0BF@FFHGMBKK@axis_mortar_set?4weap?$AA@ 100a5f40     bg_weapons.obj
 0002:00006f58       ??_C@_0BB@LDIMLGAF@axis_mortar?4weap?$AA@ 100a5f58     bg_weapons.obj
 0002:00006f6c       ??_C@_0BA@EMJHKINO@mortar_set?4weap?$AA@ 100a5f6c     bg_weapons.obj
 0002:00006f7c       ??_C@_0M@NFDIBHJK@mortar?4weap?$AA@ 100a5f7c     bg_weapons.obj
 0002:00006f88       ??_C@_08EDEKJBCJ@k43?4weap?$AA@ 100a5f88     bg_weapons.obj
 0002:00006f94       ??_C@_0BD@PCJCHJED@silenced_colt?4weap?$AA@ 100a5f94     bg_weapons.obj
 0002:00006fa8       ??_C@_0BE@BGHKPBCE@silenced_luger?4weap?$AA@ 100a5fa8     bg_weapons.obj
 0002:00006fbc       ??_C@_09CCJDJKJB@mg42?4weap?$AA@ 100a5fbc     bg_weapons.obj
 0002:00006fc8       ??_C@_0BC@HGKDHHBJ@smokegrenade?4weap?$AA@ 100a5fc8     bg_weapons.obj
 0002:00006fdc       ??_C@_0BB@IBHOFEIJ@satchel_det?4weap?$AA@ 100a5fdc     bg_weapons.obj
 0002:00006ff0       ??_C@_0N@BPEJDLOJ@satchel?4weap?$AA@ 100a5ff0     bg_weapons.obj
 0002:00007000       ??_C@_0O@KONHCPPG@landmine?4weap?$AA@ 100a6000     bg_weapons.obj
 0002:00007010       ??_C@_09NKHDGBGG@fg42?4weap?$AA@ 100a6010     bg_weapons.obj
 0002:0000701c       ??_C@_0BB@DCNFDBNM@m1_garand_s?4weap?$AA@ 100a601c     bg_weapons.obj
 0002:00007030       ??_C@_07KAHBIJGJ@m7?4weap?$AA@ 100a6030     bg_weapons.obj
 0002:00007038       ??_C@_0P@FMBFNNHK@m1_garand?4weap?$AA@ 100a6038     bg_weapons.obj
 0002:00007048       ??_C@_0L@JGLONLMB@gpg40?4weap?$AA@ 100a6048     bg_weapons.obj
 0002:00007054       ??_C@_0L@BKHFPPFI@kar98?4weap?$AA@ 100a6054     bg_weapons.obj
 0002:00007060       ??_C@_0M@LIEMPDKL@binocs?4weap?$AA@ 100a6060     bg_weapons.obj
 0002:0000706c       ??_C@_0M@EJFEAING@poison?4weap?$AA@ 100a606c     bg_weapons.obj
 0002:00007078       ??_C@_0N@EOGNMBEF@syringe?4weap?$AA@ 100a6078     bg_weapons.obj
 0002:00007088       ??_C@_0BA@DPLJOFPE@adrenaline?4weap?$AA@ 100a6088     bg_weapons.obj
 0002:00007098       ??_C@_0O@OPKGMFNG@dynamite?4weap?$AA@ 100a6098     bg_weapons.obj
 0002:000070a8       ??_C@_0BB@DONIJMK@smokemarker?4weap?$AA@ 100a60a8     bg_weapons.obj
 0002:000070bc       ??_C@_0M@OONLIMNI@pliers?4weap?$AA@ 100a60bc     bg_weapons.obj
 0002:000070c8       ??_C@_0N@JPKKNFIO@medpack?4weap?$AA@ 100a60c8     bg_weapons.obj
 0002:000070d8       ??_C@_0BA@LADDDKOP@smoketrail?4weap?$AA@ 100a60d8     bg_weapons.obj
 0002:000070e8       ??_C@_0O@HFJKHFCO@ammopack?4weap?$AA@ 100a60e8     bg_weapons.obj
 0002:000070f8       ??_C@_0BC@PMAEPCG@flamethrower?4weap?$AA@ 100a60f8     bg_weapons.obj
 0002:0000710c       ??_C@_0BB@JDDLMOOE@panzerfaust?4weap?$AA@ 100a610c     bg_weapons.obj
 0002:00007120       ??_C@_0P@JNODMFGB@pineapple?4weap?$AA@ 100a6120     bg_weapons.obj
 0002:00007130       ??_C@_0N@HPGGKLAE@grenade?4weap?$AA@ 100a6130     bg_weapons.obj
 0002:00007140       ??_C@_09PDEACFOF@sten?4weap?$AA@ 100a6140     bg_weapons.obj
 0002:0000714c       ??_C@_0O@LJFCODHN@thompson?4weap?$AA@ 100a614c     bg_weapons.obj
 0002:0000715c       ??_C@_09HNKNKEAA@mp40?4weap?$AA@ 100a615c     bg_weapons.obj
 0002:00007168       ??_C@_09CGJKKAAK@colt?4weap?$AA@ 100a6168     bg_weapons.obj
 0002:00007174       ??_C@_0L@BJKOAAMJ@luger?4weap?$AA@ 100a6174     bg_weapons.obj
 0002:00007180       ??_C@_0L@LOPBBGE@knife?4weap?$AA@ 100a6180     bg_weapons.obj
 0002:0000718c       ??_C@_09EOILAIHJ@MP34?4weap?$AA@ 100a618c     bg_weapons.obj
 0002:00007198       ??_C@_0N@PONIDHLF@shotgun?4weap?$AA@ 100a6198     bg_weapons.obj
 0002:000071a8       ??_C@_0O@LMJIPEON@browning?4weap?$AA@ 100a61a8     bg_weapons.obj
 0002:000071b8       ??_C@_0BA@CIBLLINN@knife_kbar?4weap?$AA@ 100a61b8     bg_weapons.obj
 0002:000071c8       ??_C@_0N@COKOJBAF@bazooka?4weap?$AA@ 100a61c8     bg_weapons.obj
 0002:000071d8       ??_C@_08BAFDKEBN@bar?4weap?$AA@ 100a61d8     bg_weapons.obj
 0002:000071e4       ??_C@_0BH@CKJCGFKM@johnson_m1941_lmg?4weap?$AA@ 100a61e4     bg_weapons.obj
 0002:000071fc       ??_C@_0L@HBFIOFJF@StG44?4weap?$AA@ 100a61fc     bg_weapons.obj
 0002:00007208       __real@4062c00000000000    100a6208     cg_atmospheric.obj
 0002:00007210       __real@3fe3333333333333    100a6210     cg_atmospheric.obj
 0002:00007218       __real@3fc999999999999a    100a6218     cg_atmospheric.obj
 0002:00007220       __real@412e848000000000    100a6220     cg_atmospheric.obj
 0002:00007228       __real@3fe8000000000000    100a6228     cg_atmospheric.obj
 0002:00007230       __real@3f10000000000000    100a6230     cg_atmospheric.obj
 0002:00007238       __real@46800000            100a6238     cg_atmospheric.obj
 0002:00007240       __real@4039000000000000    100a6240     cg_atmospheric.obj
 0002:00007248       __real@3ec4f8b580000000    100a6248     cg_atmospheric.obj
 0002:00007250       __real@410e848000000000    100a6250     cg_atmospheric.obj
 0002:00007258       __real@3fa0000000000000    100a6258     cg_atmospheric.obj
 0002:00007260       __real@4038000000000000    100a6260     cg_atmospheric.obj
 0002:00007268       ??_C@_0O@KCLMJMJN@gfx?1misc?1snow?$AA@ 100a6268     cg_atmospheric.obj
 0002:00007278       ??_C@_0DD@OJOGLGKI@Only?5effect?5type?5?8rain?8?5and?5?8sno@ 100a6278     cg_atmospheric.obj
 0002:000072ac       ??_C@_0CM@CGNCCNFL@Atmospheric?5effect?5must?5start?5wi@ 100a62ac     cg_atmospheric.obj
 0002:000072d8       ??_C@_0BC@IDOJHHGK@gfx?1misc?1raindrop?$AA@ 100a62d8     cg_atmospheric.obj
 0002:000072ec       ??_C@_0BK@GBEJKPKM@Unknown?5effect?5key?5?8?$CFs?8?4?6?$AA@ 100a62ec     cg_atmospheric.obj
 0002:00007308       ??_C@_01IGIGCIAN@H?$AA@    100a6308     cg_atmospheric.obj
 0002:0000730c       ??_C@_01CKDDGHAB@D?$AA@    100a630c     cg_atmospheric.obj
 0002:00007310       ??_C@_01ELNMCGJD@W?$AA@    100a6310     cg_atmospheric.obj
 0002:00007314       ??_C@_02JJIKEHHK@GV?$AA@   100a6314     cg_atmospheric.obj
 0002:00007318       ??_C@_02JPEBIFJB@BV?$AA@   100a6318     cg_atmospheric.obj
 0002:0000731c       ??_C@_01BBODEMC@G?$AA@     100a631c     cg_atmospheric.obj
 0002:00007320       ??_C@_01HMGJMAIH@B?$AA@    100a6320     cg_atmospheric.obj
 0002:00007324       __real@c2a00000            100a6324     cg_atmospheric.obj
 0002:00007328       ??_C@_04LDJJJDJJ@SNOW?$AA@ 100a6328     cg_atmospheric.obj
 0002:00007330       __real@c45c0000            100a6330     cg_atmospheric.obj
 0002:00007334       ??_C@_04EJBHHPNF@RAIN?$AA@ 100a6334     cg_atmospheric.obj
 0002:0000733c       ??_C@_01GAPBHFFA@T?$AA@    100a633c     cg_atmospheric.obj
 0002:00007340       __real@3fc00000            100a6340     cg_atmospheric.obj
 0002:00007344       __real@43960000            100a6344     cg_atmospheric.obj
 0002:00007348       __real@42c80000            100a6348     cg_atmospheric.obj
 0002:0000734c       ??_C@_0L@KNCPOFDA@md3_shield?$AA@ 100a634c     cg_character.obj
 0002:00007358       ??_C@_08JGDCPFI@md3_hat3?$AA@ 100a6358     cg_character.obj
 0002:00007364       ??_C@_08BAHIBOBJ@md3_hat2?$AA@ 100a6364     cg_character.obj
 0002:00007370       ??_C@_08EAOAFBIB@md3_rank?$AA@ 100a6370     cg_character.obj
 0002:0000737c       ??_C@_07GKLDBCBK@md3_hat?$AA@ 100a637c     cg_character.obj
 0002:00007384       ??_C@_0M@HFOIJEKF@md3_weapon2?$AA@ 100a6384     cg_character.obj
 0002:00007390       ??_C@_0L@EKOAGIEC@md3_weapon?$AA@ 100a6390     cg_character.obj
 0002:0000739c       ??_C@_08CINIFFFA@md3_back?$AA@ 100a639c     cg_character.obj
 0002:000073a8       ??_C@_08GBLMILKE@md3_belt?$AA@ 100a63a8     cg_character.obj
 0002:000073b4       ??_C@_09BIJCPPNB@md3_beltl?$AA@ 100a63b4     cg_character.obj
 0002:000073c0       ??_C@_09MMNDMAAO@md3_beltr?$AA@ 100a63c0     cg_character.obj
 0002:000073cc       ??_C@_07OJBAMEPL@?$CFs?4gibs?$AA@ 100a63cc     cg_character.obj
 0002:000073d4       ??_C@_0CK@CNLNMJAI@Error?5parsing?5hud?5head?5animation@ 100a63d4     cg_character.obj
 0002:00007400       ??_C@_0EF@ENLFIAKD@CG_CalcMoveSpeeds?3?5unable?5to?5fin@ 100a6400     cg_character.obj
 0002:00007448       ??_C@_0O@IOAPDJJD@tag_footright?$AA@ 100a6448     cg_character.obj
 0002:00007458       ??_C@_0N@JEANHOIJ@tag_footleft?$AA@ 100a6458     cg_character.obj
 0002:00007468       ??_C@_0BF@JEJBGGAB@File?5?$CFs?5is?5too?5long?6?$AA@ 100a6468     cg_character.obj
 0002:00007480       ??_C@_0DH@LGILPEOC@unable?5to?5find?5a?5free?5modelinfo?5@ 100a6480     cg_character.obj
 0002:000074b8       ??_C@_08LIAPLKP@_?$CFs?4skin?$AA@ 100a64b8     cg_character.obj
 0002:000074c4       ??_C@_0CO@JIJIOIBA@?$FO3WARNING?3?5failed?5to?5register?5ac@ 100a64c4     cg_character.obj
 0002:000074f8       ??_C@_0EA@MHDFNFLF@?$FO3WARNING?3?5failed?5to?5load?5animat@ 100a64f8     cg_character.obj
 0002:00007538       ??_C@_0EN@BFPGCLPN@?$FO3WARNING?3?5failed?5to?5register?5hu@ 100a6538     cg_character.obj
 0002:00007588       ??_C@_0EH@EONGIDDA@?$FO3WARNING?3?5failed?5to?5register?5hu@ 100a6588     cg_character.obj
 0002:000075d0       ??_C@_0EI@GDHGIPCH@?$FO3WARNING?3?5failed?5to?5register?5hu@ 100a65d0     cg_character.obj
 0002:00007618       ??_C@_0EP@IAMHECEE@?$FO3WARNING?3?5failed?5to?5register?5un@ 100a6618     cg_character.obj
 0002:00007668       ??_C@_0FA@DENACLMD@?$FO3WARNING?3?5failed?5to?5register?5un@ 100a6668     cg_character.obj
 0002:000076b8       ??_C@_0EJ@LEMEINF@?$FO3WARNING?3?5failed?5to?5register?5ac@ 100a66b8     cg_character.obj
 0002:00007704       ??_C@_0DO@FEJBPNLC@?$FO3WARNING?3?5failed?5to?5register?5sk@ 100a6704     cg_character.obj
 0002:00007744       ??_C@_0L@GMLLEDOD@?$CFs_?$CFs?4skin?$AA@ 100a6744     cg_character.obj
 0002:00007750       ??_C@_0DO@BDMGLANE@?$FO3WARNING?3?5failed?5to?5register?5me@ 100a6750     cg_character.obj
 0002:00007790       ??_C@_0DJ@MJBJMCII@?$FO3WARNING?3?5failed?5to?5load?5icon?5a@ 100a6790     cg_character.obj
 0002:000077cc       ??_C@_0DJ@NEDFDLNH@?$FO3WARNING?3?5failed?5to?5load?5class?5@ 100a67cc     cg_character.obj
 0002:00007808       ??_C@_0FD@GFIAPOJG@ERROR?3?5CG_RegisterPlayerClasses?3@ 100a6808     cg_character.obj
 0002:0000785c       ??_C@_06KKLIBEMA@Allied?$AA@ 100a685c     cg_character.obj
 0002:00007864       ??_C@_04LBNBCLPC@Axis?$AA@ 100a6864     cg_character.obj
 0002:00007870       __real@4037000000000000    100a6870     cg_commandmap.obj
 0002:00007878       __real@4076000000000000    100a6878     cg_commandmap.obj
 0002:00007880       ??_C@_0CN@CFIPODDI@?$FO3Warning?3?5no?5valid?5command?5map?5@ 100a6880     cg_commandmap.obj
 0002:000078b0       ??_C@_0P@BDEMPHFM@cg_automapZoom?$AA@ 100a68b0     cg_commandmap.obj
 0002:000078c0       ??_C@_02NJPGOMH@?$CFf?$AA@ 100a68c0     cg_commandmap.obj
 0002:000078c4       __real@40edc28f            100a68c4     cg_commandmap.obj
 0002:000078c8       __real@401db851e0000000    100a68c8     cg_commandmap.obj
 0002:000078d0       __real@3ff3333340000000    100a68d0     cg_commandmap.obj
 0002:000078d8       ??_C@_01GBGANLPD@0?$AA@    100a68d8     cg_commandmap.obj
 0002:000078dc       ??_C@_02IKAHHCAI@?$CFi?$AA@ 100a68dc     cg_commandmap.obj
 0002:000078e0       __real@44000000            100a68e0     cg_commandmap.obj
 0002:000078e8       __real@4046800000000000    100a68e8     cg_commandmap.obj
 0002:000078f0       __real@41800000            100a68f0     cg_commandmap.obj
 0002:000078f8       __real@4020000000000000    100a68f8     cg_commandmap.obj
 0002:00007900       __real@42800000            100a6900     cg_commandmap.obj
 0002:00007904       __real@42000000            100a6904     cg_commandmap.obj
 0002:00007908       ??_C@_0P@BIFBDOGG@setspawnpt?5?$CFi?6?$AA@ 100a6908     cg_commandmap.obj
 0002:00007918       __real@4048000000000000    100a6918     cg_commandmap.obj
 0002:00007920       __real@41c00000            100a6920     cg_commandmap.obj
 0002:00007928       __real@4000000000000000    100a6928     cg_commandmap.obj
 0002:00007930       __real@4028000000000000    100a6930     cg_commandmap.obj
 0002:00007938       __real@4014a2d0e0000000    100a6938     cg_commandmap.obj
 0002:00007940       ??_C@_0N@KCKPNKIN@?$CITroops?3?5?$CFi?$CJ?$AA@ 100a6940     cg_commandmap.obj
 0002:00007950       ??_C@_0BA@PGEDLJDM@?$CFs?5?$CITroops?3?5?$CFi?$CJ?$AA@ 100a6950     cg_commandmap.obj
 0002:00007960       __real@3fc9000000000000    100a6960     cg_commandmap.obj
 0002:00007968       __real@3fe7c00000000000    100a6968     cg_commandmap.obj
 0002:00007970       __real@3fcf000000000000    100a6970     cg_commandmap.obj
 0002:00007978       __real@3fd3800000000000    100a6978     cg_commandmap.obj
 0002:00007980       __real@3fe4000000000000    100a6980     cg_commandmap.obj
 0002:00007988       __real@43ba0000            100a6988     cg_commandmap.obj
 0002:0000798c       __real@3fb00000            100a698c     cg_commandmap.obj
 0002:00007990       __real@43b00000            100a6990     cg_commandmap.obj
 0002:00007998       __real@4070c00000000000    100a6998     cg_commandmap.obj
 0002:000079a0       __real@43860000            100a69a0     cg_commandmap.obj
 0002:000079a8       __real@4084500000000000    100a69a8     cg_commandmap.obj
 0002:000079b0       __real@4077e00000000000    100a69b0     cg_commandmap.obj
 0002:000079b8       __real@406f400000000000    100a69b8     cg_commandmap.obj
 0002:000079c0       __real@405b000000000000    100a69c0     cg_commandmap.obj
 0002:000079c8       __real@43160000            100a69c8     cg_commandmap.obj
 0002:000079d0       __real@4060000000000000    100a69d0     cg_commandmap.obj
 0002:000079d8       __real@44200000            100a69d8     cg_commandmap.obj
 0002:000079dc       ??_C@_06HGOAMJIB@rcinfo?$AA@ 100a69dc     cg_consolecmds.obj
 0002:000079e4       ??_C@_0L@NFJOKNFO@resetTimer?$AA@ 100a69e4     cg_consolecmds.obj
 0002:000079f0       ??_C@_08JGKANHAO@timerSet?$AA@ 100a69f0     cg_consolecmds.obj
 0002:000079fc       ??_C@_06LCCMLJFC@nqhelp?$AA@ 100a69fc     cg_consolecmds.obj
 0002:00007a04       ??_C@_07MPINNNKK@nqadmin?$AA@ 100a6a04     cg_consolecmds.obj
 0002:00007a0c       ??_C@_05JBFLHBHE@?9kick?$AA@ 100a6a0c     cg_consolecmds.obj
 0002:00007a14       ??_C@_05EHACJCGJ@?$CLkick?$AA@ 100a6a14     cg_consolecmds.obj
 0002:00007a1c       ??_C@_0O@OCJHLDGC@resetmaxspeed?$AA@ 100a6a1c     cg_consolecmds.obj
 0002:00007a2c       ??_C@_09KNNOJAOC@classmenu?$AA@ 100a6a2c     cg_consolecmds.obj
 0002:00007a38       ??_C@_05ENKANFLO@class?$AA@ 100a6a38     cg_consolecmds.obj
 0002:00007a40       ??_C@_0M@NHEBONIJ@forcetapout?$AA@ 100a6a40     cg_consolecmds.obj
 0002:00007a4c       ??_C@_03HDIKAFLE@cpm?$AA@  100a6a4c     cg_consolecmds.obj
 0002:00007a50       ??_C@_0M@BFCPBOJC@undoSpeaker?$AA@ 100a6a50     cg_consolecmds.obj
 0002:00007a5c       ??_C@_0O@MIEMAOPF@modifySpeaker?$AA@ 100a6a5c     cg_consolecmds.obj
 0002:00007a6c       ??_C@_0M@IACJFKOE@dumpSpeaker?$AA@ 100a6a6c     cg_consolecmds.obj
 0002:00007a78       ??_C@_0N@FAOMIOOA@editSpeakers?$AA@ 100a6a78     cg_consolecmds.obj
 0002:00007a88       ??_C@_0O@BOIICBEJ@ToggleAutoMap?$AA@ 100a6a88     cg_consolecmds.obj
 0002:00007a98       ??_C@_0BB@NPIHNJJ@generateTracemap?$AA@ 100a6a98     cg_consolecmds.obj
 0002:00007aac       ??_C@_0L@BNEONDLK@?9mapexpand?$AA@ 100a6aac     cg_consolecmds.obj
 0002:00007ab8       ??_C@_0L@PFPLBJPJ@?$CLmapexpand?$AA@ 100a6ab8     cg_consolecmds.obj
 0002:00007ac4       ??_C@_0L@LMCEDFDD@MapZoomOut?$AA@ 100a6ac4     cg_consolecmds.obj
 0002:00007ad0       ??_C@_09LIGFCLLM@MapZoomIn?$AA@ 100a6ad0     cg_consolecmds.obj
 0002:00007adc       ??_C@_0M@BMHICDGC@selectbuddy?$AA@ 100a6adc     cg_consolecmds.obj
 0002:00007ae8       ??_C@_05LEOGIJFB@?9vstr?$AA@ 100a6ae8     cg_consolecmds.obj
 0002:00007af0       ??_C@_05GCLPGKEM@?$CLvstr?$AA@ 100a6af0     cg_consolecmds.obj
 0002:00007af8       ??_C@_09HKPHLABP@statsdump?$AA@ 100a6af8     cg_consolecmds.obj
 0002:00007b04       ??_C@_05NDBOHMNK@keyon?$AA@ 100a6b04     cg_consolecmds.obj
 0002:00007b0c       ??_C@_06FLGBLICP@keyoff?$AA@ 100a6b0c     cg_consolecmds.obj
 0002:00007b14       ??_C@_0M@HIHDAHIM@currentTime?$AA@ 100a6b14     cg_consolecmds.obj
 0002:00007b20       ??_C@_0P@KDDEGDPO@autoScreenshot?$AA@ 100a6b20     cg_consolecmds.obj
 0002:00007b30       ??_C@_0L@LGIGPHNL@autoRecord?$AA@ 100a6b30     cg_consolecmds.obj
 0002:00007b3c       ??_C@_09POGBKBAD@?9topshots?$AA@ 100a6b3c     cg_consolecmds.obj
 0002:00007b48       ??_C@_09PDHPNBEE@?$CLtopshots?$AA@ 100a6b48     cg_consolecmds.obj
 0002:00007b54       ??_C@_06JJGNDLGC@?9stats?$AA@ 100a6b54     cg_consolecmds.obj
 0002:00007b5c       ??_C@_06PKLNAOFI@?$CLstats?$AA@ 100a6b5c     cg_consolecmds.obj
 0002:00007b64       ??_C@_0O@BEIPDODJ@openlimbomenu?$AA@ 100a6b64     cg_consolecmds.obj
 0002:00007b74       ??_C@_0BD@PJMPKHPK@SetWeaponCrosshair?$AA@ 100a6b74     cg_consolecmds.obj
 0002:00007b88       ??_C@_0M@PNPOBJID@messageSend?$AA@ 100a6b88     cg_consolecmds.obj
 0002:00007b94       ??_C@_0N@NCHFCOGN@messageMode4?$AA@ 100a6b94     cg_consolecmds.obj
 0002:00007ba4       ??_C@_0N@JNDELIKK@messageMode3?$AA@ 100a6ba4     cg_consolecmds.obj
 0002:00007bb4       ??_C@_0N@IECPIJOL@messageMode2?$AA@ 100a6bb4     cg_consolecmds.obj
 0002:00007bc4       ??_C@_0M@FJBPGEJD@messageMode?$AA@ 100a6bc4     cg_consolecmds.obj
 0002:00007bd0       ??_C@_0BC@PMFMLABK@VoiceFireTeamChat?$AA@ 100a6bd0     cg_consolecmds.obj
 0002:00007be4       ??_C@_0O@FOJEGFAM@VoiceTeamChat?$AA@ 100a6be4     cg_consolecmds.obj
 0002:00007bf4       ??_C@_09OFOBLMGC@VoiceChat?$AA@ 100a6bf4     cg_consolecmds.obj
 0002:00007c00       ??_C@_0BE@OHBDAJIO@wm_ftsayPlayerClass?$AA@ 100a6c00     cg_consolecmds.obj
 0002:00007c14       ??_C@_0BC@EPIFPIAA@wm_sayPlayerClass?$AA@ 100a6c14     cg_consolecmds.obj
 0002:00007c28       ??_C@_0BB@IDOPKHPD@mp_fireteamadmin?$AA@ 100a6c28     cg_consolecmds.obj
 0002:00007c3c       ??_C@_0P@LMOOPNHB@mp_fireteammsg?$AA@ 100a6c3c     cg_consolecmds.obj
 0002:00007c4c       ??_C@_0BA@HNFMENDL@mp_QuickMessage?$AA@ 100a6c4c     cg_consolecmds.obj
 0002:00007c5c       ??_C@_0M@DFILCJLA@loadweapons?$AA@ 100a6c5c     cg_consolecmds.obj
 0002:00007c68       ??_C@_04PLGBOGHH@fade?$AA@ 100a6c68     cg_consolecmds.obj
 0002:00007c70       ??_C@_0O@CIPPGGPC@tell_attacker?$AA@ 100a6c70     cg_consolecmds.obj
 0002:00007c80       ??_C@_0M@IEEMCPKO@tell_target?$AA@ 100a6c80     cg_consolecmds.obj
 0002:00007c8c       ??_C@_0L@HIMPHAAL@weaponbank?$AA@ 100a6c8c     cg_consolecmds.obj
 0002:00007c98       ??_C@_07FGLIPJLN@weapalt?$AA@ 100a6c98     cg_consolecmds.obj
 0002:00007ca0       ??_C@_08DMEBPOGB@weapprev?$AA@ 100a6ca0     cg_consolecmds.obj
 0002:00007cac       ??_C@_08IJHOKAF@weapnext?$AA@ 100a6cac     cg_consolecmds.obj
 0002:00007cb8       ??_C@_0P@LCINJGHO@weapprevinbank?$AA@ 100a6cb8     cg_consolecmds.obj
 0002:00007cc8       ??_C@_0P@JENFEBHJ@weapnextinbank?$AA@ 100a6cc8     cg_consolecmds.obj
 0002:00007cd8       ??_C@_0N@MPOIEII@weaplastused?$AA@ 100a6cd8     cg_consolecmds.obj
 0002:00007ce8       ??_C@_07DIJPGOKN@zoomout?$AA@ 100a6ce8     cg_consolecmds.obj
 0002:00007cf0       ??_C@_06LNHPGLKP@zoomin?$AA@ 100a6cf0     cg_consolecmds.obj
 0002:00007cf8       ??_C@_07DLBEELCG@?9scores?$AA@ 100a6cf8     cg_consolecmds.obj
 0002:00007d00       ??_C@_07PNHLECKB@?$CLscores?$AA@ 100a6d00     cg_consolecmds.obj
 0002:00007d08       ??_C@_07NBKBBFDF@viewpos?$AA@ 100a6d08     cg_consolecmds.obj
 0002:00007d10       ??_C@_03MKABNOCG@Dec?$AA@  100a6d10     cg_consolecmds.obj
 0002:00007d14       ??_C@_03JPJOFNIA@Nov?$AA@  100a6d14     cg_consolecmds.obj
 0002:00007d18       ??_C@_03BMAOKBAD@Oct?$AA@  100a6d18     cg_consolecmds.obj
 0002:00007d1c       ??_C@_03GGCAPAJC@Sep?$AA@  100a6d1c     cg_consolecmds.obj
 0002:00007d20       ??_C@_03IFJFEIGA@Aug?$AA@  100a6d20     cg_consolecmds.obj
 0002:00007d24       ??_C@_03LBGABGKK@Jul?$AA@  100a6d24     cg_consolecmds.obj
 0002:00007d28       ??_C@_03IDFGHECI@Jun?$AA@  100a6d28     cg_consolecmds.obj
 0002:00007d2c       ??_C@_03CNMDKL@May?$AA@    100a6d2c     cg_consolecmds.obj
 0002:00007d30       ??_C@_03LEOLGMJP@Apr?$AA@  100a6d30     cg_consolecmds.obj
 0002:00007d34       ??_C@_03ODNJBKGA@Mar?$AA@  100a6d34     cg_consolecmds.obj
 0002:00007d38       ??_C@_03HJBDCHOM@Feb?$AA@  100a6d38     cg_consolecmds.obj
 0002:00007d3c       ??_C@_03JIHJHPIE@Jan?$AA@  100a6d3c     cg_consolecmds.obj
 0002:00007d40       ??_C@_0BC@HDOPGPJK@Value?5?50?3?5Default?$AA@ 100a6d40     cg_consolecmds.obj
 0002:00007d54       ??_C@_0BB@CIBMCJPF@Texture?5quality?3?$AA@ 100a6d54     cg_consolecmds.obj
 0002:00007d68       ??_C@_0O@HAOJHCNC@r_texturebits?$AA@ 100a6d68     cg_consolecmds.obj
 0002:00007d78       ??_C@_0BB@MFAFAMEE@Value?532?3?532?9bit?$AA@ 100a6d78     cg_consolecmds.obj
 0002:00007d8c       ??_C@_0BK@GKGCDKEM@Value?5?50?3?5Desktop?5default?$AA@ 100a6d8c     cg_consolecmds.obj
 0002:00007da8       ??_C@_0N@KOCJAAJM@Color?5depth?3?$AA@ 100a6da8     cg_consolecmds.obj
 0002:00007db8       ??_C@_0M@FAHBKNDA@r_colorbits?$AA@ 100a6db8     cg_consolecmds.obj
 0002:00007dc4       ??_C@_0DI@GDIJNGFI@Set?5to?51?5if?5your?5system?5fulfils?5@ 100a6dc4     cg_consolecmds.obj
 0002:00007e00       ??_C@_0FH@IAKKIKGL@you?5can?5benefit?5from?5a?5more?5sust@ 100a6e00     cg_consolecmds.obj
 0002:00007e58       ??_C@_0FL@BJBNPALN@If?5you?5have?5two?5CPUs?0?5Windows?5NT@ 100a6e58     cg_consolecmds.obj
 0002:00007eb4       ??_C@_05KECOIEHL@r_smp?$AA@ 100a6eb4     cg_consolecmds.obj
 0002:00007ec0       ??_C@_0GA@DAILHEMF@Be?5aware?5that?5the?5screen?5may?5dar@ 100a6ec0     cg_consolecmds.obj
 0002:00007f20       ??_C@_0EO@OIOKPPIA@Be?5sure?5to?5set?5this?5to?58?5if?5your@ 100a6f20     cg_consolecmds.obj
 0002:00007f70       ??_C@_0FG@IJHALGH@This?5is?5a?5hardware?5dependent?5gra@ 100a6f70     cg_consolecmds.obj
 0002:00007fc8       ??_C@_0O@HILFODLB@r_stencilbits?$AA@ 100a6fc8     cg_consolecmds.obj
 0002:00007fd8       ??_C@_0BB@HJLLELGK@Value?524?3?524?9bit?$AA@ 100a6fd8     cg_consolecmds.obj
 0002:00007fec       ??_C@_0BB@JIIMEGMA@Value?516?3?516?9bit?$AA@ 100a6fec     cg_consolecmds.obj
 0002:00008000       ??_C@_0O@NFJIKCKL@Depth?5buffer?3?$AA@ 100a7000     cg_consolecmds.obj
 0002:00008010       ??_C@_0M@MLADPBHK@r_depthbits?$AA@ 100a7010     cg_consolecmds.obj
 0002:0000801c       ??_C@_0BH@MMONDBAL@Custom?5width?5in?5pixels?$AA@ 100a701c     cg_consolecmds.obj
 0002:00008034       ??_C@_04ILPBONMK@1600?$AA@ 100a7034     cg_consolecmds.obj
 0002:0000803c       ??_C@_0O@EAAAAJJP@r_customwidth?$AA@ 100a703c     cg_consolecmds.obj
 0002:0000804c       ??_C@_0DA@EFPNCOOG@NOTE?3?5r_mode?5must?5be?5set?5to?5?91?5f@ 100a704c     cg_consolecmds.obj
 0002:0000807c       ??_C@_0BI@PIDMIKLD@Custom?5height?5in?5pixels?$AA@ 100a707c     cg_consolecmds.obj
 0002:00008094       ??_C@_04MJHCKDHM@1024?$AA@ 100a7094     cg_consolecmds.obj
 0002:0000809c       ??_C@_0P@HHMLCCLC@r_customheight?$AA@ 100a709c     cg_consolecmds.obj
 0002:000080ac       ??_C@_0CE@JEFMJJJF@Show?5available?5modes?5with?5?1model@ 100a70ac     cg_consolecmds.obj
 0002:000080d0       ??_C@_0BA@OCKAJMEI@Sets?5video?5mode?$AA@ 100a70d0     cg_consolecmds.obj
 0002:000080e0       ??_C@_06LBAPPDBG@r_mode?$AA@ 100a70e0     cg_consolecmds.obj
 0002:000080e8       ??_C@_09BNGNBMFP@Value?53?3?5?$AA@ 100a70e8     cg_consolecmds.obj
 0002:000080f4       ??_C@_09KFNBHLDK@Value?52?3?5?$AA@ 100a70f4     cg_consolecmds.obj
 0002:00008100       ??_C@_09LHGENENE@Value?51?3?5?$AA@ 100a7100     cg_consolecmds.obj
 0002:0000810c       ??_C@_0CE@IEAHHNGG@Sets?5debug?5options?5for?5translati@ 100a710c     cg_consolecmds.obj
 0002:00008130       ??_C@_0BE@EBMNOJHE@cl_debugTranslation?$AA@ 100a7130     cg_consolecmds.obj
 0002:00008144       ??_C@_09MNFGOIAJ@obsolete?$DP?$AA@ 100a7144     cg_consolecmds.obj
 0002:00008150       ??_C@_0M@EGODDJAD@cl_language?$AA@ 100a7150     cg_consolecmds.obj
 0002:0000815c       ??_C@_0BI@BELLCNHA@This?5var?5is?5never?5used?4?$AA@ 100a715c     cg_consolecmds.obj
 0002:00008174       ??_C@_0P@LIAMNODC@cl_waitForFire?$AA@ 100a7174     cg_consolecmds.obj
 0002:00008184       ??_C@_03EOKBPBHD@750?$AA@  100a7184     cg_consolecmds.obj
 0002:00008188       ??_C@_0BK@NLNALACG@cl_serverStatusResendTime?$AA@ 100a7188     cg_consolecmds.obj
 0002:000081a4       ??_C@_0O@PJLPEGOC@cl_conXOffset?$AA@ 100a71a4     cg_consolecmds.obj
 0002:000081b4       ??_C@_0P@IGGEIMBG@cl_wwwDownload?$AA@ 100a71b4     cg_consolecmds.obj
 0002:000081c4       ??_C@_0BB@MLOALJHK@cl_allowDownload?$AA@ 100a71c4     cg_consolecmds.obj
 0002:000081d8       ??_C@_0O@GJFLJONJ@cl_motdString?$AA@ 100a71d8     cg_consolecmds.obj
 0002:000081e8       ??_C@_0DG@CKNMLDOP@will?5stop?5record?5on?5map?5change?0?5@ 100a71e8     cg_consolecmds.obj
 0002:00008220       ??_C@_0FO@NJLJADFA@Enabling?5it?5will?5start?5a?5demo?5re@ 100a7220     cg_consolecmds.obj
 0002:00008280       ??_C@_0O@OJBNAKEG@cl_autorecord?$AA@ 100a7280     cg_consolecmds.obj
 0002:00008290       ??_C@_08BEMLPELN@m_filter?$AA@ 100a7290     cg_consolecmds.obj
 0002:0000829c       ??_C@_06NKCCGJAO@m_side?$AA@ 100a729c     cg_consolecmds.obj
 0002:000082a4       ??_C@_09CGJLBBDA@m_forward?$AA@ 100a72a4     cg_consolecmds.obj
 0002:000082b0       ??_C@_05HPEILLPC@m_yaw?$AA@ 100a72b0     cg_consolecmds.obj
 0002:000082b8       ??_C@_05OACFFLK@0?4022?$AA@ 100a72b8     cg_consolecmds.obj
 0002:000082c0       ??_C@_07JIEGLHEC@m_pitch?$AA@ 100a72c0     cg_consolecmds.obj
 0002:000082c8       ??_C@_0CC@HEOLODFC@Shows?5debug?5output?5rate?5of?5mouse@ 100a72c8     cg_consolecmds.obj
 0002:000082ec       ??_C@_0BB@BOJAAKOB@cl_showMouseRate?$AA@ 100a72ec     cg_consolecmds.obj
 0002:00008300       ??_C@_0O@EKMGNMKC@cl_mouseAccel?$AA@ 100a7300     cg_consolecmds.obj
 0002:00008310       ??_C@_0BL@HFODKODL@Sets?5the?5mouse?5snsitivity?4?$AA@ 100a7310     cg_consolecmds.obj
 0002:0000832c       ??_C@_0M@JFLMCFNC@sensitivity?$AA@ 100a732c     cg_consolecmds.obj
 0002:00008338       ??_C@_0M@HDIJIOFC@cl_freelook?$AA@ 100a7338     cg_consolecmds.obj
 0002:00008344       ??_C@_0BA@HFABJKOC@cl_forceavidemo?$AA@ 100a7344     cg_consolecmds.obj
 0002:00008354       ??_C@_0L@EFFMDGHC@cl_avidemo?$AA@ 100a7354     cg_consolecmds.obj
 0002:00008360       ??_C@_0BG@LMMEOEKC@cl_showServerCommands?$AA@ 100a7360     cg_consolecmds.obj
 0002:00008378       ??_C@_0CB@OBFOBNCO@Shows?5sent?5packet?1fragment?5infos@ 100a7378     cg_consolecmds.obj
 0002:0000839c       ??_C@_0M@FIFNOBJK@cl_showSend?$AA@ 100a739c     cg_consolecmds.obj
 0002:000083a8       ??_C@_0CF@PIPHICGA@Shows?5number?5of?5entities?5in?5pack@ 100a73a8     cg_consolecmds.obj
 0002:000083d0       ??_C@_0P@OMMKDJGP@cl_shownuments?$AA@ 100a73d0     cg_consolecmds.obj
 0002:000083e0       ??_C@_0BH@JMKNJDGK@1?5Current?5message?5size?$AA@ 100a73e0     cg_consolecmds.obj
 0002:000083f8       ??_C@_0L@HMDCDCPD@0?5Disabled?$AA@ 100a73f8     cg_consolecmds.obj
 0002:00008404       ??_C@_0L@MNBOPENL@cl_shownet?$AA@ 100a7404     cg_consolecmds.obj
 0002:00008410       ??_C@_0O@NDLMCONH@cl_freezeDemo?$AA@ 100a7410     cg_consolecmds.obj
 0002:00008420       ??_C@_0BB@FEJGPFPP@cl_showTimeDelta?$AA@ 100a7420     cg_consolecmds.obj
 0002:00008434       ??_C@_0N@PNJIOFAD@cl_timeNudge?$AA@ 100a7434     cg_consolecmds.obj
 0002:00008444       ??_C@_0N@HCACMDEB@cl_packetdup?$AA@ 100a7444     cg_consolecmds.obj
 0002:00008454       ??_C@_0O@FAEBFPEP@cl_maxpackets?$AA@ 100a7454     cg_consolecmds.obj
 0002:00008464       ??_C@_03HPLEMDKK@200?$AA@  100a7464     cg_consolecmds.obj
 0002:00008468       ??_C@_0L@JCNOFHIK@cl_timeout?$AA@ 100a7468     cg_consolecmds.obj
 0002:00008474       ??_C@_0M@OFMEHMGC@rconAddress?$AA@ 100a7474     cg_consolecmds.obj
 0002:00008480       ??_C@_0BJ@MIMEOPPH@This?5CVAR?5is?5never?5used?4?$AA@ 100a7480     cg_consolecmds.obj
 0002:0000849c       ??_C@_0O@DAMIEBDA@cl_autoupdate?$AA@ 100a749c     cg_consolecmds.obj
 0002:000084ac       ??_C@_07CFPJCBPL@cl_motd?$AA@ 100a74ac     cg_consolecmds.obj
 0002:000084b4       ??_C@_0L@EEOFAGMJ@cl_noprint?$AA@ 100a74b4     cg_consolecmds.obj
 0002:000084c0       ??_C@_0N@PJOLPAGC@cl_debugMove?$AA@ 100a74c0     cg_consolecmds.obj
 0002:000084d0       ??_C@_0L@BPLIDNFG@cl_nodelta?$AA@ 100a74d0     cg_consolecmds.obj
 0002:000084dc       ??_C@_0BC@GMLKLODJ@cl_wavefilerecord?$AA@ 100a74dc     cg_consolecmds.obj
 0002:000084f0       ??_C@_0BF@MOFDCBJK@cg_spawnTimer_period?$AA@ 100a74f0     cg_consolecmds.obj
 0002:00008508       ??_C@_0BC@KOAFPNOL@cg_spawnTimer_set?$AA@ 100a7508     cg_consolecmds.obj
 0002:0000851c       ??_C@_0BB@LJDJEDMI@Value?54?3?5Grenade?$AA@ 100a751c     cg_consolecmds.obj
 0002:00008530       ??_C@_0N@KMFGEODF@Value?53?3?5SMG?$AA@ 100a7530     cg_consolecmds.obj
 0002:00008540       ??_C@_0BA@LGHKAGCF@Value?52?3?5Pistol?$AA@ 100a7540     cg_consolecmds.obj
 0002:00008550       ??_C@_0P@GAHKAPKO@Value?51?3?5Knife?$AA@ 100a7550     cg_consolecmds.obj
 0002:00008560       ??_C@_0CA@MILBAEDN@Value?50?3?5Previously?5used?5weapon?$AA@ 100a7560     cg_consolecmds.obj
 0002:00008580       ??_C@_0EP@DFFAHALN@Sets?5the?5favourite?5weapon?5bank?5a@ 100a7580     cg_consolecmds.obj
 0002:000085d0       ??_C@_0BB@MPCBCNAO@cg_favWeaponBank?$AA@ 100a75d0     cg_consolecmds.obj
 0002:000085e8       ??_C@_0EG@IHNIMIPF@Value?52?3?5Enable?5bullet?5whizz?5sou@ 100a75e8     cg_consolecmds.obj
 0002:00008630       ??_C@_0DI@FIILNNEP@Value?51?3?5Disable?5bullet?5whizz?5so@ 100a7630     cg_consolecmds.obj
 0002:00008668       ??_C@_0CJ@OHIPAGOI@Value?50?3?5Disable?5all?5bullet?5whiz@ 100a7668     cg_consolecmds.obj
 0002:00008698       ??_C@_0GD@GNHJOAAI@Enable?5or?5disable?5bullet?5whizz?5s@ 100a7698     cg_consolecmds.obj
 0002:000086fc       ??_C@_0P@DJDHAIGD@cg_whizzSounds?$AA@ 100a76fc     cg_consolecmds.obj
 0002:0000870c       ??_C@_0DM@DCACKKMC@Bitflag?52?3?5Players?5will?5have?5the@ 100a770c     cg_consolecmds.obj
 0002:00008748       ??_C@_0GB@KGHJLKKD@Sets?5flags?5for?5various?5spectator@ 100a7748     cg_consolecmds.obj
 0002:000087ac       ??_C@_0N@LFIIBHOJ@cg_spectator?$AA@ 100a77ac     cg_consolecmds.obj
 0002:000087bc       ??_C@_0DI@JEOEJBLI@Sets?5the?5amount?5of?5seconds?5betwe@ 100a77bc     cg_consolecmds.obj
 0002:000087f4       ??_C@_03KMMHNOPA@3?45?$AA@ 100a77f4     cg_consolecmds.obj
 0002:000087f8       ??_C@_0BC@FMAHMIHE@cg_pmBigPopupTime?$AA@ 100a77f8     cg_consolecmds.obj
 0002:0000880c       ??_C@_0BP@JIKCIKFA@Set?5to?50?5for?5instant?5messages?4?$AA@ 100a780c     cg_consolecmds.obj
 0002:00008830       ??_C@_0HA@FMLOECIG@Sets?5the?5amount?5of?5seconds?5betwe@ 100a7830     cg_consolecmds.obj
 0002:000088a0       ??_C@_0P@PDFLPDBH@cg_pmPopupTime?$AA@ 100a78a0     cg_consolecmds.obj
 0002:000088b0       ??_C@_03BEHLLJJF@2?45?$AA@ 100a78b0     cg_consolecmds.obj
 0002:000088b4       ??_C@_0O@HMJNNCCG@cg_pmFadeTime?$AA@ 100a78b4     cg_consolecmds.obj
 0002:000088c4       ??_C@_0O@GOHLDEOK@cg_pmWaitTime?$AA@ 100a78c4     cg_consolecmds.obj
 0002:000088d4       ??_C@_0DF@HMHDNJFF@When?5nothing?5is?5set?5?$CIdefault?$CJ?0?5c@ 100a78d4     cg_consolecmds.obj
 0002:00008910       ??_C@_0EG@KGKOPAEF@Sets?5the?5name?5of?5the?5chat?5log?5fi@ 100a7910     cg_consolecmds.obj
 0002:00008958       ??_C@_0L@OEAPCBFI@cg_logFile?$AA@ 100a7958     cg_consolecmds.obj
 0002:00008964       ??_C@_0BF@GFGDEBKN@Toogles?5shove?5sound?4?$AA@ 100a7964     cg_consolecmds.obj
 0002:0000897c       ??_C@_0P@HEIAJDMI@cg_shoveSounds?$AA@ 100a797c     cg_consolecmds.obj
 0002:00008990       ??_C@_0FC@GIEHINIG@Adjusts?5the?5zoom?5level?5of?5the?5HU@ 100a7990     cg_consolecmds.obj
 0002:000089e4       ??_C@_05MIGMCC@5?4159?$AA@ 100a79e4     cg_consolecmds.obj
 0002:000089f0       ??_C@_0GC@ECONAOCM@Toggles?5the?5swirling?5icons?5of?5th@ 100a79f0     cg_consolecmds.obj
 0002:00008a54       ??_C@_0BB@PINCLILE@cg_drawAuraIcons?$AA@ 100a7a54     cg_consolecmds.obj
 0002:00008a68       ??_C@_0CL@EEDJNDFG@Automatically?5Select?5Buddies?5In?5@ 100a7a68     cg_consolecmds.obj
 0002:00008a94       ??_C@_0BA@DBKGAGEA@cg_FTAutoSelect?$AA@ 100a7a94     cg_consolecmds.obj
 0002:00008aa4       ??_C@_0BB@JAAHNFPL@cg_modelHilights?$AA@ 100a7aa4     cg_consolecmds.obj
 0002:00008ab8       ??_C@_0CF@DOAEEHMN@Value?52?3?5SMG?5?$CIalways?5best?5second@ 100a7ab8     cg_consolecmds.obj
 0002:00008ae0       ??_C@_0O@GONBADF@Value?51?3?5Dual?$AA@ 100a7ae0     cg_consolecmds.obj
 0002:00008af0       ??_C@_0BA@IKDPGCNH@Value?50?3?5Single?$AA@ 100a7af0     cg_consolecmds.obj
 0002:00008b00       ??_C@_0CN@DOCABFAI@Preselection?5for?5the?5secondary?5l@ 100a7b00     cg_consolecmds.obj
 0002:00008b30       ??_C@_0BD@HFDEFBDG@cg_limbo_secondary?$AA@ 100a7b30     cg_consolecmds.obj
 0002:00008b44       ??_C@_0DH@FKNHOHNI@Changes?5your?5perception?5of?5nearb@ 100a7b44     cg_consolecmds.obj
 0002:00008b7c       ??_C@_0N@CAKMEAJJ@cg_rtcwShake?$AA@ 100a7b7c     cg_consolecmds.obj
 0002:00008b8c       ??_C@_0CA@GHCMFDCO@Play?5alternate?5commander?5voice?4?$AA@ 100a7b8c     cg_consolecmds.obj
 0002:00008bac       ??_C@_0O@LOADGIFB@cg_altHQVoice?$AA@ 100a7bac     cg_consolecmds.obj
 0002:00008bc0       ??_C@_0EB@DAOGIFDM@Toggles?5the?5sound?5for?5weapons?5an@ 100a7bc0     cg_consolecmds.obj
 0002:00008c04       ??_C@_0BF@PHGDNAHK@cg_weaponBounceSound?$AA@ 100a7c04     cg_consolecmds.obj
 0002:00008c1c       ??_C@_0DD@DIAGNNLM@Bitflag?5256?3?5Do?5NOT?5filter?5out?5d@ 100a7c1c     cg_consolecmds.obj
 0002:00008c50       ??_C@_0EH@NPPJHFMI@Bitflag?5128?3?5Filter?5out?5all?5obit@ 100a7c50     cg_consolecmds.obj
 0002:00008c98       ??_C@_0DP@JKDMLLNO@Bitflag?564?3?5?5Filter?5out?5all?5obit@ 100a7c98     cg_consolecmds.obj
 0002:00008cd8       ??_C@_0EA@FFCABPOP@Bitflag?532?3?5?5Filter?5out?5all?5obit@ 100a7cd8     cg_consolecmds.obj
 0002:00008d18       ??_C@_0FP@MHLELIDJ@Bitflag?516?3?5?5Filter?5out?5all?5map?5@ 100a7d18     cg_consolecmds.obj
 0002:00008d78       ??_C@_0DL@DKPALNKJ@Bitflag?58?3?7?5?5Filter?5out?5player?5c@ 100a7d78     cg_consolecmds.obj
 0002:00008db4       ??_C@_0CO@GHNAIKJO@Bitflag?54?3?7?5?5Filter?5out?5team?5joi@ 100a7db4     cg_consolecmds.obj
 0002:00008de8       ??_C@_0FC@IHBBEINC@Bitflag?52?3?7?5?5Filter?5out?5pick?9up?5@ 100a7de8     cg_consolecmds.obj
 0002:00008e40       ??_C@_0FB@EEMHDKHJ@Bitflag?51?3?5?5?5Filter?5out?5objectiv@ 100a7e40     cg_consolecmds.obj
 0002:00008e94       ??_C@_0BM@DNAJGBAH@Value?50?3?5?7?5?5Filter?5disabled?$AA@ 100a7e94     cg_consolecmds.obj
 0002:00008eb0       ??_C@_0EM@EMJNNLON@Specify?5filter?5for?5the?5pop?9up?5me@ 100a7eb0     cg_consolecmds.obj
 0002:00008efc       ??_C@_0BG@INLAHFOC@cg_popupMessageFilter?$AA@ 100a7efc     cg_consolecmds.obj
 0002:00008f14       ??_C@_0CG@NLBIFILE@Fixed?5or?5dynamic?5fire?5team?5recta@ 100a7f14     cg_consolecmds.obj
 0002:00008f3c       ??_C@_0BC@LHOCPMMJ@cg_fixedFTeamSize?$AA@ 100a7f3c     cg_consolecmds.obj
 0002:00008f50       ??_C@_0BP@BBJCDBEL@Value?53?3?5Team?9Chat?5?$CG?5Fire?9Team?$AA@ 100a7f50     cg_consolecmds.obj
 0002:00008f70       ??_C@_0BO@BCBGFNDD@Value?52?3?5Names?5Team?9Chat?5only?$AA@ 100a7f70     cg_consolecmds.obj
 0002:00008f90       ??_C@_0BO@EFKDFDNJ@Value?51?3?5Names?5Fire?9Team?5only?$AA@ 100a7f90     cg_consolecmds.obj
 0002:00008fb0       ??_C@_0BK@FDLEJPEC@Value?50?3?5Coordinates?5only?$AA@ 100a7fb0     cg_consolecmds.obj
 0002:00008fcc       ??_C@_0CG@ENHEFKEP@Controls?5behaviour?5of?5location?5v@ 100a7fcc     cg_consolecmds.obj
 0002:00008ff4       ??_C@_0N@OOBFJIKL@cg_locations?$AA@ 100a7ff4     cg_consolecmds.obj
 0002:00009004       ??_C@_0DC@HGFCAGFL@depending?5on?5how?5much?5of?5a?5bottl@ 100a8004     cg_consolecmds.obj
 0002:00009038       ??_C@_0DN@MKMIDCC@This?5yeilds?5anywhere?5from?5a?515?$CF?5@ 100a8038     cg_consolecmds.obj
 0002:00009078       ??_C@_0EP@FNJOFDEE@except?5a?5frame?5following?5a?5new?5s@ 100a8078     cg_consolecmds.obj
 0002:000090c8       ??_C@_0EE@BIMECDNG@With?5this?5method?0?5we?5get?5increme@ 100a80c8     cg_consolecmds.obj
 0002:0000910c       ??_C@_0CA@NGCHJMBI@Unlagged?5?9?5optimized?5prediction?$AA@ 100a810c     cg_consolecmds.obj
 0002:0000912c       ??_C@_0BG@JLJMNBAA@cg_optimizePrediction?$AA@ 100a812c     cg_consolecmds.obj
 0002:00009144       ??_C@_0CJ@FNPPMOBK@Value?52?3?5Display?5in?5Miles?5Per?5Ho@ 100a8144     cg_consolecmds.obj
 0002:00009170       ??_C@_0CO@HAEHHKNL@Value?51?3?5Display?5in?5Kilometers?5P@ 100a8170     cg_consolecmds.obj
 0002:000091a0       ??_C@_0CL@JGJDGHNB@Value?50?3?5Display?5in?5Units?5Per?5Se@ 100a81a0     cg_consolecmds.obj
 0002:000091cc       ??_C@_0CL@BPECNKAI@Changes?5the?5way?5cg_drawSpeed?5is?5@ 100a81cc     cg_consolecmds.obj
 0002:000091f8       ??_C@_0N@CNJNHNMF@cg_speedunit?$AA@ 100a81f8     cg_consolecmds.obj
 0002:00009208       ??_C@_0BM@DIEOMNMM@Draws?5speed?5info?5of?5player?4?$AA@ 100a8208     cg_consolecmds.obj
 0002:00009224       ??_C@_0N@PAPIJNKI@cg_drawspeed?$AA@ 100a8224     cg_consolecmds.obj
 0002:00009234       ??_C@_0DE@OEJJHOLE@Impacts?5beyond?5this?5range?5won?8t?5@ 100a8234     cg_consolecmds.obj
 0002:00009268       ??_C@_03KNHHDAHD@384?$AA@  100a8268     cg_consolecmds.obj
 0002:0000926c       ??_C@_0BA@PCFFGOBD@cg_markDistance?$AA@ 100a826c     cg_consolecmds.obj
 0002:0000927c       ??_C@_0BI@IJPPPPI@Toogles?5bullet?5tracers?4?$AA@ 100a827c     cg_consolecmds.obj
 0002:00009294       ??_C@_0P@HDEGBFFO@cg_drawTracers?$AA@ 100a8294     cg_consolecmds.obj
 0002:000092a4       ??_C@_0BG@GJECMECO@Bitmask?52?3?5Draw?5smoke?$AA@ 100a82a4     cg_consolecmds.obj
 0002:000092bc       ??_C@_0CG@CLNNJDBF@Bitmask?51?3?5Draw?5muzzle?5flesh?5?$CG?5d@ 100a82bc     cg_consolecmds.obj
 0002:000092e4       ??_C@_0BL@ELDENEOO@Muzzle?5flesh?5draw?5options?4?$AA@ 100a82e4     cg_consolecmds.obj
 0002:00009300       ??_C@_0BD@PEPNIPCN@cg_drawMuzzleFlash?$AA@ 100a8300     cg_consolecmds.obj
 0002:00009314       ??_C@_0BC@GCKMKPHJ@Value?51?3?5NQ?5style?$AA@ 100a8314     cg_consolecmds.obj
 0002:00009328       ??_C@_0BH@LHNACIKG@Value?50?3?5Vanilla?5style?$AA@ 100a8328     cg_consolecmds.obj
 0002:00009340       ??_C@_0BE@MBIHMONE@Sets?5the?5HUD?5style?4?$AA@ 100a8340     cg_consolecmds.obj
 0002:00009354       ??_C@_0P@IFBEIBPL@hud_drawAltHUD?$AA@ 100a8354     cg_consolecmds.obj
 0002:00009364       ??_C@_0BB@LJIMHNMF@hud_drawPowerups?$AA@ 100a8364     cg_consolecmds.obj
 0002:00009378       ??_C@_0O@MKKGOPJG@hud_rankAlpha?$AA@ 100a8378     cg_consolecmds.obj
 0002:00009388       ??_C@_09PDPHNCFD@hud_rankY?$AA@ 100a8388     cg_consolecmds.obj
 0002:00009394       ??_C@_09OKOMODBC@hud_rankX?$AA@ 100a8394     cg_consolecmds.obj
 0002:000093a0       ??_C@_0BC@MKNGLOIE@hud_skillBarAlpha?$AA@ 100a83a0     cg_consolecmds.obj
 0002:000093b4       ??_C@_0O@FEGABEIL@hud_skillBarY?$AA@ 100a83b4     cg_consolecmds.obj
 0002:000093c4       ??_C@_0O@ENHLCFMK@hud_skillBarX?$AA@ 100a83c4     cg_consolecmds.obj
 0002:000093d4       ??_C@_0BA@BBDHICGF@hud_powerupSize?$AA@ 100a83d4     cg_consolecmds.obj
 0002:000093e4       ??_C@_0CH@DAEANDNE@Draws?5a?5list?5with?5all?5carried?5we@ 100a83e4     cg_consolecmds.obj
 0002:0000940c       ??_C@_0BE@DNGDLJAL@cg_drawCarryWeapons?$AA@ 100a840c     cg_consolecmds.obj
 0002:00009420       ??_C@_0BM@BIIAPLNL@Draws?5graphical?5obituaries?4?$AA@ 100a8420     cg_consolecmds.obj
 0002:0000943c       ??_C@_0BF@IBNNPION@cg_graphicObituaries?$AA@ 100a843c     cg_consolecmds.obj
 0002:00009454       ??_C@_0DF@BDIILPBB@If?5set?5and?5cg_drawTime?5is?5enable@ 100a8454     cg_consolecmds.obj
 0002:0000948c       ??_C@_0BD@NDLLNIMA@cg_drawTimeSeconds?$AA@ 100a848c     cg_consolecmds.obj
 0002:000094a0       ??_C@_0BI@JHKHCIGH@Value?52?3?5Draws?512h?5mode?$AA@ 100a84a0     cg_consolecmds.obj
 0002:000094b8       ??_C@_0BI@ICMDMAEH@Value?51?3?5Draws?524h?5mode?$AA@ 100a84b8     cg_consolecmds.obj
 0002:000094d0       ??_C@_0P@MCPCDCBI@Draws?5a?5clock?4?$AA@ 100a84d0     cg_consolecmds.obj
 0002:000094e0       ??_C@_0M@ONDCPDGI@cg_drawTime?$AA@ 100a84e0     cg_consolecmds.obj
 0002:000094ec       ??_C@_0BN@EFCOCGHP@Bitflag?54?3?5Show?5total?5deaths?$AA@ 100a84ec     cg_consolecmds.obj
 0002:0000950c       ??_C@_0BP@EFOKBKNO@Bitflag?53?3?5Show?5current?5bounty?$AA@ 100a850c     cg_consolecmds.obj
 0002:0000952c       ??_C@_0BM@MBJKAJCF@Bitflag?52?3?5Show?5total?5kills?$AA@ 100a852c     cg_consolecmds.obj
 0002:00009548       ??_C@_0BO@NKKOIOBA@Bitflag?51?3?5Show?5current?5spree?$AA@ 100a8548     cg_consolecmds.obj
 0002:00009568       ??_C@_0HN@GELANGAN@This?5will?5change?5draw?5a?5counter?5@ 100a8568     cg_consolecmds.obj
 0002:000095e8       ??_C@_0BB@JKFBMCBK@cg_drawKillSpree?$AA@ 100a85e8     cg_consolecmds.obj
 0002:000095fc       ??_C@_0BD@GJAHEAC@Draws?5ping?5in?5HUD?4?$AA@ 100a85fc     cg_consolecmds.obj
 0002:00009610       ??_C@_0M@CIMCIJHD@cg_drawPing?$AA@ 100a8610     cg_consolecmds.obj
 0002:0000961c       ??_C@_0BN@COBKCFIO@Draw?5objective?5icons?5in?5HUD?4?$AA@ 100a861c     cg_consolecmds.obj
 0002:0000963c       ??_C@_0BA@EHGBMFDP@cg_drawObjIcons?$AA@ 100a863c     cg_consolecmds.obj
 0002:0000964c       ??_C@_0BJ@BAMIBKGK@Draw?5player?5head?5in?5HUD?4?$AA@ 100a864c     cg_consolecmds.obj
 0002:00009668       ??_C@_0P@KINLCFAH@cg_drawHUDHead?$AA@ 100a8668     cg_consolecmds.obj
 0002:00009678       ??_C@_0CH@FEIEILHC@Bitflag?58?3?5Do?5Not?5Play?5Body?5Hits@ 100a8678     cg_consolecmds.obj
 0002:000096a0       ??_C@_0CH@PMBAABEN@Bitflag?54?3?5Do?5Not?5Play?5Head?5Hits@ 100a86a0     cg_consolecmds.obj
 0002:000096c8       ??_C@_0CH@BMNAJEBF@Bitflag?52?3?5Do?5Not?5Play?5Team?5Hits@ 100a86c8     cg_consolecmds.obj
 0002:000096f0       ??_C@_0BN@GJEDGEGG@Bitflag?51?3?5Enable?5Hitsounds?4?$AA@ 100a86f0     cg_consolecmds.obj
 0002:00009710       ??_C@_0BN@BFGBJPNC@Value?50?3?5?5?5Disable?5hitsounds?$AA@ 100a8710     cg_consolecmds.obj
 0002:00009730       ??_C@_0BG@JNAIEMHE@Customizes?5hitsounds?3?$AA@ 100a8730     cg_consolecmds.obj
 0002:00009748       ??_C@_0N@KEEMKHHK@cg_hitSounds?$AA@ 100a8748     cg_consolecmds.obj
 0002:00009758       ??_C@_0BO@MDJCBFBH@Bitflag?54?3?5Play?5For?5Throwing?4?$AA@ 100a8758     cg_consolecmds.obj
 0002:00009778       ??_C@_0BP@HKJHPOFI@Bitflag?52?3?5Play?5For?5Backstabs?4?$AA@ 100a8778     cg_consolecmds.obj
 0002:00009798       ??_C@_0CD@GGDPLDCB@Bitflag?51?3?5Play?5For?5Frontal?5Stab@ 100a8798     cg_consolecmds.obj
 0002:000097bc       ??_C@_0CM@EGOHCNCM@Customizes?5when?5knife?5goat?5sound@ 100a87bc     cg_consolecmds.obj
 0002:000097e8       ??_C@_0N@MOPICEAL@cg_goatSound?$AA@ 100a87e8     cg_consolecmds.obj
 0002:000097f8       ??_C@_0BN@EJIGFNFC@Valid?5values?5range?5from?50?91?4?$AA@ 100a87f8     cg_consolecmds.obj
 0002:00009818       ??_C@_0DE@DFOCBMMH@Changes?5the?5alpha?5of?5the?5HUD?5Bor@ 100a8818     cg_consolecmds.obj
 0002:0000984c       ??_C@_03LNMAPFD@0?48?$AA@  100a884c     cg_consolecmds.obj
 0002:00009850       ??_C@_0M@OLAFPHKG@cg_HUDAlpha?$AA@ 100a8850     cg_consolecmds.obj
 0002:0000985c       ??_C@_0CA@GOLABCPM@See?5also?5cg_HUDBackgroundColor?4?$AA@ 100a885c     cg_consolecmds.obj
 0002:0000987c       ??_C@_0BO@ECIACJHJ@Changes?5the?5HUD?5border?5color?4?$AA@ 100a887c     cg_consolecmds.obj
 0002:0000989c       ??_C@_08DFOCIDDH@?45?5?45?5?45?$AA@ 100a889c     cg_consolecmds.obj
 0002:000098a8       ??_C@_0BC@OJOEKOGB@cg_HUDBorderColor?$AA@ 100a88a8     cg_consolecmds.obj
 0002:000098bc       ??_C@_0BM@IBIJMADN@See?5also?5cg_HUDBorderColor?4?$AA@ 100a88bc     cg_consolecmds.obj
 0002:000098d8       ??_C@_0CP@KEPDBLIC@Three?5values?5must?5be?5set?3?5?$FLred?$FN?5@ 100a88d8     cg_consolecmds.obj
 0002:00009908       ??_C@_0CC@PIDMMDPB@Changes?5the?5HUD?5background?5color@ 100a8908     cg_consolecmds.obj
 0002:0000992c       ??_C@_0L@IBEMOEDH@?416?5?42?5?417?$AA@ 100a892c     cg_consolecmds.obj
 0002:00009938       ??_C@_0BG@LJKGJBIN@cg_HUDBackgroundColor?$AA@ 100a8938     cg_consolecmds.obj
 0002:00009950       ??_C@_0BC@KNDAPKMB@Set?5to?50?5to?5hide?4?$AA@ 100a8950     cg_consolecmds.obj
 0002:00009968       ??_C@_0EO@LNPPPPOO@Changes?5position?5of?5the?5?$CCRECORDI@ 100a8968     cg_consolecmds.obj
 0002:000099b8       ??_C@_01LAKCGALK@9?$AA@    100a89b8     cg_consolecmds.obj
 0002:000099bc       ??_C@_0BI@JIECIBHG@cg_recording_statusline?$AA@ 100a89bc     cg_consolecmds.obj
 0002:000099d4       ??_C@_0O@DPDEFOEB@cl_waveoffset?$AA@ 100a89d4     cg_consolecmds.obj
 0002:000099e4       ??_C@_0BA@CJFPHGJB@cl_wavefilename?$AA@ 100a89e4     cg_consolecmds.obj
 0002:000099f8       ??_C@_0EB@CKPLPHGJ@This?5cvar?5is?5set?5by?5the?5engine?5w@ 100a89f8     cg_consolecmds.obj
 0002:00009a3c       ??_C@_0BB@CHHPKLIG@cl_waverecording?$AA@ 100a8a3c     cg_consolecmds.obj
 0002:00009a50       ??_C@_0O@LOJOJMJF@cl_demooffset?$AA@ 100a8a50     cg_consolecmds.obj
 0002:00009a60       ??_C@_0BA@LJGBFELM@cl_demofilename?$AA@ 100a8a60     cg_consolecmds.obj
 0002:00009a70       ??_C@_0DM@LGIMPMFD@This?5cvar?5is?5set?5by?5the?5engine?5w@ 100a8a70     cg_consolecmds.obj
 0002:00009aac       ??_C@_0BB@GCDAMJNB@cl_demorecording?$AA@ 100a8aac     cg_consolecmds.obj
 0002:00009ac0       ??_C@_0CG@GIAOEDBF@Bitflag?516?3?5Use?5small?5font?5for?5l@ 100a8ac0     cg_consolecmds.obj
 0002:00009ae8       ??_C@_0DG@IEANMJOI@Bitflag?54?3?5?5Use?5small?5font?5for?5m@ 100a8ae8     cg_consolecmds.obj
 0002:00009b20       ??_C@_0CH@BLCGADJK@Bitflag?52?3?5?5Use?5small?5font?5for?5p@ 100a8b20     cg_consolecmds.obj
 0002:00009b48       ??_C@_0CG@BMINDLHO@Bitflag?51?3?5?5Use?5small?5font?5for?5c@ 100a8b48     cg_consolecmds.obj
 0002:00009b70       ??_C@_0CL@MDOHMLIK@Customizes?5the?5font?5size?5of?5anno@ 100a8b70     cg_consolecmds.obj
 0002:00009b9c       ??_C@_0N@NGOBKCBB@cg_smallFont?$AA@ 100a8b9c     cg_consolecmds.obj
 0002:00009bb0       ??_C@_0EG@MPIAIIKI@Draw?5small?5icons?5on?5announcement@ 100a8bb0     cg_consolecmds.obj
 0002:00009bf8       ??_C@_0BH@INDBMMPJ@cg_drawSmallPopupIcons?$AA@ 100a8bf8     cg_consolecmds.obj
 0002:00009c10       ??_C@_0BJ@BAOMOBC@Toggles?5fireteam?5window?4?$AA@ 100a8c10     cg_consolecmds.obj
 0002:00009c2c       ??_C@_0BH@KPCPLBCN@cg_drawFireteamOverlay?$AA@ 100a8c2c     cg_consolecmds.obj
 0002:00009c44       ??_C@_0BJ@OMDPFDJL@Draws?5stats?5debug?5infos?4?$AA@ 100a8c44     cg_consolecmds.obj
 0002:00009c60       ??_C@_0P@NDFJMLBC@cg_debugSkills?$AA@ 100a8c60     cg_consolecmds.obj
 0002:00009c70       ??_C@_0BB@BJJIBHGB@cg_instanttapout?$AA@ 100a8c70     cg_consolecmds.obj
 0002:00009c84       ??_C@_0BJ@NBEOFDC@Shows?5mission?5time?5left?4?$AA@ 100a8c84     cg_consolecmds.obj
 0002:00009ca0       ??_C@_0BC@FJGPJIBC@cg_drawRoundTimer?$AA@ 100a8ca0     cg_consolecmds.obj
 0002:00009cb4       ??_C@_0CM@FFHNPNBF@Toggles?5weather?5effects?5like?5rai@ 100a8cb4     cg_consolecmds.obj
 0002:00009ce0       ??_C@_0BG@KIEOPLJJ@cg_atmosphericEffects?$AA@ 100a8ce0     cg_consolecmds.obj
 0002:00009cf8       ??_C@_0EP@CGLJEMNJ@Set?5this?5to?5the?5server?8s?5referee@ 100a8cf8     cg_consolecmds.obj
 0002:00009d48       ??_C@_0BG@FKNKPPDJ@See?5also?5rconAddress?4?$AA@ 100a8d48     cg_consolecmds.obj
 0002:00009d60       ??_C@_0DL@BKBLFPEE@to?5the?5server?5via?5?1rcon?5?$DMcmd?$DO?5in@ 100a8d60     cg_consolecmds.obj
 0002:00009da0       ??_C@_0ED@LHONPKBA@Set?5this?5to?5the?5server?8s?5rcon?5pa@ 100a8da0     cg_consolecmds.obj
 0002:00009de4       ??_C@_0N@DJJLAFOK@rconPassword?$AA@ 100a8de4     cg_consolecmds.obj
 0002:00009df4       ??_C@_0M@JJPLCLDP@ui_blackout?$AA@ 100a8df4     cg_consolecmds.obj
 0002:00009e00       ??_C@_09IIOBMIO@timescale?$AA@ 100a8e00     cg_consolecmds.obj
 0002:00009e0c       ??_C@_0BH@PMLOGPPC@Toggles?5Demo?5Controls?4?$AA@ 100a8e0c     cg_consolecmds.obj
 0002:00009e24       ??_C@_0BA@GJPJCOBO@demo_infoWindow?$AA@ 100a8e24     cg_consolecmds.obj
 0002:00009e34       ??_C@_0BI@GJHKCJK@Toggles?5Demo?5Timescale?4?$AA@ 100a8e34     cg_consolecmds.obj
 0002:00009e4c       ??_C@_0BD@NPPOBCPM@demo_drawTimeScale?$AA@ 100a8e4c     cg_consolecmds.obj
 0002:00009e60       ??_C@_0O@CCPNAJGC@demo_avifpsF5?$AA@ 100a8e60     cg_consolecmds.obj
 0002:00009e70       ??_C@_0O@DLOGDICD@demo_avifpsF4?$AA@ 100a8e70     cg_consolecmds.obj
 0002:00009e80       ??_C@_02IHCGGLPM@15?$AA@   100a8e80     cg_consolecmds.obj
 0002:00009e84       ??_C@_0O@HEKHKOOE@demo_avifpsF3?$AA@ 100a8e84     cg_consolecmds.obj
 0002:00009e94       ??_C@_0O@GNLMJPKF@demo_avifpsF2?$AA@ 100a8e94     cg_consolecmds.obj
 0002:00009ea4       ??_C@_0O@EGJBMMGG@demo_avifpsF1?$AA@ 100a8ea4     cg_consolecmds.obj
 0002:00009eb4       ??_C@_0BB@EEKHBHBD@Value?51?3?5Use?5JPG?$AA@ 100a8eb4     cg_consolecmds.obj
 0002:00009ec8       ??_C@_0BB@HKNMPKAM@Value?50?3?5Use?5TGA?$AA@ 100a8ec8     cg_consolecmds.obj
 0002:00009ee0       ??_C@_0EP@NOFKCCPB@Switches?5between?5?4tga?5and?5?4jpg?5p@ 100a8ee0     cg_consolecmds.obj
 0002:00009f30       ??_C@_0BF@PABLOBKE@cg_useScreenshotJPEG?$AA@ 100a8f30     cg_consolecmds.obj
 0002:00009f48       ??_C@_0GL@PPIMFFGO@?$FLcg_autoreload?5?1?5cg_autoactivate@ 100a8f48     cg_consolecmds.obj
 0002:00009fb4       ??_C@_0BM@KMMJBFKG@Example?5value?3?5?$CC108?50?5100?$CC?4?$AA@ 100a8fb4     cg_consolecmds.obj
 0002:00009fd0       ??_C@_08MJKAKPEI@cg_uinfo?$AA@ 100a8fd0     cg_consolecmds.obj
 0002:00009fdc       ??_C@_0CP@BLPHFFLH@Prints?5important?5game?5messages?5t@ 100a8fdc     cg_consolecmds.obj
 0002:0000a00c       ??_C@_0BG@IJCJILME@cg_printObjectiveInfo?$AA@ 100a900c     cg_consolecmds.obj
 0002:0000a028       ??_C@_0EG@GCPLDMNG@Value?52?3?5No?5autoswitch?5to?5pistol@ 100a9028     cg_consolecmds.obj
 0002:0000a070       ??_C@_0CC@HKBLPCJE@Value?51?3?5Switch?5when?5out?5of?5Ammo@ 100a9070     cg_consolecmds.obj
 0002:0000a094       ??_C@_0BH@PMFMKJKD@Value?50?3?5No?5Switching?4?$AA@ 100a9094     cg_consolecmds.obj
 0002:0000a0ac       ??_C@_0DP@IOPMCOAI@Customizes?5auto?9switch?5to?5a?5new?5@ 100a90ac     cg_consolecmds.obj
 0002:0000a0ec       ??_C@_0BE@NNMCMDBG@cg_noAmmoAutoSwitch?$AA@ 100a90ec     cg_consolecmds.obj
 0002:0000a100       ??_C@_0DH@MGCKBBFN@Flash?5weapon?5icon?5when?5firing?0?5r@ 100a9100     cg_consolecmds.obj
 0002:0000a138       ??_C@_0BH@JGDDIPOP@cg_drawWeaponIconFlash?$AA@ 100a9138     cg_consolecmds.obj
 0002:0000a150       ??_C@_0CK@IPLKPGKM@Displays?5your?5team?8s?5reinforceme@ 100a9150     cg_consolecmds.obj
 0002:0000a17c       ??_C@_0BJ@ICGIDCKE@cg_drawReinforcementTime?$AA@ 100a917c     cg_consolecmds.obj
 0002:0000a198       ??_C@_0DF@FDKECPFL@Toggles?5crosshair?5spread?5sizing?5@ 100a9198     cg_consolecmds.obj
 0002:0000a1d0       ??_C@_0BC@PKLCFMJN@cg_crosshairPulse?$AA@ 100a91d0     cg_consolecmds.obj
 0002:0000a1e4       ??_C@_0DB@FINFEMFI@Customizes?5the?5color?5of?5the?5seco@ 100a91e4     cg_consolecmds.obj
 0002:0000a218       ??_C@_0BF@DBHOIAGK@cg_crosshairColorAlt?$AA@ 100a9218     cg_consolecmds.obj
 0002:0000a230       ??_C@_0BF@HOMLFONA@dkgrey?3?5?5?5Dark?5Grey?4?$AA@ 100a9230     cg_consolecmds.obj
 0002:0000a248       ??_C@_0BH@EJCBALGN@mdgrey?3?5?5?5Medium?5Grey?4?$AA@ 100a9248     cg_consolecmds.obj
 0002:0000a260       ??_C@_0BG@BNOLMIHP@ltgrey?3?5?5?5Light?5Grey?4?$AA@ 100a9260     cg_consolecmds.obj
 0002:0000a278       ??_C@_0BJ@HPJLNKLH@mdorange?3?5Medium?5Orange?4?$AA@ 100a9278     cg_consolecmds.obj
 0002:0000a294       ??_C@_0BJ@BLCBANOC@mdyellow?3?5Medium?5Yellow?4?$AA@ 100a9294     cg_consolecmds.obj
 0002:0000a2b0       ??_C@_0BH@DFAFJOJF@mdcyan?3?5?5?5Medium?5Cyan?4?$AA@ 100a92b0     cg_consolecmds.obj
 0002:0000a2c8       ??_C@_0BG@FKLDOCNH@dkgreen?3?5?5Dark?5Green?4?$AA@ 100a92c8     cg_consolecmds.obj
 0002:0000a2e0       ??_C@_0BI@BLGIMGBC@mdgreen?3?5?5Medium?5Green?4?$AA@ 100a92e0     cg_consolecmds.obj
 0002:0000a2f8       ??_C@_0BH@NMCACKHB@0xa0ffc0?3?5Light?5Green?4?$AA@ 100a92f8     cg_consolecmds.obj
 0002:0000a310       ??_C@_0BG@GEEGDMAB@mdred?3?5?5?5?5Medium?5Red?4?$AA@ 100a9310     cg_consolecmds.obj
 0002:0000a328       ??_C@_0BF@FEJPFFKC@0xffc0a0?3?5Light?5Red?4?$AA@ 100a9328     cg_consolecmds.obj
 0002:0000a340       ??_C@_0BH@NGBMMHMJ@mdblue?3?5?5?5Medium?5Blue?4?$AA@ 100a9340     cg_consolecmds.obj
 0002:0000a358       ??_C@_0BG@NKGPNEJL@0xa0c0ff?3?5Light?5Blue?4?$AA@ 100a9358     cg_consolecmds.obj
 0002:0000a370       ??_C@_0N@LGHLMJPK@More?5colors?3?$AA@ 100a9370     cg_consolecmds.obj
 0002:0000a380       ??_C@_0EC@PJFDBMAK@White?0?5Yellow?0?5Red?0?5Green?0?5Blue?0@ 100a9380     cg_consolecmds.obj
 0002:0000a3c4       ??_C@_0DN@EFMOJDJN@The?5following?5colors?5are?5also?5th@ 100a93c4     cg_consolecmds.obj
 0002:0000a404       ??_C@_0CP@DPNGEEHM@Customizes?5the?5color?5of?5the?5prim@ 100a9404     cg_consolecmds.obj
 0002:0000a434       ??_C@_0BC@EFBPHNAJ@cg_crosshairColor?$AA@ 100a9434     cg_consolecmds.obj
 0002:0000a448       ??_C@_0DO@FOBOICEA@Customizes?5the?5transparency?5leve@ 100a9448     cg_consolecmds.obj
 0002:0000a488       ??_C@_0BF@LDMIEFP@cg_crosshairAlphaAlt?$AA@ 100a9488     cg_consolecmds.obj
 0002:0000a4a0       ??_C@_0DM@EDEPLAPD@Customizes?5the?5transparency?5leve@ 100a94a0     cg_consolecmds.obj
 0002:0000a4dc       ??_C@_0BC@DBBIBJOC@cg_crosshairAlpha?$AA@ 100a94dc     cg_consolecmds.obj
 0002:0000a4f0       ??_C@_0EG@HDONNLEH@Display?5the?5option?5to?5file?5compl@ 100a94f0     cg_consolecmds.obj
 0002:0000a538       ??_C@_0BC@BEAEEJKP@cg_complaintPopUp?$AA@ 100a9538     cg_consolecmds.obj
 0002:0000a54c       ??_C@_0CP@OGPJLKFJ@Red?5blood?5?$CCflash?$CC?5scale?5when?5rec@ 100a954c     cg_consolecmds.obj
 0002:0000a57c       ??_C@_0O@CINGLONP@cg_bloodFlash?$AA@ 100a957c     cg_consolecmds.obj
 0002:0000a58c       ??_C@_0BG@DPKAAELK@Value?51?3?5Max?5visible?4?$AA@ 100a958c     cg_consolecmds.obj
 0002:0000a5a4       ??_C@_0BE@DIDJOLCM@Value?50?3?5Invisible?4?$AA@ 100a95a4     cg_consolecmds.obj
 0002:0000a5b8       ??_C@_0EF@KGEPPHEF@Blood?5?$CCsplatter?$CC?5transparency?5wh@ 100a95b8     cg_consolecmds.obj
 0002:0000a600       ??_C@_0BE@JHIHLPAO@cg_bloodDamageBlend?$AA@ 100a9600     cg_consolecmds.obj
 0002:0000a618       ??_C@_0EE@IGEMHGOC@Whether?5?$CLattack2?5will?5reload?5wea@ 100a9618     cg_consolecmds.obj
 0002:0000a65c       ??_C@_0BC@PBLMMGKF@cg_weapAltReloads?$AA@ 100a965c     cg_consolecmds.obj
 0002:0000a670       ??_C@_0CD@EHHEJMME@Toggles?5auto?9reload?5if?5clip?5empt@ 100a9670     cg_consolecmds.obj
 0002:0000a694       ??_C@_0O@FNFJAGIB@cg_autoReload?$AA@ 100a9694     cg_consolecmds.obj
 0002:0000a6a4       ??_C@_0CO@DMBCOKFB@Bitflag?54?3?5?5Does?5a?5stats?5dump?5at@ 100a96a4     cg_consolecmds.obj
 0002:0000a6d4       ??_C@_0DE@MAECKKEC@Bitflag?52?3?5?5Auto?5record?5a?5screen@ 100a96d4     cg_consolecmds.obj
 0002:0000a708       ??_C@_0BP@CGIPBAKG@Bitflag?51?3?5?5Auto?5record?5a?5demo?$AA@ 100a9708     cg_consolecmds.obj
 0002:0000a728       ??_C@_0BF@MKNIBDDP@Value?50?3?7?5Do?5nothing?$AA@ 100a9728     cg_consolecmds.obj
 0002:0000a740       ??_C@_0BG@JDABMHEL@Enables?5auto?5actions?4?$AA@ 100a9740     cg_consolecmds.obj
 0002:0000a758       ??_C@_0O@FILMCFNA@cg_autoAction?$AA@ 100a9758     cg_consolecmds.obj
 0002:0000a768       ??_C@_0DB@NCHFOECB@Bitflag?516?3?5Disable?5voice?5messag@ 100a9768     cg_consolecmds.obj
 0002:0000a79c       ??_C@_0DB@MBNDNNGI@Bitflag?58?3?5?5Disable?5textual?5cent@ 100a979c     cg_consolecmds.obj
 0002:0000a7d0       ??_C@_0EP@OOIHGENJ@Bitflag?54?3?5?5Only?5announce?5kills?5@ 100a97d0     cg_consolecmds.obj
 0002:0000a820       ??_C@_0FD@PAFGIKMB@Bitflag?52?3?5?5Disables?5Killingspre@ 100a9820     cg_consolecmds.obj
 0002:0000a874       ??_C@_0CB@HFGHFMIH@Bitflag?51?3?5?5Enable?5announcements@ 100a9874     cg_consolecmds.obj
 0002:0000a898       ??_C@_0CG@IOJAIFBD@Value?50?3?5?5?5?5Disable?5all?5announce@ 100a9898     cg_consolecmds.obj
 0002:0000a8c0       ??_C@_0DM@HHKPPCIC@Controls?5the?5various?5announcemen@ 100a98c0     cg_consolecmds.obj
 0002:0000a8fc       ??_C@_0N@OBEOAHHJ@cg_announcer?$AA@ 100a98fc     cg_consolecmds.obj
 0002:0000a90c       ??_C@_0CH@EHMCHGAI@Bitflag?516?3?5Enable?5view?5battle?5s@ 100a990c     cg_consolecmds.obj
 0002:0000a934       ??_C@_0CH@OPIBNO@Bitflag?58?3?5?5Enable?5view?5battle?5s@ 100a9934     cg_consolecmds.obj
 0002:0000a95c       ??_C@_0CH@MLNHHINN@Bitflag?54?3?5?5Enable?5view?5battle?5s@ 100a995c     cg_consolecmds.obj
 0002:0000a984       ??_C@_0CB@GAGKDPKC@Bitflag?52?3?5?5Enable?5view?5signal?56@ 100a9984     cg_consolecmds.obj
 0002:0000a9a8       ??_C@_0CG@DOHNCIGP@Bitflag?51?3?5?5Enable?5view?5medic?5sk@ 100a99a8     cg_consolecmds.obj
 0002:0000a9d0       ??_C@_0BI@JCEBGNMM@Value?50?3?5?5?5?5Disable?5all?$AA@ 100a99d0     cg_consolecmds.obj
 0002:0000a9e8       ??_C@_0DJ@LEKNHFMH@Specify?5filter?5for?5several?5skill@ 100a99e8     cg_consolecmds.obj
 0002:0000aa24       ??_C@_02OAMOHKJG@31?$AA@   100a9a24     cg_consolecmds.obj
 0002:0000aa28       ??_C@_0BE@HHEBLJA@cg_skillViewOptions?$AA@ 100a9a28     cg_consolecmds.obj
 0002:0000aa3c       ??_C@_0DB@BHENKJMO@Sets?5font?5scale?5of?5topshots?5wind@ 100a9a3c     cg_consolecmds.obj
 0002:0000aa70       ??_C@_0N@CDLJMPOM@cf_wtopshots?$AA@ 100a9a70     cg_consolecmds.obj
 0002:0000aa80       ??_C@_0CL@NNJOKGKM@Sets?5font?5scale?5of?5stats?5window?5@ 100a9a80     cg_consolecmds.obj
 0002:0000aaac       ??_C@_03EJIPIALM@1?42?$AA@ 100a9aac     cg_consolecmds.obj
 0002:0000aab0       ??_C@_09PJIBJMKE@cf_wstats?$AA@ 100a9ab0     cg_consolecmds.obj
 0002:0000aabc       ??_C@_0BJ@MIJHHOCG@Value?51?3?5Referee?5status?4?$AA@ 100a9abc     cg_consolecmds.obj
 0002:0000aad8       ??_C@_0BP@JFPNCKGA@Value?50?3?5Normal?5player?5status?4?$AA@ 100a9ad8     cg_consolecmds.obj
 0002:0000aaf8       ??_C@_09OIGPADLP@authLevel?$AA@ 100a9af8     cg_consolecmds.obj
 0002:0000ab04       ??_C@_0CP@COBOILFH@Toggles?5descriptive?5text?1shows?5s@ 100a9b04     cg_consolecmds.obj
 0002:0000ab34       ??_C@_0BD@KOLCLGNE@cg_descriptiveText?$AA@ 100a9b34     cg_consolecmds.obj
 0002:0000ab48       ??_C@_0DL@NMIDLPDJ@Value?50?3?5Use?5alpha?5keys?5?$CIA?9Z?$CJ?5to@ 100a9b48     cg_consolecmds.obj
 0002:0000ab84       ??_C@_0DN@KKDBEJG@Value?51?3?5Use?5numeric?5keys?5?$CI1?90?$CJ?5@ 100a9b84     cg_consolecmds.obj
 0002:0000abc4       ??_C@_0BM@MPMMECFI@Customizes?5Quick?5Chat?5Mode?3?$AA@ 100a9bc4     cg_consolecmds.obj
 0002:0000abe0       ??_C@_0BD@GKMNKMOC@cg_quickMessageAlt?$AA@ 100a9be0     cg_consolecmds.obj
 0002:0000abf4       ??_C@_0CC@LKNBFOLB@Toogles?5printing?5of?5?$FLskipnotify?$FN@ 100a9bf4     cg_consolecmds.obj
 0002:0000ac18       ??_C@_0BC@BCDBBHPI@cg_drawNotifyText?$AA@ 100a9c18     cg_consolecmds.obj
 0002:0000ac30       ??_C@_0GG@NNFKIAP@Value?52?3?5Icons?5are?5drawn?5in?5the?5@ 100a9c30     cg_consolecmds.obj
 0002:0000ac98       ??_C@_0LD@BBICPDHB@Value?51?3?5Icons?5are?5drawn?5if?5they@ 100a9c98     cg_consolecmds.obj
 0002:0000ad4c       ??_C@_0CD@HAKNDMOM@Value?50?3?5Drawn?5no?5compass?5at?5all@ 100a9d4c     cg_consolecmds.obj
 0002:0000ad70       ??_C@_0DB@OFECIMD@Manages?5icon?5behaviour?5of?5compas@ 100a9d70     cg_consolecmds.obj
 0002:0000ada4       ??_C@_0P@NNBDAACL@cg_drawCompass?$AA@ 100a9da4     cg_consolecmds.obj
 0002:0000adb8       ??_C@_0FK@GEFKOCFO@The?5time?5?$CIin?5milliseconds?$CJ?5that?5@ 100a9db8     cg_consolecmds.obj
 0002:0000ae14       ??_C@_04BMLKGOAG@6000?$AA@ 100a9e14     cg_consolecmds.obj
 0002:0000ae1c       ??_C@_0BD@EJJNLELD@cg_voiceSpriteTime?$AA@ 100a9e1c     cg_consolecmds.obj
 0002:0000ae30       ??_C@_0BB@LOJLFENH@cg_messageTarget?$AA@ 100a9e30     cg_consolecmds.obj
 0002:0000ae44       ??_C@_0P@GCBNLPDA@cg_messageType?$AA@ 100a9e44     cg_consolecmds.obj
 0002:0000ae54       ??_C@_0L@LELCMOPN@cg_message?$AA@ 100a9e54     cg_consolecmds.obj
 0002:0000ae60       ??_C@_0CA@CKHDMDNJ@Time?5to?5show?5blood?5on?5surfaces?4?$AA@ 100a9e60     cg_consolecmds.obj
 0002:0000ae80       ??_C@_03GOIFLICK@120?$AA@  100a9e80     cg_consolecmds.obj
 0002:0000ae84       ??_C@_0N@KPBDNADB@cg_bloodTime?$AA@ 100a9e84     cg_consolecmds.obj
 0002:0000ae94       ??_C@_0CL@NNAEFIOO@Toggles?5grenade?0?5panzer?5and?5mort@ 100a9e94     cg_consolecmds.obj
 0002:0000aec0       ??_C@_0BC@LKIIHCOB@cg_trailparticles?$AA@ 100a9ec0     cg_consolecmds.obj
 0002:0000aed8       ??_C@_0FP@BCIJPFGF@The?5familiar?5cg_wolfParticles?5ha@ 100a9ed8     cg_consolecmds.obj
 0002:0000af38       ??_C@_0GF@PIMMKHEB@This?5CVAR?5toogles?5impact?5particl@ 100a9f38     cg_consolecmds.obj
 0002:0000afa0       ??_C@_0BD@JEPOPGCM@cg_impactparticles?$AA@ 100a9fa0     cg_consolecmds.obj
 0002:0000afb8       ??_C@_0HE@CNPCGDJA@This?5does?5not?5disable?5the?5Covert@ 100a9fb8     cg_consolecmds.obj
 0002:0000b030       ??_C@_0EG@MEOGOKJD@This?5CVAR?5disables?5smoke?5particl@ 100aa030     cg_consolecmds.obj
 0002:0000b078       ??_C@_0GO@GHABJNNE@Toggles?5Smoke?4?5The?5familiar?5cg_w@ 100aa078     cg_consolecmds.obj
 0002:0000b0e8       ??_C@_0BC@HMDPFJML@cg_smokeparticles?$AA@ 100aa0e8     cg_consolecmds.obj
 0002:0000b0fc       ??_C@_0BM@CCDFHMAO@Toggles?5explosions?5effects?4?$AA@ 100aa0fc     cg_consolecmds.obj
 0002:0000b118       ??_C@_0BB@LKEKHBGJ@cg_wolfparticles?$AA@ 100aa118     cg_consolecmds.obj
 0002:0000b12c       ??_C@_0DP@EJOMOODB@Toggles?5auto?9pickup?5of?5healthpac@ 100aa12c     cg_consolecmds.obj
 0002:0000b16c       ??_C@_0BA@DGCMHBIM@cg_autoactivate?$AA@ 100aa16c     cg_consolecmds.obj
 0002:0000b17c       ??_C@_0BA@PKAEEJJB@cg_predictItems?$AA@ 100aa17c     cg_consolecmds.obj
 0002:0000b18c       ??_C@_0BK@MHINIING@Value?52?3?5Trace?5everything?$AA@ 100aa18c     cg_consolecmds.obj
 0002:0000b1a8       ??_C@_0BK@KOJNHICN@Value?51?3?5Cornonas?5enabled?$AA@ 100aa1a8     cg_consolecmds.obj
 0002:0000b1c4       ??_C@_0BE@PNKCDCLI@Value?50?3?5No?5coronas?$AA@ 100aa1c4     cg_consolecmds.obj
 0002:0000b1d8       ??_C@_0BM@HGOIAODB@Controls?5coronas?5behaviour?4?$AA@ 100aa1d8     cg_consolecmds.obj
 0002:0000b1f4       ??_C@_0L@CLHCPDJE@cg_coronas?$AA@ 100aa1f4     cg_consolecmds.obj
 0002:0000b200       ??_C@_0EI@NAIOMDOG@Performance?5variable?5will?5keep?5d@ 100aa200     cg_consolecmds.obj
 0002:0000b248       ??_C@_04MNFIFLPL@1536?$AA@ 100aa248     cg_consolecmds.obj
 0002:0000b250       ??_C@_0BB@BEEFGIOF@cg_coronafardist?$AA@ 100aa250     cg_consolecmds.obj
 0002:0000b264       ??_C@_0BK@FENPKHLP@See?5also?5com_buildScript?4?$AA@ 100aa264     cg_consolecmds.obj
 0002:0000b280       ??_C@_0DK@CEKOKJOF@Force?5loading?5of?5all?5possible?5da@ 100aa280     cg_consolecmds.obj
 0002:0000b2bc       ??_C@_0P@HCFOLKBI@cg_buildScript?$AA@ 100aa2bc     cg_consolecmds.obj
 0002:0000b2cc       ??_C@_0DM@JAEFCEJP@Note?3?5You?5can?5only?5set?5a?5value?5l@ 100aa2cc     cg_consolecmds.obj
 0002:0000b308       ??_C@_0CF@HCIAMEAL@Defines?5the?5number?5of?5lines?5in?5c@ 100aa308     cg_consolecmds.obj
 0002:0000b330       ??_C@_0BC@JPKKPJNB@cg_teamChatHeight?$AA@ 100aa330     cg_consolecmds.obj
 0002:0000b348       ??_C@_0EE@BLKKOHJ@Defines?5the?5time?5?$CIin?5millisecond@ 100aa348     cg_consolecmds.obj
 0002:0000b38c       ??_C@_04KDIKNAGH@8000?$AA@ 100aa38c     cg_consolecmds.obj
 0002:0000b394       ??_C@_0BA@FOMJOJCG@cg_teamChatTime?$AA@ 100aa394     cg_consolecmds.obj
 0002:0000b3a4       ??_C@_0BK@POJDJBAF@Toggles?5Lag?9o?9Meter?5view?4?$AA@ 100aa3a4     cg_consolecmds.obj
 0002:0000b3c0       ??_C@_0N@IBNNIGPC@cg_lagometer?$AA@ 100aa3c0     cg_consolecmds.obj
 0002:0000b3d0       ??_C@_03KHGJEAFP@0?44?$AA@ 100aa3d0     cg_consolecmds.obj
 0002:0000b3d4       ??_C@_0BE@EMBJACLB@cg_stereoSeparation?$AA@ 100aa3d4     cg_consolecmds.obj
 0002:0000b3e8       ??_C@_0DL@LPHAPKCA@Note?3?5You?5can?5use?5custom?5integer@ 100aa3e8     cg_consolecmds.obj
 0002:0000b424       ??_C@_0BK@HDKECIEJ@Value?520?3?5All?5the?5way?5out?$AA@ 100aa424     cg_consolecmds.obj
 0002:0000b440       ??_C@_0BI@FFGFOCNM@Value?54?3?5All?5the?5way?5in?$AA@ 100aa440     cg_consolecmds.obj
 0002:0000b458       ??_C@_0DF@LHCJDNPH@Customizes?5the?5default?5zoom?5leve@ 100aa458     cg_consolecmds.obj
 0002:0000b490       ??_C@_0BF@BFCCHDM@cg_zoomDefaultSniper?$AA@ 100aa490     cg_consolecmds.obj
 0002:0000b4a8       ??_C@_0BK@LPEHKFOI@Value?54?3?54?5Levels?5of?5Zoom?$AA@ 100aa4a8     cg_consolecmds.obj
 0002:0000b4c4       ??_C@_0BK@KOHMFAGM@Value?52?3?58?5Levels?5of?5Zoom?$AA@ 100aa4c4     cg_consolecmds.obj
 0002:0000b4e0       ??_C@_0DI@LBONCNIM@Customizes?5the?5number?5of?5zoom?5le@ 100aa4e0     cg_consolecmds.obj
 0002:0000b518       ??_C@_0BC@IMJIKONA@cg_zoomStepSniper?$AA@ 100aa518     cg_consolecmds.obj
 0002:0000b52c       ??_C@_0BK@GMHMLACE@Field?5of?5view?5in?5degrees?4?$AA@ 100aa52c     cg_consolecmds.obj
 0002:0000b548       ??_C@_02PEECMOAB@90?$AA@   100aa548     cg_consolecmds.obj
 0002:0000b54c       ??_C@_06FDNMOLLD@cg_fov?$AA@ 100aa54c     cg_consolecmds.obj
 0002:0000b554       ??_C@_0BC@CCKLBEDC@4?5?9?5new?5or?5better?$AA@ 100aa554     cg_consolecmds.obj
 0002:0000b568       ??_C@_0N@CEBBFFDA@3?5?9?5I?5better?$AA@ 100aa568     cg_consolecmds.obj
 0002:0000b578       ??_C@_0L@NFDCBEAD@2?5?9?5if?5new?$AA@ 100aa578     cg_consolecmds.obj
 0002:0000b584       ??_C@_0BC@JODKAJLI@1?5?9?5always?5switch?$AA@ 100aa584     cg_consolecmds.obj
 0002:0000b598       ??_C@_07LGOGOPHN@0?5?9?5off?$AA@ 100aa598     cg_consolecmds.obj
 0002:0000b5a0       ??_C@_0DO@NBPBCMHI@Toggles?5automatic?5switching?5to?5a@ 100aa5a0     cg_consolecmds.obj
 0002:0000b5e0       ??_C@_0O@JKEEFDLF@cg_autoswitch?$AA@ 100aa5e0     cg_consolecmds.obj
 0002:0000b5f0       ??_C@_0GO@GGKLDHIM@Note?3?5This?5CVAR?5only?5affects?5the@ 100aa5f0     cg_consolecmds.obj
 0002:0000b660       ??_C@_0EG@KCFFNCAP@Toggles?5the?5country?5flags?5from?5t@ 100aa660     cg_consolecmds.obj
 0002:0000b6a8       ??_C@_0BA@HAHMLHOH@cg_countryflags?$AA@ 100aa6a8     cg_consolecmds.obj
 0002:0000b6b8       ??_C@_0CJ@CGMKAIBB@Multiplies?5view?5matrix?5for?5weapo@ 100aa6b8     cg_consolecmds.obj
 0002:0000b6e4       ??_C@_0BD@KOIANGPF@cg_gun_foreshorten?$AA@ 100aa6e4     cg_consolecmds.obj
 0002:0000b6f8       ??_C@_0BH@FPGOIKDE@Value?54?$CL?3?5static?5image?$AA@ 100aa6f8     cg_consolecmds.obj
 0002:0000b710       ??_C@_0BF@LCKMHCKG@Value?53?3?5alpha?5pulse?$AA@ 100aa710     cg_consolecmds.obj
 0002:0000b728       ??_C@_0BM@ONNNJJKG@Value?52?3?5one?5way?5size?5pulse?$AA@ 100aa728     cg_consolecmds.obj
 0002:0000b744       ??_C@_0BI@CNDDIECH@Value?51?3?5sin?5size?5pulse?$AA@ 100aa744     cg_consolecmds.obj
 0002:0000b75c       ??_C@_0BC@FLEMCLAL@Value?50?3?5No?5hints?$AA@ 100aa75c     cg_consolecmds.obj
 0002:0000b770       ??_C@_0BH@CDPOKOAJ@Controls?5cursor?5hints?4?$AA@ 100aa770     cg_consolecmds.obj
 0002:0000b788       ??_C@_0P@NOKIHKHC@cg_cursorHints?$AA@ 100aa788     cg_consolecmds.obj
 0002:0000b798       ??_C@_0BC@HEMAHEBK@Value?51?3?5Draw?5gun?$AA@ 100aa798     cg_consolecmds.obj
 0002:0000b7ac       ??_C@_0BA@ENKPNLNI@Value?50?3?5No?5gun?$AA@ 100aa7ac     cg_consolecmds.obj
 0002:0000b7bc       ??_C@_0DG@NJMGPEGO@Toggles?5first?5person?5items?5?$CIgun?0@ 100aa7bc     cg_consolecmds.obj
 0002:0000b7f4       ??_C@_0L@MLBFCMPB@cg_drawGun?$AA@ 100aa7f4     cg_consolecmds.obj
 0002:0000b800       ??_C@_0BF@BBEOKIJO@Ejecting?5brass?5time?4?$AA@ 100aa800     cg_consolecmds.obj
 0002:0000b818       ??_C@_04NOOEDIPE@2500?$AA@ 100aa818     cg_consolecmds.obj
 0002:0000b820       ??_C@_0N@GADGJPHJ@cg_brassTime?$AA@ 100aa820     cg_consolecmds.obj
 0002:0000b830       ??_C@_0BE@GDJHKAID@Wall?5Mark?5Lifetime?4?$AA@ 100aa830     cg_consolecmds.obj
 0002:0000b844       ??_C@_0M@JBIHDHEI@cg_markTime?$AA@ 100aa844     cg_consolecmds.obj
 0002:0000b850       ??_C@_0EB@KNNDKMMB@Max?5error?5decay?5is?5500?4?5We?5do?5re@ 100aa850     cg_consolecmds.obj
 0002:0000b898       ??_C@_0HC@BGHDMPJP@A?5prediction?5error?5is?0?5very?5basi@ 100aa898     cg_consolecmds.obj
 0002:0000b910       ??_C@_0FB@CCOOHPDA@Controls?5how?5fast?5a?5prediction?5e@ 100aa910     cg_consolecmds.obj
 0002:0000b964       ??_C@_0O@MHKBEJCK@cg_errorDecay?$AA@ 100aa964     cg_consolecmds.obj
 0002:0000b974       ??_C@_0DF@KBCPDMPB@A?5value?5of?52?5means?5draw?5all?5the?5@ 100aa974     cg_consolecmds.obj
 0002:0000b9ac       ??_C@_0DA@NCBFHNFP@A?5value?5of?51?5means?5only?5draw?5for@ 100aa9ac     cg_consolecmds.obj
 0002:0000b9dc       ??_C@_0DM@DKNLCPGL@Draws?5a?5bar?5showing?5current?5weap@ 100aa9dc     cg_consolecmds.obj
 0002:0000ba18       ??_C@_0BD@EOMAFAEF@cg_drawSpreadScale?$AA@ 100aaa18     cg_consolecmds.obj
 0002:0000ba2c       ??_C@_0CA@HOHHCGMG@Toogles?5status?5and?5timed?5menus?4?$AA@ 100aaa2c     cg_consolecmds.obj
 0002:0000ba4c       ??_C@_0O@IIACNNIF@cg_drawStatus?$AA@ 100aaa4c     cg_consolecmds.obj
 0002:0000ba5c       ??_C@_0BJ@CFNGDLKN@See?5also?5cg_noVoiceChats?$AA@ 100aaa5c     cg_consolecmds.obj
 0002:0000ba78       ??_C@_0DC@MHLNNGC@If?5set?5to?51?0?5voice?5chat?5text?5wil@ 100aaa78     cg_consolecmds.obj
 0002:0000baac       ??_C@_0P@HEADOJJM@cg_noVoiceText?$AA@ 100aaaac     cg_consolecmds.obj
 0002:0000babc       ??_C@_0BI@EDLICGIE@See?5also?5cg_noVoiceText?$AA@ 100aaabc     cg_consolecmds.obj
 0002:0000bad4       ??_C@_0DD@EJMJOLBE@If?5set?5to?51?0?5voice?5chat?5sounds?5w@ 100aaad4     cg_consolecmds.obj
 0002:0000bb08       ??_C@_0BA@DGINBIDE@cg_noVoiceChats?$AA@ 100aab08     cg_consolecmds.obj
 0002:0000bb18       ??_C@_0BH@HNBAFFOK@Print?5team?5chats?5only?4?$AA@ 100aab18     cg_consolecmds.obj
 0002:0000bb30       ??_C@_0BB@GFOCPFOA@cg_teamChatsOnly?$AA@ 100aab30     cg_consolecmds.obj
 0002:0000bb48       ??_C@_0FD@HJNLKOH@Colors?5the?5crosshair?5based?5on?5cu@ 100aab48     cg_consolecmds.obj
 0002:0000bb9c       ??_C@_0BD@JJIJCGAH@cg_crosshairHealth?$AA@ 100aab9c     cg_consolecmds.obj
 0002:0000bbb0       ??_C@_0CE@BNKDANIC@Vertical?5position?5of?5the?5crossha@ 100aabb0     cg_consolecmds.obj
 0002:0000bbd4       ??_C@_0O@JOEPLDPN@cg_crosshairY?$AA@ 100aabd4     cg_consolecmds.obj
 0002:0000bbe4       ??_C@_0CG@JAMDMBJP@Horizontal?5position?5of?5the?5cross@ 100aabe4     cg_consolecmds.obj
 0002:0000bc0c       ??_C@_0O@IHFEICLM@cg_crosshairX?$AA@ 100aac0c     cg_consolecmds.obj
 0002:0000bc1c       ??_C@_0CK@MAKLLGL@Sets?5the?5size?5of?5the?5displayed?5c@ 100aac1c     cg_consolecmds.obj
 0002:0000bc48       ??_C@_02DEEDNHFK@48?$AA@   100aac48     cg_consolecmds.obj
 0002:0000bc4c       ??_C@_0BB@NJOFJDCL@cg_crosshairSize?$AA@ 100aac4c     cg_consolecmds.obj
 0002:0000bc60       ??_C@_0EM@OPOKEFCF@Weapon?5switch?5will?5zoom?5in?5and?5o@ 100aac60     cg_consolecmds.obj
 0002:0000bcac       ??_C@_0BD@OBNAPDNG@cg_useWeapsForZoom?$AA@ 100aacac     cg_consolecmds.obj
 0002:0000bcc0       ??_C@_0DE@LMGDIODO@Cycling?5all?5weapons?5or?5just?5usin@ 100aacc0     cg_consolecmds.obj
 0002:0000bcf4       ??_C@_0BB@GGEMGPGI@cg_cycleAllWeaps?$AA@ 100aacf4     cg_consolecmds.obj
 0002:0000bd08       ??_C@_0CC@LLGLJAHA@A?5value?5of?52?5is?5force?5highlights@ 100aad08     cg_consolecmds.obj
 0002:0000bd2c       ??_C@_0CG@IACOCMMC@Highlights?5items?5the?5player?5look@ 100aad2c     cg_consolecmds.obj
 0002:0000bd54       ??_C@_0BI@EINMENEC@cg_drawCrosshairPickups?$AA@ 100aad54     cg_consolecmds.obj
 0002:0000bd6c       ??_C@_0CL@OHIINOGJ@Bitflag?54?3?5Rank?5icons?5instead?5of@ 100aad6c     cg_consolecmds.obj
 0002:0000bd98       ??_C@_0DJ@FNCGHCHP@Bitflag?52?3?5Colored?5player?5names?5@ 100aad98     cg_consolecmds.obj
 0002:0000bdd8       ??_C@_0EM@DNCEJLHC@Bitflag?51?3?5Enable?5Name?5Drawing?5?$CI@ 100aadd8     cg_consolecmds.obj
 0002:0000be24       ??_C@_0BC@PIIBLOLL@Value?50?3?5Disabled?$AA@ 100aae24     cg_consolecmds.obj
 0002:0000be38       ??_C@_0JE@EFOCABAG@As?5in?5ETMain?0?5if?5greater?5than?50?5@ 100aae38     cg_consolecmds.obj
 0002:0000becc       ??_C@_0DM@GFKFPEF@Displays?5player?5info?5when?5the?5cr@ 100aaecc     cg_consolecmds.obj
 0002:0000bf08       ??_C@_0O@CMIFLIA@Type?3?5Bitmask?$AA@ 100aaf08     cg_consolecmds.obj
 0002:0000bf18       ??_C@_0BG@PFLNOEEN@cg_drawCrosshairNames?$AA@ 100aaf18     cg_consolecmds.obj
 0002:0000bf30       ??_C@_0BL@NHMOCKIP@Customizes?5crosshair?5type?4?$AA@ 100aaf30     cg_consolecmds.obj
 0002:0000bf4c       ??_C@_0BB@KBADOJHA@cg_drawCrosshair?$AA@ 100aaf4c     cg_consolecmds.obj
 0002:0000bf60       ??_C@_0BB@PPPONNIK@Draws?5snapshots?4?$AA@ 100aaf60     cg_consolecmds.obj
 0002:0000bf74       ??_C@_0BA@MIPMDAEB@cg_drawSnapshot?$AA@ 100aaf74     cg_consolecmds.obj
 0002:0000bf84       ??_C@_0BP@BMCDHGHN@Draws?5frames?5per?5second?5?$CIfps?$CJ?4?$AA@ 100aaf84     cg_consolecmds.obj
 0002:0000bfa4       ??_C@_0L@CHMHIHCB@cg_drawFPS?$AA@ 100aafa4     cg_consolecmds.obj
 0002:0000bfb0       ??_C@_0DH@OHKLENNO@Toggles?5interface?5?$CIHUD?0?5chat?0?5sc@ 100aafb0     cg_consolecmds.obj
 0002:0000bfe8       ??_C@_09EKPCJMOG@cg_draw2D?$AA@ 100aafe8     cg_consolecmds.obj
 0002:0000bff4       ??_C@_0CD@FIPCMJEF@Toggles?5the?5display?5of?5gib?5model@ 100aaff4     cg_consolecmds.obj
 0002:0000c018       ??_C@_07FFANGJCI@cg_gibs?$AA@ 100ab018     cg_consolecmds.obj
 0002:0000c020       ??_C@_08KEGBAOMM@2?5Unused?$AA@ 100ab020     cg_consolecmds.obj
 0002:0000c02c       ??_C@_0BI@PNFNHNPF@Toggles?5player?5shadows?4?$AA@ 100ab02c     cg_consolecmds.obj
 0002:0000c044       ??_C@_0L@MAOLAFLC@cg_shadows?$AA@ 100ab044     cg_consolecmds.obj
 0002:0000c050       ??_C@_0CJ@NDJJNICI@Rolling?5motion?5of?5the?5body?5while@ 100ab050     cg_consolecmds.obj
 0002:0000c07c       ??_C@_0L@BEAFIAK@cg_bobroll?$AA@ 100ab07c     cg_consolecmds.obj
 0002:0000c088       ??_C@_0BN@CAHNJHCB@Crosshair?5vertical?5movement?4?$AA@ 100ab088     cg_consolecmds.obj
 0002:0000c0a8       ??_C@_0M@BBIJCEAP@cg_bobpitch?$AA@ 100ab0a8     cg_consolecmds.obj
 0002:0000c0b4       ??_C@_0CK@KLADIDC@Vertical?5motion?5of?5the?5body?5whil@ 100ab0b4     cg_consolecmds.obj
 0002:0000c0e0       ??_C@_08MBNPMEME@cg_bobup?$AA@ 100ab0e0     cg_consolecmds.obj
 0002:0000c0ec       ??_C@_0CJ@GLOGFGJE@Forward?1Backward?5movement?5while?5@ 100ab0ec     cg_consolecmds.obj
 0002:0000c118       ??_C@_05ECMHBHBD@0?4005?$AA@ 100ab118     cg_consolecmds.obj
 0002:0000c120       ??_C@_0L@MJJHGKNK@cg_runroll?$AA@ 100ab120     cg_consolecmds.obj
 0002:0000c12c       ??_C@_0CA@GILFBADB@Up?9Down?5movement?5while?5running?4?$AA@ 100ab12c     cg_consolecmds.obj
 0002:0000c14c       ??_C@_05NIGIBNE@0?4002?$AA@ 100ab14c     cg_consolecmds.obj
 0002:0000c154       ??_C@_0M@JHJCCBOJ@cg_runpitch?$AA@ 100ab154     cg_consolecmds.obj
 0002:0000c160       ??_C@_0DC@IHBDBAKE@LAN?5admins?5should?5have?5a?5look?5at@ 100ab160     cg_consolecmds.obj
 0002:0000c198       ??_C@_0IE@LCBKOCON@The?5default?5of?53000?5is?5designed?5@ 100ab198     cg_consolecmds.obj
 0002:0000c220       ??_C@_0FO@DPLODOCD@The?5rate?5used?5by?5a?5specific?5clie@ 100ab220     cg_consolecmds.obj
 0002:0000c280       ??_C@_0IH@NGKMKCJP@Higher?5values?5result?5in?5smother?5@ 100ab280     cg_consolecmds.obj
 0002:0000c308       ??_C@_0FI@JPONIGIN@Rate?5controls?5how?5much?5data?5?$CIin?5@ 100ab308     cg_consolecmds.obj
 0002:0000c360       ??_C@_04NEFKOBHG@3000?$AA@ 100ab360     cg_consolecmds.obj
 0002:0000c368       ??_C@_04HCCHHEEF@rate?$AA@ 100ab368     cg_consolecmds.obj
 0002:0000c370       ??_C@_0CH@JOINCNKK@A?5value?5of?520?5requests?5every?5?5?5?5@ 100ab370     cg_consolecmds.obj
 0002:0000c398       ??_C@_0CH@DGCCMBEO@A?5value?5of?530?5requests?5every?533?4@ 100ab398     cg_consolecmds.obj
 0002:0000c3c0       ??_C@_0DB@JJDHNBH@The?5ET?5server?5engine?5restricts?5t@ 100ab3c0     cg_consolecmds.obj
 0002:0000c3f8       ??_C@_0FF@OHIIHIDF@Sets?5the?5clients?5requests?5for?5sn@ 100ab3f8     cg_consolecmds.obj
 0002:0000c450       ??_C@_05DGPADKBM@snaps?$AA@ 100ab450     cg_consolecmds.obj
 0002:0000c458       ??_C@_0EO@MCPNNABC@Set?5this?5to?5a?5value?5of?5160?5?$CIMB?$CJ?5@ 100ab458     cg_consolecmds.obj
 0002:0000c4a8       ??_C@_0EL@INKKGCLC@This?5option?5determines?5how?5much?5@ 100ab4a8     cg_consolecmds.obj
 0002:0000c4f4       ??_C@_02JMHLOEOE@24?$AA@   100ab4f4     cg_consolecmds.obj
 0002:0000c4f8       ??_C@_0O@LMOILBBG@com_soundmegs?$AA@ 100ab4f8     cg_consolecmds.obj
 0002:0000c508       ??_C@_0GC@IOGAKNDH@Warning?3?5The?5ET?5default?5value?5of@ 100ab508     cg_consolecmds.obj
 0002:0000c56c       ??_C@_0CB@OAAGGCOC@Set?5this?5to?5a?5value?5of?5128?5?$CIMB?$CJ?4@ 100ab56c     cg_consolecmds.obj
 0002:0000c590       ??_C@_0DP@CPPFLFFI@This?5option?5determines?5how?5much?5@ 100ab590     cg_consolecmds.obj
 0002:0000c5d0       ??_C@_09NBNKIDFG@crosshair?$AA@ 100ab5d0     cg_consolecmds.obj
 0002:0000c5dc       ??_C@_04BLJLMHHG@chat?$AA@ 100ab5dc     cg_consolecmds.obj
 0002:0000c5e4       ??_C@_04PLPNPBEF@demo?$AA@ 100ab5e4     cg_consolecmds.obj
 0002:0000c5ec       ??_C@_08EDAJACMH@fireteam?$AA@ 100ab5ec     cg_consolecmds.obj
 0002:0000c5f8       ??_C@_04LNDCPPFO@draw?$AA@ 100ab5f8     cg_consolecmds.obj
 0002:0000c600       ??_C@_05GHKBAFPA@cheat?$AA@ 100ab600     cg_consolecmds.obj
 0002:0000c608       ??_C@_08ONAKKFI@movement?$AA@ 100ab608     cg_consolecmds.obj
 0002:0000c614       ??_C@_03HDICPLBH@hud?$AA@  100ab614     cg_consolecmds.obj
 0002:0000c618       ??_C@_06GEPNGEJI@weapon?$AA@ 100ab618     cg_consolecmds.obj
 0002:0000c620       ??_C@_05FGJIDJBO@tweak?$AA@ 100ab620     cg_consolecmds.obj
 0002:0000c628       ??_C@_06EOIELIPE@filter?$AA@ 100ab628     cg_consolecmds.obj
 0002:0000c630       ??_C@_05KNIAAKIP@audio?$AA@ 100ab630     cg_consolecmds.obj
 0002:0000c638       ??_C@_05BPFJLLEL@video?$AA@ 100ab638     cg_consolecmds.obj
 0002:0000c640       ??_C@_0HA@BDDANOJH@You?5can?5redirect?5clients?5to?5anot@ 100ab640     cg_consolecmds.obj
 0002:0000c6b0       ??_C@_0EK@FEEHDGIJ@Specifies?5the?5message?5that?5is?5se@ 100ab6b0     cg_consolecmds.obj
 0002:0000c6fc       ??_C@_0BA@CJJHMCE@Server?5is?5full?4?$AA@ 100ab6fc     cg_consolecmds.obj
 0002:0000c70c       ??_C@_0L@JLGDAGPD@sv_fullmsg?$AA@ 100ab70c     cg_consolecmds.obj
 0002:0000c718       ??_C@_0DE@MPOBAOMF@File?5system?5debug?5?9?5shows?5infos?5@ 100ab718     cg_consolecmds.obj
 0002:0000c74c       ??_C@_08OKNDMBHA@fs_debug?$AA@ 100ab74c     cg_consolecmds.obj
 0002:0000c758       ??_C@_0P@NGCPPKPJ@sv_packetdelay?$AA@ 100ab758     cg_consolecmds.obj
 0002:0000c768       ??_C@_0O@OAMDOHAD@sv_packetloss?$AA@ 100ab768     cg_consolecmds.obj
 0002:0000c778       ??_C@_0HA@BONMCBFK@Note?3?5If?5nothing?5is?5set?5and?5sv_a@ 100ab778     cg_consolecmds.obj
 0002:0000c7e8       ??_C@_0GI@BFFJLCA@Note?3?5This?5closes?5the?5client?8s?5g@ 100ab7e8     cg_consolecmds.obj
 0002:0000c850       ??_C@_0FH@BEKNPFNH@Set?5this?5to?5the?5link?5you?5want?5cl@ 100ab850     cg_consolecmds.obj
 0002:0000c8a8       ??_C@_0BC@MEGDAKIM@sv_wwwFallbackURL?$AA@ 100ab8a8     cg_consolecmds.obj
 0002:0000c8c0       ??_C@_0HH@MJJMGKNB@Useful?5for?5admins?5to?5save?5slots?5@ 100ab8c0     cg_consolecmds.obj
 0002:0000c938       ??_C@_0FG@FBAFKGHB@If?5set?5to?51?0?5clients?5are?5disconn@ 100ab938     cg_consolecmds.obj
 0002:0000c990       ??_C@_0BF@DGNKMMIH@sv_wwwDlDisconnected?$AA@ 100ab990     cg_consolecmds.obj
 0002:0000c9a8       ??_C@_0BP@OGBLJGKK@Net?5debugging?5?$CIsend?5messages?$CJ?4?$AA@ 100ab9a8     cg_consolecmds.obj
 0002:0000c9c8       ??_C@_0BC@FOAILIIO@sv_showAverageBPS?$AA@ 100ab9c8     cg_consolecmds.obj
 0002:0000c9e0       ??_C@_0FL@EEMHIGOF@?5?5?5?5?5?5In?5order?5to?5achieve?5a?5high@ 100ab9e0     cg_consolecmds.obj
 0002:0000ca3c       ??_C@_0CD@NOEGEAIO@Note?3?5Default?5value?542000?5?$DN?512KB@ 100aba3c     cg_consolecmds.obj
 0002:0000ca60       ??_C@_0CN@LOLLCLPC@sv_allowDownload?5must?5be?51?5for?5t@ 100aba60     cg_consolecmds.obj
 0002:0000ca90       ??_C@_0CF@DOJAPHDL@Maximum?5download?5speed?5of?5pk3?5fi@ 100aba90     cg_consolecmds.obj
 0002:0000cab8       ??_C@_05BDBNLMD@42000?$AA@ 100abab8     cg_consolecmds.obj
 0002:0000cac0       ??_C@_0O@GBOMNHFF@sv_dl_maxRate?$AA@ 100abac0     cg_consolecmds.obj
 0002:0000cad0       ??_C@_0BC@DFDLMDDH@sv_allowAnonymous?$AA@ 100abad0     cg_consolecmds.obj
 0002:0000cae8       ??_C@_0HB@HNKIIGFG@?1?$CKdisallow?5native?5DLL?5loading?5if@ 100abae8     cg_consolecmds.obj
 0002:0000cb5c       ??_C@_07CAKOHKGL@sv_pure?$AA@ 100abb5c     cg_consolecmds.obj
 0002:0000cb68       ??_C@_0EG@CKHANDLD@Maximum?5ping?5players?5are?5allowed@ 100abb68     cg_consolecmds.obj
 0002:0000cbb0       ??_C@_0L@DCJCBAAG@sv_maxPing?$AA@ 100abbb0     cg_consolecmds.obj
 0002:0000cbbc       ??_C@_0DP@OKEPJPDG@Minimum?5ping?5players?5need?5to?5hav@ 100abbbc     cg_consolecmds.obj
 0002:0000cbfc       ??_C@_0L@NEPCLPOH@sv_minPing?$AA@ 100abbfc     cg_consolecmds.obj
 0002:0000cc08       ??_C@_0BJ@EECEGHDD@Maximum?5rate?5of?5players?4?$AA@ 100abc08     cg_consolecmds.obj
 0002:0000cc24       ??_C@_0L@KOGBCPKN@sv_maxRate?$AA@ 100abc24     cg_consolecmds.obj
 0002:0000cc30       ??_C@_0DD@GDOIHCOA@?1?$CKThe?5identification?5number?5of?5t@ 100abc30     cg_consolecmds.obj
 0002:0000cc64       ??_C@_0M@KIKMJPNG@sv_serverid?$AA@ 100abc64     cg_consolecmds.obj
 0002:0000cc70       ??_C@_0HP@KGOLFKNI@Reports?5the?5file?5size?5of?5the?5cur@ 100abc70     cg_consolecmds.obj
 0002:0000ccf0       ??_C@_0P@HEEKJLPJ@sv_mapChecksum?$AA@ 100abcf0     cg_consolecmds.obj
 0002:0000cd00       ??_C@_0EL@KDINNEKI@Note?3?5In?5order?5to?5completely?5clo@ 100abd00     cg_consolecmds.obj
 0002:0000cd4c       ??_C@_0CM@PNKAPADC@Note?3?5?1rcon?5killserver?5does?5the?5@ 100abd4c     cg_consolecmds.obj
 0002:0000cd78       ??_C@_0ED@GOEBCMME@This?5means?5the?5server?5can?5easily@ 100abd78     cg_consolecmds.obj
 0002:0000cdc0       ??_C@_0FJ@CAIGNBGF@Setting?5this?5cvar?5to?51?5will?5shut@ 100abdc0     cg_consolecmds.obj
 0002:0000ce1c       ??_C@_0O@JEEKIFAP@sv_killserver?$AA@ 100abe1c     cg_consolecmds.obj
 0002:0000ce30       ??_C@_0GG@GFGIHPAH@?1?$CKpossibly?5toggles?5the?5padding?5o@ 100abe30     cg_consolecmds.obj
 0002:0000ce98       ??_C@_0O@GOELPJCA@sv_padPackets?$AA@ 100abe98     cg_consolecmds.obj
 0002:0000cea8       ??_C@_0CC@KKHBCEGP@?1?$CKreport?5when?5usercmds?5are?5lost?$CK@ 100abea8     cg_consolecmds.obj
 0002:0000cecc       ??_C@_0M@EFKNOLKP@sv_showloss?$AA@ 100abecc     cg_consolecmds.obj
 0002:0000ced8       ??_C@_0FN@MENKKFIP@Specifies?5the?5message?5that?5is?5se@ 100abed8     cg_consolecmds.obj
 0002:0000cf38       ??_C@_0EK@FGBGGPOH@You?5have?5been?5kicked?5and?5are?5tem@ 100abf38     cg_consolecmds.obj
 0002:0000cf84       ??_C@_0BC@COCDBBK@sv_tempbanmessage?$AA@ 100abf84     cg_consolecmds.obj
 0002:0000cf98       ??_C@_0FC@PFMAKGNI@Specifies?5the?5time?5?$CIin?5seconds?$CJ?5@ 100abf98     cg_consolecmds.obj
 0002:0000cfec       ??_C@_0BC@MCFEMHMF@sv_reconnectlimit?$AA@ 100abfec     cg_consolecmds.obj
 0002:0000d000       ??_C@_0CI@NAAGEODK@5th?5master?5server?5to?5send?5heartb@ 100ac000     cg_consolecmds.obj
 0002:0000d028       ??_C@_0L@LLHDLDHL@sv_master5?$AA@ 100ac028     cg_consolecmds.obj
 0002:0000d034       ??_C@_0CI@HPECNMHN@4th?5master?5server?5to?5send?5heartb@ 100ac034     cg_consolecmds.obj
 0002:0000d05c       ??_C@_0L@KCGIICDK@sv_master4?$AA@ 100ac05c     cg_consolecmds.obj
 0002:0000d068       ??_C@_0CI@BFOJBHEA@3rd?5master?5server?5to?5send?5heartb@ 100ac068     cg_consolecmds.obj
 0002:0000d090       ??_C@_0L@ONCJBEPN@sv_master3?$AA@ 100ac090     cg_consolecmds.obj
 0002:0000d09c       ??_C@_0CI@HBJFFFHP@2nd?5master?5server?5to?5send?5heartb@ 100ac09c     cg_consolecmds.obj
 0002:0000d0c4       ??_C@_0L@PEDCCFLM@sv_master2?$AA@ 100ac0c4     cg_consolecmds.obj
 0002:0000d0d0       ??_C@_0CI@GLCKMNEL@1st?5master?5server?5to?5send?5heartb@ 100ac0d0     cg_consolecmds.obj
 0002:0000d0f8       ??_C@_0BI@IHMGHKCG@etmaster?4idsoftware?4com?$AA@ 100ac0f8     cg_consolecmds.obj
 0002:0000d110       ??_C@_0L@NPBPHGHP@sv_master1?$AA@ 100ac110     cg_consolecmds.obj
 0002:0000d11c       ??_C@_0CO@IBDPKBNF@?1?$CKseconds?5to?5sink?5messages?5after@ 100ac11c     cg_consolecmds.obj
 0002:0000d14c       ??_C@_0O@LLNJEMPF@sv_zombietime?$AA@ 100ac14c     cg_consolecmds.obj
 0002:0000d160       ??_C@_0GB@CPEGGKLJ@If?5a?5client?5is?5not?5responding?5fo@ 100ac160     cg_consolecmds.obj
 0002:0000d1c4       ??_C@_03HILNGLHG@240?$AA@  100ac1c4     cg_consolecmds.obj
 0002:0000d1c8       ??_C@_0L@MKEICGA@sv_timeout?$AA@ 100ac1c8     cg_consolecmds.obj
 0002:0000d1d4       ??_C@_0CP@GCECNAIF@Set?5sv_wwwBaseURL?5to?5the?5URL?5to?5@ 100ac1d4     cg_consolecmds.obj
 0002:0000d208       ??_C@_0EG@OLMPDGMD@?$CIDis?$CJallows?5clients?5to?5download?5@ 100ac208     cg_consolecmds.obj
 0002:0000d250       ??_C@_0P@HGIDPFKO@sv_wwwDownload?$AA@ 100ac250     cg_consolecmds.obj
 0002:0000d260       ??_C@_0CL@LDBIGAFN@sv_wwwDownload?5must?5be?51?5for?5thi@ 100ac260     cg_consolecmds.obj
 0002:0000d28c       ??_C@_0DP@HCMPGJBD@Specifies?5the?5URL?5clients?5will?5d@ 100ac28c     cg_consolecmds.obj
 0002:0000d2cc       ??_C@_0O@OOMAABNL@sv_wwwBaseURL?$AA@ 100ac2cc     cg_consolecmds.obj
 0002:0000d2e0       ??_C@_0EL@NIAHMBBB@?$CIDis?$CJallows?5clients?5to?5download?5@ 100ac2e0     cg_consolecmds.obj
 0002:0000d32c       ??_C@_0BB@MOCFKELF@sv_allowDownload?$AA@ 100ac32c     cg_consolecmds.obj
 0002:0000d340       ??_C@_0CK@IHDPMHOG@See?5com_watchdog?5for?5further?5inf@ 100ac340     cg_consolecmds.obj
 0002:0000d370       ??_C@_0EH@GKOIDMAP@Specifies?5the?5command?5that?5is?5ex@ 100ac370     cg_consolecmds.obj
 0002:0000d3b8       ??_C@_0BB@GHGLBMHM@com_watchdog_cmd?$AA@ 100ac3b8     cg_consolecmds.obj
 0002:0000d3d0       ??_C@_0IA@ENJKIGPN@Also?5set?5com_watchdog_cmd?5to?5the@ 100ac3d0     cg_consolecmds.obj
 0002:0000d450       ??_C@_0GL@KNAAPFHC@If?5a?5server?5has?5crashed?5and?5is?5r@ 100ac450     cg_consolecmds.obj
 0002:0000d4bc       ??_C@_0N@KANOFADO@com_watchdog?$AA@ 100ac4bc     cg_consolecmds.obj
 0002:0000d4cc       ??_C@_0DP@HIIHGKBJ@The?5server?5name?5may?5include?5colo@ 100ac4cc     cg_consolecmds.obj
 0002:0000d50c       ??_C@_0DE@BIMHLNOJ@Sets?5the?5server?5name?5as?5shown?5to@ 100ac50c     cg_consolecmds.obj
 0002:0000d540       ??_C@_06PFJNKOJI@ETHost?$AA@ 100ac540     cg_consolecmds.obj
 0002:0000d548       ??_C@_0M@NHCIKFPA@sv_hostname?$AA@ 100ac548     cg_consolecmds.obj
 0002:0000d558       ??_C@_0IH@BCOIGDIF@Bitflag?54?3?5Activates?5check?5for?5l@ 100ac558     cg_consolecmds.obj
 0002:0000d5e0       ??_C@_0DE@OBNIEOJF@Bitflag?51?3?5Players?5with?5unknown?5@ 100ac5e0     cg_consolecmds.obj
 0002:0000d614       ??_C@_0BB@IEMDELGG@0?5?9?5Disable?5all?4?$AA@ 100ac614     cg_consolecmds.obj
 0002:0000d628       ??_C@_0BL@NLNKJGDK@Security?5related?5settings?4?$AA@ 100ac628     cg_consolecmds.obj
 0002:0000d644       ??_C@_0M@OKFHEEKA@nq_security?$AA@ 100ac644     cg_consolecmds.obj
 0002:0000d650       ??_C@_0BO@FDOMHGDP@Bitflag?58?3?5?5Don?8t?5read?5mutes?4?$AA@ 100ac650     cg_consolecmds.obj
 0002:0000d670       ??_C@_0BN@PIBEMHEH@Bitflag?54?3?5?5Don?8t?5read?5bans?4?$AA@ 100ac670     cg_consolecmds.obj
 0002:0000d690       ??_C@_0BP@OBCFFGGO@Bitflag?52?3?5?5Don?8t?5read?5admins?4?$AA@ 100ac690     cg_consolecmds.obj
 0002:0000d6b0       ??_C@_0CF@ODMCNHFG@Bitflag?51?3?5?5Don?8t?5write?5to?5shrub@ 100ac6b0     cg_consolecmds.obj
 0002:0000d6d8       ??_C@_0EM@CIFAEGNE@Set?5this?5if?5you?5want?5to?5use?5the?5@ 100ac6d8     cg_consolecmds.obj
 0002:0000d728       ??_C@_0EA@CHBCMHLG@Disables?5shrubbot?5user?5data?5read@ 100ac728     cg_consolecmds.obj
 0002:0000d768       ??_C@_06GNHBNFNN@nq_noq?$AA@ 100ac768     cg_consolecmds.obj
 0002:0000d770       ??_C@_0BG@HOJBOICE@See?5also?5lua_modules?4?$AA@ 100ac770     cg_consolecmds.obj
 0002:0000d788       ??_C@_0GI@IHKEHFBK@If?5set?0?5only?5lua?5modules?5with?5th@ 100ac788     cg_consolecmds.obj
 0002:0000d7f0       ??_C@_0BD@BFCFJAMO@lua_allowedModules?$AA@ 100ac7f0     cg_consolecmds.obj
 0002:0000d804       ??_C@_0BN@FAHMFANN@See?5also?5lua_allowedModules?4?$AA@ 100ac804     cg_consolecmds.obj
 0002:0000d824       ??_C@_0BK@EJEPEGFB@Example?3?5?$CCdc?4lua?5NOQ?4lua?$CC?$AA@ 100ac824     cg_consolecmds.obj
 0002:0000d840       ??_C@_0FH@FHJIOJDB@See?5http?3?1?1wolfwiki?4anime?4net?1in@ 100ac840     cg_consolecmds.obj
 0002:0000d898       ??_C@_0GN@KAOEMPOJ@Changing?5this?5cvar?5will?5cause?5al@ 100ac898     cg_consolecmds.obj
 0002:0000d908       ??_C@_0FG@CGDBGMPG@Space?9separated?5list?5of?5lua?5modu@ 100ac908     cg_consolecmds.obj
 0002:0000d960       ??_C@_0BF@PCFNGCDG@Type?3?5Latched?5String?$AA@ 100ac960     cg_consolecmds.obj
 0002:0000d978       ??_C@_0M@BKHAMHJB@lua_modules?$AA@ 100ac978     cg_consolecmds.obj
 0002:0000d984       ??_C@_0BJ@GDPOINCB@The?5maximum?5value?5is?520?4?$AA@ 100ac984     cg_consolecmds.obj
 0002:0000d9a0       ??_C@_0CL@DFMCHOA@Any?5value?5?$DM?51?5will?5disable?5the?5K@ 100ac9a0     cg_consolecmds.obj
 0002:0000d9d0       ??_C@_0EM@FDICAHMB@Set?5this?5cvar?5to?5the?5duration?5?$CIi@ 100ac9d0     cg_consolecmds.obj
 0002:0000da20       ??_C@_0EC@LONDLINC@The?5medic?9view?9locking?5always?5ov@ 100aca20     cg_consolecmds.obj
 0002:0000da68       ??_C@_0EH@NCIPLKNK@The?5Killer?9Cam?5will?5lock?5the?5vie@ 100aca68     cg_consolecmds.obj
 0002:0000dab0       ??_C@_0CB@NJHJJFDF@Enables?5the?5Killer?9View?9Locking?4@ 100acab0     cg_consolecmds.obj
 0002:0000dad4       ??_C@_0BB@MNIDMJCI@g_killerLockTime?$AA@ 100acad4     cg_consolecmds.obj
 0002:0000dae8       ??_C@_0DB@PNENPLAG@This?5option?5does?5not?5affect?5accu@ 100acae8     cg_consolecmds.obj
 0002:0000db20       ??_C@_0FG@MCNAIAHN@Simple?5bullets?5is?5a?5new?5method?5f@ 100acb20     cg_consolecmds.obj
 0002:0000db78       ??_C@_0CE@NAMKNBOE@Enables?5or?5disables?5simple?5bulle@ 100acb78     cg_consolecmds.obj
 0002:0000db9c       ??_C@_0BA@CKHLDNCG@g_simpleBullets?$AA@ 100acb9c     cg_consolecmds.obj
 0002:0000dbac       ??_C@_0CG@IJIELKBI@Note?3?5Only?5available?5in?5debug?5bu@ 100acbac     cg_consolecmds.obj
 0002:0000dbd4       ??_C@_0CE@GJILBAJO@Allows?5to?5swap?5location?5with?5a?5b@ 100acbd4     cg_consolecmds.obj
 0002:0000dbf8       ??_C@_0P@PJNFFNFC@g_allowBotSwap?$AA@ 100acbf8     cg_consolecmds.obj
 0002:0000dc08       ??_C@_0CC@PGCIMK@Bitflag?564?3?5Bots?5can?5use?5g_shove@ 100acc08     cg_consolecmds.obj
 0002:0000dc2c       ??_C@_0DG@NFMBKPPL@Bitflag?532?3?5Bots?5will?5trigger?5te@ 100acc2c     cg_consolecmds.obj
 0002:0000dc68       ??_C@_0EK@JNBFEEPO@Bitflag?516?3?5Bots?5will?5gib?5dead?5p@ 100acc68     cg_consolecmds.obj
 0002:0000dcb8       ??_C@_0JJ@MOFEHJ@Bitflag?58?3?5?5Don?8t?5count?5bots?5?$CIth@ 100accb8     cg_consolecmds.obj
 0002:0000dd54       ??_C@_0CN@HOIIFION@Bitflag?54?3?5?5Bots?5cannot?5mount?5em@ 100acd54     cg_consolecmds.obj
 0002:0000dd84       ??_C@_0CF@MOCIDFDM@Bitflag?52?3?5?5Bots?5cannot?5mount?5ta@ 100acd84     cg_consolecmds.obj
 0002:0000ddac       ??_C@_0CF@LHKJAINE@Bitflag?51?3?5?5Disable?5XPSave?5for?5b@ 100acdac     cg_consolecmds.obj
 0002:0000ddd4       ??_C@_0CP@ECODJECG@Various?5flags?5affecting?5the?5beha@ 100acdd4     cg_consolecmds.obj
 0002:0000de04       ??_C@_0O@LEBIJNJN@omnibot_flags?$AA@ 100ace04     cg_consolecmds.obj
 0002:0000de18       ??_C@_0ED@LOIKEDA@Note?3?5If?5omnibot_flags?5flag?58?5is@ 100ace18     cg_consolecmds.obj
 0002:0000de5c       ??_C@_0DC@KBIDCOAM@The?5number?5of?5playing?5bots?5?$CItota@ 100ace5c     cg_consolecmds.obj
 0002:0000de90       ??_C@_0BA@HIAEBCEI@omnibot_playing?$AA@ 100ace90     cg_consolecmds.obj
 0002:0000dea0       ??_C@_0DC@GDLHEDO@Call?5?8?$CIrcon?$CJ?5bot?5help?8?5for?5all?5O@ 100acea0     cg_consolecmds.obj
 0002:0000ded4       ??_C@_0BC@FCBGHPAG@Enables?5Omni?9Bot?4?$AA@ 100aced4     cg_consolecmds.obj
 0002:0000dee8       ??_C@_0P@MKAEMHGP@omnibot_enable?$AA@ 100acee8     cg_consolecmds.obj
 0002:0000def8       ??_C@_0DN@PANPDCBG@The?5path?5to?5the?5directory?5contai@ 100acef8     cg_consolecmds.obj
 0002:0000df38       ??_C@_0N@FKJAENNB@omnibot_path?$AA@ 100acf38     cg_consolecmds.obj
 0002:0000df48       ??_C@_0FC@PKPCAIPM@Bitflag?52?3?5Keeps?5the?5class?5on?5sp@ 100acf48     cg_consolecmds.obj
 0002:0000df9c       ??_C@_0CB@OFMHKGJP@Bitflag?51?3?5Enables?5class?5change?4@ 100acf9c     cg_consolecmds.obj
 0002:0000dfc0       ??_C@_0HK@FEOALAJE@?$CIDis?$CJallows?5players?5to?5steal?5a?5t@ 100acfc0     cg_consolecmds.obj
 0002:0000e03c       ??_C@_0BJ@IFKONJLP@Toggles?5class?5switching?4?$AA@ 100ad03c     cg_consolecmds.obj
 0002:0000e058       ??_C@_0O@ICIFIDOG@g_classChange?$AA@ 100ad058     cg_consolecmds.obj
 0002:0000e068       ??_C@_0DG@BEMJGBJH@Toggles?5automatically?5putting?5pl@ 100ad068     cg_consolecmds.obj
 0002:0000e0a0       ??_C@_0BA@NPNHPDH@g_autoFireteams?$AA@ 100ad0a0     cg_consolecmds.obj
 0002:0000e0b0       ??_C@_0EC@ECPKNCED@Toggles?5disallowing?5players?5from@ 100ad0b0     cg_consolecmds.obj
 0002:0000e0f4       ??_C@_0BD@CLGJCDLA@g_teamForceBalance?$AA@ 100ad0f4     cg_consolecmds.obj
 0002:0000e108       ??_C@_0DE@BNFJPNEJ@?$CIDis?$CJallows?5players?5to?5change?5te@ 100ad108     cg_consolecmds.obj
 0002:0000e13c       ??_C@_0BC@LGCIFP@g_noTeamSwitching?$AA@ 100ad13c     cg_consolecmds.obj
 0002:0000e150       ??_C@_0HK@OMGMKLEA@Puts?5a?5bounding?5box?5?$CIhitbox?$CJ?5aro@ 100ad150     cg_consolecmds.obj
 0002:0000e1cc       ??_C@_0N@FMGPFPBK@g_mortarBBox?$AA@ 100ad1cc     cg_consolecmds.obj
 0002:0000e1dc       ??_C@_0DC@OEOCPMBL@May?5cause?5items?5to?5turn?5when?5the@ 100ad1dc     cg_consolecmds.obj
 0002:0000e210       ??_C@_0EM@CGFDDAID@Allows?5dropped?5items?5to?5lay?5flus@ 100ad210     cg_consolecmds.obj
 0002:0000e25c       ??_C@_0N@PCAMGCDE@g_flushItems?$AA@ 100ad25c     cg_consolecmds.obj
 0002:0000e26c       ??_C@_02KIIGEEIN@76?$AA@   100ad26c     cg_consolecmds.obj
 0002:0000e270       ??_C@_0M@BAMFJAOM@g_movespeed?$AA@ 100ad270     cg_consolecmds.obj
 0002:0000e280       ??_C@_0EG@MAELFNEL@The?5speed?5of?5movers?5?$CItanks?5etc?$CJ?5@ 100ad280     cg_consolecmds.obj
 0002:0000e2c8       ??_C@_0M@OBPFIKEC@Type?3?5Float?$AA@ 100ad2c8     cg_consolecmds.obj
 0002:0000e2d4       ??_C@_03HLLJOCDO@1?40?$AA@ 100ad2d4     cg_consolecmds.obj
 0002:0000e2d8       ??_C@_0N@JIFILLEC@g_moverScale?$AA@ 100ad2d8     cg_consolecmds.obj
 0002:0000e2e8       ??_C@_0DF@JGELGKD@Sets?5the?5strength?5of?5gravity?5?$CIon@ 100ad2e8     cg_consolecmds.obj
 0002:0000e320       ??_C@_03BAAJCDMO@800?$AA@  100ad320     cg_consolecmds.obj
 0002:0000e324       ??_C@_09HNGNBNKN@g_gravity?$AA@ 100ad324     cg_consolecmds.obj
 0002:0000e330       ??_C@_0CE@BAENGFHD@Sets?5the?5movement?5speed?5of?5playe@ 100ad330     cg_consolecmds.obj
 0002:0000e354       ??_C@_03MEIMHAKB@320?$AA@  100ad354     cg_consolecmds.obj
 0002:0000e358       ??_C@_07KCHPCPJD@g_speed?$AA@ 100ad358     cg_consolecmds.obj
 0002:0000e360       ??_C@_0CP@KOJALAC@We?5strongly?5recommend?5not?5to?5cha@ 100ad360     cg_consolecmds.obj
 0002:0000e390       ??_C@_0EI@IIKEOBMM@If?5set?5to?50?0?5user?5aim?5spreadScal@ 100ad390     cg_consolecmds.obj
 0002:0000e3d8       ??_C@_0EH@IFELMDNE@If?5set?5to?51?0?5aim?5spreadScale?5wil@ 100ad3d8     cg_consolecmds.obj
 0002:0000e420       ??_C@_09NEEDKEDO@g_userAim?$AA@ 100ad420     cg_consolecmds.obj
 0002:0000e42c       ??_C@_0DJ@EALEICJG@Appears?5to?5simply?5be?5a?5place?5to?5@ 100ad42c     cg_consolecmds.obj
 0002:0000e468       ??_C@_03BBJMCFKE@URL?$AA@  100ad468     cg_consolecmds.obj
 0002:0000e46c       ??_C@_0DM@PAFIDCNC@Value?52?3?5Load?5public?5settings?5co@ 100ad46c     cg_consolecmds.obj
 0002:0000e4a8       ??_C@_0EC@FJEEAEND@Value?51?3?5Load?5competition?5settin@ 100ad4a8     cg_consolecmds.obj
 0002:0000e4ec       ??_C@_0BO@JDOGCMMH@Value?50?3?5Load?5no?5config?5file?4?$AA@ 100ad4ec     cg_consolecmds.obj
 0002:0000e50c       ??_C@_0BC@OPKPBHOJ@server_autoconfig?$AA@ 100ad50c     cg_consolecmds.obj
 0002:0000e520       ??_C@_0CH@JIBJAOPL@Value?52?3?5Dedicated?5server?5for?5In@ 100ad520     cg_consolecmds.obj
 0002:0000e548       ??_C@_0CC@NKGOIPMM@Value?51?3?5Dedicated?5server?5for?5LA@ 100ad548     cg_consolecmds.obj
 0002:0000e56c       ??_C@_09BJOAODLF@dedicated?$AA@ 100ad56c     cg_consolecmds.obj
 0002:0000e578       ??_C@_0DJ@KGABNPCN@Note?3?5Adrenaline?5can?5be?5disabled@ 100ad578     cg_consolecmds.obj
 0002:0000e5b8       ??_C@_0EI@EFCJDLDH@Bitflag?54096?3?5?5While?5using?5adren@ 100ad5b8     cg_consolecmds.obj
 0002:0000e600       ??_C@_0DB@LFJGGLHH@Bitflag?52048?3?5?5Enables?5adrenalin@ 100ad600     cg_consolecmds.obj
 0002:0000e634       ??_C@_0DA@KMOCFMLM@Bitflag?51024?3?5?5Enables?5adrenalin@ 100ad634     cg_consolecmds.obj
 0002:0000e664       ??_C@_0DA@CIJKLDCA@Bitflag?5512?3?5?5?5Enables?5adrenalin@ 100ad664     cg_consolecmds.obj
 0002:0000e694       ??_C@_0CN@PECDIGEP@Bitflag?5256?3?5?5?5Enables?5adrenalin@ 100ad694     cg_consolecmds.obj
 0002:0000e6c4       ??_C@_0CP@POPJBJII@Bitflag?5128?3?5?5?5Enables?5adrenalin@ 100ad6c4     cg_consolecmds.obj
 0002:0000e6f8       ??_C@_0EF@CFPEJIHA@Bitflag?564?3?5?5?5?5Health?5packs?5cann@ 100ad6f8     cg_consolecmds.obj
 0002:0000e740       ??_C@_0EG@DDMKDIEO@Bitflag?532?3?5?5?5?5Adrenaline?5causes@ 100ad740     cg_consolecmds.obj
 0002:0000e788       ??_C@_0DC@HNLALGFM@Bitflag?516?3?5?5?5?5Adrenaline?5does?5n@ 100ad788     cg_consolecmds.obj
 0002:0000e7bc       ??_C@_0DB@LPBLPCIP@Bitflag?58?3?5?5?5?5?5Adrenaline?5does?5n@ 100ad7bc     cg_consolecmds.obj
 0002:0000e7f0       ??_C@_0DE@IIKMBJGL@Bitflag?54?3?5?5?5?5?5Can?5only?5carry?5on@ 100ad7f0     cg_consolecmds.obj
 0002:0000e824       ??_C@_0DN@MPJAHMMI@Bitflag?52?3?5?5?5?5?5Ammo?5packs?5do?5not@ 100ad824     cg_consolecmds.obj
 0002:0000e868       ??_C@_0FE@HGJADLHB@Bitflag?51?3?5?5?5?5?5Spawn?5with?5no?5adr@ 100ad868     cg_consolecmds.obj
 0002:0000e8bc       ??_C@_0BO@FBPFFJBE@Adrenaline?9behavior?5bitflags?3?$AA@ 100ad8bc     cg_consolecmds.obj
 0002:0000e8dc       ??_C@_0N@JKOCLIDC@g_adrenaline?$AA@ 100ad8dc     cg_consolecmds.obj
 0002:0000e8ec       ??_C@_0DO@NBGEOCPO@?5?5?5?5?5?5Default?5is?53?12?5?$CI3?5HP?5per?5s@ 100ad8ec     cg_consolecmds.obj
 0002:0000e930       ??_C@_0MF@JFELCALB@Note?3?5The?5rate?5at?5which?5medics?5r@ 100ad930     cg_consolecmds.obj
 0002:0000e9f8       ??_C@_0FF@JEDFLDBG@Bitflag?54096?3?5Fast?5medic?5revivin@ 100ad9f8     cg_consolecmds.obj
 0002:0000ea50       ??_C@_0GB@JBGFAKON@Bitflag?52048?3?5All?5player?5classes@ 100ada50     cg_consolecmds.obj
 0002:0000eab8       ??_C@_0FC@JNHEJLLO@Bitflag?51024?3?5Medics?5get?5HP?5if?5?$CI@ 100adab8     cg_consolecmds.obj
 0002:0000eb0c       ??_C@_0CP@JKNDGMND@Bitflag?5512?3?5?5Medics?5do?5not?5rege@ 100adb0c     cg_consolecmds.obj
 0002:0000eb40       ??_C@_0EL@BHEMBMEN@Bitflag?5256?3?5?5More?5Medics?5in?5a?5t@ 100adb40     cg_consolecmds.obj
 0002:0000eb8c       ??_C@_0CI@NMJMAFBG@Bitflag?5128?3?5?5Medics?5get?512?$CF?$CF?5ex@ 100adb8c     cg_consolecmds.obj
 0002:0000ebb8       ??_C@_0HP@CMIFFGLP@Bitflag?564?3?5?5?5Medics?5can?5use?5the@ 100adbb8     cg_consolecmds.obj
 0002:0000ec38       ??_C@_0HF@MIKBJDDF@Bitflag?532?3?5?5?5Medics?5spawn?5with?5@ 100adc38     cg_consolecmds.obj
 0002:0000ecb0       ??_C@_0GM@IAMHFJLG@Bitflag?516?3?5?5?5Medics?5don?8t?5spawn@ 100adcb0     cg_consolecmds.obj
 0002:0000ed20       ??_C@_0EC@JEMMANPF@Bitflag?58?3?5?5?5?5Medics?5regenerate?5@ 100add20     cg_consolecmds.obj
 0002:0000ed68       ??_C@_0EC@CPCFKDPE@Bitflag?54?3?5?5?5?5Medics?5regenerate?5@ 100add68     cg_consolecmds.obj
 0002:0000edac       ??_C@_0DP@CPLDKAOP@Bitflag?52?3?5?5?5?5Medics?5can?8t?5pick?5@ 100addac     cg_consolecmds.obj
 0002:0000edf0       ??_C@_0EK@ONAMGDGC@Bitflag?51?3?5?5?5?5Medics?5can?8t?5pick?5@ 100addf0     cg_consolecmds.obj
 0002:0000ee3c       ??_C@_0BA@GLKLEJNL@Medic?5bitflags?3?$AA@ 100ade3c     cg_consolecmds.obj
 0002:0000ee4c       ??_C@_02ICGJHNHJ@65?$AA@   100ade4c     cg_consolecmds.obj
 0002:0000ee50       ??_C@_08HLLFGDNC@g_medics?$AA@ 100ade50     cg_consolecmds.obj
 0002:0000ee60       ??_C@_0JF@MIDOLLLD@This?5also?5effects?5?1buy?5?$CIif?5enabl@ 100ade60     cg_consolecmds.obj
 0002:0000eef8       ??_C@_0JN@HBPKDFAE@If?5a?5player?5uses?5?1kill?5within?5th@ 100adef8     cg_consolecmds.obj
 0002:0000ef98       ??_C@_04OJDKMIMG@2000?$AA@ 100adf98     cg_consolecmds.obj
 0002:0000efa0       ??_C@_06JPMMNHHH@g_fear?$AA@ 100adfa0     cg_consolecmds.obj
 0002:0000efa8       ??_C@_0DC@HGOLHKON@Neither?5will?5you?5be?5able?5to?5log?5@ 100adfa8     cg_consolecmds.obj
 0002:0000efe0       ??_C@_0GL@MNAGEPHN@If?5set?5to?50?0?5you?5will?5not?5be?5abl@ 100adfe0     cg_consolecmds.obj
 0002:0000f050       ??_C@_0GN@OOFAIBMK@This?5cvar?5controls?5the?5use?5of?5ad@ 100ae050     cg_consolecmds.obj
 0002:0000f0c0       ??_C@_09FGLKFKCH@g_tyranny?$AA@ 100ae0c0     cg_consolecmds.obj
 0002:0000f0d0       ??_C@_0EE@PNEBFOPE@Bitflag?5512?3?5Allows?5players?5to?5o@ 100ae0d0     cg_consolecmds.obj
 0002:0000f118       ??_C@_0FA@IFHAKPGC@Bitflag?5256?3?5Disable?5weapon?5spre@ 100ae118     cg_consolecmds.obj
 0002:0000f168       ??_C@_0HP@DKENJDFP@Bitflag?5128?3?5Players?5riding?5move@ 100ae168     cg_consolecmds.obj
 0002:0000f1e8       ??_C@_0GD@KMFGGOEK@Bitflag?564?3?5?5Items?5in?5front?5of?5m@ 100ae1e8     cg_consolecmds.obj
 0002:0000f250       ??_C@_0EB@CBGPANHI@Bitflag?532?3?5?5No?5automatic?5weapon@ 100ae250     cg_consolecmds.obj
 0002:0000f294       ??_C@_0CJ@EOIKPMGL@Bitflag?516?3?5?5Disable?5leaning?5ani@ 100ae294     cg_consolecmds.obj
 0002:0000f2c0       ??_C@_0LI@PKFPEGJC@Bitflag?58?3?5?5?5Enable?5?8in?5view?8?5ch@ 100ae2c0     cg_consolecmds.obj
 0002:0000f378       ??_C@_0FA@DAEDKEGN@Bitflag?54?3?5?5?5Covert?5Ops?5will?5inh@ 100ae378     cg_consolecmds.obj
 0002:0000f3c8       ??_C@_0DM@NBIPMHIG@Bitflag?52?3?5?5?5Cannot?5use?5weapons?5@ 100ae3c8     cg_consolecmds.obj
 0002:0000f408       ??_C@_0IG@DAEGLCPE@Bitflag?51?3?5?5?5Play?5transition?5ani@ 100ae408     cg_consolecmds.obj
 0002:0000f490       ??_C@_0DF@LAACBBCK@A?5few?5flags?5to?5add?5a?5bit?5of?5real@ 100ae490     cg_consolecmds.obj
 0002:0000f4c8       ??_C@_02KCBIGJIH@96?$AA@   100ae4c8     cg_consolecmds.obj
 0002:0000f4cc       ??_C@_09OKPOMOFB@g_realism?$AA@ 100ae4cc     cg_consolecmds.obj
 0002:0000f4d8       ??_C@_0DL@OBKIABOE@Bitflag?52?3?5Players?5will?5have?5the@ 100ae4d8     cg_consolecmds.obj
 0002:0000f518       ??_C@_0FH@FIPIFIKI@Bitflag?51?3?5Players?5will?5have?5a?5t@ 100ae518     cg_consolecmds.obj
 0002:0000f570       ??_C@_0CK@IDMOFPHA@Sets?5flags?5for?5various?5spectator@ 100ae570     cg_consolecmds.obj
 0002:0000f59c       ??_C@_0M@HCBACBJE@g_spectator?$AA@ 100ae59c     cg_consolecmds.obj
 0002:0000f5a8       ??_C@_0EN@JLFKCBGF@Value?53?3?5A?5single?5headshot?5kills@ 100ae5a8     cg_consolecmds.obj
 0002:0000f5f8       ??_C@_0EL@FNHCKHJL@Value?52?3?5A?5single?5headshot?5kills@ 100ae5f8     cg_consolecmds.obj
 0002:0000f648       ??_C@_0HI@DOFGBHEB@Value?51?3?5Still?5multiple?5headshot@ 100ae648     cg_consolecmds.obj
 0002:0000f6c0       ??_C@_0CA@OKGHHDDK@Value?50?3?5Disable?5headshot?5mode?4?$AA@ 100ae6c0     cg_consolecmds.obj
 0002:0000f6e0       ??_C@_0IO@HKJIOGPH@Only?5headshots?5from?5weapons?5that@ 100ae6e0     cg_consolecmds.obj
 0002:0000f770       ??_C@_0BK@NEBAJEHP@Customizes?5headshot?5mode?4?$AA@ 100ae770     cg_consolecmds.obj
 0002:0000f78c       ??_C@_0L@CMKEOCAP@g_headshot?$AA@ 100ae78c     cg_consolecmds.obj
 0002:0000f798       ??_C@_0BO@BCIEMDNM@Value?52?3?5Reflect?5all?5weapons?4?$AA@ 100ae798     cg_consolecmds.obj
 0002:0000f7b8       ??_C@_0DK@MDOEHKPI@Value?51?3?5Reflect?5weapons?5that?5ar@ 100ae7b8     cg_consolecmds.obj
 0002:0000f7f4       ??_C@_0CE@BEHCDFLM@Value?50?3?5Disable?5bullet?5reflecti@ 100ae7f4     cg_consolecmds.obj
 0002:0000f818       ??_C@_0FD@KBEPBIJB@Shooting?5at?5metal?5surfaces?5will?5@ 100ae818     cg_consolecmds.obj
 0002:0000f86c       ??_C@_0BA@GLEKDFDH@g_bulletReflect?$AA@ 100ae86c     cg_consolecmds.obj
 0002:0000f87c       ??_C@_0BM@KGDLAOJN@This?5is?5HIGHLY?5recommended?4?$AA@ 100ae87c     cg_consolecmds.obj
 0002:0000f898       ??_C@_0EH@IONOKKHD@Head?5hitbox?5will?5follow?5the?5anim@ 100ae898     cg_consolecmds.obj
 0002:0000f8e0       ??_C@_0L@JNNOMGJM@g_realHead?$AA@ 100ae8e0     cg_consolecmds.obj
 0002:0000f8f0       ??_C@_0EE@LPHMOALM@The?5distance?5from?5the?5player?5tha@ 100ae8f0     cg_consolecmds.obj
 0002:0000f934       ??_C@_02IDKLBHEO@75?$AA@   100ae934     cg_consolecmds.obj
 0002:0000f938       ??_C@_0BA@JJEPGIEC@g_throwDistance?$AA@ 100ae938     cg_consolecmds.obj
 0002:0000f948       ??_C@_0BP@OCFFBLLM@Bounciness?5of?5dropped?5weapons?4?$AA@ 100ae948     cg_consolecmds.obj
 0002:0000f968       ??_C@_04FNMPJLCB@0?425?$AA@ 100ae968     cg_consolecmds.obj
 0002:0000f970       ??_C@_0P@EELEEEBJ@g_weaponBounce?$AA@ 100ae970     cg_consolecmds.obj
 0002:0000f980       ??_C@_0CH@KGBALMPE@Bitflag?54096?3?5Enable?5Pliers?5?$CL?5Dy@ 100ae980     cg_consolecmds.obj
 0002:0000f9a8       ??_C@_0DM@KOHBDMKC@Bitflag?52048?3?5Enable?5War?5Binocul@ 100ae9a8     cg_consolecmds.obj
 0002:0000f9e4       ??_C@_0CE@DIAGOFGJ@Bitflag?51024?3?5Enable?5Smoke?5Grena@ 100ae9e4     cg_consolecmds.obj
 0002:0000fa08       ??_C@_0CE@CPGLGAAI@Bitflag?5512?3?5?5Enable?5Poison?5need@ 100aea08     cg_consolecmds.obj
 0002:0000fa2c       ??_C@_0BO@CPFKEOBP@Bitflag?5256?3?5?5Enable?5Shotguns?$AA@ 100aea2c     cg_consolecmds.obj
 0002:0000fa4c       ??_C@_0CD@EGLANCEC@Bitflag?5128?3?5?5Enable?5Flamethrowe@ 100aea4c     cg_consolecmds.obj
 0002:0000fa70       ??_C@_0CA@BHNEIGHM@Bitflag?564?3?5?5?5Enable?5Riflenades?$AA@ 100aea70     cg_consolecmds.obj
 0002:0000fa90       ??_C@_0BO@JNCONLIE@Bitflag?532?3?5?5?5Enable?5Grenades?$AA@ 100aea90     cg_consolecmds.obj
 0002:0000fab0       ??_C@_0CD@POGPCLH@Bitflag?516?3?5?5?5Enable?5Sniper?5rifl@ 100aeab0     cg_consolecmds.obj
 0002:0000fad4       ??_C@_0BN@MMHOPEPI@Bitflag?58?3?5?5?5?5Enable?5Panzers?$AA@ 100aead4     cg_consolecmds.obj
 0002:0000faf4       ??_C@_0BM@BNNLFINB@Bitflag?54?3?5?5?5?5Enable?5Knives?$AA@ 100aeaf4     cg_consolecmds.obj
 0002:0000fb10       ??_C@_0CE@FKPFMMC@Bitflag?52?3?5?5?5?5Reserved?5?$CInot?5in?5u@ 100aeb10     cg_consolecmds.obj
 0002:0000fb34       ??_C@_0BO@GFNKJKMP@Bitflag?51?3?5?5?5?5Enable?5war?5mode?$AA@ 100aeb34     cg_consolecmds.obj
 0002:0000fb58       ??_C@_0EL@NJDBAMGL@Customizes?5war?5mode?5?$CIspawn?5with?5@ 100aeb58     cg_consolecmds.obj
 0002:0000fba4       ??_C@_0O@DEGFIKFO@Type?3?5Bitflag?$AA@ 100aeba4     cg_consolecmds.obj
 0002:0000fbb4       ??_C@_06MBOBBMDP@nq_War?$AA@ 100aebb4     cg_consolecmds.obj
 0002:0000fbbc       ??_C@_0BM@IAHOBLDF@Bitflag?516384?3?5Syringe?5Gibs?$AA@ 100aebbc     cg_consolecmds.obj
 0002:0000fbd8       ??_C@_0BO@NIBPHGPI@Bitflag?58192?3?5?5Riflenade?5Cam?4?$AA@ 100aebd8     cg_consolecmds.obj
 0002:0000fbf8       ??_C@_0BL@EJNLPCML@Bitflag?54096?3?5?5Killer?5Cam?4?$AA@ 100aebf8     cg_consolecmds.obj
 0002:0000fc14       ??_C@_0CC@LKGHMMJG@Bitflag?52048?3?5?5Kickable?5Dynamite@ 100aec14     cg_consolecmds.obj
 0002:0000fc38       ??_C@_0BO@HGBNHEHL@Bitflag?51024?3?5?5Enable?5buying?4?$AA@ 100aec38     cg_consolecmds.obj
 0002:0000fc58       ??_C@_0BP@LODKHGNN@Bitflag?5512?3?5?5?5Enable?5betting?4?$AA@ 100aec58     cg_consolecmds.obj
 0002:0000fc78       ??_C@_0CG@KPJACCPO@Bitflag?5256?3?5?5?5Launches?5team?5kil@ 100aec78     cg_consolecmds.obj
 0002:0000fca0       ??_C@_0BJ@LECJFOHM@Bitflag?5128?3?5?5?5Dog?5Tags?4?$AA@ 100aeca0     cg_consolecmds.obj
 0002:0000fcbc       ??_C@_0BP@NGNOLFGO@Bitflag?564?3?5?5?5?5Homing?5Rockets?4?$AA@ 100aecbc     cg_consolecmds.obj
 0002:0000fcdc       ??_C@_0BP@CEHHAMKA@Bitflag?532?3?5?5?5?5Guided?5Rockets?4?$AA@ 100aecdc     cg_consolecmds.obj
 0002:0000fcfc       ??_C@_0CB@ICLEEJCL@Bitflag?516?3?5?5?5?5Unlimited?5Charge?4@ 100aecfc     cg_consolecmds.obj
 0002:0000fd20       ??_C@_0BL@NEBFJBPA@Bitflag?58?3?5?5?5?5?5Rocket?5Cam?4?$AA@ 100aed20     cg_consolecmds.obj
 0002:0000fd3c       ??_C@_0BL@BGNPKPKM@Bitflag?54?3?5?5?5?5?5Mortar?5Cam?4?$AA@ 100aed3c     cg_consolecmds.obj
 0002:0000fd58       ??_C@_0BP@FNPBKDO@Bitflag?52?3?5?5?5?5?5Unlimited?5Ammo?4?$AA@ 100aed58     cg_consolecmds.obj
 0002:0000fd78       ??_C@_0BO@MHAEKKOA@Bitflag?51?3?5?5?5?5?5Instant?5Spawn?4?$AA@ 100aed78     cg_consolecmds.obj
 0002:0000fd98       ??_C@_0DK@FDKFGILJ@No?5Quarter?5fun?5modes?5are?5control@ 100aed98     cg_consolecmds.obj
 0002:0000fdd4       ??_C@_0M@BGNCNCGG@jp_insanity?$AA@ 100aedd4     cg_consolecmds.obj
 0002:0000fde0       ??_C@_0DE@MEECLODA@Bitflag?516?3?5Landmine?5spotting?5ab@ 100aede0     cg_consolecmds.obj
 0002:0000fe14       ??_C@_0DC@FIFIHJFJ@Bitflag?58?3?5?5Assassin?5backstab?5bo@ 100aee14     cg_consolecmds.obj
 0002:0000fe48       ??_C@_0CM@KAAIMNMB@Bitflag?54?3?5?5Enemy?5recognition?5ca@ 100aee48     cg_consolecmds.obj
 0002:0000fe74       ??_C@_0BE@POPEEBKJ@Bitflag?52?3?5?5unused?4?$AA@ 100aee74     cg_consolecmds.obj
 0002:0000fe88       ??_C@_0CG@CJPNBKOD@Bitflag?51?3?5?5Flak?5Jacket?5carries?5@ 100aee88     cg_consolecmds.obj
 0002:0000feb0       ??_C@_0ED@CMNNGFNH@Allows?5players?5to?5retain?5skill?5b@ 100aeeb0     cg_consolecmds.obj
 0002:0000fef4       ??_C@_08LCEMJGIP@g_skills?$AA@ 100aeef4     cg_consolecmds.obj
 0002:0000ff00       ??_C@_0EA@JEKDGDCI@A?5value?5of?50?5will?5disable?5droppi@ 100aef00     cg_consolecmds.obj
 0002:0000ff40       ??_C@_0DM@DDKKFKAK@Bitflag?532?3?5Do?5not?5pick?5up?5ammo?5@ 100aef40     cg_consolecmds.obj
 0002:0000ff80       ??_C@_0HG@KFMJGOKK@Bitflag?516?3?5Do?5not?5pickup?5droppe@ 100aef80     cg_consolecmds.obj
 0002:0000fff8       ??_C@_0GP@OCJPIJFM@Bitflag?58?3?5?5Pick?5up?5ammo?5you?5nee@ 100aeff8     cg_consolecmds.obj
 0002:00010068       ??_C@_0EH@ECNMEONE@Bitflag?54?3?5?5Extra?5clips?5are?5incl@ 100af068     cg_consolecmds.obj
 0002:000100b0       ??_C@_0DP@KDCNCGMF@Bitflag?52?3?5?5Drop?5secondary?5weapo@ 100af0b0     cg_consolecmds.obj
 0002:000100f0       ??_C@_0DP@GIIDELJD@Bitflag?51?3?5?5Drop?5primary?5weapon?5@ 100af0f0     cg_consolecmds.obj
 0002:00010130       ??_C@_0DE@NEEBMFEG@Customize?5how?5weapons?5are?5droppe@ 100af130     cg_consolecmds.obj
 0002:00010164       ??_C@_0O@OINLFCHM@g_weaponItems?$AA@ 100af164     cg_consolecmds.obj
 0002:00010174       ??_C@_0DE@DKBOHOGJ@Will?5play?5a?5unique?5animation?5on?5@ 100af174     cg_consolecmds.obj
 0002:000101a8       ??_C@_0EC@LEIIAMNA@Backstabs?5insta?9gibs?5players?5int@ 100af1a8     cg_consolecmds.obj
 0002:000101ec       ??_C@_0P@LEHHPFNJ@g_fastBackStab?$AA@ 100af1ec     cg_consolecmds.obj
 0002:000101fc       ??_C@_0DE@PCOEDGHO@Bitflag?5128?3?5Disables?5?1kill?5whil@ 100af1fc     cg_consolecmds.obj
 0002:00010230       ??_C@_0CO@PFIHJDGI@Bitflag?564?3?5?5Disables?5?1kill?5whil@ 100af230     cg_consolecmds.obj
 0002:00010260       ??_C@_0EG@NHAJEBK@Bitflag?532?3?5?5While?5in?5limbo?5afte@ 100af260     cg_consolecmds.obj
 0002:000102a8       ??_C@_0DE@CJDDOOF@Bitflag?516?3?5?5Disable?5?1kill?5when?5@ 100af2a8     cg_consolecmds.obj
 0002:000102dc       ??_C@_0CF@BPBICGNK@Bitflag?58?3?5?5?5Disables?5?1kill?5comm@ 100af2dc     cg_consolecmds.obj
 0002:00010308       ??_C@_0KF@IHAHAKBJ@Bitflag?54?3?5?5?5Restores?5the?5charge@ 100af308     cg_consolecmds.obj
 0002:000103b0       ??_C@_0DK@PJLODHCC@Bitflag?52?3?5?5?5Player?5spawns?5with?5@ 100af3b0     cg_consolecmds.obj
 0002:000103ec       ??_C@_0DN@PGAEAGFN@Bitflag?51?3?5?5?5Player?5spawns?5with?5@ 100af3ec     cg_consolecmds.obj
 0002:00010430       ??_C@_0GA@MNNNKALD@This?5is?5a?5bitflag?5cvar?5that?5cont@ 100af430     cg_consolecmds.obj
 0002:00010490       ??_C@_0M@FAGBPJEE@g_slashKill?$AA@ 100af490     cg_consolecmds.obj
 0002:0001049c       ??_C@_0DE@CKCHMHFA@Value?51?3?5Enable?5filter?0?5hide?5all@ 100af49c     cg_consolecmds.obj
 0002:000104d0       ??_C@_0DE@KGLKODME@Value?50?3?5Disable?5filter?0?5see?5all@ 100af4d0     cg_consolecmds.obj
 0002:00010508       ??_C@_0EC@OHFAKPHL@Sets?5the?5visibility?5of?5players?5?$CG@ 100af508     cg_consolecmds.obj
 0002:0001054c       ??_C@_0N@EMELBOCI@g_filtercams?$AA@ 100af54c     cg_consolecmds.obj
 0002:0001055c       ??_C@_0BO@DPBNOOLM@Value?50?3?5Don?8t?5force?5respawn?4?$AA@ 100af55c     cg_consolecmds.obj
 0002:00010580       ??_C@_0GP@MCOHDCBD@If?5greater?5than?50?0?5players?5are?5g@ 100af580     cg_consolecmds.obj
 0002:000105f0       ??_C@_0P@JEPDGNEP@g_forcerespawn?$AA@ 100af5f0     cg_consolecmds.obj
 0002:00010600       ??_C@_0EF@KKKELBEL@Bitflag?564?3?5Landmines?5hurt?5teamm@ 100af600     cg_consolecmds.obj
 0002:00010648       ??_C@_0DG@LMHKPKGF@Bitflag?532?3?5Landmines?5cannot?5be?5@ 100af648     cg_consolecmds.obj
 0002:00010680       ??_C@_0GB@HJAIBLCL@Bitflag?516?3?5Friendly?5fire?5delive@ 100af680     cg_consolecmds.obj
 0002:000106e8       ??_C@_0EA@PMHNKNOH@Bitflag?58?3?5?5Friendly?5fires?5affec@ 100af6e8     cg_consolecmds.obj
 0002:00010728       ??_C@_0EL@OPNAGHBA@Bitflag?54?3?5?5Friendly?5fire?5does?5a@ 100af728     cg_consolecmds.obj
 0002:00010778       ??_C@_0EC@GHHJMHBO@Bitflag?52?3?5?5Friendly?5fire?5does?5o@ 100af778     cg_consolecmds.obj
 0002:000107bc       ??_C@_0CC@HKFMDGHL@Bitflag?51?3?5?5Enable?5friendly?5fire@ 100af7bc     cg_consolecmds.obj
 0002:000107e0       ??_C@_0CN@COOINPML@To?5enable?5friendly?5fire?0?5flag?51?5@ 100af7e0     cg_consolecmds.obj
 0002:00010810       ??_C@_0BL@MKJCDPCE@Options?5for?5friendly?5fire?3?$AA@ 100af810     cg_consolecmds.obj
 0002:0001082c       ??_C@_0P@IEOFAMLI@g_friendlyFire?$AA@ 100af82c     cg_consolecmds.obj
 0002:00010840       ??_C@_0FL@PODEIDGG@Sets?5how?5much?5a?5player?8s?5positio@ 100af840     cg_consolecmds.obj
 0002:0001089c       ??_C@_0M@PDFGFIOM@g_knockback?$AA@ 100af89c     cg_consolecmds.obj
 0002:000108a8       ??_C@_0FD@CIEACDGN@Objectives?5can?5be?5dropped?5by?5swi@ 100af8a8     cg_consolecmds.obj
 0002:00010900       ??_C@_0EI@GGINFNBC@Sets?5the?5number?5of?5times?5a?5playe@ 100af900     cg_consolecmds.obj
 0002:00010948       ??_C@_09LKLFOACM@g_dropObj?$AA@ 100af948     cg_consolecmds.obj
 0002:00010958       ??_C@_0KE@KIKLBCLN@When?5enabled?0?5players?5can?5drag?5w@ 100af958     cg_consolecmds.obj
 0002:000109fc       ??_C@_0BJ@BPMKIJKL@Toggles?5corpse?5dragging?4?$AA@ 100af9fc     cg_consolecmds.obj
 0002:00010a18       ??_C@_0N@GEDCKEOP@g_dragCorpse?$AA@ 100afa18     cg_consolecmds.obj
 0002:00010a28       ??_C@_0CG@MKIPNGMK@Toggle?5shoving?5in?5vertical?5direc@ 100afa28     cg_consolecmds.obj
 0002:00010a50       ??_C@_0L@OGOLGIFD@g_shoveNoZ?$AA@ 100afa50     cg_consolecmds.obj
 0002:00010a5c       ??_C@_0BN@CMLHENEI@Set?5to?50?5to?5disable?5shoving?4?$AA@ 100afa5c     cg_consolecmds.obj
 0002:00010a7c       ??_C@_0BG@MEJOFDEB@80?5is?5a?5decent?5value?4?$AA@ 100afa7c     cg_consolecmds.obj
 0002:00010a98       ??_C@_0HP@OMBNAAOE@This?5sets?5the?5distance?5players?5c@ 100afa98     cg_consolecmds.obj
 0002:00010b18       ??_C@_02PFIAKEDG@80?$AA@   100afb18     cg_consolecmds.obj
 0002:00010b1c       ??_C@_07JKCJDPNM@g_shove?$AA@ 100afb1c     cg_consolecmds.obj
 0002:00010b24       ??_C@_0DC@FOJJENBG@?$CIDis?$CJallows?5players?5to?5use?5the?5?1@ 100afb24     cg_consolecmds.obj
 0002:00010b58       ??_C@_0L@DKIMILBI@g_playDead?$AA@ 100afb58     cg_consolecmds.obj
 0002:00010b64       ??_C@_0DC@PCLELIKH@This?5does?5not?5apply?5to?5spectator@ 100afb64     cg_consolecmds.obj
 0002:00010b98       ??_C@_0CC@GGHFKNOJ@Switching?5teams?5kills?5the?5player@ 100afb98     cg_consolecmds.obj
 0002:00010bbc       ??_C@_0BC@PBCLLPOP@g_teamChangeKills?$AA@ 100afbbc     cg_consolecmds.obj
 0002:00010bd0       ??_C@_0IN@HOIMKFFN@Bitflag?532?3?5If?5set?5landmines?5won@ 100afbd0     cg_consolecmds.obj
 0002:00010c60       ??_C@_0GM@LIAGBFD@Bitflag?516?3?5?$CCToo?5many?5airstrikes@ 100afc60     cg_consolecmds.obj
 0002:00010cd0       ??_C@_0GE@CBCDPACN@Bitflag?58?3?5?5?$CCToo?5many?5airstrikes@ 100afcd0     cg_consolecmds.obj
 0002:00010d34       ??_C@_0CE@DOAEJGME@Bitflag?54?3?5?5Pliers?5work?5underwat@ 100afd34     cg_consolecmds.obj
 0002:00010d58       ??_C@_0CG@KHABEFJK@Bitflag?52?3?5?5Syringes?5work?5underw@ 100afd58     cg_consolecmds.obj
 0002:00010d80       ??_C@_0FG@NNOCDCMM@Bitflag?51?3?5?5Field?5Ops?5do?5not?5spa@ 100afd80     cg_consolecmds.obj
 0002:00010dd8       ??_C@_0DB@HMENAAAF@Various?5flags?5to?5set?5different?5w@ 100afdd8     cg_consolecmds.obj
 0002:00010e0c       ??_C@_09OCNKOKJG@g_weapons?$AA@ 100afe0c     cg_consolecmds.obj
 0002:00010e18       ??_C@_0FO@MAMMGPDP@Sets?5the?5name?5of?5the?5shrubbot?5co@ 100afe18     cg_consolecmds.obj
 0002:00010e78       ??_C@_0N@FDFHOIGK@shrubbot?4cfg?$AA@ 100afe78     cg_consolecmds.obj
 0002:00010e88       ??_C@_0L@DFLFCCEJ@g_shrubbot?$AA@ 100afe88     cg_consolecmds.obj
 0002:00010e94       ??_C@_0CP@MJIDAEPB@Do?5?$CC?1nqadmin?5shortcuts?$CC?5to?5list?5@ 100afe94     cg_consolecmds.obj
 0002:00010ec8       ??_C@_0FN@MGHEAECI@?$CIDis?$CJallows?5clients?5to?5use?5short@ 100afec8     cg_consolecmds.obj
 0002:00010f28       ??_C@_0M@POHFADJK@g_shortcuts?$AA@ 100aff28     cg_consolecmds.obj
 0002:00010f34       ??_C@_0CD@HFIJEKCD@Value?52?3?5Weak?5gravity?5?$CIrealistic@ 100aff34     cg_consolecmds.obj
 0002:00010f58       ??_C@_0BJ@IHPNPFID@Value?51?3?5Strong?5gravity?4?$AA@ 100aff58     cg_consolecmds.obj
 0002:00010f74       ??_C@_0BF@NOINMODN@Value?50?3?5No?5gravity?4?$AA@ 100aff74     cg_consolecmds.obj
 0002:00010f8c       ??_C@_0CM@NMALDIEK@Sets?5gravity?5on?5Panzer?5and?5Bazoo@ 100aff8c     cg_consolecmds.obj
 0002:00010fb8       ??_C@_0BB@BLINHPOF@g_missileGravity?$AA@ 100affb8     cg_consolecmds.obj
 0002:00010fd0       ??_C@_0GJ@CKFCGLGA@There?5is?5also?5no?5hitbox?5for?5miss@ 100affd0     cg_consolecmds.obj
 0002:0001103c       ??_C@_0CP@FBAGBPAM@Set?5this?5to?50?5to?5make?5missiles?5i@ 100b003c     cg_consolecmds.obj
 0002:0001106c       ??_C@_0DI@NEKLIJLP@Sets?5the?5amount?5of?5health?5a?5panz@ 100b006c     cg_consolecmds.obj
 0002:000110a4       ??_C@_0BA@IALFMPIC@g_missileHealth?$AA@ 100b00a4     cg_consolecmds.obj
 0002:000110b4       ??_C@_0DL@PFCKOIBE@Values?5over?5300?5are?5ignored?5if?5G@ 100b00b4     cg_consolecmds.obj
 0002:000110f0       ??_C@_0CK@GKOAMEAH@Set?5to?50?5or?52500?5to?5enable?5defau@ 100b00f0     cg_consolecmds.obj
 0002:0001111c       ??_C@_0DE@LHEBHBB@Sets?5the?5speed?5a?5panzer?1bazooka?5@ 100b011c     cg_consolecmds.obj
 0002:00011150       ??_C@_0P@JIKBPENM@g_missileSpeed?$AA@ 100b0150     cg_consolecmds.obj
 0002:00011160       ??_C@_0CF@GOJDJDLL@Bitflag?516?3?5Insta?9gib?5target?5pla@ 100b0160     cg_consolecmds.obj
 0002:00011188       ??_C@_0FA@PLEEMPNB@Bitflag?58?3?5?5Falling?5player?5recie@ 100b0188     cg_consolecmds.obj
 0002:000111d8       ??_C@_0EC@MLJPNJNN@Bitflag?54?3?5?5Falls?1jumps?5from?5sma@ 100b01d8     cg_consolecmds.obj
 0002:00011220       ??_C@_0EA@EEIGFBGJ@Bitflag?52?3?5?5Falls?1jumps?5from?5sma@ 100b0220     cg_consolecmds.obj
 0002:00011260       ??_C@_0CF@FICAKCDL@Bitflag?51?3?5?5Cannot?5goomba?5teamma@ 100b0260     cg_consolecmds.obj
 0002:00011288       ??_C@_0EC@FOJHAHIF@This?5is?5a?5bitflag?5cvar?5that?5cont@ 100b0288     cg_consolecmds.obj
 0002:000112cc       ??_C@_02IFGANFKF@25?$AA@   100b02cc     cg_consolecmds.obj
 0002:000112d0       ??_C@_0O@LFEGLLO@g_goombaFlags?$AA@ 100b02d0     cg_consolecmds.obj
 0002:000112e0       ??_C@_0CE@CPJNEGKJ@Setting?5this?5to?50?5disables?5goomb@ 100b02e0     cg_consolecmds.obj
 0002:00011308       ??_C@_0ED@CNCNEGGD@The?5value?5of?5g_goomba?5is?5a?5multi@ 100b0308     cg_consolecmds.obj
 0002:0001134c       ??_C@_0DI@DNPNKJJK@Players?5can?5damage?5each?5other?5by@ 100b034c     cg_consolecmds.obj
 0002:00011384       ??_C@_08PPNKKDFI@g_goomba?$AA@ 100b0384     cg_consolecmds.obj
 0002:00011390       ??_C@_0CH@BFKDMKMC@Height?5boost?5gained?5by?5double?5ju@ 100b0390     cg_consolecmds.obj
 0002:000113b8       ??_C@_03BPNFCHDK@1?44?$AA@ 100b03b8     cg_consolecmds.obj
 0002:000113bc       ??_C@_0BD@JIOAMDFK@g_doubleJumpHeight?$AA@ 100b03bc     cg_consolecmds.obj
 0002:000113d0       ??_C@_0FK@LGBHIHBK@NOTE?3?5Value?52?5can?5be?5abused?5by?5p@ 100b03d0     cg_consolecmds.obj
 0002:00011430       ??_C@_0EK@LLFDHMCN@Value?52?3?5Enable?5Jaymod?5DJ?4?5?$CIInte@ 100b0430     cg_consolecmds.obj
 0002:00011480       ??_C@_0EO@NIJIGGKP@Value?51?3?5Enable?5DJ?4?5?$CIQuickly?5tap@ 100b0480     cg_consolecmds.obj
 0002:000114d0       ??_C@_0BO@FJJAFCKH@Value?50?3?5Disable?5double?5jump?4?$AA@ 100b04d0     cg_consolecmds.obj
 0002:000114f0       ??_C@_0BH@HJELEKMJ@Toggles?5double?5jumping?$AA@ 100b04f0     cg_consolecmds.obj
 0002:00011508       ??_C@_0N@BAECLCKG@g_doubleJump?$AA@ 100b0508     cg_consolecmds.obj
 0002:00011518       ??_C@_0EA@HACCBICO@ownership?5of?5a?5grenade?5or?5airstr@ 100b0518     cg_consolecmds.obj
 0002:00011558       ??_C@_0FF@PJIKDBBD@If?5canister?5kicking?5is?5set?5to?5a?5@ 100b0558     cg_consolecmds.obj
 0002:000115b0       ??_C@_0BE@HBJNMBGP@g_canisterKickOwner?$AA@ 100b05b0     cg_consolecmds.obj
 0002:000115c8       ??_C@_0EA@DMDLNMCI@Cans?5can?5be?5kicked?5with?5?$CLkick?5co@ 100b05c8     cg_consolecmds.obj
 0002:00011608       ??_C@_0CH@FOOKMIOI@Value?5of?5around?560?5?9?580?5is?5reaso@ 100b0608     cg_consolecmds.obj
 0002:00011630       ??_C@_0BF@CONDCLBH@Set?5to?50?5to?5disable?4?$AA@ 100b0630     cg_consolecmds.obj
 0002:00011648       ??_C@_0ED@NHBHJOPF@Sets?5the?5scale?5of?5kicking?5grenad@ 100b0648     cg_consolecmds.obj
 0002:0001168c       ??_C@_0P@HENHHEMP@g_canisterKick?$AA@ 100b068c     cg_consolecmds.obj
 0002:000116a0       ??_C@_0FE@OGDNNEEM@Bitflag?58?3?5Lvl?53?5Field?5Ops?5and?5h@ 100b06a0     cg_consolecmds.obj
 0002:000116f4       ??_C@_0BE@MCGANNNN@Bitflag?54?3?5Reserved?$AA@ 100b06f4     cg_consolecmds.obj
 0002:00011708       ??_C@_0II@BABKEMBB@Bitflag?52?3?5A?5player?5may?5easily?5b@ 100b0708     cg_consolecmds.obj
 0002:00011790       ??_C@_0EB@OCBBFIFP@Bitflag?51?3?5Make?5an?5announcement?5@ 100b0790     cg_consolecmds.obj
 0002:000117d4       ??_C@_0DD@BCAOCMGP@Settings?5related?5to?5blocking?5air@ 100b07d4     cg_consolecmds.obj
 0002:00011808       ??_C@_09PFEHHIOJ@g_asblock?$AA@ 100b0808     cg_consolecmds.obj
 0002:00011818       ??_C@_0KB@BNOCHFOE@This?5is?5done?5to?5avoid?5that?5one?5e@ 100b0818     cg_consolecmds.obj
 0002:000118c0       ??_C@_0IB@MIGAMBPA@Building?5objectives?5gives?5XP?5to?5@ 100b08c0     cg_consolecmds.obj
 0002:00011944       ??_C@_0BJ@KGEBAMAI@g_constructiblexpsharing?$AA@ 100b0944     cg_consolecmds.obj
 0002:00011960       ??_C@_0CL@IKBNMCKL@Value?52?3?5Left?5notification?5area?5@ 100b0960     cg_consolecmds.obj
 0002:0001198c       ??_C@_0BK@JGBGKJMM@Value?51?3?5Center?5of?5screen?$AA@ 100b098c     cg_consolecmds.obj
 0002:000119a8       ??_C@_0BD@KIHOFBJO@Value?50?3?5Chat?5area?$AA@ 100b09a8     cg_consolecmds.obj
 0002:000119c0       ??_C@_0FH@JLFAAJFJ@Change?5the?5location?5of?5banner?5me@ 100b09c0     cg_consolecmds.obj
 0002:00011a18       ??_C@_08MNJBBJPF@g_msgpos?$AA@ 100b0a18     cg_consolecmds.obj
 0002:00011a28       ??_C@_0FM@DGFIADKD@The?5first?5missing?5g_msgX?5cvar?5wi@ 100b0a28     cg_consolecmds.obj
 0002:00011a88       ??_C@_0EP@LKKGOJII@Duration?5between?5banner?5messages@ 100b0a88     cg_consolecmds.obj
 0002:00011ad8       ??_C@_06IAPIKDNG@g_msgs?$AA@ 100b0ad8     cg_consolecmds.obj
 0002:00011ae0       ??_C@_0CJ@CDKFEEEM@A?5value?5of?50?5will?5disable?5the?5an@ 100b0ae0     cg_consolecmds.obj
 0002:00011b0c       ??_C@_0CP@FMLOCKFM@Bitflag?5512?3?5Announce?5Killers?5HP@ 100b0b0c     cg_consolecmds.obj
 0002:00011b3c       ??_C@_0DG@BBKLOKMP@Bitflag?5256?3?5Disable?5mission?1obj@ 100b0b3c     cg_consolecmds.obj
 0002:00011b78       ??_C@_0GI@OGENCPCG@Bitflag?5128?3?5Announce?5mission?1ob@ 100b0b78     cg_consolecmds.obj
 0002:00011be0       ??_C@_0CB@NHEDFHNN@Bitflag?564?3?5?5Announce?5ban?5sound?4@ 100b0be0     cg_consolecmds.obj
 0002:00011c04       ??_C@_0CC@HKJBIMA@Bitflag?532?3?5?5Announce?5kick?5sound@ 100b0c04     cg_consolecmds.obj
 0002:00011c28       ??_C@_0CG@NNHAFIFK@Bitflag?516?3?5?5Announce?5first?5head@ 100b0c28     cg_consolecmds.obj
 0002:00011c50       ??_C@_0CD@GKHJOMPH@Bitflag?58?3?5?5?5Announce?5first?5bloo@ 100b0c50     cg_consolecmds.obj
 0002:00011c74       ??_C@_0CC@CELFDKOD@Bitflag?54?3?5?5?5Announce?5multikills@ 100b0c74     cg_consolecmds.obj
 0002:00011c98       ??_C@_0CE@LMECHHP@Bitflag?52?3?5?5?5Announce?5death?5spre@ 100b0c98     cg_consolecmds.obj
 0002:00011cbc       ??_C@_0CG@IBPLMIDB@Bitflag?51?3?5?5?5Announce?5killing?5sp@ 100b0cbc     cg_consolecmds.obj
 0002:00011ce4       ??_C@_0CB@OGFNPOBA@Enable?5or?5disable?5the?5announcer?4@ 100b0ce4     cg_consolecmds.obj
 0002:00011d08       ??_C@_03CBMECOON@127?$AA@  100b0d08     cg_consolecmds.obj
 0002:00011d0c       ??_C@_0M@CGNGDBAE@g_announcer?$AA@ 100b0d0c     cg_consolecmds.obj
 0002:00011d18       ??_C@_0HF@ELJEMACD@If?5g_multilkillTime?5milliseconds@ 100b0d18     cg_consolecmds.obj
 0002:00011d90       ??_C@_0GA@BONOABNG@The?5time?0?5in?5milliseconds?0?5that?5@ 100b0d90     cg_consolecmds.obj
 0002:00011df0       ??_C@_04KOJKLCBG@1000?$AA@ 100b0df0     cg_consolecmds.obj
 0002:00011df8       ??_C@_0BA@COMKKCBK@g_multikillTime?$AA@ 100b0df8     cg_consolecmds.obj
 0002:00011e08       ??_C@_0GC@FLCCCNMN@Allows?5players?5to?5send?5each?5othe@ 100b0e08     cg_consolecmds.obj
 0002:00011e6c       ??_C@_0BC@DODNLFAD@g_privateMessages?$AA@ 100b0e6c     cg_consolecmds.obj
 0002:00011e80       ??_C@_0FL@OJPIDALA@The?5number?5of?5succesive?5voice?9co@ 100b0e80     cg_consolecmds.obj
 0002:00011edc       ??_C@_0BE@BDBEPCAK@g_voiceChatsAllowed?$AA@ 100b0edc     cg_consolecmds.obj
 0002:00011ef0       ??_C@_0DO@ODFCHADK@These?5are?5custom?5chat?5messages?5c@ 100b0ef0     cg_consolecmds.obj
 0002:00011f30       ??_C@_0FI@OALBPGPJ@The?5number?5of?5succesive?5voice?9ch@ 100b0f30     cg_consolecmds.obj
 0002:00011f88       ??_C@_0N@NPJFLOIB@g_customChat?$AA@ 100b0f88     cg_consolecmds.obj
 0002:00011f98       ??_C@_0EF@PPAIEKPO@Customizes?5Stopwatch?5mode?5?$CIonly?5@ 100b0f98     cg_consolecmds.obj
 0002:00011fe0       ??_C@_0BD@LIMLEDHE@g_altStopwatchMode?$AA@ 100b0fe0     cg_consolecmds.obj
 0002:00011ff4       ??_C@_0CE@CMINHPEB@Used?5for?5stopwatch?5and?5LMS?5match@ 100b0ff4     cg_consolecmds.obj
 0002:00012018       ??_C@_0P@FFABOEHE@g_currentRound?$AA@ 100b1018     cg_consolecmds.obj
 0002:00012028       ??_C@_0HE@BNPNNMKC@Set?5this?5if?5your?5server?5runs?5obj@ 100b1028     cg_consolecmds.obj
 0002:000120a0       ??_C@_0EJ@JCHEEAHH@Specifies?5the?5name?5of?5the?5used?5c@ 100b10a0     cg_consolecmds.obj
 0002:000120ec       ??_C@_0P@NNMCILCK@g_campaignFile?$AA@ 100b10ec     cg_consolecmds.obj
 0002:00012100       ??_C@_0FM@JICHHLLB@Specifies?5the?5command?5that?5is?5ex@ 100b1100     cg_consolecmds.obj
 0002:0001215c       ??_C@_0N@MDFKKCIH@nextcampaign?$AA@ 100b115c     cg_consolecmds.obj
 0002:0001216c       ??_C@_0DC@OKOOCNKH@This?5cvar?5is?5usually?5set?5by?5map?5@ 100b116c     cg_consolecmds.obj
 0002:000121a0       ??_C@_0FH@CENIHIGF@Specifies?5the?5command?5that?5is?5ex@ 100b11a0     cg_consolecmds.obj
 0002:000121f8       ??_C@_07MCHHMPMB@nextmap?$AA@ 100b11f8     cg_consolecmds.obj
 0002:00012200       ??_C@_0BM@HHOPHAKD@Used?5for?5stopwatch?5matches?4?$AA@ 100b1200     cg_consolecmds.obj
 0002:0001221c       ??_C@_0BA@MODEPICF@g_nextTimeLimit?$AA@ 100b121c     cg_consolecmds.obj
 0002:00012230       ??_C@_0EF@OKOBFMFL@and?5the?5time?5that?5has?5already?5pa@ 100b1230     cg_consolecmds.obj
 0002:00012278       ??_C@_0GA@MMFKBIG@You?5can?5change?5this?5cvar?5during?5@ 100b1278     cg_consolecmds.obj
 0002:000122d8       ??_C@_0CH@NOBBDHMO@Sets?5the?5timelimit?5of?5the?5curren@ 100b12d8     cg_consolecmds.obj
 0002:00012300       ??_C@_09KPHKOKCC@timelimit?$AA@ 100b1300     cg_consolecmds.obj
 0002:0001230c       ??_C@_0BP@DJNAONOG@See?5also?5g_spectatorInactivity?$AA@ 100b130c     cg_consolecmds.obj
 0002:0001232c       ??_C@_0DO@MDFAIBAJ@If?5enabled?0?5a?5warning?5message?5is@ 100b132c     cg_consolecmds.obj
 0002:00012370       ??_C@_0HP@OBALKOLB@Time?0?5in?5seconds?0?5a?5player?5can?5s@ 100b1370     cg_consolecmds.obj
 0002:000123f0       ??_C@_0N@JGEKALLI@g_inactivity?$AA@ 100b13f0     cg_consolecmds.obj
 0002:00012400       ??_C@_0BG@GEMODJKF@See?5also?5g_inactivity?$AA@ 100b1400     cg_consolecmds.obj
 0002:00012418       ??_C@_0EB@FLLKNKFI@If?5enabled?0?5a?5warning?5message?5is@ 100b1418     cg_consolecmds.obj
 0002:00012460       ??_C@_0FE@PIJFFMDG@Time?0?5in?5seconds?0?5a?5spectator?5ca@ 100b1460     cg_consolecmds.obj
 0002:000124b4       ??_C@_0BG@IHLEGKDD@g_spectatorInactivity?$AA@ 100b14b4     cg_consolecmds.obj
 0002:000124cc       ??_C@_0CH@CHNMEMCL@If?5set?5to?50?0?5g_banIPs?5will?5be?5ig@ 100b14cc     cg_consolecmds.obj
 0002:000124f4       ??_C@_0BE@MIBMFLFC@Toggles?5IP?5banning?4?$AA@ 100b14f4     cg_consolecmds.obj
 0002:00012508       ??_C@_0M@NIKBMNDP@g_filterBan?$AA@ 100b1508     cg_consolecmds.obj
 0002:00012514       ??_C@_0BG@EPDNLHMB@See?5also?5g_filterBan?4?$AA@ 100b1514     cg_consolecmds.obj
 0002:00012530       ??_C@_0FG@KAOEHAPB@You?5can?5ban?5IP?5ranges?5by?5adding?5@ 100b1530     cg_consolecmds.obj
 0002:00012588       ??_C@_0DH@OKKMKFIN@Use?5?1rcon?5removeip?5?$DMip?$DO?5to?5remov@ 100b1588     cg_consolecmds.obj
 0002:000125c0       ??_C@_0CP@HLBLGCL@Use?5?1rcon?5addip?5?$DMip?$DO?5to?5add?5an?5I@ 100b15c0     cg_consolecmds.obj
 0002:000125f0       ??_C@_0DP@JFDPHLLF@A?5comma?5delimited?5list?5of?5IPs?5th@ 100b15f0     cg_consolecmds.obj
 0002:00012630       ??_C@_08NKMDLNHL@g_banIPs?$AA@ 100b1630     cg_consolecmds.obj
 0002:0001263c       ??_C@_0DM@DCCDBLCO@The?5number?5of?5seconds?5kicked?5for@ 100b163c     cg_consolecmds.obj
 0002:00012678       ??_C@_04GLCOJKPJ@1800?$AA@ 100b1678     cg_consolecmds.obj
 0002:00012680       ??_C@_0BC@HNNJLDK@g_autoTempBanTime?$AA@ 100b1680     cg_consolecmds.obj
 0002:00012698       ??_C@_0EK@CIHPKAFB@Bitflag?54?3?5Tempban?5when?5someone?5@ 100b1698     cg_consolecmds.obj
 0002:000126e8       ??_C@_0FJ@JLEDNNDA@Bitflag?52?3?5Tempban?5when?5someone?5@ 100b16e8     cg_consolecmds.obj
 0002:00012744       ??_C@_0DK@GIJHELAA@Bitflag?51?3?5Tempban?5when?5reaching@ 100b1744     cg_consolecmds.obj
 0002:00012780       ??_C@_0GP@MPAKMPIE@When?5set?0?5anyone?5kicked?5for?5the?5@ 100b1780     cg_consolecmds.obj
 0002:000127f0       ??_C@_0O@GPHIOBGJ@g_autoTempBan?$AA@ 100b17f0     cg_consolecmds.obj
 0002:00012800       ??_C@_0CF@OHPFGDKD@Medics?5get?5?92?5hits?5for?5every?5rev@ 100b1800     cg_consolecmds.obj
 0002:00012828       ??_C@_0DO@GIACDMPJ@Flamethrower?5and?5landmine?5hits?5a@ 100b1828     cg_consolecmds.obj
 0002:00012868       ??_C@_0HF@NKPDPMMO@Minimum?5number?5of?5damaging?5hits?5@ 100b1868     cg_consolecmds.obj
 0002:000128e0       ??_C@_09JMNMJFOJ@g_minHits?$AA@ 100b18e0     cg_consolecmds.obj
 0002:000128ec       ??_C@_0DN@GICOLPAH@Sets?5the?5amount?5of?5ammo?5packs?5a?5@ 100b18ec     cg_consolecmds.obj
 0002:0001292c       ??_C@_0L@DCBLBGNJ@g_dropAmmo?$AA@ 100b192c     cg_consolecmds.obj
 0002:00012938       ??_C@_0DH@NICPNNPN@Sets?5the?5amount?5of?5medpacks?5a?5Me@ 100b1938     cg_consolecmds.obj
 0002:00012970       ??_C@_0N@PEHMFNGO@g_dropHealth?$AA@ 100b1970     cg_consolecmds.obj
 0002:00012980       ??_C@_0FD@MBAEMKNK@The?5amount?5of?5time?5in?5millisecon@ 100b1980     cg_consolecmds.obj
 0002:000129d4       ??_C@_05CLDMBJBA@10000?$AA@ 100b19d4     cg_consolecmds.obj
 0002:000129dc       ??_C@_0BE@MPKOCMPH@g_healthCabinetTime?$AA@ 100b19dc     cg_consolecmds.obj
 0002:000129f0       ??_C@_0FC@DBDCCOPH@The?5amount?5of?5time?5in?5millisecon@ 100b19f0     cg_consolecmds.obj
 0002:00012a44       ??_C@_05DGDJCJKI@60000?$AA@ 100b1a44     cg_consolecmds.obj
 0002:00012a4c       ??_C@_0BC@IFDIKBHP@g_ammoCabinetTime?$AA@ 100b1a4c     cg_consolecmds.obj
 0002:00012a60       ??_C@_0EN@FMMENAOK@Removes?5a?5player?8s?5spawn?5shield?5@ 100b1a60     cg_consolecmds.obj
 0002:00012ab0       ??_C@_0BA@DOAJAFEB@g_noAttackInvul?$AA@ 100b1ab0     cg_consolecmds.obj
 0002:00012ac0       ??_C@_0ED@PGDNIEPB@The?5number?5of?5seconds?5players?5wi@ 100b1ac0     cg_consolecmds.obj
 0002:00012b04       ??_C@_0N@LBBKMIGC@g_spawnInvul?$AA@ 100b1b04     cg_consolecmds.obj
 0002:00012b14       ??_C@_0BC@DNDKBMOL@Bitflag?54?3?5Mortar?$AA@ 100b1b14     cg_consolecmds.obj
 0002:00012b28       ??_C@_0BP@HJPPGJBH@Bitflag?52?3?5Airstrike?1Artillery?$AA@ 100b1b28     cg_consolecmds.obj
 0002:00012b48       ??_C@_0BB@OGIKMNCJ@Bitflag?51?3?5Mines?$AA@ 100b1b48     cg_consolecmds.obj
 0002:00012b60       ??_C@_0EL@NLDCFAFD@Bitflag?5variable?5for?5disabling?5c@ 100b1b60     cg_consolecmds.obj
 0002:00012bac       ??_C@_0BE@GAFKEHOH@g_disableComplaints?$AA@ 100b1bac     cg_consolecmds.obj
 0002:00012bc0       ??_C@_0EM@FPHMBKNP@Kicks?5player?5after?5complaints?5fi@ 100b1bc0     cg_consolecmds.obj
 0002:00012c0c       ??_C@_0BD@CINOEDMN@g_ipcomplaintlimit?$AA@ 100b1c0c     cg_consolecmds.obj
 0002:00012c20       ??_C@_0EJ@DGPCGEJD@The?5number?5of?5complaints?5that?5ha@ 100b1c20     cg_consolecmds.obj
 0002:00012c6c       ??_C@_0BB@KACLAGKJ@g_complaintlimit?$AA@ 100b1c6c     cg_consolecmds.obj
 0002:00012c80       ??_C@_0GA@BGHPHKNN@If?5g_censorPenalty?5contains?5flag@ 100b1c80     cg_consolecmds.obj
 0002:00012ce0       ??_C@_0BB@LGPDPBFA@g_censorMuteTime?$AA@ 100b1ce0     cg_consolecmds.obj
 0002:00012cf4       ??_C@_0BE@JONHIACF@Bitflag?564?3?5Poison?4?$AA@ 100b1cf4     cg_consolecmds.obj
 0002:00012d08       ??_C@_0BC@FCAPGFAN@Bitflag?532?3?5Burn?4?$AA@ 100b1d08     cg_consolecmds.obj
 0002:00012d1c       ??_C@_0BI@KIBDGPHF@Bitflag?516?3?5Lose?510?5XP?4?$AA@ 100b1d1c     cg_consolecmds.obj
 0002:00012d34       ??_C@_0DE@GPJLALMM@Bitflag?58?3?5?5Auto?9mute?5for?5g_cens@ 100b1d34     cg_consolecmds.obj
 0002:00012d68       ??_C@_0EI@BOIDNAPA@Bitflag?54?3?5?5Kill?5player?0?5but?5don@ 100b1d68     cg_consolecmds.obj
 0002:00012db0       ??_C@_0EH@GBKHFFCH@Bitflag?52?3?5?5Kick?5players?5with?5na@ 100b1db0     cg_consolecmds.obj
 0002:00012df8       ??_C@_0BI@EAFAFNBO@Bitflag?51?3?5?5Gib?5player?4?$AA@ 100b1df8     cg_consolecmds.obj
 0002:00012e10       ??_C@_0DJ@OEMMAMJI@Sets?5the?5penalty?5for?5saying?5a?5wo@ 100b1e10     cg_consolecmds.obj
 0002:00012e4c       ??_C@_0BA@HAGGPANJ@g_censorPenalty?$AA@ 100b1e4c     cg_consolecmds.obj
 0002:00012e5c       ??_C@_0DO@NPCDLBIB@Note?3?5Internally?5some?5bad?5user?5n@ 100b1e5c     cg_consolecmds.obj
 0002:00012ea0       ??_C@_0EL@LJBICGCK@A?5comma?5delimited?5string?5of?5word@ 100b1ea0     cg_consolecmds.obj
 0002:00012eec       ??_C@_0O@PBJPEEBA@g_censorNames?$AA@ 100b1eec     cg_consolecmds.obj
 0002:00012f00       ??_C@_0ED@BBLJJGMM@A?5comma?5delimited?5string?5of?5word@ 100b1f00     cg_consolecmds.obj
 0002:00012f44       ??_C@_08EOJPHPPA@g_censor?$AA@ 100b1f44     cg_consolecmds.obj
 0002:00012f50       ??_C@_0FA@HEDHLGE@If?5set?0?5clients?5can?5perform?5acti@ 100b1f50     cg_consolecmds.obj
 0002:00012fa0       ??_C@_0N@LLGKIHEJ@rconpassword?$AA@ 100b1fa0     cg_consolecmds.obj
 0002:00012fb0       ??_C@_0DG@DGBPMGJF@To?5become?5a?5referee?0?5use?5?1ref?5?$DMr@ 100b1fb0     cg_consolecmds.obj
 0002:00012fe8       ??_C@_0BL@IIHNOJGN@Sets?5the?5Referee?9password?4?$AA@ 100b1fe8     cg_consolecmds.obj
 0002:00013004       ??_C@_0BA@MDLCADNC@refereePassword?$AA@ 100b2004     cg_consolecmds.obj
 0002:00013018       ??_C@_0GB@KHJFHEEK@To?5connect?5to?5a?5private?5slot?0?5se@ 100b2018     cg_consolecmds.obj
 0002:00013080       ??_C@_0FJ@LEEOBOBA@Specifies?5the?5password?5that?5clie@ 100b2080     cg_consolecmds.obj
 0002:000130dc       ??_C@_0BD@PEINCMJG@sv_privatepassword?$AA@ 100b20dc     cg_consolecmds.obj
 0002:000130f0       ??_C@_0EH@LBLFFNI@In?5order?5to?5use?5this?5feature?0?5yo@ 100b20f0     cg_consolecmds.obj
 0002:00013138       ??_C@_0FK@GGHOKJBJ@This?5gives?5server?5owners?5the?5opp@ 100b2138     cg_consolecmds.obj
 0002:00013198       ??_C@_0GN@MBGDNCCP@If?5greater?5than?50?0?5this?5amount?5o@ 100b2198     cg_consolecmds.obj
 0002:00013208       ??_C@_0BC@OJDBBDEF@sv_privateclients?$AA@ 100b2208     cg_consolecmds.obj
 0002:00013220       ??_C@_0HI@HGEHFEBK@If?5g_password?5is?5set?0?5g_needpass@ 100b2220     cg_consolecmds.obj
 0002:00013298       ??_C@_0L@MLCEEGBP@g_needpass?$AA@ 100b2298     cg_consolecmds.obj
 0002:000132a4       ??_C@_0CM@EIPAICML@The?5related?5client?9side?5cvar?5is?5@ 100b22a4     cg_consolecmds.obj
 0002:000132d0       ??_C@_0EJ@FJGMDDH@If?5set?0?5clients?5need?5to?5enter?5th@ 100b22d0     cg_consolecmds.obj
 0002:0001331c       ??_C@_0L@GHAPAPFD@g_password?$AA@ 100b231c     cg_consolecmds.obj
 0002:00013328       ??_C@_0FB@OEJAHFCC@If?5enabled?3?5In?5case?5a?5client?5is?5@ 100b2328     cg_consolecmds.obj
 0002:0001337c       ??_C@_0BB@KADNKIKD@g_skipCorrection?$AA@ 100b237c     cg_consolecmds.obj
 0002:00013390       ??_C@_0EA@DCIIAMJN@Pings?5can?5fluctuate?5a?5lot?0?5and?5t@ 100b2390     cg_consolecmds.obj
 0002:000133d0       ??_C@_0EB@JLEFNNBM@Use?5a?5number?5of?5ping?9samples?5to?5@ 100b23d0     cg_consolecmds.obj
 0002:00013414       ??_C@_0L@BGBDBJDE@g_truePing?$AA@ 100b2414     cg_consolecmds.obj
 0002:00013420       ??_C@_0DF@KJEHPPAM@Note?3?5It?5is?5highly?5unadvisable?5t@ 100b2420     cg_consolecmds.obj
 0002:00013458       ??_C@_0BO@GNJFLEBF@The?5server?5Frames?5Per?5Second?4?$AA@ 100b2458     cg_consolecmds.obj
 0002:00013478       ??_C@_06JGIFLGEL@sv_fps?$AA@ 100b2478     cg_consolecmds.obj
 0002:00013480       ??_C@_03BDPCEMGP@125?$AA@  100b2480     cg_consolecmds.obj
 0002:00013484       ??_C@_0BC@IPOJOJJB@g_fixedphysicsfps?$AA@ 100b2484     cg_consolecmds.obj
 0002:00013498       ??_C@_0P@GHDKIEHL@g_fixedphysics?$AA@ 100b2498     cg_consolecmds.obj
 0002:000134a8       ??_C@_09HCBIDNMF@g_maxWarp?$AA@ 100b24a8     cg_consolecmds.obj
 0002:000134b8       ??_C@_0JB@PACHONBB@We?5recommend?5value?5of?52?5for?5low?9@ 100b24b8     cg_consolecmds.obj
 0002:0001354c       ??_C@_0BN@JIBLLKAJ@Value?52?3?5Enables?5NQ?5antiwarp?$AA@ 100b254c     cg_consolecmds.obj
 0002:0001356c       ??_C@_0CE@IMDJNPEL@Value?51?3?5Enables?5?$CIcommon?$CJ?5antiwa@ 100b256c     cg_consolecmds.obj
 0002:00013590       ??_C@_0BM@HAKJNIFE@Value?50?3?5Disables?5antiwarp?4?$AA@ 100b2590     cg_consolecmds.obj
 0002:000135ac       ??_C@_0BF@HLAMPAHE@Customizes?5AntiWarp?4?$AA@ 100b25ac     cg_consolecmds.obj
 0002:000135c4       ??_C@_0L@KMAPPENI@g_antiwarp?$AA@ 100b25c4     cg_consolecmds.obj
 0002:000135d0       ??_C@_0CJ@JDEKOAPL@Value?52?3?5Enables?5antilag?5by?5atta@ 100b25d0     cg_consolecmds.obj
 0002:000135fc       ??_C@_0CJ@GGFGGPLI@Value?51?3?5Enables?5antilag?5by?5serv@ 100b25fc     cg_consolecmds.obj
 0002:00013628       ??_C@_0BK@OBENNGFA@Value?50?3?5Disable?5antilag?4?$AA@ 100b2628     cg_consolecmds.obj
 0002:00013644       ??_C@_0BE@EIOIGANH@Customizes?5AntiLag?4?$AA@ 100b2644     cg_consolecmds.obj
 0002:00013658       ??_C@_09FDKFNPJN@g_antilag?$AA@ 100b2658     cg_consolecmds.obj
 0002:00013664       ??_C@_0L@JLBEBBAD@pmove_msec?$AA@ 100b2664     cg_consolecmds.obj
 0002:00013670       ??_C@_0M@HOGKGHBI@pmove_fixed?$AA@ 100b2670     cg_consolecmds.obj
 0002:00013680       ??_C@_0EG@IFPGDHNM@Value?51?3?5Players?5spawn?5at?5random@ 100b2680     cg_consolecmds.obj
 0002:000136c8       ??_C@_0DP@HIEDMGIK@Value?50?3?5Players?5spawn?5at?5closes@ 100b26c8     cg_consolecmds.obj
 0002:00013708       ??_C@_0CD@PGMDNIPI@Controls?5player?5spawning?5behavio@ 100b2708     cg_consolecmds.obj
 0002:0001372c       ??_C@_0BC@IMCPCNIL@nq_playerspawning?$AA@ 100b272c     cg_consolecmds.obj
 0002:00013740       ??_C@_0FG@PMDODLH@Do?5not?5use?5g_useralliedrespawnti@ 100b2740     cg_consolecmds.obj
 0002:00013798       ??_C@_0FC@CEOCGFNM@Do?5not?5use?5g_useraxisrespawntime@ 100b2798     cg_consolecmds.obj
 0002:000137f0       ??_C@_0HN@PKMEBOML@Note?3?5This?5CVAR?5has?5no?5effect?5wh@ 100b27f0     cg_consolecmds.obj
 0002:00013870       ??_C@_0HB@BJJEDILI@Example?3?5If?5set?5to?5a?5value?5of?56?0@ 100b2870     cg_consolecmds.obj
 0002:000138e8       ??_C@_0GE@GBMCBMOE@Example?3?5If?5set?5to?5a?5value?5of?510@ 100b28e8     cg_consolecmds.obj
 0002:00013950       ??_C@_0HN@BIBJFNHL@If?5set?5to?5a?5value?5?$DO?50?0?5and?5there@ 100b2950     cg_consolecmds.obj
 0002:000139d0       ??_C@_0FB@KIGLPBDC@Sets?5the?5minimum?5number?5of?5playe@ 100b29d0     cg_consolecmds.obj
 0002:00013a24       ??_C@_0BG@EMNIEENP@g_spawntimeMinPlayers?$AA@ 100b2a24     cg_consolecmds.obj
 0002:00013a3c       ??_C@_0CF@BLPGHHFB@Sets?5respawn?5time?5for?5the?5Axis?5t@ 100b2a3c     cg_consolecmds.obj
 0002:00013a64       ??_C@_0BG@KLIHGOKO@g_userAxisRespawnTime?$AA@ 100b2a64     cg_consolecmds.obj
 0002:00013a7c       ??_C@_0CO@ILBKHEPF@This?5will?5override?5any?5existing?5@ 100b2a7c     cg_consolecmds.obj
 0002:00013aac       ??_C@_0DL@NCNDHHMG@Times?5are?5in?5milliseconds?4?5?$CI1?5se@ 100b2aac     cg_consolecmds.obj
 0002:00013ae8       ??_C@_0CH@DGJNBEPM@Sets?5respawn?5time?5for?5the?5Allied@ 100b2ae8     cg_consolecmds.obj
 0002:00013b10       ??_C@_0BI@CLHDKAHK@g_userAlliedRespawnTime?$AA@ 100b2b10     cg_consolecmds.obj
 0002:00013b28       ??_C@_0BA@IJFOKAPC@g_userTimeLimit?$AA@ 100b2b28     cg_consolecmds.obj
 0002:00013b38       ??_C@_0CD@DIOJJOGE@?5?5sv_cvar?5m_pitch?5OUT?5?90?4011?50?40@ 100b2b38     cg_consolecmds.obj
 0002:00013b5c       ??_C@_0CC@ENLMBPAC@?5?5sv_cvar?5cl_maxpackets?5IN?520?510@ 100b2b5c     cg_consolecmds.obj
 0002:00013b80       ??_C@_0BI@NILAIPEM@?5?5forcecvar?5r_wolffog?51?$AA@ 100b2b80     cg_consolecmds.obj
 0002:00013b98       ??_C@_0CG@HGHFEAJL@Some?5examples?5of?5entries?5in?5the?5@ 100b2b98     cg_consolecmds.obj
 0002:00013bc0       ??_C@_0EK@MFCGKAHK@All?5the?5settings?5will?5also?5be?5ch@ 100b2bc0     cg_consolecmds.obj
 0002:00013c10       ??_C@_0EI@KEOJBCDH@If?5this?5cvar?5is?5set?0?5the?5given?5f@ 100b2c10     cg_consolecmds.obj
 0002:00013c58       ??_C@_0LE@PJPDCILB@Put?5the?5file?5into?5fs_homepath?4?5T@ 100b2c58     cg_consolecmds.obj
 0002:00013d0c       ??_C@_0DJ@IHMBNMJI@Sets?5the?5filename?5with?5forced?5cv@ 100b2d0c     cg_consolecmds.obj
 0002:00013d48       ??_C@_0BA@IFENIBDF@g_ForceCvarFile?$AA@ 100b2d48     cg_consolecmds.obj
 0002:00013d58       ??_C@_0P@GLONNKG@g_customConfig?$AA@ 100b2d58     cg_consolecmds.obj
 0002:00013d68       ??_C@_0GD@MGHDCLAE@You?5should?5also?5create?5a?5default@ 100b2d68     cg_consolecmds.obj
 0002:00013dd0       ??_C@_0HA@LKNMFKGI@The?5config?5file?5for?5a?5map?5has?5to@ 100b2dd0     cg_consolecmds.obj
 0002:00013e40       ??_C@_0DJ@JLKBJJFI@Allows?5you?5to?5execute?5a?5custom?5c@ 100b2e40     cg_consolecmds.obj
 0002:00013e80       ??_C@_0HI@OLAIJDGA@Relative?5path?5to?5the?5directory?5t@ 100b2e80     cg_consolecmds.obj
 0002:00013ef8       ??_C@_0N@GJOGINHO@g_mapConfigs?$AA@ 100b2ef8     cg_consolecmds.obj
 0002:00013f08       ??_C@_0DD@HOEFAAJE@This?5provides?5a?5way?5to?5edit?5weap@ 100b2f08     cg_consolecmds.obj
 0002:00013f40       ??_C@_0GN@PHMEGNKB@Relative?5path?5to?5the?5directory?5t@ 100b2f40     cg_consolecmds.obj
 0002:00013fb0       ??_C@_0BD@NOMNKFKK@g_weaponScriptsDir?$AA@ 100b2fb0     cg_consolecmds.obj
 0002:00013fc4       ??_C@_0CL@JMLGOKLJ@Similar?5to?5ETPro?8s?5?$CCb_mapScripts@ 100b2fc4     cg_consolecmds.obj
 0002:00013ff0       ??_C@_0HA@HCOKGJCC@Relative?5path?5to?5the?5directory?5t@ 100b2ff0     cg_consolecmds.obj
 0002:00014060       ??_C@_0BF@GPIPIGKE@g_mapScriptDirectory?$AA@ 100b3060     cg_consolecmds.obj
 0002:00014078       ??_C@_0FN@CGIEEPBC@If?5set?0?5the?5specified?5mapscript?5@ 100b3078     cg_consolecmds.obj
 0002:000140d8       ??_C@_0N@MBACFFGH@g_scriptName?$AA@ 100b30d8     cg_consolecmds.obj
 0002:000140e8       ??_C@_0DE@JGFIMMOB@Mapscript?5example?3?5print?5?$DM?1scrip@ 100b30e8     cg_consolecmds.obj
 0002:00014120       ??_C@_0JE@OBINNEIA@If?5a?5mapscript?5tries?5to?5print?5st@ 100b3120     cg_consolecmds.obj
 0002:000141b4       ??_C@_0CC@GPCFPJIN@For?5mapscript?5debugging?5purposes@ 100b31b4     cg_consolecmds.obj
 0002:000141d8       ??_C@_0BD@DJHJNPMA@g_scriptDebugLevel?$AA@ 100b31d8     cg_consolecmds.obj
 0002:000141ec       ??_C@_0DM@OHNCKNHC@Toggles?5script?5debugging?5info?4?5S@ 100b31ec     cg_consolecmds.obj
 0002:00014228       ??_C@_0O@OJPFDNEO@g_scriptDebug?$AA@ 100b3228     cg_consolecmds.obj
 0002:00014238       ??_C@_0CF@GLNIOCAC@Value?513?3?5Display?5gamemodel?5hitb@ 100b3238     cg_consolecmds.obj
 0002:00014260       ??_C@_0CJ@KGDDIBBD@Value?512?3?5Display?5miscellaneous?5@ 100b3260     cg_consolecmds.obj
 0002:0001428c       ??_C@_0CP@MPHEKHFG@Value?511?3?5Display?5health?1ammo?5ca@ 100b328c     cg_consolecmds.obj
 0002:000142bc       ??_C@_0CD@IDHEIKMN@Value?510?3?5Display?5trigger?5hitbox@ 100b32bc     cg_consolecmds.obj
 0002:000142e0       ??_C@_0CJ@EMIAFHMD@Value?59?3?5?5Display?5constructible?5@ 100b32e0     cg_consolecmds.obj
 0002:0001430c       ??_C@_0DL@FCPPBNOI@Value?58?3?5?5Display?5static?5weapon?5@ 100b330c     cg_consolecmds.obj
 0002:00014348       ??_C@_0CB@HFOAJNPP@Value?57?3?5?5Display?5mover?5hitboxes@ 100b3348     cg_consolecmds.obj
 0002:0001436c       ??_C@_0CA@NFLHGIOH@Value?56?3?5?5Display?5item?5hitboxes?$AA@ 100b336c     cg_consolecmds.obj
 0002:0001438c       ??_C@_0CN@BJCFHBOF@Value?55?3?5?5Display?5destructible?5i@ 100b338c     cg_consolecmds.obj
 0002:000143bc       ??_C@_0CD@IONNNGHD@Value?54?3?5?5Display?5missile?5hitbox@ 100b33bc     cg_consolecmds.obj
 0002:000143e0       ??_C@_0CN@LNLGHIDH@Value?53?3?5?5Display?5player?5and?5cor@ 100b33e0     cg_consolecmds.obj
 0002:00014410       ??_C@_0CC@IKHAFDM@Value?52?3?5?5Display?5player?5hitboxe@ 100b3410     cg_consolecmds.obj
 0002:00014434       ??_C@_0CC@KHJACBL@Value?51?3?5?5Display?5player?5hitboxe@ 100b3434     cg_consolecmds.obj
 0002:00014458       ??_C@_0FJ@HDPNENGO@Turn?5on?5visual?5hitboxes?4?5NOT?5REC@ 100b3458     cg_consolecmds.obj
 0002:000144b4       ??_C@_0BA@PLHFJHFA@g_debugHitboxes?$AA@ 100b34b4     cg_consolecmds.obj
 0002:000144c4       ??_C@_0DB@NNEGLOEG@This?5needs?5to?5be?5set?5to?5enable?5s@ 100b34c4     cg_consolecmds.obj
 0002:000144f8       ??_C@_0CI@NIFJADO@Sets?5the?5name?5of?5the?5shrubbot?5lo@ 100b34f8     cg_consolecmds.obj
 0002:00014520       ??_C@_0L@IFIHDDLN@g_logAdmin?$AA@ 100b3520     cg_consolecmds.obj
 0002:00014530       ??_C@_0EP@BJDMHPFB@Bitflag?52048?3?5?5Log?5the?5level?5tim@ 100b3530     cg_consolecmds.obj
 0002:00014580       ??_C@_0FN@INDCJKPN@Bitflag?51024?3?5?5Log?5IP?5and?5player@ 100b3580     cg_consolecmds.obj
 0002:000145e0       ??_C@_0CH@JEEHEFCJ@Bitflag?5512?3?5?5?5Real?5time?5stamps?5@ 100b35e0     cg_consolecmds.obj
 0002:00014608       ??_C@_0CJ@CBAJNBII@Bitflag?5256?3?5?5?5Log?5all?5private?5m@ 100b3608     cg_consolecmds.obj
 0002:00014634       ??_C@_0BO@LONCGNLA@Bitflag?5128?3?5?5?5Log?5the?5GUIDs?4?$AA@ 100b3634     cg_consolecmds.obj
 0002:00014658       ??_C@_0EC@GOFHAOH@Bitflag?532?3?5?5?5?5Log?5script?5events@ 100b3658     cg_consolecmds.obj
 0002:0001469c       ??_C@_0CA@KCJKAPHK@Bitflag?516?3?5?5?5?5Log?5item?5pickups?$AA@ 100b369c     cg_consolecmds.obj
 0002:000146bc       ??_C@_0DF@LLDCDBBG@Bitflag?58?3?5?5?5?5?5Log?5chats?5in?5main@ 100b36bc     cg_consolecmds.obj
 0002:000146f4       ??_C@_0CJ@PEDINODG@Bitflag?54?3?5?5?5?5?5Log?5bot?5initiated@ 100b36f4     cg_consolecmds.obj
 0002:00014720       ??_C@_0CL@BDFOFOGB@Bitflag?52?3?5?5?5?5?5Log?5client?5userin@ 100b3720     cg_consolecmds.obj
 0002:0001474c       ??_C@_0CP@MCFPJMBN@Bitflag?51?3?5?5?5?5?5Server?5puts?5obitu@ 100b374c     cg_consolecmds.obj
 0002:0001477c       ??_C@_0BO@BDKHJFHC@Sets?5options?5for?5console?5log?4?$AA@ 100b377c     cg_consolecmds.obj
 0002:0001479c       ??_C@_0N@LCJOGGKC@g_logOptions?$AA@ 100b379c     cg_consolecmds.obj
 0002:000147ac       ??_C@_0CO@CNELKFDD@This?5needs?5to?5be?5set?5to?5enable?5c@ 100b37ac     cg_consolecmds.obj
 0002:000147dc       ??_C@_0CF@KIJIKGDM@Sets?5the?5name?5of?5the?5crash?5log?5f@ 100b37dc     cg_consolecmds.obj
 0002:00014804       ??_C@_09LLKAIMKO@crash?4log?$AA@ 100b3804     cg_consolecmds.obj
 0002:00014810       ??_C@_0L@CKNCMOAM@g_logCrash?$AA@ 100b3810     cg_consolecmds.obj
 0002:00014820       ??_C@_0FI@CKABMLAK@Value?51?3?5Write?5events?5to?5log?5fil@ 100b3820     cg_consolecmds.obj
 0002:00014878       ??_C@_0FG@JAKANKD@Value?50?3?5Write?5events?5to?5log?5fil@ 100b3878     cg_consolecmds.obj
 0002:000148d0       ??_C@_09IPDDEHO@g_logSync?$AA@ 100b38d0     cg_consolecmds.obj
 0002:000148dc       ??_C@_0CN@DGNJNBJH@This?5needs?5to?5be?5set?5to?5enable?5c@ 100b38dc     cg_consolecmds.obj
 0002:0001490c       ??_C@_0CE@BAKIDLMK@Sets?5the?5name?5of?5the?5chat?5log?5fi@ 100b390c     cg_consolecmds.obj
 0002:00014930       ??_C@_09IOGJFAKN@g_logChat?$AA@ 100b3930     cg_consolecmds.obj
 0002:0001493c       ??_C@_0CI@KENCNJKN@This?5needs?5to?5be?5set?5to?5enable?5l@ 100b393c     cg_consolecmds.obj
 0002:00014964       ??_C@_0CG@NONAIEKH@Sets?5the?5name?5of?5the?5server?5log?5@ 100b3964     cg_consolecmds.obj
 0002:0001498c       ??_C@_05PJEIAAGC@g_log?$AA@ 100b398c     cg_consolecmds.obj
 0002:00014994       ??_C@_0DI@GKCGOAJK@Whether?5players?5can?5only?5spectat@ 100b3994     cg_consolecmds.obj
 0002:000149cc       ??_C@_0BF@LHHNFGIA@g_lms_followTeamOnly?$AA@ 100b39cc     cg_consolecmds.obj
 0002:000149e4       ??_C@_0DB@JMJHHBNE@Toggles?5locking?5teams?5during?5a?5r@ 100b39e4     cg_consolecmds.obj
 0002:00014a18       ??_C@_0BA@MEBGHNAF@g_lms_lockTeams?$AA@ 100b3a18     cg_consolecmds.obj
 0002:00014a28       ??_C@_0EC@LMDDOLLI@Prevent?5players?5from?5joining?5a?5t@ 100b3a28     cg_consolecmds.obj
 0002:00014a6c       ??_C@_0BH@HKCJJHOH@g_lms_teamForceBalance?$AA@ 100b3a6c     cg_consolecmds.obj
 0002:00014a88       ??_C@_0EB@JDDJAGKE@Note?3?5A?5value?5of?50?5will?5have?5the@ 100b3a88     cg_consolecmds.obj
 0002:00014acc       ??_C@_0BG@HJGFJHEI@Set?5to?5?91?5to?5disable?4?$AA@ 100b3acc     cg_consolecmds.obj
 0002:00014ae8       ??_C@_0EC@OICFKEK@If?5a?5player?5reaches?5?8g_maxXP?8?5XP@ 100b3ae8     cg_consolecmds.obj
 0002:00014b2c       ??_C@_07PDMJPIDM@g_maxXP?$AA@ 100b3b2c     cg_consolecmds.obj
 0002:00014b38       ??_C@_0HA@NFDAGLMI@Example?3?5Setting?5this?5to?5540?40?5w@ 100b3b38     cg_consolecmds.obj
 0002:00014ba8       ??_C@_0EO@GBBIENCB@This?5is?5the?5minimum?5that?5any?5par@ 100b3ba8     cg_consolecmds.obj
 0002:00014bf8       ??_C@_0P@GHKFJHO@g_XPDecayFloor?$AA@ 100b3bf8     cg_consolecmds.obj
 0002:00014c08       ??_C@_0EI@KNDBILFJ@so?5up?5to?584XP?5per?5minute?5if?5the?5@ 100b3c08     cg_consolecmds.obj
 0002:00014c50       ??_C@_0GB@NMIKIFEM@Example?3?5Setting?5this?5to?50?42?5wou@ 100b3c50     cg_consolecmds.obj
 0002:00014cb8       ??_C@_0HF@CIDDGBGH@Sets?5the?5rate?5?$CIin?5skill?5points?5p@ 100b3cb8     cg_consolecmds.obj
 0002:00014d30       ??_C@_0O@PPHBDMNB@g_XPDecayRate?$AA@ 100b3d30     cg_consolecmds.obj
 0002:00014d40       ??_C@_0EO@NLLLJDBE@Bitflag?5128?3?5Do?5not?5decay?5a?5play@ 100b3d40     cg_consolecmds.obj
 0002:00014d90       ??_C@_0EN@KIPLJIFC@Bitflag?564?3?5?5Do?5not?5decay?5a?5play@ 100b3d90     cg_consolecmds.obj
 0002:00014de0       ??_C@_0EK@DEEMANPN@Bitflag?532?3?5?5Do?5not?5decay?5a?5play@ 100b3de0     cg_consolecmds.obj
 0002:00014e30       ??_C@_0ED@NLNHFHLB@Bitflag?516?3?5?5Do?5not?5decay?5a?5play@ 100b3e30     cg_consolecmds.obj
 0002:00014e78       ??_C@_0ED@CPPGLMNB@Bitflag?58?3?5?5?5Do?5not?5decay?5a?5play@ 100b3e78     cg_consolecmds.obj
 0002:00014ec0       ??_C@_0FC@FMDMLOPC@Bitflag?54?3?5?5?5Do?5not?5decay?5a?5play@ 100b3ec0     cg_consolecmds.obj
 0002:00014f18       ??_C@_0FF@EDLNLDIL@Bitflag?52?3?5?5?5Do?5not?5decay?5a?5play@ 100b3f18     cg_consolecmds.obj
 0002:00014f70       ??_C@_0BN@EOKKNMNK@Bitflag?51?3?5?5?5Enable?5XP?5Decay?$AA@ 100b3f70     cg_consolecmds.obj
 0002:00014f90       ??_C@_0GD@CLEJBHHK@This?5feature?5is?5mainly?5used?5with@ 100b3f90     cg_consolecmds.obj
 0002:00014ff4       ??_C@_0DA@MPDICFDN@Decays?5players?8?5XP?5on?5the?5server@ 100b3ff4     cg_consolecmds.obj
 0002:00015024       ??_C@_09HMNDIMOB@g_XPDecay?$AA@ 100b4024     cg_consolecmds.obj
 0002:00015030       ??_C@_0BF@MONOIECK@Default?5value?3?51?5day?$AA@ 100b4030     cg_consolecmds.obj
 0002:00015048       ??_C@_0HI@NHCPAOJB@The?5number?5of?5seconds?5that?5must?5@ 100b4048     cg_consolecmds.obj
 0002:000150c0       ??_C@_05MBBCKCP@86400?$AA@ 100b40c0     cg_consolecmds.obj
 0002:000150c8       ??_C@_0P@HCNJKJCG@g_XPSaveMaxAge?$AA@ 100b40c8     cg_consolecmds.obj
 0002:000150d8       ??_C@_0FE@HOOLHEIL@Note?3?5Test?5with?5a?5?1rcon?5writexp?5@ 100b40d8     cg_consolecmds.obj
 0002:0001512c       ??_C@_0CG@LIMCFCFN@On?5Windows?3?5?8C?3?2path?2to?2file?2xps@ 100b412c     cg_consolecmds.obj
 0002:00015158       ??_C@_0HL@HNHMEMJD@On?5linux?5something?5like?5this?5wil@ 100b4158     cg_consolecmds.obj
 0002:000151d8       ??_C@_0GG@DHAILGNC@The?5path?5must?5not?5be?5relative?5li@ 100b41d8     cg_consolecmds.obj
 0002:00015240       ??_C@_0DH@KKKODPGB@Directory?5must?5be?5created?5before@ 100b4240     cg_consolecmds.obj
 0002:00015278       ??_C@_0CG@KALANLJN@This?5is?5required?5for?5XP?5save?5to?5@ 100b4278     cg_consolecmds.obj
 0002:000152a0       ??_C@_0DO@EDCNCJDC@ABSOLUTE?5path?5to?5a?5new?5directory@ 100b42a0     cg_consolecmds.obj
 0002:000152e0       ??_C@_0BC@FNCJLKJF@g_XPSaveDirectory?$AA@ 100b42e0     cg_consolecmds.obj
 0002:000152f4       ??_C@_0CF@EEGMIILJ@Value?50?5?$CIdefault?$CJ?3?5XP?9Save?5disab@ 100b42f4     cg_consolecmds.obj
 0002:00015320       ??_C@_0EB@FGIHEMCB@?5?5?5?5?5?5?5?5?5?5?5?5Remove?5this?5flag?5fro@ 100b4320     cg_consolecmds.obj
 0002:00015368       ??_C@_0HO@PDICDMAA@?5?5?5?5?5?5?5?5?5?5?5?5multiple?5file?5based?5@ 100b4368     cg_consolecmds.obj
 0002:000153e8       ??_C@_0GB@OGFBCODD@Bitflag?532?3?5If?5set?0?5the?5server?5t@ 100b43e8     cg_consolecmds.obj
 0002:0001544c       ??_C@_0DM@CGPPKAID@Bitflag?516?3?5Do?5not?5use?5XP?5save?5w@ 100b444c     cg_consolecmds.obj
 0002:00015488       ??_C@_0GP@EIMPBGAN@?5?5?5?5?5?5?5?5?5?5?5since?5they?5should?5sti@ 100b4488     cg_consolecmds.obj
 0002:000154f8       ??_C@_0GC@DBHAAMME@?5?5?5?5?5?5?5?5?5?5?5This?5is?5useful?5in?5sav@ 100b44f8     cg_consolecmds.obj
 0002:00015560       ??_C@_0FL@NLHMFNDN@Bitflag?58?3?5Force?5the?5disconnecti@ 100b4560     cg_consolecmds.obj
 0002:000155bc       ??_C@_0BP@ELIHJNJH@Bitflag?54?3?5Never?5ever?5reset?5XP?$AA@ 100b45bc     cg_consolecmds.obj
 0002:000155e0       ??_C@_0FG@CBCODCCC@Bitflag?52?3?5Don?8t?5reset?5XP?5to?5the@ 100b45e0     cg_consolecmds.obj
 0002:00015638       ??_C@_0CO@JKDHABHD@Bitflag?51?3?5Store?5XP?5when?5a?5clien@ 100b4638     cg_consolecmds.obj
 0002:00015668       ??_C@_0EN@LMLGLMBB@Sets?5flags?5for?5allowing?5XP?5savin@ 100b4668     cg_consolecmds.obj
 0002:000156b8       ??_C@_08FJJOHAM@g_XPSave?$AA@ 100b46b8     cg_consolecmds.obj
 0002:000156c4       ??_C@_0BJ@JIFLBCID@?$CI6th?$CJ?5Message?5Of?5The?5Day?$AA@ 100b46c4     cg_consolecmds.obj
 0002:000156e0       ??_C@_0N@JBPLANAD@server_motd5?$AA@ 100b46e0     cg_consolecmds.obj
 0002:000156f0       ??_C@_0BJ@MAEFLLKL@?$CI5th?$CJ?5Message?5Of?5The?5Day?$AA@ 100b46f0     cg_consolecmds.obj
 0002:0001570c       ??_C@_0N@IIOADMEC@server_motd4?$AA@ 100b470c     cg_consolecmds.obj
 0002:0001571c       ??_C@_0BJ@EBGANOIM@?$CI4th?$CJ?5Message?5Of?5The?5Day?$AA@ 100b471c     cg_consolecmds.obj
 0002:00015738       ??_C@_0N@MHKBKKIF@server_motd3?$AA@ 100b4738     cg_consolecmds.obj
 0002:00015748       ??_C@_0BJ@HIFACOIB@?$CI3rd?$CJ?5Message?5Of?5The?5Day?$AA@ 100b4748     cg_consolecmds.obj
 0002:00015764       ??_C@_0N@NOLKJLME@server_motd2?$AA@ 100b4764     cg_consolecmds.obj
 0002:00015774       ??_C@_0BJ@PIOCCPFP@?$CI2nd?$CJ?5Message?5Of?5The?5Day?$AA@ 100b4774     cg_consolecmds.obj
 0002:00015790       ??_C@_0N@PFJHMIAH@server_motd1?$AA@ 100b4790     cg_consolecmds.obj
 0002:000157a0       ??_C@_0BJ@JDOPECBL@?$CI1st?$CJ?5Message?5Of?5The?5Day?$AA@ 100b47a0     cg_consolecmds.obj
 0002:000157bc       ??_C@_0N@NOLOHMIM@?$FOdNo?5Quarter?$AA@ 100b47bc     cg_consolecmds.obj
 0002:000157cc       ??_C@_0N@OMIMPJEG@server_motd0?$AA@ 100b47cc     cg_consolecmds.obj
 0002:000157e0       ??_C@_0EM@KPENOCDI@to?5move?5on?5to?5the?5next?5map?5witho@ 100b47e0     cg_consolecmds.obj
 0002:0001582c       ??_C@_0DO@IMJJGBBC@The?5percentage?5of?5players?5who?5ne@ 100b482c     cg_consolecmds.obj
 0002:0001586c       ??_C@_0BL@GBECFAGE@g_intermissionReadyPercent?$AA@ 100b486c     cg_consolecmds.obj
 0002:00015888       ??_C@_0GF@OFNINKFB@Set?5the?5duration?5?$CIin?5seconds?$CJ?5fo@ 100b4888     cg_consolecmds.obj
 0002:000158f0       ??_C@_02PPBOIJDM@60?$AA@   100b48f0     cg_consolecmds.obj
 0002:000158f4       ??_C@_0BD@CJNKGLDJ@g_intermissionTime?$AA@ 100b48f4     cg_consolecmds.obj
 0002:00015908       ??_C@_0CP@PALHEKCG@Note?3?5Use?5g_warmup?5to?5customize?5@ 100b4908     cg_consolecmds.obj
 0002:00015938       ??_C@_0EL@IBONBGLE@Value?51?3?5All?5playing?5clients?5nee@ 100b4938     cg_consolecmds.obj
 0002:00015984       ??_C@_0DB@IIDJAKCH@Value?50?3?5Immediately?5start?5warmu@ 100b4984     cg_consolecmds.obj
 0002:000159b8       ??_C@_0BK@DKIEFCMG@Type?3?5Server?9Side?5Boolean?$AA@ 100b49b8     cg_consolecmds.obj
 0002:000159d4       ??_C@_0L@LPENDGCI@g_doWarmup?$AA@ 100b49d4     cg_consolecmds.obj
 0002:000159e0       ??_C@_0CK@FMJFCMOA@Note?3?5The?5minimum?5duration?5is?510@ 100b49e0     cg_consolecmds.obj
 0002:00015a0c       ??_C@_0CI@GBKKJBGL@The?5duration?5of?5the?5warmup?5?$CIin?5s@ 100b4a0c     cg_consolecmds.obj
 0002:00015a34       ??_C@_02PJNFELNH@30?$AA@   100b4a34     cg_consolecmds.obj
 0002:00015a38       ??_C@_08HAMOJLDA@g_warmup?$AA@ 100b4a38     cg_consolecmds.obj
 0002:00015a44       ??_C@_0DK@IPGLFFFK@Note?3?5Value?52?5will?5only?5work?5wit@ 100b4a44     cg_consolecmds.obj
 0002:00015a80       ??_C@_0ED@MIPMGBON@If?5vote_allow_warmupDamage?5is?51?0@ 100b4a80     cg_consolecmds.obj
 0002:00015ac4       ??_C@_0BC@DHNNBJPM@Value?52?3?5Everyone?$AA@ 100b4ac4     cg_consolecmds.obj
 0002:00015ad8       ??_C@_0BG@LNCCHCBH@Value?51?3?5Enemies?5only?$AA@ 100b4ad8     cg_consolecmds.obj
 0002:00015af0       ??_C@_0O@GFMNEDIF@Value?50?3?5None?$AA@ 100b4af0     cg_consolecmds.obj
 0002:00015b00       ??_C@_0CF@PEEILMCP@Toggles?5friendly?5fire?5during?5war@ 100b4b00     cg_consolecmds.obj
 0002:00015b28       ??_C@_0BD@KOFBKBOP@match_warmupDamage?$AA@ 100b4b28     cg_consolecmds.obj
 0002:00015b3c       ??_C@_0BP@NHKJIHOC@?$CISee?5also?3?5match_timeoutcount?$CJ?$AA@ 100b4b3c     cg_consolecmds.obj
 0002:00015b5c       ??_C@_0CO@OONAAJCJ@The?5duration?5of?5a?5match?5timeout?5@ 100b4b5c     cg_consolecmds.obj
 0002:00015b8c       ??_C@_03GDBCDNPM@180?$AA@  100b4b8c     cg_consolecmds.obj
 0002:00015b90       ??_C@_0BE@JCPEJALB@match_timeoutlength?$AA@ 100b4b90     cg_consolecmds.obj
 0002:00015ba4       ??_C@_0DJ@KHHNPDDN@Note?3?5team_nocontrols?5must?5be?5se@ 100b4ba4     cg_consolecmds.obj
 0002:00015be0       ??_C@_0DA@DNNODMPP@A?5team?5can?5issue?5?8match_timeoutc@ 100b4be0     cg_consolecmds.obj
 0002:00015c10       ??_C@_0CO@EKADHFON@Lets?5a?5team?5be?5able?5to?5pause?1unp@ 100b4c10     cg_consolecmds.obj
 0002:00015c40       ??_C@_0BD@FGFIICMD@match_timeoutcount?$AA@ 100b4c40     cg_consolecmds.obj
 0002:00015c58       ??_C@_0FO@NPCDEAPL@Minimum?5percentage?5of?5players?5wh@ 100b4c58     cg_consolecmds.obj
 0002:00015cb8       ??_C@_03GNABGMEE@100?$AA@  100b4cb8     cg_consolecmds.obj
 0002:00015cbc       ??_C@_0BD@BNJPCACD@match_readypercent?$AA@ 100b4cbc     cg_consolecmds.obj
 0002:00015cd0       ??_C@_0FF@BCLANMCE@Note?3?5If?5vote_allow_mutespecs?5is@ 100b4cd0     cg_consolecmds.obj
 0002:00015d28       ??_C@_0EO@ONBJBPCA@Mute?5spectators?5when?5they?5want?5t@ 100b4d28     cg_consolecmds.obj
 0002:00015d78       ??_C@_0BA@EMOGOAK@match_mutespecs?$AA@ 100b4d78     cg_consolecmds.obj
 0002:00015d88       ??_C@_0FK@CKOOKHAB@Minimum?5number?5of?5players?5who?5ne@ 100b4d88     cg_consolecmds.obj
 0002:00015de4       ??_C@_01FAMBOPH@4?$AA@     100b4de4     cg_consolecmds.obj
 0002:00015de8       ??_C@_0BB@MEBOJPC@match_minplayers?$AA@ 100b4de8     cg_consolecmds.obj
 0002:00015dfc       ??_C@_0DB@PBHPKJPL@Value?51?3?5Players?5are?5allowed?5to?5@ 100b4dfc     cg_consolecmds.obj
 0002:00015e30       ??_C@_0DM@KKCOIFGL@Value?50?3?5Players?5are?5not?5allowed@ 100b4e30     cg_consolecmds.obj
 0002:00015e70       ??_C@_0EA@FNLIEJJF@Decide?5if?5players?5can?5join?5a?5gam@ 100b4e70     cg_consolecmds.obj
 0002:00015eb0       ??_C@_0P@OKPACBIB@match_latejoin?$AA@ 100b4eb0     cg_consolecmds.obj
 0002:00015ec0       ??_C@_0HD@DEDONOPI@Note?3?5Shrubbot?5flag?5?81?8?5overrule@ 100b4ec0     cg_consolecmds.obj
 0002:00015f38       ??_C@_0EF@KMKCNOOH@Players?5can?5see?5their?5current?5st@ 100b4f38     cg_consolecmds.obj
 0002:00015f80       ??_C@_0EI@HLMHJOML@A?5minimum?5of?5g_minhits?5hits?5tota@ 100b4f80     cg_consolecmds.obj
 0002:00015fc8       ??_C@_0EI@OEGMIPND@Kick?5players?5that?5have?5this?5perc@ 100b4fc8     cg_consolecmds.obj
 0002:00016010       ??_C@_0BI@DBPJKGOO@g_teamDamageRestriction?$AA@ 100b5010     cg_consolecmds.obj
 0002:00016028       ??_C@_0CP@NMJGLMBJ@Bitflag?516?3?5Covert?5Ops?5can?5pick?5@ 100b5028     cg_consolecmds.obj
 0002:00016058       ??_C@_0CO@HALCJNED@Bitflag?58?3?5?5Field?5Ops?5can?5pick?5u@ 100b5058     cg_consolecmds.obj
 0002:00016088       ??_C@_0CO@JLIJAHFO@Bitflag?54?3?5?5Engineers?5can?5pick?5u@ 100b5088     cg_consolecmds.obj
 0002:000160b8       ??_C@_0CL@PPGMLDDK@Bitflag?52?3?5?5Medics?5can?5pick?5up?5a@ 100b50b8     cg_consolecmds.obj
 0002:000160e4       ??_C@_0CN@OMBGCLBC@Bitflag?51?3?5?5Soldiers?5can?5pick?5up@ 100b50e4     cg_consolecmds.obj
 0002:00016118       ??_C@_0EA@OEFKIPNO@Defines?5which?5classes?5can?5pick?5u@ 100b5118     cg_consolecmds.obj
 0002:00016158       ??_C@_0BA@EKPIAKL@g_unlockWeapons?$AA@ 100b5158     cg_consolecmds.obj
 0002:00016168       ??_C@_0BA@NOEBHGGJ@Value?50?3?5Unlock?$AA@ 100b5168     cg_consolecmds.obj
 0002:00016178       ??_C@_0O@EFPMKOKG@Value?51?3?5Lock?$AA@ 100b5178     cg_consolecmds.obj
 0002:00016188       ??_C@_0GL@HNCKEHCG@Locks?1unlocks?5a?5player?8s?5team?5us@ 100b5188     cg_consolecmds.obj
 0002:000161f4       ??_C@_0BA@NPJBHIAP@team_nocontrols?$AA@ 100b51f4     cg_consolecmds.obj
 0002:00016208       ??_C@_0FF@LJBENCAD@A?5value?5of?52?3?5Use?5percentages?5fo@ 100b5208     cg_consolecmds.obj
 0002:00016260       ??_C@_0FG@EHNMEBLP@A?5value?5of?51?3?5Use?5percentages?5fo@ 100b5260     cg_consolecmds.obj
 0002:000162b8       ??_C@_0NF@HKAPJNPP@?5?5When?5set?5to?51?0?5and?5team_maxSho@ 100b52b8     cg_consolecmds.obj
 0002:00016390       ??_C@_08IIHKADCP@Example?3?$AA@ 100b5390     cg_consolecmds.obj
 0002:000163a0       ??_C@_0FH@GHFBMLHP@When?5set?5to?50?0?5team_maxWEAPON?5an@ 100b53a0     cg_consolecmds.obj
 0002:000163f8       ??_C@_0EI@BEIDDOCD@Indicate?5if?5the?5team_maxXXX?5cvar@ 100b53f8     cg_consolecmds.obj
 0002:00016440       ??_C@_0BF@CBAFEFDH@team_maxIsPercentage?$AA@ 100b5440     cg_consolecmds.obj
 0002:00016458       ??_C@_0BL@KEKHMCD@Value?50?3?5unlimited?5players?$AA@ 100b5458     cg_consolecmds.obj
 0002:00016474       ??_C@_0CJ@JEFNHCKO@The?5maximum?5number?5of?5players?5in@ 100b5474     cg_consolecmds.obj
 0002:000164a0       ??_C@_0BA@BJOFAMJI@team_maxplayers?$AA@ 100b54a0     cg_consolecmds.obj
 0002:000164b0       ??_C@_0BN@JOBKGNHJ@Value?5?50?3?5Disable?5covert?9ops?$AA@ 100b54b0     cg_consolecmds.obj
 0002:000164d0       ??_C@_0BP@HDFJDDDC@Value?5?91?3?5unlimited?5covert?9ops?$AA@ 100b54d0     cg_consolecmds.obj
 0002:000164f0       ??_C@_0CO@NMNJHLNA@The?5maximum?5number?5of?5covert?9ops@ 100b54f0     cg_consolecmds.obj
 0002:00016520       ??_C@_0BC@HNIPDGL@team_maxCovertops?$AA@ 100b5520     cg_consolecmds.obj
 0002:00016534       ??_C@_0BM@KIKNFAFA@Value?5?50?3?5Disable?5field?9ops?$AA@ 100b5534     cg_consolecmds.obj
 0002:00016550       ??_C@_0BO@FDHADLNA@Value?5?91?3?5unlimited?5field?9ops?$AA@ 100b5550     cg_consolecmds.obj
 0002:00016570       ??_C@_0CN@OIEHOEIA@The?5maximum?5number?5of?5field?9opse@ 100b5570     cg_consolecmds.obj
 0002:000165a0       ??_C@_0BB@NFBFMMOD@team_maxFieldops?$AA@ 100b55a0     cg_consolecmds.obj
 0002:000165b4       ??_C@_0BL@NMCIBPEK@Value?5?50?3?5Disable?5engineer?$AA@ 100b55b4     cg_consolecmds.obj
 0002:000165d0       ??_C@_0BN@NFAPPKBF@Value?5?91?3?5unlimited?5engineer?$AA@ 100b55d0     cg_consolecmds.obj
 0002:000165f0       ??_C@_0CL@PNCIELKB@The?5maximum?5number?5of?5engineers?5@ 100b55f0     cg_consolecmds.obj
 0002:0001661c       ??_C@_0BC@CPKBIEHG@team_maxEngineers?$AA@ 100b561c     cg_consolecmds.obj
 0002:00016630       ??_C@_0BI@JDMBKPFH@Value?5?50?3?5Disable?5medic?$AA@ 100b5630     cg_consolecmds.obj
 0002:00016648       ??_C@_0BK@FMFMHCKC@Value?5?91?3?5unlimited?5medic?$AA@ 100b5648     cg_consolecmds.obj
 0002:00016664       ??_C@_0CI@MANKLGOA@The?5maximum?5number?5of?5medics?5in?5@ 100b5664     cg_consolecmds.obj
 0002:0001668c       ??_C@_0P@CLOCMJFG@team_maxMedics?$AA@ 100b568c     cg_consolecmds.obj
 0002:0001669c       ??_C@_0CA@OLBLKIOP@?$CISee?5also?5team_maxIsPercentage?$CJ?$AA@ 100b569c     cg_consolecmds.obj
 0002:000166bc       ??_C@_0BK@FGLJCOHL@Value?5?50?3?5Disable?5soldier?$AA@ 100b56bc     cg_consolecmds.obj
 0002:000166d8       ??_C@_0BM@MHBAFKHH@Value?5?91?3?5unlimited?5soldier?$AA@ 100b56d8     cg_consolecmds.obj
 0002:000166f4       ??_C@_0CK@GLIOFBLP@The?5maximum?5number?5of?5soldiers?5i@ 100b56f4     cg_consolecmds.obj
 0002:00016720       ??_C@_0BB@BIEPPFFP@team_maxSoldiers?$AA@ 100b5720     cg_consolecmds.obj
 0002:00016738       ??_C@_0EL@CPLADIOI@The?5time?5?$CIin?5seconds?$CJ?5that?5must?5@ 100b5738     cg_consolecmds.obj
 0002:00016784       ??_C@_0O@OMKMEIJO@team_artyTime?$AA@ 100b5784     cg_consolecmds.obj
 0002:00016798       ??_C@_0EM@BIANBF@The?5time?5?$CIin?5seconds?$CJ?5that?5must?5@ 100b5798     cg_consolecmds.obj
 0002:000167e4       ??_C@_02PKFBJPLJ@10?$AA@   100b57e4     cg_consolecmds.obj
 0002:000167e8       ??_C@_0BD@HCNPDHHL@team_airstrikeTime?$AA@ 100b57e8     cg_consolecmds.obj
 0002:000167fc       ??_C@_0BC@PKLNKJMP@g_resetXPMapCount?$AA@ 100b57fc     cg_consolecmds.obj
 0002:00016810       ??_C@_0ED@HNBHBADF@Seperate?5the?5mapnames?5by?5?3?5chara@ 100b5810     cg_consolecmds.obj
 0002:00016854       ??_C@_0CL@OJOEPOBF@Map?5voting?5only?$CB?5Exclude?5maps?5fr@ 100b5854     cg_consolecmds.obj
 0002:00016880       ??_C@_0N@CEJJEGLD@Type?3?5String?$AA@ 100b5880     cg_consolecmds.obj
 0002:00016890       ??_C@_0P@GEJPALCE@g_excludedMaps?$AA@ 100b5890     cg_consolecmds.obj
 0002:000168a0       ??_C@_0EB@NCIEAFMC@Map?5voting?5only?$CB?5Maps?5played?5unt@ 100b58a0     cg_consolecmds.obj
 0002:000168e4       ??_C@_0M@ELACMKNF@g_minMapAge?$AA@ 100b58e4     cg_consolecmds.obj
 0002:000168f0       ??_C@_0DC@KJPNEDAE@Map?5voting?5only?$CB?5Count?5of?5shown?5@ 100b58f0     cg_consolecmds.obj
 0002:00016924       ??_C@_01DHDKHMHF@6?$AA@    100b5924     cg_consolecmds.obj
 0002:00016928       ??_C@_0BC@GOLENNJJ@g_maxMapsVotedFor?$AA@ 100b5928     cg_consolecmds.obj
 0002:0001693c       ??_C@_0DB@CPJHCEI@?5?5?5?5?5?5?5?5?5?5?5?5If?5not?5set?5mapvotecy@ 100b593c     cg_consolecmds.obj
 0002:00016970       ??_C@_0HH@CNPDPEMA@?5?5?5?5?5?5?5?5?5?5?5?5This?5creates?5a?5Log?5E@ 100b5970     cg_consolecmds.obj
 0002:000169e8       ??_C@_0HC@PAGAKFNH@Bitflag?516?3?5A?5passed?5nextmap?5vot@ 100b59e8     cg_consolecmds.obj
 0002:00016a60       ??_C@_0FE@MMMLFOBN@Bitflag?58?3?5?5Don?8t?5randomize?5the?5@ 100b5a60     cg_consolecmds.obj
 0002:00016ab8       ??_C@_0FG@NGJABLEC@Bitflag?54?3?5?5Enables?5multi?5voting@ 100b5ab8     cg_consolecmds.obj
 0002:00016b10       ??_C@_0FJ@PMLFKCGL@Bitflag?52?3?5?5Intermission?5doesn?8t@ 100b5b10     cg_consolecmds.obj
 0002:00016b70       ??_C@_0FE@GOAKKAIH@Bitflag?51?3?5?5Changes?5the?5tie?5brea@ 100b5b70     cg_consolecmds.obj
 0002:00016bc8       ??_C@_0EC@JBFECEPL@Map?5voting?5only?$CB?5Vote?5flags?5to?5s@ 100b5bc8     cg_consolecmds.obj
 0002:00016c0c       ??_C@_0P@NBBFBKH@g_mapVoteFlags?$AA@ 100b5c0c     cg_consolecmds.obj
 0002:00016c1c       ??_C@_0DE@JAMCLOKK@Bitflag?54?3?5Append?5?8?$CIcalled?5by?5na@ 100b5c1c     cg_consolecmds.obj
 0002:00016c50       ??_C@_0DM@FMBFPOLL@Bitflag?52?3?5Successful?5votes?5do?5n@ 100b5c50     cg_consolecmds.obj
 0002:00016c90       ??_C@_0FB@HKPNEBML@Bitflag?51?3?5Use?5total?5voters?5inst@ 100b5c90     cg_consolecmds.obj
 0002:00016ce4       ??_C@_0BL@MMGJKBLE@Set?5ingame?5voting?5options?4?$AA@ 100b5ce4     cg_consolecmds.obj
 0002:00016d00       ??_C@_08PJGBFLAE@g_voting?$AA@ 100b5d00     cg_consolecmds.obj
 0002:00016d0c       ??_C@_0DI@GIGIOPPL@?$CIDis?$CJallows?5non?9referees?5to?5call@ 100b5d0c     cg_consolecmds.obj
 0002:00016d44       ??_C@_0CI@OPKKKDBG@?$CIDis?$CJallows?5non?9referees?5to?5call@ 100b5d44     cg_consolecmds.obj
 0002:00016d70       ??_C@_0EC@IGCLFCHC@?$CIDis?$CJallows?5non?9referees?5to?5call@ 100b5d70     cg_consolecmds.obj
 0002:00016db8       ??_C@_0EA@DONPFHJM@?$CIDis?$CJallows?5non?9referees?5to?5call@ 100b5db8     cg_consolecmds.obj
 0002:00016df8       ??_C@_0DP@MNOFFJOO@Note?3?5Only?5the?5team?5the?5votecall@ 100b5df8     cg_consolecmds.obj
 0002:00016e38       ??_C@_0DG@MKCBGCEO@?$CIDis?$CJallows?5non?9referees?5to?5call@ 100b5e38     cg_consolecmds.obj
 0002:00016e70       ??_C@_0DL@FCANFPKJ@?$CIDis?$CJallows?5non?9referees?5to?5call@ 100b5e70     cg_consolecmds.obj
 0002:00016eb0       ??_C@_0EB@PJAJEMIF@?$CIDis?$CJallows?5non?9referees?5to?5call@ 100b5eb0     cg_consolecmds.obj
 0002:00016ef4       ??_C@_0DN@KPKOFAJH@?$CIDis?$CJallows?5non?9referees?5to?5call@ 100b5ef4     cg_consolecmds.obj
 0002:00016f38       ??_C@_0EJ@GOJDBGMM@Note?3?5?8Warmup?5Damage?5Everyone?8?5w@ 100b5f38     cg_consolecmds.obj
 0002:00016f84       ??_C@_0DC@OOJPADMO@Default?5value?5can?5be?5set?5with?5ma@ 100b5f84     cg_consolecmds.obj
 0002:00016fb8       ??_C@_0DK@MFPOCKA@?$CIDis?$CJallows?5non?9referees?5to?5call@ 100b5fb8     cg_consolecmds.obj
 0002:00016ff4       ??_C@_0DN@BKHBPNF@?$CIDis?$CJallows?5non?9referees?5to?5call@ 100b5ff4     cg_consolecmds.obj
 0002:00017038       ??_C@_0HM@ODFCIKKC@Note?3?5If?5you?5use?5other?5values?5of@ 100b6038     cg_consolecmds.obj
 0002:000170b8       ??_C@_0ED@IMKODECL@?$CIDis?$CJallows?5non?9referees?5to?5call@ 100b60b8     cg_consolecmds.obj
 0002:000170fc       ??_C@_0DL@NABKJCFD@?$CIDis?$CJallows?5non?9referees?5to?5call@ 100b60fc     cg_consolecmds.obj
 0002:00017138       ??_C@_0EM@PBKDHELA@?$CIDis?$CJallows?5non?9referees?5to?5call@ 100b6138     cg_consolecmds.obj
 0002:00017188       ??_C@_0EJ@FNFICKCD@?$CIDis?$CJallows?5non?9referees?5to?5call@ 100b6188     cg_consolecmds.obj
 0002:000171d8       ??_C@_0EN@COHEEDK@?$CIDis?$CJallows?5non?9referees?5to?5call@ 100b61d8     cg_consolecmds.obj
 0002:00017228       ??_C@_0DN@KGFOOECH@?$CIDis?$CJallows?5non?9referees?5to?5call@ 100b6228     cg_consolecmds.obj
 0002:00017268       ??_C@_0DO@HEHLPGGH@?$CIDis?$CJallows?5non?9referees?5to?5call@ 100b6268     cg_consolecmds.obj
 0002:000172a8       ??_C@_0DI@EMLMFFPC@?$CIDis?$CJallows?5non?9referees?5to?5call@ 100b62a8     cg_consolecmds.obj
 0002:000172e0       ??_C@_0EA@KOKAMMMG@?$CIDis?$CJallows?5non?9referees?5to?5call@ 100b62e0     cg_consolecmds.obj
 0002:00017320       ??_C@_0FC@EJPADABN@Note?3?5Only?5the?5members?5of?5the?5te@ 100b6320     cg_consolecmds.obj
 0002:00017374       ??_C@_0DM@CFBCICJN@?$CIDis?$CJallows?5non?9referees?5to?5call@ 100b6374     cg_consolecmds.obj
 0002:000173b0       ??_C@_0DM@EINHDIIM@?$CIDis?$CJallows?5non?9referees?5to?5call@ 100b63b0     cg_consolecmds.obj
 0002:000173ec       ??_C@_0DN@MNJGEADN@Server?5Admins?5can?5specify?5public@ 100b63ec     cg_consolecmds.obj
 0002:0001742c       ??_C@_0DM@EGCLKJKD@?$CIDis?$CJallows?5non?9referees?5to?5call@ 100b642c     cg_consolecmds.obj
 0002:00017468       ??_C@_0ED@IPPMFBLC@Server?5Admins?5can?5specify?5compet@ 100b6468     cg_consolecmds.obj
 0002:000174b0       ??_C@_0EB@PCMHIPFP@?$CIDis?$CJallows?5non?9referees?5to?5call@ 100b64b0     cg_consolecmds.obj
 0002:000174f4       ??_C@_0BE@LFCCKNPB@See?5also?3?5g_voting?4?$AA@ 100b64f4     cg_consolecmds.obj
 0002:00017508       ??_C@_0EH@CCCGOINJ@Minimum?5percentage?5of?5players?5ha@ 100b6508     cg_consolecmds.obj
 0002:00017550       ??_C@_02PNFIDHGF@50?$AA@   100b6550     cg_consolecmds.obj
 0002:00017554       ??_C@_0N@IMMGIHND@vote_percent?$AA@ 100b6554     cg_consolecmds.obj
 0002:00017568       ??_C@_0EI@NLDOJNIP@This?5feature?5does?5not?5affect?5ref@ 100b6568     cg_consolecmds.obj
 0002:000175b0       ??_C@_0DG@JIOHHCGP@Limit?5of?5votings?5per?5map?5and?5pla@ 100b65b0     cg_consolecmds.obj
 0002:000175e8       ??_C@_01BMBHCPLG@5?$AA@    100b65e8     cg_consolecmds.obj
 0002:000175ec       ??_C@_0L@GMNHJFJI@vote_limit?$AA@ 100b65ec     cg_consolecmds.obj
 0002:000175f8       ??_C@_0BD@EEPOKNIF@Value?52?3?5All?5hits?4?$AA@ 100b65f8     cg_consolecmds.obj
 0002:0001760c       ??_C@_0BJ@ONLDLGDO@Value?51?3?5Headshots?5only?4?$AA@ 100b660c     cg_consolecmds.obj
 0002:00017628       ??_C@_0GN@HBFBDFIB@Sets?5the?5bullet?5damage?5falloff?5o@ 100b6628     cg_consolecmds.obj
 0002:00017698       ??_C@_09IGKMCBMB@g_falloff?$AA@ 100b6698     cg_consolecmds.obj
 0002:000176a4       ??_C@_0BD@EJEKDIKK@skill_lightweapons?$AA@ 100b66a4     cg_consolecmds.obj
 0002:000176b8       ??_C@_0BC@GPCDNPJ@skill_battlesense?$AA@ 100b66b8     cg_consolecmds.obj
 0002:000176cc       ??_C@_0BA@HKFJAOFN@skill_covertops?$AA@ 100b66cc     cg_consolecmds.obj
 0002:000176dc       ??_C@_0P@FDHGELGM@skill_fieldops?$AA@ 100b66dc     cg_consolecmds.obj
 0002:000176ec       ??_C@_0P@IBJHFGDF@skill_engineer?$AA@ 100b66ec     cg_consolecmds.obj
 0002:000176fc       ??_C@_0M@DJFNEGGO@skill_medic?$AA@ 100b66fc     cg_consolecmds.obj
 0002:00017708       ??_C@_0EO@HBPFMDOI@You?5can?5disable?5the?5reward?5for?5a@ 100b6708     cg_consolecmds.obj
 0002:00017758       ??_C@_0EB@KBCMMCHK@Sets?5the?5amount?5of?5XP?5needed?5to?5@ 100b6758     cg_consolecmds.obj
 0002:0001779c       ??_C@_0CB@DPCPKEND@20?550?590?5140?5200?5270?5350?5440?5540@ 100b679c     cg_consolecmds.obj
 0002:000177c0       ??_C@_0O@IBOLFDIB@skill_soldier?$AA@ 100b67c0     cg_consolecmds.obj
 0002:000177d0       ??_C@_0CD@JFODGIMC@Bitflag?54?3?5G_Script_GetEventInde@ 100b67d0     cg_consolecmds.obj
 0002:000177f4       ??_C@_0BI@EFNMLHDF@Bitflag?52?3?5G_RunEntity?4?$AA@ 100b67f4     cg_consolecmds.obj
 0002:0001780c       ??_C@_0BO@MCFODLBF@Bitflag?51?3?5G_Script?5Preparse?4?$AA@ 100b680c     cg_consolecmds.obj
 0002:0001782c       ??_C@_0CB@MFCJLPKE@Disable?5any?5bit?5to?5use?5old?5code?4@ 100b682c     cg_consolecmds.obj
 0002:00017850       ??_C@_0CN@IJDLEPGF@Enable?5any?5bit?5to?5use?5the?5new?5?$CIf@ 100b6850     cg_consolecmds.obj
 0002:00017880       ??_C@_0DK@LEEOEMAJ@Sets?5the?5use?5of?5old?5or?5new?5code?5@ 100b6880     cg_consolecmds.obj
 0002:000178bc       ??_C@_0O@OEMHPPOA@nq_scriptMode?$AA@ 100b68bc     cg_consolecmds.obj
 0002:000178cc       ??_C@_0CK@IPICMDAJ@Use?5this?5at?5Your?5own?5discretion?5@ 100b68cc     cg_consolecmds.obj
 0002:000178f8       ??_C@_0FL@GKFIBINJ@If?5players?5keep?5seeing?5?8Initaliz@ 100b68f8     cg_consolecmds.obj
 0002:00017958       ??_C@_0EI@GMONKBLL@Note?3?5If?5set?5to?5a?5higher?5value?5?$CI@ 100b6958     cg_consolecmds.obj
 0002:000179a0       ??_C@_0BF@ICIPMHCO@Min?1Max?5values?3?51?115?$AA@ 100b69a0     cg_consolecmds.obj
 0002:000179b8       ??_C@_0CA@MPLJIOMD@Used?5only?5csMethod?51?5is?5active?4?$AA@ 100b69b8     cg_consolecmds.obj
 0002:000179d8       ??_C@_0CH@PPMNCFDK@Sets?5the?5number?5of?5strings?5per?5p@ 100b69d8     cg_consolecmds.obj
 0002:00017a00       ??_C@_0M@EDGNBLNN@g_csStrings?$AA@ 100b6a00     cg_consolecmds.obj
 0002:00017a0c       ??_C@_0BJ@GJBJELAF@This?5value?5is?5read?9only?4?$AA@ 100b6a0c     cg_consolecmds.obj
 0002:00017a28       ??_C@_0EC@IPJHCFBP@To?5check?5the?5currently?5used?5meth@ 100b6a28     cg_consolecmds.obj
 0002:00017a70       ??_C@_0EO@BFICEJCE@Not?5until?5the?5game?5enters?5the?5in@ 100b6a70     cg_consolecmds.obj
 0002:00017ac0       ??_C@_0EO@LIJCKLG@If?5the?5admin?5sets?5g_csMethod?5to?5@ 100b6ac0     cg_consolecmds.obj
 0002:00017b10       ??_C@_0DI@MCNDJGFG@Reads?5the?5current?5method?5of?5hand@ 100b6b10     cg_consolecmds.obj
 0002:00017b48       ??_C@_08JDPIPBEO@csMethod?$AA@ 100b6b48     cg_consolecmds.obj
 0002:00017b58       ??_C@_0FP@FKKGDCC@The?5new?5setting?5will?5take?5effect@ 100b6b58     cg_consolecmds.obj
 0002:00017bb8       ??_C@_0DC@CPHNPOK@Note?3?5This?5cvar?5is?5latched?4?5?$CISee@ 100b6bb8     cg_consolecmds.obj
 0002:00017bec       ??_C@_0CA@BKGHLPBD@Value?51?5enables?5the?5new?5method?4?$AA@ 100b6bec     cg_consolecmds.obj
 0002:00017c0c       ??_C@_0CE@JBNCIGFB@Default?5value?5is?50?5for?5normal?5mo@ 100b6c0c     cg_consolecmds.obj
 0002:00017c30       ??_C@_0EI@MFMJMEEJ@Designed?5to?5get?5rid?5of?5the?5MAX_G@ 100b6c30     cg_consolecmds.obj
 0002:00017c78       ??_C@_0DG@KLEMGGHB@Sets?5the?5method?5used?5to?5handle?5t@ 100b6c78     cg_consolecmds.obj
 0002:00017cb0       ??_C@_0L@CPIGAKHC@g_csMethod?$AA@ 100b6cb0     cg_consolecmds.obj
 0002:00017cc0       ??_C@_0FB@CCEMFPNH@Sets?5the?5time?5in?5milliseconds?5it@ 100b6cc0     cg_consolecmds.obj
 0002:00017d14       ??_C@_0BG@GBEHMMBJ@g_covertopsChargeTime?$AA@ 100b6d14     cg_consolecmds.obj
 0002:00017d30       ??_C@_0EP@KPOLPFLN@Sets?5the?5time?5in?5milliseconds?5it@ 100b6d30     cg_consolecmds.obj
 0002:00017d80       ??_C@_05KNKIGLLO@20000?$AA@ 100b6d80     cg_consolecmds.obj
 0002:00017d88       ??_C@_0BE@PHNGOEJA@g_soldierChargeTime?$AA@ 100b6d88     cg_consolecmds.obj
 0002:00017da0       ??_C@_0FA@FADEILCC@Sets?5the?5time?5in?5milliseconds?5it@ 100b6da0     cg_consolecmds.obj
 0002:00017df0       ??_C@_05HLPBIIKD@40000?$AA@ 100b6df0     cg_consolecmds.obj
 0002:00017df8       ??_C@_0P@HFCBECFI@g_LTChargeTime?$AA@ 100b6df8     cg_consolecmds.obj
 0002:00017e08       ??_C@_0FB@NPBIHEPG@Sets?5the?5time?5in?5milliseconds?5it@ 100b6e08     cg_consolecmds.obj
 0002:00017e5c       ??_C@_0BF@JAEAMCFB@g_engineerChargeTime?$AA@ 100b6e5c     cg_consolecmds.obj
 0002:00017e78       ??_C@_0EN@KGDGLKGI@Sets?5the?5time?5in?5milliseconds?5it@ 100b6e78     cg_consolecmds.obj
 0002:00017ec8       ??_C@_05LDBBAHND@45000?$AA@ 100b6ec8     cg_consolecmds.obj
 0002:00017ed0       ??_C@_0BC@PNBKKFOB@g_medicChargeTime?$AA@ 100b6ed0     cg_consolecmds.obj
 0002:00017ee8       ??_C@_0EE@HBNBHJLC@Usually?5set?5by?5mapscript?0?5use?5g_@ 100b6ee8     cg_consolecmds.obj
 0002:00017f2c       ??_C@_0DB@MDJFOELO@Length?5of?5allied?5respawn?5cycles?5@ 100b6f2c     cg_consolecmds.obj
 0002:00017f60       ??_C@_0BA@OOPKLNHH@g_bluelimbotime?$AA@ 100b6f60     cg_consolecmds.obj
 0002:00017f70       ??_C@_0EC@BOACLODL@Usually?5set?5by?5mapscript?0?5use?5g_@ 100b6f70     cg_consolecmds.obj
 0002:00017fb4       ??_C@_0CP@PGHEFBCL@Length?5of?5axis?5respawn?5cycles?5in@ 100b6fb4     cg_consolecmds.obj
 0002:00017fe4       ??_C@_0BG@JBLBKIBE@Type?3?5Latched?5Integer?$AA@ 100b6fe4     cg_consolecmds.obj
 0002:00017ffc       ??_C@_05GGPELIBL@30000?$AA@ 100b6ffc     cg_consolecmds.obj
 0002:00018004       ??_C@_0P@INFPEBNI@g_redlimbotime?$AA@ 100b7004     cg_consolecmds.obj
 0002:00018018       ??_C@_0EM@PAEGFIFM@Set?5to?5howmany?5clients?5must?5join@ 100b7018     cg_consolecmds.obj
 0002:00018064       ??_C@_01KJLJFBPL@8?$AA@    100b7064     cg_consolecmds.obj
 0002:00018068       ??_C@_0BB@LFAIGICE@g_minGameClients?$AA@ 100b7068     cg_consolecmds.obj
 0002:00018080       ??_C@_0FJ@OALEGAIH@Note?3?5Value?5set?5at?5sv_privatecli@ 100b7080     cg_consolecmds.obj
 0002:000180e0       ??_C@_0EE@CPLKJNOJ@Sets?5the?5maximum?5amount?5of?5avail@ 100b70e0     cg_consolecmds.obj
 0002:00018124       ??_C@_02PIBHCBOA@20?$AA@   100b7124     cg_consolecmds.obj
 0002:00018128       ??_C@_0O@OCOCOONB@sv_maxclients?$AA@ 100b7128     cg_consolecmds.obj
 0002:00018138       ??_C@_0EL@GBGKCGLA@Value?52?3?5Country?5flags?5enabled?5?$CL@ 100b7138     cg_consolecmds.obj
 0002:00018184       ??_C@_0BP@GGODPEG@Value?51?3?5Country?5flags?5enabled?$AA@ 100b7184     cg_consolecmds.obj
 0002:000181a4       ??_C@_0CA@NBKEPLGB@Value?50?3?5Country?5flags?5disabled?$AA@ 100b71a4     cg_consolecmds.obj
 0002:000181c8       ??_C@_0HA@PGDLLGIF@In?5case?5of?5problems?5check?5your?5l@ 100b71c8     cg_consolecmds.obj
 0002:00018238       ??_C@_0HJ@IPBMHBLP@You?5should?5read?5and?5accept?5the?5l@ 100b7238     cg_consolecmds.obj
 0002:000182b8       ??_C@_0JF@BJJMKBPH@This?5file?5can?5be?5downloaded?5from@ 100b72b8     cg_consolecmds.obj
 0002:00018350       ??_C@_0EB@PGCEJNMG@You?5need?5a?5valid?5GeoIP?4dat?5in?5yo@ 100b7350     cg_consolecmds.obj
 0002:00018394       ??_C@_0CF@NFILPGIH@Enable?1Disable?5country?5flags?5sys@ 100b7394     cg_consolecmds.obj
 0002:000183bc       ??_C@_0P@FLJNMGCA@g_countryflags?$AA@ 100b73bc     cg_consolecmds.obj
 0002:000183cc       ??_C@_0DN@OMBKBCBL@Value?56?3?5Map?5Voting?5?9?5Note?3?5Limi@ 100b73cc     cg_consolecmds.obj
 0002:0001840c       ??_C@_0BL@ILDCNPHP@Value?55?3?5Last?5Man?5Standing?$AA@ 100b740c     cg_consolecmds.obj
 0002:00018428       ??_C@_0BC@DKHNHDBD@Value?54?3?5Campaign?$AA@ 100b7428     cg_consolecmds.obj
 0002:0001843c       ??_C@_0BE@HPEJJNF@Value?53?3?5Stop?5Watch?$AA@ 100b743c     cg_consolecmds.obj
 0002:00018450       ??_C@_0BD@HCLGNGK@Value?52?3?5Objective?$AA@ 100b7450     cg_consolecmds.obj
 0002:00018464       ??_C@_0BP@CMICIAON@Controls?5the?5type?5of?5gameplay?4?$AA@ 100b7464     cg_consolecmds.obj
 0002:00018484       ??_C@_0L@GFINLBEC@g_gametype?$AA@ 100b7484     cg_consolecmds.obj
 0002:00018490       ??_C@_0DC@CIMKIGP@g_serverInfo?5flag?58?5must?5be?5set?5@ 100b7490     cg_consolecmds.obj
 0002:000184c8       ??_C@_0GF@KLGKMJLA@Contains?5the?5current?5map?5number?5@ 100b74c8     cg_consolecmds.obj
 0002:00018530       ??_C@_0DC@JABCIGBB@g_serverInfo?5flag?54?5must?5be?5set?5@ 100b7530     cg_consolecmds.obj
 0002:00018568       ??_C@_0EJ@HHKCJNJO@Contains?5a?5comma?5delimited?5list?5@ 100b7568     cg_consolecmds.obj
 0002:000185b4       ??_C@_0O@MFADANHC@campaign_maps?$AA@ 100b75b4     cg_consolecmds.obj
 0002:000185c4       ??_C@_0DC@BAECJJJB@g_serverInfo?5flag?51?5must?5be?5set?5@ 100b75c4     cg_consolecmds.obj
 0002:000185f8       ??_C@_0DM@KFOPLCBK@Displays?5player?5team?5information@ 100b75f8     cg_consolecmds.obj
 0002:00018634       ??_C@_01EJNLAFE@P?$AA@     100b7634     cg_consolecmds.obj
 0002:00018638       ??_C@_0DE@PLHMOPDP@Gives?5information?5about?5the?5play@ 100b7638     cg_consolecmds.obj
 0002:0001866c       ??_C@_0P@DBKEHPOC@Players_Allies?$AA@ 100b766c     cg_consolecmds.obj
 0002:0001867c       ??_C@_0DC@NJFNJBCO@g_serverInfo?5flag?52?5must?5be?5set?5@ 100b767c     cg_consolecmds.obj
 0002:000186b0       ??_C@_0DC@OFOMHEPL@Gives?5information?5about?5the?5play@ 100b76b0     cg_consolecmds.obj
 0002:000186e4       ??_C@_0N@BPIKEJKN@Players_Axis?$AA@ 100b76e4     cg_consolecmds.obj
 0002:000186f4       ??_C@_0CJ@HFEDDLAA@Limits?5the?5number?5of?5connections@ 100b76f4     cg_consolecmds.obj
 0002:00018720       ??_C@_0EE@MAEMJJKD@Protective?5CVAR?5to?5prevent?5conne@ 100b7720     cg_consolecmds.obj
 0002:00018764       ??_C@_0O@MLFBLJP@Type?3?5Integer?$AA@ 100b7764     cg_consolecmds.obj
 0002:00018774       ??_C@_0P@FHGPNNKP@ip_max_clients?$AA@ 100b7774     cg_consolecmds.obj
 0002:00018788       ??_C@_0EG@CNMKGGMK@Prevents?5players?5from?5flooding?5t@ 100b7788     cg_consolecmds.obj
 0002:000187d0       ??_C@_0BA@POLPGOHN@sv_floodprotect?$AA@ 100b77d0     cg_consolecmds.obj
 0002:000187e0       ??_C@_0BAK@NNFBFMLG@It?5will?5print?5the?5message?5?$CCInfo?5@ 100b77e0     cg_consolecmds.obj
 0002:000188f0       ??_C@_0OD@FONAEBKA@NOTE?3?5The?5serverInfo?5string?5has?5@ 100b78f0     cg_consolecmds.obj
 0002:000189d8       ??_C@_0ID@PBEDFHD@NOTE?3?5This?5cvar?5MUST?5be?5set?5prio@ 100b79d8     cg_consolecmds.obj
 0002:00018a60       ??_C@_0BDM@FILDCANK@Bitflag?516?3?5Charge?5times?5will?5no@ 100b7a60     cg_consolecmds.obj
 0002:00018ba0       ??_C@_0OJ@FCEGJNCL@Bitflag?58?3?5?5Displays?5the?5?8C?8?5CVA@ 100b7ba0     cg_consolecmds.obj
 0002:00018c90       ??_C@_0MC@KNHGCPID@Bitflag?54?3?5?5Display?5the?5?8campaig@ 100b7c90     cg_consolecmds.obj
 0002:00018d58       ??_C@_0JG@LOCPODMO@Bitflag?52?3?5?5Display?5player?5team?5@ 100b7d58     cg_consolecmds.obj
 0002:00018df0       ??_C@_0HN@FOHKDKGL@Bitflag?51?3?5?5Display?5player?5team?5@ 100b7df0     cg_consolecmds.obj
 0002:00018e70       ??_C@_0EC@FMLNMCHE@This?5is?5a?5bitflag?5cvar?5that?5curr@ 100b7e70     cg_consolecmds.obj
 0002:00018eb8       ??_C@_0KB@JJDHNEHE@Use?5this?5cvar?5to?5change?5the?5beha@ 100b7eb8     cg_consolecmds.obj
 0002:00018f5c       ??_C@_0N@JGMBJNPO@g_serverInfo?$AA@ 100b7f5c     cg_consolecmds.obj
 0002:00018f6c       ??_C@_0DO@FNLEAKDI@If?5the?5server?5crashes?5without?5an@ 100b7f6c     cg_consolecmds.obj
 0002:00018fb0       ??_C@_0EC@FDGIEDDO@This?5assumes?5no?5other?5applicatio@ 100b7fb0     cg_consolecmds.obj
 0002:00018ff4       ??_C@_0DM@DBEFEEGB@Set?5this?5at?5least?5to?5a?5value?5of?5@ 100b7ff4     cg_consolecmds.obj
 0002:00019030       ??_C@_0FC@GLBHNNMK@This?5option?5determines?5how?5much?5@ 100b8030     cg_consolecmds.obj
 0002:00019084       ??_C@_02KLACJAOD@56?$AA@   100b8084     cg_consolecmds.obj
 0002:00019088       ??_C@_0N@FEEKMNFK@com_hunkmegs?$AA@ 100b8088     cg_consolecmds.obj
 0002:00019098       ??_C@_0DF@HIILOBKM@BSP?5name?5of?5the?5map?5the?5server?5i@ 100b8098     cg_consolecmds.obj
 0002:000190d0       ??_C@_07KMNEBLH@mapname?$AA@ 100b80d0     cg_consolecmds.obj
 0002:000190d8       ??_C@_0DL@ICAONGL@Campaign?5file?5position?5of?5the?5cu@ 100b80d8     cg_consolecmds.obj
 0002:00019114       ??_C@_0BF@GAPFNOAB@g_currentCampaignMap?$AA@ 100b8114     cg_consolecmds.obj
 0002:0001912c       ??_C@_0CD@JGKJOJEF@Name?5of?5the?5current?5campaign?5fil@ 100b812c     cg_consolecmds.obj
 0002:00019150       ??_C@_0BC@OFBJJPJA@g_currentCampaign?$AA@ 100b8150     cg_consolecmds.obj
 0002:00019168       ??_C@_0ED@OADHFADD@Name?5of?5the?5campaign?5file?5that?5w@ 100b8168     cg_consolecmds.obj
 0002:000191ac       ??_C@_0O@HPCNNAOC@g_oldCampaign?$AA@ 100b81ac     cg_consolecmds.obj
 0002:000191bc       ??_C@_0DN@JMBLBJBA@Amount?5of?5matches?5won?5by?5the?5All@ 100b81bc     cg_consolecmds.obj
 0002:000191fc       ??_C@_0N@ODPKKCGH@g_alliedwins?$AA@ 100b81fc     cg_consolecmds.obj
 0002:0001920c       ??_C@_0CO@GCOKLFDJ@Only?5working?5in?5campaign?5mode?5?$CIg@ 100b820c     cg_consolecmds.obj
 0002:0001923c       ??_C@_0DL@BCJFICFF@Amount?5of?5matches?5won?5by?5the?5Axi@ 100b823c     cg_consolecmds.obj
 0002:00019278       ??_C@_0L@EJDKDBLP@g_axiswins?$AA@ 100b8278     cg_consolecmds.obj
 0002:00019284       ??_C@_0CP@KABLANJM@Use?5g_teamforcebalance?5to?5toggle@ 100b8284     cg_consolecmds.obj
 0002:000192b4       ??_C@_0DD@GOAPHCLB@Indicates?5whether?5team?9balance?5i@ 100b82b4     cg_consolecmds.obj
 0002:000192e8       ??_C@_0BA@EEONNMJI@g_balancedteams?$AA@ 100b82e8     cg_consolecmds.obj
 0002:000192f8       ??_C@_0ED@KGBGNOJH@Indicates?5whether?5the?5teams?5will@ 100b82f8     cg_consolecmds.obj
 0002:0001933c       ??_C@_0M@EMNFCALG@g_swapteams?$AA@ 100b833c     cg_consolecmds.obj
 0002:00019348       ??_C@_0CP@GJBJLCOE@Indicates?5whether?5the?5current?5ma@ 100b8348     cg_consolecmds.obj
 0002:00019378       ??_C@_07POJDPONG@g_reset?$AA@ 100b8378     cg_consolecmds.obj
 0002:00019380       ??_C@_0DH@BEHEPGMK@Website?5URL?5of?5the?5modification?5@ 100b8380     cg_consolecmds.obj
 0002:000193b8       ??_C@_0BF@EAGDFKLE@http?3?1?1shitstorm?4org?$AA@ 100b83b8     cg_consolecmds.obj
 0002:000193d0       ??_C@_07EHDHHEJN@mod_url?$AA@ 100b83d0     cg_consolecmds.obj
 0002:000193d8       ??_C@_0DD@MHKBIEHO@Version?5of?5the?5modification?5the?5@ 100b83d8     cg_consolecmds.obj
 0002:0001940c       ??_C@_05PAOBBBGH@1?43?40?$AA@ 100b840c     cg_consolecmds.obj
 0002:00019414       ??_C@_0M@DBOOKDBI@mod_version?$AA@ 100b8414     cg_consolecmds.obj
 0002:00019420       ??_C@_0BH@FGKBIHLP@Value?53?5?3?5Intermission?$AA@ 100b8420     cg_consolecmds.obj
 0002:00019438       ??_C@_0CL@BHKBCEAA@Value?52?5?3?5Pre?9Warmup?5?$CIWaiting?5fo@ 100b8438     cg_consolecmds.obj
 0002:00019464       ??_C@_0BB@NIKBCBKD@Value?51?5?3?5Warmup?$AA@ 100b8464     cg_consolecmds.obj
 0002:00019478       ??_C@_0BI@MEHIGDFD@Value?50?5?3?5Running?5match?$AA@ 100b8478     cg_consolecmds.obj
 0002:00019490       ??_C@_0DA@JNMGFAAC@Value?5?91?3?5Server?5executable?5runn@ 100b8490     cg_consolecmds.obj
 0002:000194c0       ??_C@_0BI@BMPILCCI@Type?3?5Read?9Only?5Integer?$AA@ 100b84c0     cg_consolecmds.obj
 0002:000194d8       ??_C@_02PGHGPEOM@?91?$AA@  100b84d8     cg_consolecmds.obj
 0002:000194dc       ??_C@_09LPDKDNCH@gamestate?$AA@ 100b84dc     cg_consolecmds.obj
 0002:000194e8       ??_C@_0HG@CNPOKKJH@If?5set?5to?50?0?5the?5clients?5on?5a?5LA@ 100b84e8     cg_consolecmds.obj
 0002:00019560       ??_C@_0DN@MMPFNAJG@Dedicated?51?5?$CILAN?$CJ?5server?5forces?5@ 100b8560     cg_consolecmds.obj
 0002:000195a0       ??_C@_0O@NINOKBFO@Type?3?5Boolean?$AA@ 100b85a0     cg_consolecmds.obj
 0002:000195b0       ??_C@_0BA@DJIAIMF@sv_lanForceRate?$AA@ 100b85b0     cg_consolecmds.obj
 0002:000195c0       ??_C@_0CK@MHICHJKG@Release?5date?5of?5the?5current?5game@ 100b85c0     cg_consolecmds.obj
 0002:000195ec       ??_C@_0BH@LDEKKLCJ@Type?3?5Read?9Only?5String?$AA@ 100b85ec     cg_consolecmds.obj
 0002:00019604       ??_C@_08CLLHAKFA@gamedate?$AA@ 100b8604     cg_consolecmds.obj
 0002:00019610       ??_C@_0ED@IIGEFC@Cheat?9protected?5client?5CVARs?5car@ 100b8610     cg_consolecmds.obj
 0002:00019654       ??_C@_0DH@CJNNELMB@Cheat?9commands?5are?5?1give?0?5?1nocli@ 100b8654     cg_consolecmds.obj
 0002:0001968c       ??_C@_0DI@LGJPPGJE@To?5enable?5cheatmode?5on?5a?5map?0?5us@ 100b868c     cg_consolecmds.obj
 0002:000196c8       ??_C@_0EE@IDGNFPED@Indicates?5if?5cheat?9protected?5CVA@ 100b86c8     cg_consolecmds.obj
 0002:0001970c       ??_C@_0BI@MIJDAIOJ@Type?3?5Read?9Only?5Boolean?$AA@ 100b870c     cg_consolecmds.obj
 0002:00019724       ??_C@_09NFOPKLIK@sv_cheats?$AA@ 100b8724     cg_consolecmds.obj
 0002:00019730       ??_C@_0BM@GKPCICGN@?$FLx?$FN?5?$DN?5last?5connected?5client?$AA@ 100b8730     cg_consolecmds.obj
 0002:0001974c       ??_C@_0BG@BKIGEGDH@?$FLw?$FN?5?$DN?5your?5own?5weapon?$AA@ 100b874c     cg_consolecmds.obj
 0002:00019764       ??_C@_0BE@LBCPFHIC@?$FLt?$FN?5?$DN?5your?5own?5ammo?$AA@ 100b8764     cg_consolecmds.obj
 0002:00019778       ??_C@_0BG@MFAPKNJL@?$FLs?$FN?5?$DN?5your?5own?5health?$AA@ 100b8778     cg_consolecmds.obj
 0002:00019790       ??_C@_0CD@EAIEHFHH@?$FLr?$FN?5?$DN?5last?5revived?1resuscitated?5@ 100b8790     cg_consolecmds.obj
 0002:000197b4       ??_C@_0BO@BNGODDMA@?$FLp?$FN?5?$DN?5pointing?5at?5this?5player?$AA@ 100b87b4     cg_consolecmds.obj
 0002:000197d4       ??_C@_0BE@ONBBLHBP@?$FLn?$FN?5?$DN?5your?5own?5name?$AA@ 100b87d4     cg_consolecmds.obj
 0002:000197e8       ??_C@_0CH@BFCPLOPC@?$FLm?$FN?5?$DN?5last?5player?5who?5called?5for@ 100b87e8     cg_consolecmds.obj
 0002:00019810       ??_C@_0P@BMLOFHHO@?$FLl?$FN?5?$DN?5location?$AA@ 100b8810     cg_consolecmds.obj
 0002:00019820       ??_C@_0CA@FDGAFMFB@?$FLk?$FN?5?$DN?5last?5player?5you?8ve?5killed?$AA@ 100b8820     cg_consolecmds.obj
 0002:00019840       ??_C@_0BO@PMGPDJMF@?$FLi?$FN?5?$DN?5last?5player?5who?5said?5hi?$AA@ 100b8840     cg_consolecmds.obj
 0002:00019860       ??_C@_0CA@FMBHIIEB@?$FLh?$FN?5?$DN?5last?5health?5received?5from?$AA@ 100b8860     cg_consolecmds.obj
 0002:00019880       ??_C@_0CD@IOFPCDEI@?$FLg?$FN?5?$DN?5last?5player?5who?5said?5goodb@ 100b8880     cg_consolecmds.obj
 0002:000198a4       ??_C@_0CG@POCAEAEG@?$FLf?$FN?5?$DN?5last?5player?5who?5called?5for@ 100b88a4     cg_consolecmds.obj
 0002:000198cc       ??_C@_0CB@IKNPPLFF@?$FLd?$FN?5?$DN?5last?5player?5who?5killed?5you@ 100b88cc     cg_consolecmds.obj
 0002:000198f0       ??_C@_0BM@JBEFONFH@?$FLc?$FN?5?$DN?5last?5teambleed?5damage?$AA@ 100b88f0     cg_consolecmds.obj
 0002:0001990c       ??_C@_0BI@MDFLJBGP@?$FLb?$FN?5?$DN?5last?5teambleed?5by?$AA@ 100b890c     cg_consolecmds.obj
 0002:00019924       ??_C@_0BO@HCLBPBOJ@?$FLa?$FN?5?$DN?5last?5ammo?5received?5from?$AA@ 100b8924     cg_consolecmds.obj
 0002:00019944       ??_C@_0DE@PBDBBEB@The?5codes?5are?5replaced?5by?5the?5te@ 100b8944     cg_consolecmds.obj
 0002:00019978       ??_C@_0CK@DMEDOLPH@Shortcuts?5are?5codes?5to?5put?5in?5a?5@ 100b8978     cg_consolecmds.obj
 0002:000199a4       ??_C@_07OPEKGLFC@network?$AA@ 100b89a4     cg_consolecmds.obj
 0002:000199ac       ??_C@_08NGGFOJBB@restrict?$AA@ 100b89ac     cg_consolecmds.obj
 0002:000199b8       ??_C@_0M@LHMAHEFC@performance?$AA@ 100b89b8     cg_consolecmds.obj
 0002:000199c4       ??_C@_05GFCDIDHO@debug?$AA@ 100b89c4     cg_consolecmds.obj
 0002:000199cc       ??_C@_03IBJHJIAF@lua?$AA@  100b89cc     cg_consolecmds.obj
 0002:000199d0       ??_C@_09NBKGABOG@shortcuts?$AA@ 100b89d0     cg_consolecmds.obj
 0002:000199dc       ??_C@_08LHFODBFO@distance?$AA@ 100b89dc     cg_consolecmds.obj
 0002:000199e8       ??_C@_04CLCEDBPF@time?$AA@ 100b89e8     cg_consolecmds.obj
 0002:000199f0       ??_C@_04OOIACBCD@bots?$AA@ 100b89f0     cg_consolecmds.obj
 0002:000199f8       ??_C@_05ODMCMJAJ@skill?$AA@ 100b89f8     cg_consolecmds.obj
 0002:00019a00       ??_C@_07KFFKKIBL@penalty?$AA@ 100b8a00     cg_consolecmds.obj
 0002:00019a08       ??_C@_06DGAAJNND@voting?$AA@ 100b8a08     cg_consolecmds.obj
 0002:00019a10       ??_C@_09GPNANCCP@covertops?$AA@ 100b8a10     cg_consolecmds.obj
 0002:00019a1c       ??_C@_08IHHADB@fieldops?$AA@ 100b8a1c     cg_consolecmds.obj
 0002:00019a28       ??_C@_08NCGGGNGI@engineer?$AA@ 100b8a28     cg_consolecmds.obj
 0002:00019a34       ??_C@_06LENEKFAF@medics?$AA@ 100b8a34     cg_consolecmds.obj
 0002:00019a3c       ??_C@_08MNNNEJIN@soldiers?$AA@ 100b8a3c     cg_consolecmds.obj
 0002:00019a48       ??_C@_08DEEKCEBN@messages?$AA@ 100b8a48     cg_consolecmds.obj
 0002:00019a54       ??_C@_07JCGPBIBM@configs?$AA@ 100b8a54     cg_consolecmds.obj
 0002:00019a5c       ??_C@_02HFGDGGPD@xp?$AA@   100b8a5c     cg_consolecmds.obj
 0002:00019a60       ??_C@_08MBFLHJIB@security?$AA@ 100b8a60     cg_consolecmds.obj
 0002:00019a6c       ??_C@_07HAFPJOBC@logging?$AA@ 100b8a6c     cg_consolecmds.obj
 0002:00019a74       ??_C@_06LPKPFNOH@warmup?$AA@ 100b8a74     cg_consolecmds.obj
 0002:00019a7c       ??_C@_08EPLHJFBG@spawning?$AA@ 100b8a7c     cg_consolecmds.obj
 0002:00019a88       ??_C@_07PKKCMMCH@weapons?$AA@ 100b8a88     cg_consolecmds.obj
 0002:00019a90       ??_C@_0BB@MJMOCNNN@?$CI?$CFi?5?$CFi?5?$CFi?$CJ?5?3?5?$CFi?6?$AA@ 100b8a90     cg_consolecmds.obj
 0002:00019aa4       ??_C@_0CG@OBDPBBMM@You?5will?5spawn?5as?5an?5?$CFs?5?$CFs?5with?5@ 100b8aa4     cg_consolecmds.obj
 0002:00019acc       ??_C@_07CIFAGBMG@unknown?$AA@ 100b8acc     cg_consolecmds.obj
 0002:00019ad4       ??_C@_0BA@GEGLPGND@team?5?$CFs?5?$CFi?5?$CFi?5?6?$AA@ 100b8ad4     cg_consolecmds.obj
 0002:00019ae4       ??_C@_01OJONOECF@b?$AA@    100b8ae4     cg_consolecmds.obj
 0002:00019ae8       ??_C@_01KDCPPGHE@r?$AA@    100b8ae8     cg_consolecmds.obj
 0002:00019aec       ??_C@_0BA@HPKMCMCE@?$CFs?5is?5disabled?6?$AA@ 100b8aec     cg_consolecmds.obj
 0002:00019afc       ??_C@_01PAPGNFGE@c?$AA@    100b8afc     cg_consolecmds.obj
 0002:00019b00       ??_C@_01INIBCBCB@f?$AA@    100b8b00     cg_consolecmds.obj
 0002:00019b04       ??_C@_01KGKMHCOC@e?$AA@    100b8b04     cg_consolecmds.obj
 0002:00019b08       ??_C@_01GOHFPIOK@m?$AA@    100b8b08     cg_consolecmds.obj
 0002:00019b0c       ??_C@_01LKDEMHDF@s?$AA@    100b8b0c     cg_consolecmds.obj
 0002:00019b10       ??_C@_0L@LNJCBCJN@sgstats?5?$CFd?$AA@ 100b8b10     cg_consolecmds.obj
 0002:00019b1c       ??_C@_0N@GLLHPHLO@?$FLcgnotify?$FN?$CFs?$AA@ 100b8b1c     cg_consolecmds.obj
 0002:00019b2c       ??_C@_0DK@NNLEOPLP@You?5must?5be?5a?5player?5or?5followin@ 100b8b2c     cg_consolecmds.obj
 0002:00019b68       ??_C@_07LAHOAMNC@stshots?$AA@ 100b8b68     cg_consolecmds.obj
 0002:00019b70       ??_C@_05DBKDOICH@score?$AA@ 100b8b70     cg_consolecmds.obj
 0002:00019b78       ??_C@_08BOLDKLOI@pm?5?$CFs?5?$CFs?$AA@ 100b8b78     cg_consolecmds.obj
 0002:00019b84       ??_C@_0BJ@IFLKBGGI@cmd?5vsay_buddy?5?91?5?$CFs?5?$CFs?6?$AA@ 100b8b84     cg_consolecmds.obj
 0002:00019ba0       ??_C@_0CB@LPHINAFG@Can?8t?5say?5class?5when?5spectator?4?6@ 100b8ba0     cg_consolecmds.obj
 0002:00019bc4       ??_C@_0L@KJMBMHH@IamSoldier?$AA@ 100b8bc4     cg_consolecmds.obj
 0002:00019bd0       ??_C@_0N@HOOODACO@IamCovertOps?$AA@ 100b8bd0     cg_consolecmds.obj
 0002:00019be0       ??_C@_0M@KHBBMEDE@IamFieldOps?$AA@ 100b8be0     cg_consolecmds.obj
 0002:00019bec       ??_C@_0M@NFMCHGFD@IamEngineer?$AA@ 100b8bec     cg_consolecmds.obj
 0002:00019bf8       ??_C@_08MCGBJKBN@IamMedic?$AA@ 100b8bf8     cg_consolecmds.obj
 0002:00019c04       ??_C@_0BC@KMMJHODH@cmd?5vsay_team?5?$CFs?6?$AA@ 100b8c04     cg_consolecmds.obj
 0002:00019c18       ??_C@_0N@OAPNJO@cmd?5vsay?5?$CFs?6?$AA@ 100b8c18     cg_consolecmds.obj
 0002:00019c28       ??_C@_0CH@FEADHHMD@Can?8t?5team?5voice?5chat?5as?5a?5spect@ 100b8c28     cg_consolecmds.obj
 0002:00019c50       ??_C@_0CI@BPBCLLGK@Can?8t?5buddy?5voice?5chat?5as?5a?5spec@ 100b8c50     cg_consolecmds.obj
 0002:00019c78       ??_C@_0P@CFBICFLP@cg_messageText?$AA@ 100b8c78     cg_consolecmds.obj
 0002:00019c88       ??_C@_0N@NFNJCLFL@messagemode4?$AA@ 100b8c88     cg_consolecmds.obj
 0002:00019c98       ??_C@_0N@JKJILNJM@messagemode3?$AA@ 100b8c98     cg_consolecmds.obj
 0002:00019ca8       ??_C@_0N@IDIDIMNN@messagemode2?$AA@ 100b8ca8     cg_consolecmds.obj
 0002:00019cb8       ??_C@_0P@BAMGBHOI@say_team?5?$CC?$CFs?$CC?6?$AA@ 100b8cb8     cg_consolecmds.obj
 0002:00019cc8       ??_C@_0BA@GBDIDJJH@say_buddy?5?$CC?$CFs?$CC?6?$AA@ 100b8cc8     cg_consolecmds.obj
 0002:00019cd8       ??_C@_0O@KEGIHILP@pm?5?$CC?$CFs?$CC?5?$CC?$CFs?$CC?6?$AA@ 100b8cd8     cg_consolecmds.obj
 0002:00019ce8       ??_C@_09MNFIPOON@say?5?$CC?$CFs?$CC?6?$AA@ 100b8ce8     cg_consolecmds.obj
 0002:00019cf4       ??_C@_08IOGFABJ@?$CLsalute?6?$AA@ 100b8cf4     cg_consolecmds.obj
 0002:00019d00       ??_C@_08HLPMCJJD@?9salute?6?$AA@ 100b8d00     cg_consolecmds.obj
 0002:00019d0c       ??_C@_0BL@MOLPHJCN@?$CFs?$CFs?$CFs?5related?5CVars?5are?3?6?$AA@ 100b8d0c     cg_consolecmds.obj
 0002:00019d28       ??_C@_0BH@EAEMPNPA@?$CFsDefault?5value?3?5?$CC?$CFs?$CC?6?$AA@ 100b8d28     cg_consolecmds.obj
 0002:00019d40       ??_C@_05JMJKDBEJ@?$CFs?$CFs?6?$AA@ 100b8d40     cg_consolecmds.obj
 0002:00019d48       ??_C@_02IPPOFLBD@?$FOA?$AA@ 100b8d48     cg_consolecmds.obj
 0002:00019d4c       ??_C@_0DI@ELMFCPOM@?$CFsperformance?5?5restrict?5?5?5?5?5netw@ 100b8d4c     cg_consolecmds.obj
 0002:00019d84       ??_C@_0DI@LNIGOAKG@?$CFsdistance?5?5?5?5?5shortcuts?5?5?5?5lua?5@ 100b8d84     cg_consolecmds.obj
 0002:00019dbc       ??_C@_0DI@ECANLPCC@?$CFsskill?5?5?5?5?5?5?5?5bots?5?5?5?5?5?5?5?5?5time@ 100b8dbc     cg_consolecmds.obj
 0002:00019df4       ??_C@_0DI@FILLFBDO@?$CFscovertops?5?5?5?5voting?5?5?5?5?5?5?5dama@ 100b8df4     cg_consolecmds.obj
 0002:00019e2c       ??_C@_0DI@MHFMJDPM@?$CFssoldier?5?5?5?5?5?5medic?5?5?5?5?5?5?5?5engi@ 100b8e2c     cg_consolecmds.obj
 0002:00019e64       ??_C@_0DI@KAGLJCKF@?$CFssecurity?5?5?5?5?5xp?5?5?5?5?5?5?5?5?5?5?5conf@ 100b8e64     cg_consolecmds.obj
 0002:00019e9c       ??_C@_0DI@ECLDJJLP@?$CFsweapons?5?5?5?5?5?5spawning?5?5?5?5?5warm@ 100b8e9c     cg_consolecmds.obj
 0002:00019ed4       ??_C@_0CF@MILOPIDI@?$CFsThe?5special?5search?9arguments?5a@ 100b8ed4     cg_consolecmds.obj
 0002:00019efc       ??_C@_0CD@BPBMPMFE@?$CFsto?5get?5a?5list?5of?5related?5CVARs@ 100b8efc     cg_consolecmds.obj
 0002:00019f20       ??_C@_0DD@LFKODOEN@?$CFsYou?5can?5instead?5enter?5a?5specia@ 100b8f20     cg_consolecmds.obj
 0002:00019f54       ??_C@_0DJ@EKFCHLOC@?$CFsYou?5can?5enter?5a?5CVAR?9name?5you?5@ 100b8f54     cg_consolecmds.obj
 0002:00019f90       ??_C@_0CG@NBCCPJLB@?$CFsUsage?3?5?5nqadmin?5?$DMcvar?5?$HM?$HM?5speci@ 100b8f90     cg_consolecmds.obj
 0002:00019fb8       ??_C@_0BO@BCAGMLHK@?$CFsNo?5Quarter?5?$CFsSERVER?$CFs?5help?6?$AA@ 100b8fb8     cg_consolecmds.obj
 0002:00019fd8       ??_C@_02BBHNHGJN@?$FOO?$AA@ 100b8fd8     cg_consolecmds.obj
 0002:00019fdc       ??_C@_02CDELBEBP@?$FOM?$AA@ 100b8fdc     cg_consolecmds.obj
 0002:00019fe0       ??_C@_0DA@LEJOIMDI@?$FO9?9?9?9?9?9?9?9?9?9?9?9?9?9?9?9?9?9?9?9?9?9?9?9?9?9?9?9?9?9?9@ 100b8fe0     cg_consolecmds.obj
 0002:0001a010       ??_C@_04PCJFHION@help?$AA@ 100b9010     cg_consolecmds.obj
 0002:0001a018       ??_C@_01OGPIMHDM@?$DP?$AA@ 100b9018     cg_consolecmds.obj
 0002:0001a01c       ??_C@_0DI@LIFMENON@?$CFsdemo?5?5?5?5?5?5?5?5?5chat?5?5?5?5?5?5?5?5?5debu@ 100b901c     cg_consolecmds.obj
 0002:0001a054       ??_C@_0DI@ILCOMMEG@?$CFsdraw?5?5?5?5?5?5?5?5?5client?5?5?5?5?5?5?5fire@ 100b9054     cg_consolecmds.obj
 0002:0001a08c       ??_C@_0DI@CINIHCHL@?$CFsweapon?5?5?5?5?5?5?5hud?5?5?5?5?5?5?5?5?5?5move@ 100b908c     cg_consolecmds.obj
 0002:0001a0c4       ??_C@_0DI@KGGPBKBL@?$CFsvideo?5?5?5?5?5?5?5?5audio?5?5?5?5?5?5?5?5filt@ 100b90c4     cg_consolecmds.obj
 0002:0001a0fc       ??_C@_0CD@NJHBNGGG@?$CFsto?5get?5a?5list?5of?5related?5CVars@ 100b90fc     cg_consolecmds.obj
 0002:0001a120       ??_C@_0CF@BMGJGMEB@?$CFsUsage?3?5?5nqhelp?5?$DMcvar?5?$HM?$HM?5specia@ 100b9120     cg_consolecmds.obj
 0002:0001a148       ??_C@_0BP@FMFMBCHG@?$CFsNo?5Quarter?5?$CFsCLIENT?$CFs?5help?4?6?$AA@ 100b9148     cg_consolecmds.obj
 0002:0001a168       ??_C@_0DH@DCNFDEEL@?$FLcgnotify?$FNCurrent?5time?3?5?$FO3?$CF02d?3?$CF@ 100b9168     cg_consolecmds.obj
 0002:0001a1a0       ??_C@_0L@HLDKKHKG@record?5?$CFs?6?$AA@ 100b91a0     cg_consolecmds.obj
 0002:0001a1ac       ??_C@_0BB@IBNKHIFE@screenshot?$CFs?5?$CFs?6?$AA@ 100b91ac     cg_consolecmds.obj
 0002:0001a1c0       ??_C@_04CJPKNBEB@JPEG?$AA@ 100b91c0     cg_consolecmds.obj
 0002:0001a1c8       ??_C@_0CO@NHGAGC@?$FLcgnotify?$FNUsage?3?5?$CLvstr?5?$FLdown_vst@ 100b91c8     cg_consolecmds.obj
 0002:0001a1f8       ??_C@_08NKHFNGLG@vstr?5?$CFs?$DL?$AA@ 100b91f8     cg_consolecmds.obj
 0002:0001a204       ??_C@_0CG@MDJACJL@?$FLcgnotify?$FN?$FO3?$CK?$CK?$CK?5NOT?5PLAYING?5A?5DE@ 100b9204     cg_consolecmds.obj
 0002:0001a22c       ??_C@_0M@LMCLABBK@weaponstats?$AA@ 100b922c     cg_consolecmds.obj
 0002:0001a238       ??_C@_0CC@EBKLCPFO@editSpeakers?5is?5cheat?5protected?4@ 100b9238     cg_consolecmds.obj
 0002:0001a25c       ??_C@_0CC@LKFEHJGI@?$FO1ERROR?3?5Failed?5to?5store?5speaker@ 100b925c     cg_consolecmds.obj
 0002:0001a280       ??_C@_0DK@KPGPJKMI@Speaker?5Edit?5mode?5needs?5to?5be?5ac@ 100b9280     cg_consolecmds.obj
 0002:0001a2bc       ??_C@_0BL@DPJFGHGC@Usage?3?5timerSet?5?$FLseconds?$FN?6?$AA@ 100b92bc     cg_consolecmds.obj
 0002:0001a2d8       ??_C@_0CN@MPIDNGCL@Argument?5must?5be?5a?5number?5betwee@ 100b92d8     cg_consolecmds.obj
 0002:0001a308       ??_C@_02DPKJAMEF@?$CFd?$AA@ 100b9308     cg_consolecmds.obj
 0002:0001a30c       ??_C@_0DB@EJGPNJCL@You?5may?5only?5use?5this?5command?5du@ 100b930c     cg_consolecmds.obj
 0002:0001a340       ??_C@_0CE@OOKJGPNN@In?5total?5?$CFd?5restriction?5rules?5se@ 100b9340     cg_consolecmds.obj
 0002:0001a364       ??_C@_0CH@NGJMJAI@There?5are?5no?5weapon?5restrictions@ 100b9364     cg_consolecmds.obj
 0002:0001a38c       ??_C@_0BG@BAAJMIMG@?$CF?913s?5?$CFs?5?$CFs?5?$CFs?5?$CFs?5?$CFs?6?$AA@ 100b938c     cg_consolecmds.obj
 0002:0001a3a4       ??_C@_0BI@NMLFHCLL@?$FO2weapon?5is?5available?$FO7?$AA@ 100b93a4     cg_consolecmds.obj
 0002:0001a3bc       ??_C@_0BO@ILJMIGEE@?$FO1weapon?5restricted?5by?5rule?$FO7?$AA@ 100b93bc     cg_consolecmds.obj
 0002:0001a3dc       ??_C@_04LIAPHEDB@free?$AA@ 100b93dc     cg_consolecmds.obj
 0002:0001a3e4       ??_C@_0L@MFICAIMB@restricted?$AA@ 100b93e4     cg_consolecmds.obj
 0002:0001a3f0       ??_C@_03NLEFPEMI@?$CF3i?$AA@ 100b93f0     cg_consolecmds.obj
 0002:0001a3f4       ??_C@_04PFOHOKJK@?5?5?5?5?$AA@ 100b93f4     cg_consolecmds.obj
 0002:0001a3fc       ??_C@_09IMMPNFPI@?$CF?925s?5?$CFs?6?$AA@ 100b93fc     cg_consolecmds.obj
 0002:0001a408       ??_C@_0BG@DGLGAJDL@?$FO1disabled?5by?5admin?$FO7?$AA@ 100b9408     cg_consolecmds.obj
 0002:0001a420       ??_C@_0DO@BDNDJIG@?9?9?9?9?9?9?9?9?9?9?9?9?9?9?9?9?9?9?9?9?9?9?9?9?9?9?9?9?9?9?9?9@ 100b9420     cg_consolecmds.obj
 0002:0001a460       ??_C@_0CC@ICBDMHON@Weapon?5?5?5?5?5?5?5?5Min?5Max?5Per?5Status@ 100b9460     cg_consolecmds.obj
 0002:0001a484       ??_C@_0DA@IMLCDJOD@wrcinfo?3?5?$CFd?5total?5and?5?$CFi?5team?5pl@ 100b9484     cg_consolecmds.obj
 0002:0001a4b4       ??_C@_0O@OBMKKPAG@configstrings?$AA@ 100b94b4     cg_consolecmds.obj
 0002:0001a4c4       ??_C@_08EABBCNLP@?9button4?$AA@ 100b94c4     cg_consolecmds.obj
 0002:0001a4d0       ??_C@_08DDALFEDF@?$CLbutton4?$AA@ 100b94d0     cg_consolecmds.obj
 0002:0001a4dc       ??_C@_09KPLABCPP@?9lookdown?$AA@ 100b94dc     cg_consolecmds.obj
 0002:0001a4e8       ??_C@_07MHFKIPNM@?9lookup?$AA@ 100b94e8     cg_consolecmds.obj
 0002:0001a4f0       ??_C@_09KCKOGCLI@?$CLlookdown?$AA@ 100b94f0     cg_consolecmds.obj
 0002:0001a4fc       ??_C@_07BDFIGFL@?$CLlookup?$AA@ 100b94fc     cg_consolecmds.obj
 0002:0001a504       ??_C@_02IEBMFLFH@pm?$AA@   100b9504     cg_consolecmds.obj
 0002:0001a508       ??_C@_08EHILFAKG@dropclip?$AA@ 100b9508     cg_consolecmds.obj
 0002:0001a514       ??_C@_0L@KPCNGFPA@dropweapon?$AA@ 100b9514     cg_consolecmds.obj
 0002:0001a520       ??_C@_05LCFPHLEE@where?$AA@ 100b9520     cg_consolecmds.obj
 0002:0001a528       ??_C@_09CPIJOHHK@vsay_team?$AA@ 100b9528     cg_consolecmds.obj
 0002:0001a534       ??_C@_0L@MDGCGOMD@vsay_buddy?$AA@ 100b9534     cg_consolecmds.obj
 0002:0001a540       ??_C@_04IBCNHBFH@vsay?$AA@ 100b9540     cg_consolecmds.obj
 0002:0001a548       ??_C@_0L@OLIPNFOG@setspawnpt?$AA@ 100b9548     cg_consolecmds.obj
 0002:0001a554       ??_C@_09FNPICPOJ@say_buddy?$AA@ 100b9554     cg_consolecmds.obj
 0002:0001a560       ??_C@_07JKJJNDPB@imready?$AA@ 100b9560     cg_consolecmds.obj
 0002:0001a568       ??_C@_08FDGJMFEE@setclass?$AA@ 100b9568     cg_consolecmds.obj
 0002:0001a574       ??_C@_0L@JEGMLLN@setweapons?$AA@ 100b9574     cg_consolecmds.obj
 0002:0001a580       ??_C@_08NFIAKLAJ@campaign?$AA@ 100b9580     cg_consolecmds.obj
 0002:0001a58c       ??_C@_08GHMEOEDD@unignore?$AA@ 100b958c     cg_consolecmds.obj
 0002:0001a598       ??_C@_06GDPEBLPA@ignore?$AA@ 100b9598     cg_consolecmds.obj
 0002:0001a5a0       ??_C@_09JDCAJFKD@showstats?$AA@ 100b95a0     cg_consolecmds.obj
 0002:0001a5ac       ??_C@_07IAGFONAI@unready?$AA@ 100b95ac     cg_consolecmds.obj
 0002:0001a5b4       ??_C@_07BIEIMCKD@unpause?$AA@ 100b95b4     cg_consolecmds.obj
 0002:0001a5bc       ??_C@_06BNCCALCL@unlock?$AA@ 100b95bc     cg_consolecmds.obj
 0002:0001a5c4       ??_C@_08EBEBFFLL@topshots?$AA@ 100b95c4     cg_consolecmds.obj
 0002:0001a5d0       ??_C@_07DDHNKDGP@timeout?$AA@ 100b95d0     cg_consolecmds.obj
 0002:0001a5d8       ??_C@_06IEGNIIGA@timein?$AA@ 100b95d8     cg_consolecmds.obj
 0002:0001a5e0       ??_C@_08PANNJPDL@statsall?$AA@ 100b95e0     cg_consolecmds.obj
 0002:0001a5ec       ??_C@_0L@DCNALHGA@specunlock?$AA@ 100b95ec     cg_consolecmds.obj
 0002:0001a5f8       ??_C@_08NIHJCBGL@speclock?$AA@ 100b95f8     cg_consolecmds.obj
 0002:0001a604       ??_C@_0L@BKHPAJFO@specinvite?$AA@ 100b9604     cg_consolecmds.obj
 0002:0001a610       ??_C@_06KBCJDMLG@scores?$AA@ 100b9610     cg_consolecmds.obj
 0002:0001a618       ??_C@_08NBFNGOHN@say_team?$AA@ 100b9618     cg_consolecmds.obj
 0002:0001a624       ??_C@_0L@LLJKFIDI@say_teamnl?$AA@ 100b9624     cg_consolecmds.obj
 0002:0001a630       ??_C@_03GCDGINBO@ref?$AA@  100b9630     cg_consolecmds.obj
 0002:0001a634       ??_C@_05GLLMDLIO@ready?$AA@ 100b9634     cg_consolecmds.obj
 0002:0001a63c       ??_C@_09COEEGHNO@readyteam?$AA@ 100b963c     cg_consolecmds.obj
 0002:0001a648       ??_C@_07BCGOFIOM@players?$AA@ 100b9648     cg_consolecmds.obj
 0002:0001a650       ??_C@_05PDJBBECF@pause?$AA@ 100b9650     cg_consolecmds.obj
 0002:0001a658       ??_C@_08LJDKJCJK@notready?$AA@ 100b9658     cg_consolecmds.obj
 0002:0001a664       ??_C@_04MKMCLCOO@lock?$AA@ 100b9664     cg_consolecmds.obj
 0002:0001a66c       ??_C@_08BPLPECIC@commands?$AA@ 100b966c     cg_consolecmds.obj
 0002:0001a678       ??_C@_0M@CCHDMPPP@bottomshots?$AA@ 100b9678     cg_consolecmds.obj
 0002:0001a684       ??_C@_0L@NDBOCMOD@swap_teams?$AA@ 100b9684     cg_consolecmds.obj
 0002:0001a690       ??_C@_0M@IIAFABKB@reset_match?$AA@ 100b9690     cg_consolecmds.obj
 0002:0001a69c       ??_C@_0M@JHCCCIKI@start_match?$AA@ 100b969c     cg_consolecmds.obj
 0002:0001a6a8       ??_C@_0L@FFKCNEMH@followprev?$AA@ 100b96a8     cg_consolecmds.obj
 0002:0001a6b4       ??_C@_0L@GBHEMAKD@follownext?$AA@ 100b96b4     cg_consolecmds.obj
 0002:0001a6c0       ??_C@_04GHHIKFLG@vote?$AA@ 100b96c0     cg_consolecmds.obj
 0002:0001a6c8       ??_C@_08NNMLCPB@callvote?$AA@ 100b96c8     cg_consolecmds.obj
 0002:0001a6d4       ??_C@_06HNJAFFAK@follow?$AA@ 100b96d4     cg_consolecmds.obj
 0002:0001a6dc       ??_C@_04KADBPNCB@team?$AA@ 100b96dc     cg_consolecmds.obj
 0002:0001a6e4       ??_C@_0O@HNELLPEM@listcampaigns?$AA@ 100b96e4     cg_consolecmds.obj
 0002:0001a6f4       ??_C@_09IDBEKDFK@nofatigue?$AA@ 100b96f4     cg_consolecmds.obj
 0002:0001a700       ??_C@_0L@CCEFBCKP@setviewpos?$AA@ 100b9700     cg_consolecmds.obj
 0002:0001a70c       ??_C@_06IHODGGMJ@noclip?$AA@ 100b970c     cg_consolecmds.obj
 0002:0001a714       ??_C@_08HPLPOCJL@notarget?$AA@ 100b9714     cg_consolecmds.obj
 0002:0001a720       ??_C@_03DKFAMNOH@god?$AA@  100b9720     cg_consolecmds.obj
 0002:0001a724       ??_C@_04BMBHJADG@give?$AA@ 100b9724     cg_consolecmds.obj
 0002:0001a72c       ??_C@_03BANJEMDJ@say?$AA@  100b972c     cg_consolecmds.obj
 0002:0001a730       ??_C@_04BJJEOANI@kill?$AA@ 100b9730     cg_consolecmds.obj
 0002:0001a738       ??_C@_0L@FOHODDJF@0x?$CF08x?7?$CFs?6?$AA@ 100b9738     cg_crash.obj
 0002:0001a744       ??_C@_0BC@EOODALEL@Unknown?5exception?$AA@ 100b9744     cg_crash.obj
 0002:0001a758       ??_C@_0P@EFDAIKIF@Invalid?5handle?$AA@ 100b9758     cg_crash.obj
 0002:0001a768       ??_C@_0BE@JJMBEGLL@Invalid?5disposition?$AA@ 100b9768     cg_crash.obj
 0002:0001a77c       ??_C@_0P@MGPMFBBC@Stack?5overflow?$AA@ 100b977c     cg_crash.obj
 0002:0001a78c       ??_C@_0BJ@HGNBDCNI@Noncontinuable?5exception?$AA@ 100b978c     cg_crash.obj
 0002:0001a7a8       ??_C@_0BE@MLNNHANJ@Illegal?5instruction?$AA@ 100b97a8     cg_crash.obj
 0002:0001a7bc       ??_C@_0O@MGKDBHDE@In?5page?5error?$AA@ 100b97bc     cg_crash.obj
 0002:0001a7cc       ??_C@_0BH@KPGNPNII@Privileged?5instruction?$AA@ 100b97cc     cg_crash.obj
 0002:0001a7e4       ??_C@_0BB@IPOJFFKA@Integer?5overflow?$AA@ 100b97e4     cg_crash.obj
 0002:0001a7f8       ??_C@_0BH@NHLLGLIN@Integer?5divide?5by?5zero?$AA@ 100b97f8     cg_crash.obj
 0002:0001a810       ??_C@_0BA@MKOPBGLC@Float?5underflow?$AA@ 100b9810     cg_crash.obj
 0002:0001a820       ??_C@_0BC@CFKBGEGC@Float?5stack?5check?$AA@ 100b9820     cg_crash.obj
 0002:0001a834       ??_C@_0P@MPCBPAKO@Float?5overflow?$AA@ 100b9834     cg_crash.obj
 0002:0001a844       ??_C@_0BI@NCCJNINI@Float?5invalid?5operation?$AA@ 100b9844     cg_crash.obj
 0002:0001a85c       ??_C@_0BF@BGPMFELN@Float?5inexact?5result?$AA@ 100b985c     cg_crash.obj
 0002:0001a874       ??_C@_0BF@JGBFFBDC@Float?5divide?5by?5zero?$AA@ 100b9874     cg_crash.obj
 0002:0001a88c       ??_C@_0BH@BHMNNGEN@Float?5denormal?5operand?$AA@ 100b988c     cg_crash.obj
 0002:0001a8a4       ??_C@_0BG@PAGJAHHI@Array?5bounds?5exceeded?$AA@ 100b98a4     cg_crash.obj
 0002:0001a8bc       ??_C@_0BB@KFJCFCM@Access?5violation?$AA@ 100b98bc     cg_crash.obj
 0002:0001a8d0       ??_C@_0L@IJAJFAIH@Guard?5page?$AA@ 100b98d0     cg_crash.obj
 0002:0001a8dc       ??_C@_0M@HBBAMPBG@Single?5step?$AA@ 100b98dc     cg_crash.obj
 0002:0001a8e8       ??_C@_0L@DEJAMIEF@Breakpoint?$AA@ 100b98e8     cg_crash.obj
 0002:0001a8f4       ??_C@_0BG@GMGPAKFC@Datatype?5misalignment?$AA@ 100b98f4     cg_crash.obj
 0002:0001a90c       ??_C@_0BL@HMAMKACE@Exception?5Address?3?50x?$CF08x?6?$AA@ 100b990c     cg_crash.obj
 0002:0001a928       ??_C@_0BI@JHADFJIA@Exception?3?5?$CFs?5?$CI0x?$CF08x?$CJ?6?$AA@ 100b9928     cg_crash.obj
 0002:0001a940       ??_C@_0BC@JIDKCFCN@DLL?5Information?3?6?$AA@ 100b9940     cg_crash.obj
 0002:0001a954       ??_C@_0BC@IFJKEEGH@?$CI?$CFd?$CJ?5?$CFs?5?$FL0x?$CF08x?$FN?6?$AA@ 100b9954     cg_crash.obj
 0002:0001a968       ??_C@_0BL@KFBJGJCF@?$CI?$CFd?$CJ?5?$CFs?$CI?$CFs?$CL?$CF?$CD0x?$CJ?5?$FL0x?$CF08x?$FN?6?$AA@ 100b9968     cg_crash.obj
 0002:0001a984       ??_C@_07NBCGADJA@Unknown?$AA@ 100b9984     cg_crash.obj
 0002:0001a98c       ??_C@_0BJ@LJHNKIEP@Attempting?5to?5clean?5up?4?6?$AA@ 100b998c     cg_crash.obj
 0002:0001a9a8       ??_C@_0CK@NCILKBBF@?98?$DM?9?9?9?9?9?9?9?9?9?9?9?9?9?9?9?9?9?9?9?9?9?9?9?9?9?9?9?9?9@ 100b99a8     cg_crash.obj
 0002:0001a9d4       ??_C@_08JJJGBFEP@Map?3?5?$CFs?6?$AA@ 100b99d4     cg_crash.obj
 0002:0001a9e0       ??_C@_0BL@PGPLHOBC@Version?5Windows?3?5?$CFs?5?$CFs?5?$CFs?6?$AA@ 100b99e0     cg_crash.obj
 0002:0001a9fc       ??_C@_06IEONBMMP@1?43?40b?$AA@ 100b99fc     cg_crash.obj
 0002:0001aa04       ??_C@_0M@JHNHDCIL@Apr?518?52012?$AA@ 100b9a04     cg_crash.obj
 0002:0001aa10       ??_C@_0BJ@BACLBEJB@Enemy?5Territory?0?5ET?52?460?$AA@ 100b9a10     cg_crash.obj
 0002:0001aa2c       ??_C@_0CJ@NAGLDNBO@?9?9?9?9?9?9?9?9?9?9?9?9?9?9?9?9?9?9?9?9?9?9?9?9?9?9?9?9?9?9?9?9@ 100b9a2c     cg_crash.obj
 0002:0001aa58       ??_C@_0CJ@MNHNGGOL@Please?5forward?5to?5No?5Quarter?5mod@ 100b9a58     cg_crash.obj
 0002:0001aa84       ??_C@_0CJ@FGPGCKDB@?98?$DM?9?9?9?5Client?5Crash?5Information?5@ 100b9a84     cg_crash.obj
 0002:0001aab0       ??_C@_05BMGBEOOC@?$CFs?2?$CFs?$AA@ 100b9ab0     cg_crash.obj
 0002:0001aab8       ??_C@_0BD@LBMIHFHC@?$CFs?2?$CFs?2nq_crash?4log?$AA@ 100b9ab8     cg_crash.obj
 0002:0001aacc       ??_C@_01NOFIACDB@w?$AA@    100b9acc     cg_crash.obj
 0002:0001aad0       ??_C@_07FMAMAFJE@fs_game?$AA@ 100b9ad0     cg_crash.obj
 0002:0001aad8       ??_C@_0M@LECGGKKC@fs_homepath?$AA@ 100b9ad8     cg_crash.obj
 0002:0001aae4       ??_C@_0M@DGDBFJN@fs_basepath?$AA@ 100b9ae4     cg_crash.obj
 0002:0001aaf0       ??_C@_0BP@MBMPKBCB@imagehlp?4dll?5missing?5exports?4?6?$AA@ 100b9af0     cg_crash.obj
 0002:0001ab10       ??_C@_0BH@PMEMHADK@SymFunctionTableAccess?$AA@ 100b9b10     cg_crash.obj
 0002:0001ab28       ??_C@_0BE@HDOJAMIL@SymEnumerateModules?$AA@ 100b9b28     cg_crash.obj
 0002:0001ab3c       ??_C@_0BC@BDHGAJGO@SymGetSymFromAddr?$AA@ 100b9b3c     cg_crash.obj
 0002:0001ab50       ??_C@_09OJFIDCEK@StackWalk?$AA@ 100b9b50     cg_crash.obj
 0002:0001ab5c       ??_C@_0BB@KAOAIDAF@SymGetModuleBase?$AA@ 100b9b5c     cg_crash.obj
 0002:0001ab70       ??_C@_0L@GDMHENGB@SymCleanup?$AA@ 100b9b70     cg_crash.obj
 0002:0001ab7c       ??_C@_0O@MCMFENKA@SymInitialize?$AA@ 100b9b7c     cg_crash.obj
 0002:0001ab8c       ??_C@_0BK@CNMKDCG@imagehlp?4dll?5unavailable?6?$AA@ 100b9b8c     cg_crash.obj
 0002:0001aba8       ??_C@_0N@KBGMOMJO@IMAGEHLP?4DLL?$AA@ 100b9ba8     cg_crash.obj
 0002:0001abb8       ??_C@_0BJ@BEDDGAJH@Soul?5Collector?5?$FO2Award?$FO7?$AA@ 100b9bb8     cg_debriefing.obj
 0002:0001abd4       ??_C@_0BM@HCOOMCDJ@Artillery?5Spammer?5?$FO1Award?$FO7?$AA@ 100b9bd4     cg_debriefing.obj
 0002:0001abf0       ??_C@_0CB@MECPIDLD@I?5Ain?8t?5Got?5No?5Friends?5?$FO1Award?$FO7@ 100b9bf0     cg_debriefing.obj
 0002:0001ac14       ??_C@_0BH@ONCBEALC@Isaac?5Newton?5?$FO1Award?$FO7?$AA@ 100b9c14     cg_debriefing.obj
 0002:0001ac2c       ??_C@_0BB@DACCCAJG@Darwin?5?$FO1Award?$FO7?$AA@ 100b9c2c     cg_debriefing.obj
 0002:0001ac40       ??_C@_0BF@POMKKIPD@Panzernoob?5?$FO1Award?$FO7?$AA@ 100b9c40     cg_debriefing.obj
 0002:0001ac58       ??_C@_0BL@LGKKGFMN@Riflenade?5Master?5?$FO2Award?$FO7?$AA@ 100b9c58     cg_debriefing.obj
 0002:0001ac74       ??_C@_0BJ@PNHLJILH@Best?5Grenadier?5?$FO2Award?$FO7?$AA@ 100b9c74     cg_debriefing.obj
 0002:0001ac90       ??_C@_0BH@LEGILDHF@Purple?5Heart?5?$FO3Award?$FO7?$AA@ 100b9c90     cg_debriefing.obj
 0002:0001aca8       ??_C@_0BG@DLNHNJBN@Super?5Mario?5?$FO2Award?$FO7?$AA@ 100b9ca8     cg_debriefing.obj
 0002:0001acc0       ??_C@_0BD@HBBJABOK@Kick?5Ass?5?$FO2Award?$FO7?$AA@ 100b9cc0     cg_debriefing.obj
 0002:0001acd4       ??_C@_0BK@PKILCBEJ@The?5Executioner?5?$FO2Award?$FO7?$AA@ 100b9cd4     cg_debriefing.obj
 0002:0001acf0       ??_C@_0BH@EPCLBGEE@Dr?4?5Overdose?5?$FO2Award?$FO7?$AA@ 100b9cf0     cg_debriefing.obj
 0002:0001ad08       ??_C@_0BK@CBFLADBK@Jack?5the?5Ripper?5?$FO2Award?$FO7?$AA@ 100b9d08     cg_debriefing.obj
 0002:0001ad24       ??_C@_0BF@ENJKFAKP@Life?5Saver?5?$FO2Award?$FO7?$AA@ 100b9d24     cg_debriefing.obj
 0002:0001ad3c       ??_C@_0L@FMJNDBPP@Best?5Medic?$AA@ 100b9d3c     cg_debriefing.obj
 0002:0001ad48       ??_C@_0O@IGFMKJBG@Best?5Engineer?$AA@ 100b9d48     cg_debriefing.obj
 0002:0001ad58       ??_C@_0BP@MPEHDCOF@War?5Hero?5?9?5Best?5Objective?5Play?$AA@ 100b9d58     cg_debriefing.obj
 0002:0001ad78       ??_C@_0BB@MNOGBFGE@Map?5XP?5Collector?$AA@ 100b9d78     cg_debriefing.obj
 0002:0001ad8c       ??_C@_0O@POMOIINL@Bounty?5Hunter?$AA@ 100b9d8c     cg_debriefing.obj
 0002:0001ad9c       ??_C@_0BD@BDBPJJMP@Best?5Killing?5Spree?$AA@ 100b9d9c     cg_debriefing.obj
 0002:0001adb0       ??_C@_0BJ@IGEMJIEI@Highest?5Overall?5Accuracy?$AA@ 100b9db0     cg_debriefing.obj
 0002:0001adcc       ??_C@_0P@IKAEOOMD@Most?5Headshots?$AA@ 100b9dcc     cg_debriefing.obj
 0002:0001addc       ??_C@_0BA@OELMILCN@Highest?5Fragger?$AA@ 100b9ddc     cg_debriefing.obj
 0002:0001adec       ??_C@_0BK@FOLCLEP@Highest?5Experience?5Points?$AA@ 100b9dec     cg_debriefing.obj
 0002:0001ae08       ??_C@_0BI@FCKNHHFO@Highest?5Ranking?5Officer?$AA@ 100b9e08     cg_debriefing.obj
 0002:0001ae20       ??_C@_09OEEAINNL@?$FO3VOTE?5?$CD3?$AA@ 100b9e20     cg_debriefing.obj
 0002:0001ae2c       ??_C@_09PNFLLMJK@?$FO3VOTE?5?$CD2?$AA@ 100b9e2c     cg_debriefing.obj
 0002:0001ae38       ??_C@_09NGHGOPFJ@?$FO3VOTE?5?$CD1?$AA@ 100b9e38     cg_debriefing.obj
 0002:0001ae44       ??_C@_06BAIIIEE@?$FO3VOTE?$AA@ 100b9e44     cg_debriefing.obj
 0002:0001ae4c       ??_C@_05CBNLEBBP@Votes?$AA@ 100b9e4c     cg_debriefing.obj
 0002:0001ae54       ??_C@_08GFPKGONP@MAP?5VOTE?$AA@ 100b9e54     cg_debriefing.obj
 0002:0001ae60       ??_C@_08NDHPCBJM@chattext?$AA@ 100b9e60     cg_debriefing.obj
 0002:0001ae6c       ??_C@_05KACKNMMA@READY?$AA@ 100b9e6c     cg_debriefing.obj
 0002:0001ae74       ??_C@_0L@IIKHIPA@QUICK?5CHAT?$AA@ 100b9e74     cg_debriefing.obj
 0002:0001ae80       ??_C@_08ELFFKEDJ@?$FO1REPORT?$AA@ 100b9e80     cg_debriefing.obj
 0002:0001ae8c       ??_C@_04LIPPJNOP@MORE?$AA@ 100b9e8c     cg_debriefing.obj
 0002:0001ae94       ??_C@_04NHKBCFAO@CHAT?$AA@ 100b9e94     cg_debriefing.obj
 0002:0001ae9c       ??_C@_05KGEAEGFG@Total?$AA@ 100b9e9c     cg_debriefing.obj
 0002:0001aea4       ??_C@_06KPDLJAFG@Allies?$AA@ 100b9ea4     cg_debriefing.obj
 0002:0001aeac       ??_C@_0N@EMBGDAEO@PLAYER?5STATS?$AA@ 100b9eac     cg_debriefing.obj
 0002:0001aebc       ??_C@_06IIDHDGJJ@Deaths?$AA@ 100b9ebc     cg_debriefing.obj
 0002:0001aec4       ??_C@_02HIIGDGEP@TK?$AA@   100b9ec4     cg_debriefing.obj
 0002:0001aec8       ??_C@_02NIKKAELB@XP?$AA@   100b9ec8     cg_debriefing.obj
 0002:0001aecc       ??_C@_04OKOFBOPB@Time?$AA@ 100b9ecc     cg_debriefing.obj
 0002:0001aed4       ??_C@_04DMNEFAGJ@Rank?$AA@ 100b9ed4     cg_debriefing.obj
 0002:0001aedc       ??_C@_07OPDDOEGI@PLAYERS?$AA@ 100b9edc     cg_debriefing.obj
 0002:0001aee4       ??_C@_0O@EGIKAEAG@MISSION?5STATS?$AA@ 100b9ee4     cg_debriefing.obj
 0002:0001aef4       ??_C@_0O@EEPGBMID@ROLL?5OF?5HONOR?$AA@ 100b9ef4     cg_debriefing.obj
 0002:0001af04       ??_C@_05ILKPOBAF@Kills?$AA@ 100b9f04     cg_debriefing.obj
 0002:0001af0c       ??_C@_04EAJKEJFK@Hits?$AA@ 100b9f0c     cg_debriefing.obj
 0002:0001af14       ??_C@_05FJMKBFGF@Shots?$AA@ 100b9f14     cg_debriefing.obj
 0002:0001af1c       ??_C@_04FABLJDN@Name?$AA@  100b9f1c     cg_debriefing.obj
 0002:0001af24       ??_C@_0N@IIKONMMF@Weapon?5Stats?$AA@ 100b9f24     cg_debriefing.obj
 0002:0001af34       ??_C@_0L@IIDLKPNA@mapvote?5?$CFd?$AA@ 100b9f34     cg_debriefing.obj
 0002:0001af40       __real@436b0000            100b9f40     cg_debriefing.obj
 0002:0001af44       __real@41d80000            100b9f44     cg_debriefing.obj
 0002:0001af48       ??_C@_0BN@MOEEFDIG@Total?5Accumulated?5Votes?5?3?5?$CFd?$AA@ 100b9f48     cg_debriefing.obj
 0002:0001af68       __real@439c0000            100b9f68     cg_debriefing.obj
 0002:0001af6c       ??_C@_0BN@DHMPKDGC@Last?5Played?5?5?5?5?5?5?5?5?5?5?5?5?5?3?5?$CFs?$AA@ 100b9f6c     cg_debriefing.obj
 0002:0001af8c       ??_C@_0M@JGPNAPCP@?$CFd?5maps?5ago?$AA@ 100b9f8c     cg_debriefing.obj
 0002:0001af98       ??_C@_05DHPMCAIC@Never?$AA@ 100b9f98     cg_debriefing.obj
 0002:0001afa0       __real@43a80000            100b9fa0     cg_debriefing.obj
 0002:0001afa4       __real@433dea07            100b9fa4     cg_debriefing.obj
 0002:0001afa8       ??_C@_0BC@PIIMIPAI@levelshots?1?$CFs?4tga?$AA@ 100b9fa8     cg_debriefing.obj
 0002:0001afbc       __real@437a0000            100b9fbc     cg_debriefing.obj
 0002:0001afc0       __real@42a20000            100b9fc0     cg_debriefing.obj
 0002:0001afc4       __real@43910000            100b9fc4     cg_debriefing.obj
 0002:0001afc8       __real@42840000            100b9fc8     cg_debriefing.obj
 0002:0001afcc       ??_C@_0N@CLCNNDCJ@Map?5?$CFd?5of?5?$CFd?$AA@ 100b9fcc     cg_debriefing.obj
 0002:0001afdc       ??_C@_0CF@LEJMEDBG@?$FO3Can?8t?5vote?5for?5the?5same?5map?5tw@ 100b9fdc     cg_debriefing.obj
 0002:0001b004       ??_C@_0O@IKDIPJCM@mapvote?5?$CFd?5?$CFd?$AA@ 100ba004     cg_debriefing.obj
 0002:0001b014       ??_C@_04OJJGBHGO@?$FO7?$CFs?$AA@ 100ba014     cg_debriefing.obj
 0002:0001b01c       ??_C@_04EDJPNPOF@?$FO5?$CFs?$AA@ 100ba01c     cg_debriefing.obj
 0002:0001b024       ??_C@_04GGPEIADJ@?$FO3?$CFs?$AA@ 100ba024     cg_debriefing.obj
 0002:0001b02c       ??_C@_03OJGOOKPM@?$FO7_?$AA@ 100ba02c     cg_debriefing.obj
 0002:0001b030       ??_C@_03FHMHJNJN@?$FO7?$HM?$AA@ 100ba030     cg_debriefing.obj
 0002:0001b038       __real@4022000000000000    100ba038     cg_debriefing.obj
 0002:0001b040       __real@41100000            100ba040     cg_debriefing.obj
 0002:0001b044       __real@3ea8f5c3            100ba044     cg_debriefing.obj
 0002:0001b048       ??_C@_0BJ@HKOFIMKF@sound?1music?1axis_win?4wav?$AA@ 100ba048     cg_debriefing.obj
 0002:0001b064       ??_C@_0BL@LJILBHDP@sound?1music?1allies_win?4wav?$AA@ 100ba064     cg_debriefing.obj
 0002:0001b080       ??_C@_06MKEJMLBF@winner?$AA@ 100ba080     cg_debriefing.obj
 0002:0001b088       ??_C@_07DNMGOKJO@imws?5?$CFi?$AA@ 100ba088     cg_debriefing.obj
 0002:0001b090       ??_C@_04EJOLBGDD@imwa?$AA@ 100ba090     cg_debriefing.obj
 0002:0001b098       ??_C@_05COEIJJMM@impkd?$AA@ 100ba098     cg_debriefing.obj
 0002:0001b0a0       ??_C@_09PGKOGJAE@immaplist?$AA@ 100ba0a0     cg_debriefing.obj
 0002:0001b0b0       __real@4060800000000000    100ba0b0     cg_debriefing.obj
 0002:0001b0b8       __real@4059800000000000    100ba0b8     cg_debriefing.obj
 0002:0001b0c0       __real@404f000000000000    100ba0c0     cg_debriefing.obj
 0002:0001b0c8       ??_C@_07FFDCCNEB@?$CFi?3?$CFi?$CFi?$AA@ 100ba0c8     cg_debriefing.obj
 0002:0001b0d0       ??_C@_0BH@JAFFJKMO@?$CFi?5seconds?5to?5next?5map?$AA@ 100ba0d0     cg_debriefing.obj
 0002:0001b0e8       ??_C@_09DBDFLGFB@Axis?5Win?$CB?$AA@ 100ba0e8     cg_debriefing.obj
 0002:0001b0f4       ??_C@_0M@ONFCMDF@Allies?5Win?$CB?$AA@ 100ba0f4     cg_debriefing.obj
 0002:0001b100       ??_C@_0M@BOOHGHM@It?8s?5a?5TIE?$CB?$AA@ 100ba100     cg_debriefing.obj
 0002:0001b10c       ??_C@_0BO@BDPNMEFH@AXIS?5COULDN?8T?5BEAT?5THE?5CLOCK?$CB?$AA@ 100ba10c     cg_debriefing.obj
 0002:0001b12c       ??_C@_0CC@NBDDLNNF@AXIS?5SUCCESSFULLY?5BEAT?5THE?5CLOCK@ 100ba12c     cg_debriefing.obj
 0002:0001b150       ??_C@_0CA@NGNGPFNL@ALLIES?5COULDN?8T?5BEAT?5THE?5CLOCK?$CB?$AA@ 100ba150     cg_debriefing.obj
 0002:0001b170       ??_C@_0CE@MOGLPAKH@ALLIES?5SUCCESSFULLY?5BEAT?5THE?5CLO@ 100ba170     cg_debriefing.obj
 0002:0001b194       ??_C@_0BI@GEGEMHOG@Clock?5is?5now?5set?5to?5?$CFs?$CB?$AA@ 100ba194     cg_debriefing.obj
 0002:0001b1ac       ??_C@_01LPLHEDKD@d?$AA@    100ba1ac     cg_debriefing.obj
 0002:0001b1b0       ??_C@_05DGAPONBB@Score?$AA@ 100ba1b0     cg_debriefing.obj
 0002:0001b1b8       ??_C@_09BCJOCADI@Spectator?$AA@ 100ba1b8     cg_debriefing.obj
 0002:0001b1c4       ??_C@_03BNCCNAJL@Spc?$AA@  100ba1c4     cg_debriefing.obj
 0002:0001b1c8       __real@42580000            100ba1c8     cg_debriefing.obj
 0002:0001b1cc       ??_C@_05LCJKKLLM@Legs?3?$AA@ 100ba1cc     cg_debriefing.obj
 0002:0001b1d4       ??_C@_06FHOBEBKO@Legs?3?5?$AA@ 100ba1d4     cg_debriefing.obj
 0002:0001b1dc       ??_C@_05NNACPIFF@Body?3?$AA@ 100ba1dc     cg_debriefing.obj
 0002:0001b1e4       ??_C@_06IOFIIDCB@Body?3?5?$AA@ 100ba1e4     cg_debriefing.obj
 0002:0001b1ec       ??_C@_05LDHJBDJE@Arms?3?$AA@ 100ba1ec     cg_debriefing.obj
 0002:0001b1f4       ??_C@_06GCFFAKOM@Arms?3?5?$AA@ 100ba1f4     cg_debriefing.obj
 0002:0001b1fc       ??_C@_05BFAJADID@Head?3?$AA@ 100ba1fc     cg_debriefing.obj
 0002:0001b204       ??_C@_0BM@MPJNBJAP@gfx?1misc?1hitregion_legs?4tga?$AA@ 100ba204     cg_debriefing.obj
 0002:0001b220       ??_C@_0BM@GOMOHKO@gfx?1misc?1hitregion_body?4tga?$AA@ 100ba220     cg_debriefing.obj
 0002:0001b23c       ??_C@_0BM@OMNMJJCE@gfx?1misc?1hitregion_arms?4tga?$AA@ 100ba23c     cg_debriefing.obj
 0002:0001b258       ??_C@_0BM@OPHCEPBK@gfx?1misc?1hitregion_head?4tga?$AA@ 100ba258     cg_debriefing.obj
 0002:0001b274       ??_C@_0BI@GLPBIHGF@gfx?1misc?1hitregions?4tga?$AA@ 100ba274     cg_debriefing.obj
 0002:0001b28c       ??_C@_06OBCAPPDL@Head?3?5?$AA@ 100ba28c     cg_debriefing.obj
 0002:0001b294       ??_C@_05OPPJPJON@Time?3?$AA@ 100ba294     cg_debriefing.obj
 0002:0001b29c       ??_C@_06ELNAEDJO@Time?3?5?$AA@ 100ba29c     cg_debriefing.obj
 0002:0001b2a4       ??_C@_07EDJLODDG@say?5?$CFs?6?$AA@ 100ba2a4     cg_debriefing.obj
 0002:0001b2ac       ??_C@_0N@NPKIBBLL@say_team?5?$CFs?6?$AA@ 100ba2ac     cg_debriefing.obj
 0002:0001b2bc       ??_C@_0O@KLKMAHBI@say_buddy?5?$CFs?6?$AA@ 100ba2bc     cg_debriefing.obj
 0002:0001b2cc       ??_C@_0BC@GJNEEBFK@Campaign?5Overview?$AA@ 100ba2cc     cg_debriefing.obj
 0002:0001b2e0       ??_C@_0BF@JEBEIH@levelshots?1?$CFs_cc?4tga?$AA@ 100ba2e0     cg_debriefing.obj
 0002:0001b2f8       __real@3f300000            100ba2f8     cg_debriefing.obj
 0002:0001b2fc       ??_C@_0BF@HJDHDJDK@gfx?1loading?1map_back?$AA@ 100ba2fc     cg_debriefing.obj
 0002:0001b318       __real@4026000000000000    100ba318     cg_debriefing.obj
 0002:0001b320       __real@3e428f5c            100ba320     cg_debriefing.obj
 0002:0001b324       __real@3f666666            100ba324     cg_debriefing.obj
 0002:0001b328       __real@3f4ccccd            100ba328     cg_debriefing.obj
 0002:0001b32c       ??_C@_09BNHAIGOG@AXIS?5WIN?$CB?$AA@ 100ba32c     cg_debriefing.obj
 0002:0001b338       ??_C@_0M@OLFBJAIF@ALLIES?5WIN?$CB?$AA@ 100ba338     cg_debriefing.obj
 0002:0001b344       ??_C@_0M@MKDOECJE@IT?8S?5A?5TIE?$CB?$AA@ 100ba344     cg_debriefing.obj
 0002:0001b350       ??_C@_09JNMHCLJJ@?$FO7?5?$CI?$CF?41f?$CJ?$AA@ 100ba350     cg_debriefing.obj
 0002:0001b35c       ??_C@_07NFAEALAF@?$FO7?5?$CI?$CFi?$CJ?$AA@ 100ba35c     cg_debriefing.obj
 0002:0001b364       ??_C@_0P@KBGIIBKK@Invalid?5client?$AA@ 100ba364     cg_debriefing.obj
 0002:0001b374       ??_C@_0M@LNHKNDCA@EX?9SLOT?5?$CD?$CFi?$AA@ 100ba374     cg_debriefing.obj
 0002:0001b380       __real@4018000000000000    100ba380     cg_debriefing.obj
 0002:0001b388       __real@402c000000000000    100ba388     cg_debriefing.obj
 0002:0001b390       __real@4056800000000000    100ba390     cg_debriefing.obj
 0002:0001b398       ??_C@_0BB@NOBONEMH@scripts?1?$CFs?4arena?$AA@ 100ba398     cg_debriefing.obj
 0002:0001b3ac       ??_C@_0N@EBJODPJK@?$FO3?$CFd?3?5?$FOZVOTE?$AA@ 100ba3ac     cg_debriefing.obj
 0002:0001b3bc       ??_C@_0BA@BMFKFKED@?$FO3?$CFd?3?5?$FO7RE?9VOTE?$AA@ 100ba3bc     cg_debriefing.obj
 0002:0001b3cc       ??_C@_06COPDNGNG@?$FOZVOTE?$AA@ 100ba3cc     cg_debriefing.obj
 0002:0001b3d4       ??_C@_09NJGFHLMI@?$FO7RE?9VOTE?$AA@ 100ba3d4     cg_debriefing.obj
 0002:0001b3e0       ??_C@_01JOAMLHOP@?9?$AA@   100ba3e0     cg_debriefing.obj
 0002:0001b3e8       __real@4080680000000000    100ba3e8     cg_debriefing.obj
 0002:0001b3f0       __real@407f700000000000    100ba3f0     cg_debriefing.obj
 0002:0001b3f8       __real@407cf00000000000    100ba3f8     cg_debriefing.obj
 0002:0001b400       __real@4081a80000000000    100ba400     cg_debriefing.obj
 0002:0001b408       __real@407a900000000000    100ba408     cg_debriefing.obj
 0002:0001b410       __real@406ea00000000000    100ba410     cg_debriefing.obj
 0002:0001b418       __real@406b200000000000    100ba418     cg_debriefing.obj
 0002:0001b420       __real@4083600000000000    100ba420     cg_debriefing.obj
 0002:0001b428       __real@3e2cacad            100ba428     cg_debriefing.obj
 0002:0001b42c       __real@3e24a4a5            100ba42c     cg_debriefing.obj
 0002:0001b430       ??_C@_09OOFLEOMO@?$FO5TO?5TEAM?$AA@ 100ba430     cg_debriefing.obj
 0002:0001b43c       ??_C@_0O@GIKEMBPP@?$FO3TO?5FIRETEAM?$AA@ 100ba43c     cg_debriefing.obj
 0002:0001b44c       ??_C@_0M@FGNIPDNN@?$FO2TO?5GLOBAL?$AA@ 100ba44c     cg_debriefing.obj
 0002:0001b458       ??_C@_0BE@PBCJAAAB@?$CFi?5SECS?5TO?5NEXT?5MAP?$AA@ 100ba458     cg_debriefing.obj
 0002:0001b46c       ??_C@_0BE@HHPHNMHG@CAMPAIGN?5STATUS?3?5?$CFs?$AA@ 100ba46c     cg_debriefing.obj
 0002:0001b480       ??_C@_06DELKPIEN@?$CFi?4?5?$CFs?$AA@ 100ba480     cg_debriefing.obj
 0002:0001b488       ??_C@_0N@KHFGKJMJ@Campaign?3?5?$CFs?$AA@ 100ba488     cg_debriefing.obj
 0002:0001b498       __real@3eb33333            100ba498     cg_debriefing.obj
 0002:0001b4a0       __real@3fe84f1b80000000    100ba4a0     cg_debriefing.obj
 0002:0001b4a8       ??_C@_0BE@JCMNICLJ@menu?1art?1unknownmap?$AA@ 100ba4a8     cg_debriefing.obj
 0002:0001b4bc       __real@43bb0000            100ba4bc     cg_debriefing.obj
 0002:0001b4c0       __real@44800000            100ba4c0     cg_debriefing.obj
 0002:0001b4c8       __real@4074500000000000    100ba4c8     cg_debriefing.obj
 0002:0001b4d0       ??_C@_0BF@CFIBBPHA@gfx?1loading?1pin_axis?$AA@ 100ba4d0     cg_debriefing.obj
 0002:0001b4e8       ??_C@_0BH@ICLJIOOM@gfx?1loading?1pin_allied?$AA@ 100ba4e8     cg_debriefing.obj
 0002:0001b500       ??_C@_0BI@FLGCMJKE@gfx?1loading?1pin_neutral?$AA@ 100ba500     cg_debriefing.obj
 0002:0001b518       __real@4031000000000000    100ba518     cg_debriefing.obj
 0002:0001b520       __real@3f50000000000000    100ba520     cg_debriefing.obj
 0002:0001b528       ??_C@_0BF@PINDHEDO@gfx?1loading?1camp_map?$AA@ 100ba528     cg_debriefing.obj
 0002:0001b540       __real@3fe999999999999a    100ba540     cg_debriefing.obj
 0002:0001b548       ??_C@_04KAKHEEPD@?$CFi?$CF?$CF?$AA@ 100ba548     cg_debriefing.obj
 0002:0001b550       ??_C@_04ICJKGDCI@ACC?3?$AA@ 100ba550     cg_debriefing.obj
 0002:0001b558       ??_C@_05KALDBGDL@ACC?3?5?$AA@ 100ba558     cg_debriefing.obj
 0002:0001b560       ??_C@_03JJBHPHGH@XP?3?$AA@ 100ba560     cg_debriefing.obj
 0002:0001b564       ??_C@_04EGMLMHKO@XP?3?5?$AA@ 100ba564     cg_debriefing.obj
 0002:0001b56c       ??_C@_07MEBCMHJC@Medals?3?$AA@ 100ba56c     cg_debriefing.obj
 0002:0001b574       ??_C@_08ILEBMEAN@Medals?3?5?$AA@ 100ba574     cg_debriefing.obj
 0002:0001b580       ??_C@_05BBPLNDNF@Rank?3?$AA@ 100ba580     cg_debriefing.obj
 0002:0001b588       ??_C@_06GDCMPJCK@Rank?3?5?$AA@ 100ba588     cg_debriefing.obj
 0002:0001b590       __real@41f00000            100ba590     cg_draw.obj
 0002:0001b598       __real@409f400000000000    100ba598     cg_draw.obj
 0002:0001b5a0       __real@3fd126e978d4fdf4    100ba5a0     cg_draw.obj
 0002:0001b5a8       __real@bfe0000000000000    100ba5a8     cg_draw.obj
 0002:0001b5b0       __real@441e8000            100ba5b0     cg_draw.obj
 0002:0001b5b4       ??_C@_0BC@BOEHHNLF@t?3?$CFi?5sn?3?$CFi?5cmd?3?$CFi?$AA@ 100ba5b4     cg_draw.obj
 0002:0001b5c8       ??_C@_0P@FEKLJCMH@Avg?5Ping?5?$CF0?42f?$AA@ 100ba5c8     cg_draw.obj
 0002:0001b5d8       ??_C@_07FHBMJKIH@Ping?5?$CFd?$AA@ 100ba5d8     cg_draw.obj
 0002:0001b5e0       ??_C@_08KJEDNCKC@?$CFs?$CFs?$CFs?$CFs?$AA@ 100ba5e0     cg_draw.obj
 0002:0001b5ec       ??_C@_05HMNDKOFD@D?3?$CFd?5?$AA@ 100ba5ec     cg_draw.obj
 0002:0001b5f4       ??_C@_0M@PCLOBANH@Deaths?3?5?$CFd?5?$AA@ 100ba5f4     cg_draw.obj
 0002:0001b600       ??_C@_05KKIKENEO@B?3?$CFd?5?$AA@ 100ba600     cg_draw.obj
 0002:0001b608       ??_C@_0M@GHODHPOE@Bounty?3?5?$CFd?5?$AA@ 100ba608     cg_draw.obj
 0002:0001b614       ??_C@_05INIFBMIG@K?3?$CFd?5?$AA@ 100ba614     cg_draw.obj
 0002:0001b61c       ??_C@_0L@IFOGOBGN@Kills?3?5?$CFd?5?$AA@ 100ba61c     cg_draw.obj
 0002:0001b628       ??_C@_05GCAAJMHA@S?3?$CFd?5?$AA@ 100ba628     cg_draw.obj
 0002:0001b630       ??_C@_0L@DFCLEFPN@Spree?3?5?$CFd?5?$AA@ 100ba630     cg_draw.obj
 0002:0001b63c       ??_C@_0L@MBCOHHKN@estimating?$AA@ 100ba63c     cg_draw.obj
 0002:0001b648       ??_C@_06FCHJGAOK@?$CFi?5FPS?$AA@ 100ba648     cg_draw.obj
 0002:0001b650       ??_C@_08CNONOOML@?$CF?41f?5UPS?$AA@ 100ba650     cg_draw.obj
 0002:0001b65c       ??_C@_08DEBNAFPN@?$CF?41f?5KPH?$AA@ 100ba65c     cg_draw.obj
 0002:0001b668       ??_C@_08BBHGFKCB@?$CF?41f?5MPH?$AA@ 100ba668     cg_draw.obj
 0002:0001b674       ??_C@_0BE@MGAPMPEL@?$CF?41f?5UPS?5?$CI?$CF?41f?5MAX?$CJ?$AA@ 100ba674     cg_draw.obj
 0002:0001b688       ??_C@_0BE@DMNAFBAI@?$CF?41f?5KPH?5?$CI?$CF?41f?5MAX?$CJ?$AA@ 100ba688     cg_draw.obj
 0002:0001b6a0       __real@402f28f5c0000000    100ba6a0     cg_draw.obj
 0002:0001b6a8       ??_C@_0BE@BOCKIFPK@?$CF?41f?5MPH?5?$CI?$CF?41f?5MAX?$CJ?$AA@ 100ba6a8     cg_draw.obj
 0002:0001b6c0       __real@403770a3e0000000    100ba6c0     cg_draw.obj
 0002:0001b6c8       __real@3f200000            100ba6c8     cg_draw.obj
 0002:0001b6cc       ??_C@_03PKCLPCGH@?5pm?$AA@ 100ba6cc     cg_draw.obj
 0002:0001b6d0       ??_C@_03OHMPDLCA@?5am?$AA@ 100ba6d0     cg_draw.obj
 0002:0001b6d4       ??_C@_07COCHMHBB@?$CFd?3?$CF02d?$AA@ 100ba6d4     cg_draw.obj
 0002:0001b6dc       ??_C@_09GMENPEBK@?$CFd?3?$CF02d?$CFs?$AA@ 100ba6dc     cg_draw.obj
 0002:0001b6e8       ??_C@_05DEKILNBP@?3?$CF02d?$AA@ 100ba6e8     cg_draw.obj
 0002:0001b6f0       __real@3fecccccc0000000    100ba6f0     cg_draw.obj
 0002:0001b6f8       __real@407de00000000000    100ba6f8     cg_draw.obj
 0002:0001b700       __real@3fd51eb860000000    100ba700     cg_draw.obj
 0002:0001b708       __real@3e23d70a            100ba708     cg_draw.obj
 0002:0001b70c       __real@40f00000            100ba70c     cg_draw.obj
 0002:0001b710       ??_C@_0O@MOFBHPJK@some?5dog?5tags?$AA@ 100ba710     cg_draw.obj
 0002:0001b720       ??_C@_05BHNINOOF@?$CFi?5?$CFs?$AA@ 100ba720     cg_draw.obj
 0002:0001b728       ??_C@_0N@CCCHKLPL@an?5objective?$AA@ 100ba728     cg_draw.obj
 0002:0001b738       ??_C@_05DBDBEKIP@an?5?$CFs?$AA@ 100ba738     cg_draw.obj
 0002:0001b740       ??_C@_04HCJFHBP@a?5?$CFs?$AA@ 100ba740     cg_draw.obj
 0002:0001b748       __real@438c0000            100ba748     cg_draw.obj
 0002:0001b74c       __real@42500000            100ba74c     cg_draw.obj
 0002:0001b750       ??_C@_0BH@HFDDJIMF@Connection?5Interrupted?$AA@ 100ba750     cg_draw.obj
 0002:0001b768       __real@404a800000000000    100ba768     cg_draw.obj
 0002:0001b770       ??_C@_03KLKIPBNP@snc?$AA@  100ba770     cg_draw.obj
 0002:0001b778       __real@408c200000000000    100ba778     cg_draw.obj
 0002:0001b780       __real@42600000            100ba780     cg_draw.obj
 0002:0001b788       __real@4077c00000000000    100ba788     cg_draw.obj
 0002:0001b790       __real@43320000            100ba790     cg_draw.obj
 0002:0001b794       __real@43720000            100ba794     cg_draw.obj
 0002:0001b798       __real@42680000            100ba798     cg_draw.obj
 0002:0001b79c       __real@43310000            100ba79c     cg_draw.obj
 0002:0001b7a0       __real@43a38000            100ba7a0     cg_draw.obj
 0002:0001b7a4       __real@43710000            100ba7a4     cg_draw.obj
 0002:0001b7a8       __real@42ae0000            100ba7a8     cg_draw.obj
 0002:0001b7b0       __real@4074000000000000    100ba7b0     cg_draw.obj
 0002:0001b7b8       __real@43190000            100ba7b8     cg_draw.obj
 0002:0001b7bc       __real@42e40000            100ba7bc     cg_draw.obj
 0002:0001b7c0       __real@4073f00000000000    100ba7c0     cg_draw.obj
 0002:0001b7c8       __real@43170000            100ba7c8     cg_draw.obj
 0002:0001b7d0       __real@4079700000000000    100ba7d0     cg_draw.obj
 0002:0001b7d8       __real@406d400000000000    100ba7d8     cg_draw.obj
 0002:0001b7e0       __real@43700000            100ba7e0     cg_draw.obj
 0002:0001b7e4       __real@432d0000            100ba7e4     cg_draw.obj
 0002:0001b7e8       __real@4055000000000000    100ba7e8     cg_draw.obj
 0002:0001b7f0       __real@436f0000            100ba7f0     cg_draw.obj
 0002:0001b7f8       __real@4081800000000000    100ba7f8     cg_draw.obj
 0002:0001b800       __real@43f00000            100ba800     cg_draw.obj
 0002:0001b808       __real@4075600000000000    100ba808     cg_draw.obj
 0002:0001b810       __real@4072500000000000    100ba810     cg_draw.obj
 0002:0001b818       __real@40c00000            100ba818     cg_draw.obj
 0002:0001b820       __real@4070800000000000    100ba820     cg_draw.obj
 0002:0001b828       __real@4075100000000000    100ba828     cg_draw.obj
 0002:0001b830       __real@4074d00000000000    100ba830     cg_draw.obj
 0002:0001b838       __real@4072800000000000    100ba838     cg_draw.obj
 0002:0001b840       __real@4064800000000000    100ba840     cg_draw.obj
 0002:0001b848       __real@3f04000000000000    100ba848     cg_draw.obj
 0002:0001b850       __real@40d99999a0000000    100ba850     cg_draw.obj
 0002:0001b858       __real@4075900000000000    100ba858     cg_draw.obj
 0002:0001b860       __real@4072700000000000    100ba860     cg_draw.obj
 0002:0001b868       __real@43240000            100ba868     cg_draw.obj
 0002:0001b870       __real@407ee00000000000    100ba870     cg_draw.obj
 0002:0001b878       __real@42b40000            100ba878     cg_draw.obj
 0002:0001b880       __real@4061400000000000    100ba880     cg_draw.obj
 0002:0001b888       __real@43848000            100ba888     cg_draw.obj
 0002:0001b890       __real@40a7700000000000    100ba890     cg_draw.obj
 0002:0001b898       __real@437c0000            100ba898     cg_draw.obj
 0002:0001b89c       __real@43800000            100ba89c     cg_draw.obj
 0002:0001b8a0       __real@43780000            100ba8a0     cg_draw.obj
 0002:0001b8a4       __real@43740000            100ba8a4     cg_draw.obj
 0002:0001b8a8       __real@406a400000000000    100ba8a8     cg_draw.obj
 0002:0001b8b0       __real@3f14000000000000    100ba8b0     cg_draw.obj
 0002:0001b8b8       __real@40c99999a0000000    100ba8b8     cg_draw.obj
 0002:0001b8c0       __real@4061800000000000    100ba8c0     cg_draw.obj
 0002:0001b8c8       __real@43840000            100ba8c8     cg_draw.obj
 0002:0001b8d0       __real@4075e00000000000    100ba8d0     cg_draw.obj
 0002:0001b8d8       __real@4072200000000000    100ba8d8     cg_draw.obj
 0002:0001b8e0       __real@43200000            100ba8e0     cg_draw.obj
 0002:0001b8e4       __real@42700000            100ba8e4     cg_draw.obj
 0002:0001b8e8       __real@43500000            100ba8e8     cg_draw.obj
 0002:0001b8f0       __real@4061000000000000    100ba8f0     cg_draw.obj
 0002:0001b8f8       __real@436c0000            100ba8f8     cg_draw.obj
 0002:0001b8fc       __real@3f3ae148            100ba8fc     cg_draw.obj
 0002:0001b900       __real@431a0000            100ba900     cg_draw.obj
 0002:0001b904       __real@3f451eb8            100ba904     cg_draw.obj
 0002:0001b908       __real@42180000            100ba908     cg_draw.obj
 0002:0001b910       __real@407c400000000000    100ba910     cg_draw.obj
 0002:0001b918       __real@4079600000000000    100ba918     cg_draw.obj
 0002:0001b920       __real@43550000            100ba920     cg_draw.obj
 0002:0001b924       __real@425c0000            100ba924     cg_draw.obj
 0002:0001b928       __real@4071200000000000    100ba928     cg_draw.obj
 0002:0001b930       __real@43620000            100ba930     cg_draw.obj
 0002:0001b934       __real@41e80000            100ba934     cg_draw.obj
 0002:0001b938       __real@4067800000000000    100ba938     cg_draw.obj
 0002:0001b940       __real@436a0000            100ba940     cg_draw.obj
 0002:0001b944       __real@41500000            100ba944     cg_draw.obj
 0002:0001b948       __real@4062400000000000    100ba948     cg_draw.obj
 0002:0001b950       __real@43ae0000            100ba950     cg_draw.obj
 0002:0001b958       __real@4080000000000000    100ba958     cg_draw.obj
 0002:0001b960       __real@40c0000000000000    100ba960     cg_draw.obj
 0002:0001b968       __real@3fe3333340000000    100ba968     cg_draw.obj
 0002:0001b970       __real@3f8f5c29            100ba970     cg_draw.obj
 0002:0001b978       __real@4041000000000000    100ba978     cg_draw.obj
 0002:0001b980       __real@42aa0000            100ba980     cg_draw.obj
 0002:0001b988       __real@4042800000000000    100ba988     cg_draw.obj
 0002:0001b990       __real@404c000000000000    100ba990     cg_draw.obj
 0002:0001b998       __real@434c0000            100ba998     cg_draw.obj
 0002:0001b9a0       __real@404b800000000000    100ba9a0     cg_draw.obj
 0002:0001b9a8       __real@433e0000            100ba9a8     cg_draw.obj
 0002:0001b9ac       __real@42dc0000            100ba9ac     cg_draw.obj
 0002:0001b9b0       __real@4043000000000000    100ba9b0     cg_draw.obj
 0002:0001b9b8       __real@43410000            100ba9b8     cg_draw.obj
 0002:0001b9bc       __real@40e00000            100ba9bc     cg_draw.obj
 0002:0001b9c0       __real@3fd3333340000000    100ba9c0     cg_draw.obj
 0002:0001b9c8       __real@4035000000000000    100ba9c8     cg_draw.obj
 0002:0001b9d0       __real@432a0000            100ba9d0     cg_draw.obj
 0002:0001b9d4       ??_C@_07HHOJIPKM@?$CFs?5?$CFs?$FO7?$AA@ 100ba9d4     cg_draw.obj
 0002:0001b9dc       ??_C@_04LPFDAEGK@?$CFs?$FO7?$AA@ 100ba9dc     cg_draw.obj
 0002:0001b9e4       ??_C@_0BB@NDGOCPAB@Disguised?5Enemy?$CB?$AA@ 100ba9e4     cg_draw.obj
 0002:0001b9f8       ??_C@_0BA@HNOCDHGE@?$CFs?$FO7?8s?5dynamite?$AA@ 100ba9f8     cg_draw.obj
 0002:0001ba08       __real@45800000            100baa08     cg_draw.obj
 0002:0001ba0c       ??_C@_0BA@CIBIAIPH@?$CFs?$FO7?8s?5landmine?$AA@ 100baa0c     cg_draw.obj
 0002:0001ba1c       __real@3e000000            100baa1c     cg_draw.obj
 0002:0001ba20       ??_C@_0O@GEOKPMIM@Response?5Sent?$AA@ 100baa20     cg_draw.obj
 0002:0001ba30       ??_C@_0CE@BPEHPNN@Your?5invitation?5reply?5has?5been?5s@ 100baa30     cg_draw.obj
 0002:0001ba54       ??_C@_0BN@HAKJONHH@Your?5invitation?5was?5accepted?$AA@ 100baa54     cg_draw.obj
 0002:0001ba74       ??_C@_0BN@JBFDDCMF@Your?5invitation?5was?5rejected?$AA@ 100baa74     cg_draw.obj
 0002:0001ba94       ??_C@_0CD@FIDBNPKA@Your?5invitation?5has?5been?5submitt@ 100baa94     cg_draw.obj
 0002:0001bab8       ??_C@_0CF@IFICFNBM@Your?5proposition?5reply?5has?5been?5@ 100baab8     cg_draw.obj
 0002:0001bae0       ??_C@_0BO@ILBPMKHJ@Your?5proposition?5was?5accepted?$AA@ 100baae0     cg_draw.obj
 0002:0001bb00       ??_C@_0BO@GKOFBFML@Your?5proposition?5was?5rejected?$AA@ 100bab00     cg_draw.obj
 0002:0001bb20       ??_C@_0CE@JAFCMALD@Your?5proposition?5has?5been?5submit@ 100bab20     cg_draw.obj
 0002:0001bb44       ??_C@_0CF@PIONMOBH@Your?5application?5reply?5has?5been?5@ 100bab44     cg_draw.obj
 0002:0001bb6c       ??_C@_0CD@JOKKGMIL@Your?5application?5has?5been?5approv@ 100bab6c     cg_draw.obj
 0002:0001bb90       ??_C@_0BI@JOPMPAJ@Your?5application?5failed?$AA@ 100bab90     cg_draw.obj
 0002:0001bba8       ??_C@_0CE@PIFPHKDM@Your?5application?5has?5been?5submit@ 100baba8     cg_draw.obj
 0002:0001bbcc       ??_C@_0BP@OFNOCPLB@You?5were?5team?9killed?5by?5a?5bot?4?$AA@ 100babcc     cg_draw.obj
 0002:0001bbec       ??_C@_0CI@LOLHFLMK@You?5were?5team?9killed?5by?5the?5Serv@ 100babec     cg_draw.obj
 0002:0001bc14       ??_C@_0CJ@PHKEIMMD@Server?5Host?5cannot?5be?5complained@ 100bac14     cg_draw.obj
 0002:0001bc40       ??_C@_0BE@GHKIFLDP@Complaint?5dismissed?$AA@ 100bac40     cg_draw.obj
 0002:0001bc54       ??_C@_0BO@MJGGAKKD@Your?5complaint?5has?5been?5filed?$AA@ 100bac54     cg_draw.obj
 0002:0001bc74       ??_C@_0BB@BKBNJICO@YOU?5VOTED?5ON?3?5?$CFs?$AA@ 100bac74     cg_draw.obj
 0002:0001bc88       ??_C@_0BG@GAAKFCCL@YES?$CI?$CFs?$CJ?3?$CFi?0?5NO?$CI?$CFs?$CJ?3?$CFi?$AA@ 100bac88     cg_draw.obj
 0002:0001bca0       ??_C@_0BJ@OHEICNLB@Cannot?5vote?5as?5Spectator?$AA@ 100baca0     cg_draw.obj
 0002:0001bcbc       ??_C@_0L@BCMFDPOJ@Y?3?$CFi?0?5N?3?$CFi?$AA@ 100bacbc     cg_draw.obj
 0002:0001bcc8       ??_C@_0N@GMOCKLHE@VOTE?$CI?$CFi?$CJ?3?5?$CFs?$AA@ 100bacc8     cg_draw.obj
 0002:0001bcd8       ??_C@_04FNIJDBCC@kick?$AA@ 100bacd8     cg_draw.obj
 0002:0001bce0       ??_C@_0BB@BFHLNCEG@Join?5a?5Fireteam?$DP?$AA@ 100bace0     cg_draw.obj
 0002:0001bcf4       ??_C@_0BD@BLIJFOPE@Create?5a?5Fireteam?$DP?$AA@ 100bacf4     cg_draw.obj
 0002:0001bd08       ??_C@_0BH@NKFDINCI@Make?5Fireteam?5private?$DP?$AA@ 100bad08     cg_draw.obj
 0002:0001bd20       ??_C@_0DD@DPCJNAOH@Accept?5?$FO7?$CFs?$FO3?8s?5invitation?5to?5jo@ 100bad20     cg_draw.obj
 0002:0001bd58       ??_C@_0EE@KGHJJOHC@Accept?5?$FO7?$CFs?$FO3?8s?5proposition?5to?5i@ 100bad58     cg_draw.obj
 0002:0001bd9c       ??_C@_0DD@CAEEHDKD@Accept?5?$FO7?$CFs?$FO3?8s?5application?5to?5j@ 100bad9c     cg_draw.obj
 0002:0001bdd0       ??_C@_0CD@GMAMKDHM@Press?5?8?$CFs?8?5for?5YES?0?5or?5?8?$CFs?8?5for?5@ 100badd0     cg_draw.obj
 0002:0001bdf4       ??_C@_0DA@JILIDPGE@File?5complaint?5against?5?$FO7?$CFs?$FO3?5fo@ 100badf4     cg_draw.obj
 0002:0001be24       ??_C@_07EMGDANBL@vote?5no?$AA@ 100bae24     cg_draw.obj
 0002:0001be2c       ??_C@_08EOGCGKCE@vote?5yes?$AA@ 100bae2c     cg_draw.obj
 0002:0001be38       ??_C@_0M@JPLEFMGL@stoprecord?6?$AA@ 100bae38     cg_draw.obj
 0002:0001be48       __real@4043800000000000    100bae48     cg_draw.obj
 0002:0001be50       __real@403b000000000000    100bae50     cg_draw.obj
 0002:0001be58       ??_C@_0BP@CLBOCDNO@Press?5?$CFs?5to?5follow?5next?5player?$AA@ 100bae58     cg_draw.obj
 0002:0001be78       ??_C@_07MAODEHGM@?$CLattack?$AA@ 100bae78     cg_draw.obj
 0002:0001be80       ??_C@_0BM@PAMDEMNJ@Press?5?$CFs?5to?5open?5Limbo?5Menu?$AA@ 100bae80     cg_draw.obj
 0002:0001be9c       ??_C@_06CDPDIIDH@ESCAPE?$AA@ 100bae9c     cg_draw.obj
 0002:0001bea4       ??_C@_0BA@EEBDDEFN@?$CIopenlimbomenu?$CJ?$AA@ 100baea4     cg_draw.obj
 0002:0001beb8       __real@3f50624de0000000    100baeb8     cg_draw.obj
 0002:0001bec0       ??_C@_0CF@EIADPIID@Reinforcements?5deploy?5in?5?$CFd?5seco@ 100baec0     cg_draw.obj
 0002:0001bee8       ??_C@_0CL@MIAJAECN@Press?5JUMP?5to?5go?5into?5reinforcem@ 100baee8     cg_draw.obj
 0002:0001bf14       ??_C@_0CJ@MGPEFDH@You?5are?5wounded?5and?5waiting?5for?5@ 100baf14     cg_draw.obj
 0002:0001bf40       ??_C@_0L@LFJNJOHA@?$FOW?5?5?5?5?$CFs?$FOW?$AA@ 100baf40     cg_draw.obj
 0002:0001bf4c       ??_C@_0O@EOMHAJLG@?$FOW?$CFs?5?5?5?5?5?$CFs?$FOW?$AA@ 100baf4c     cg_draw.obj
 0002:0001bf5c       ??_C@_09FLNCBPON@Following?$AA@ 100baf5c     cg_draw.obj
 0002:0001bf68       ??_C@_0BI@DJHNMAAG@Deploying?5in?5?$CFd?5seconds?$AA@ 100baf68     cg_draw.obj
 0002:0001bf80       ??_C@_0BL@DFJAMD@The?5?$CFs?5team?5is?5speclocked?$CB?$AA@ 100baf80     cg_draw.obj
 0002:0001bf9c       ??_C@_03BBKEAIF@?$DP?$DP?$DP?$AA@ 100baf9c     cg_draw.obj
 0002:0001bfa0       ??_C@_04LMCKOGIO@AXIS?$AA@ 100bafa0     cg_draw.obj
 0002:0001bfa8       ??_C@_02HHFHKOHM@?$DP?$DP?$AA@ 100bafa8     cg_draw.obj
 0002:0001bfac       ??_C@_03NHJIOEGA@a?$CFi?$AA@ 100bafac     cg_draw.obj
 0002:0001bfb0       ??_C@_03PKIJPMHF@x?$CFi?$AA@ 100bafb0     cg_draw.obj
 0002:0001bfb4       __real@41d00000            100bafb4     cg_draw.obj
 0002:0001bfb8       __real@3fe6666660000000    100bafb8     cg_draw.obj
 0002:0001bfc0       ??_C@_01FMEDJKGI@o?$AA@    100bafc0     cg_draw.obj
 0002:0001bfc4       ??_C@_09PFKBKPHC@voiceMenu?$AA@ 100bafc4     cg_draw.obj
 0002:0001bfd0       __real@43040000            100bafd0     cg_draw.obj
 0002:0001bfd4       __real@3727c5ac            100bafd4     cg_draw.obj
 0002:0001bfd8       __real@3ff147ae20000000    100bafd8     cg_draw.obj
 0002:0001bfe0       __real@3fc0000000000000    100bafe0     cg_draw.obj
 0002:0001bfe8       __real@42f80000            100bafe8     cg_draw.obj
 0002:0001bff0       __real@405f000000000000    100baff0     cg_draw.obj
 0002:0001bff8       ??_C@_09KKEJJKOF@tag_mouth?$AA@ 100baff8     cg_draw.obj
 0002:0001c008       __real@400c000000000000    100bb008     cg_draw.obj
 0002:0001c010       __real@bfe6666666666666    100bb010     cg_draw.obj
 0002:0001c018       __real@42a00000            100bb018     cg_draw.obj
 0002:0001c01c       __real@42780000            100bb01c     cg_draw.obj
 0002:0001c020       __real@43c20000            100bb020     cg_draw.obj
 0002:0001c028       __real@3feae147a0000000    100bb028     cg_draw.obj
 0002:0001c030       __real@3fb99999a0000000    100bb030     cg_draw.obj
 0002:0001c038       __real@40c7700000000000    100bb038     cg_draw.obj
 0002:0001c040       __real@40cd4c0000000000    100bb040     cg_draw.obj
 0002:0001c048       __real@3f747ae140000000    100bb048     cg_draw.obj
 0002:0001c050       __real@40d3880000000000    100bb050     cg_draw.obj
 0002:0001c058       __real@42900000            100bb058     cg_draw.obj
 0002:0001c05c       __real@43eb0000            100bb05c     cg_draw.obj
 0002:0001c060       ??_C@_05PPJGDEGI@?$CFi?1?$CFi?$AA@ 100bb060     cg_draw.obj
 0002:0001c068       ??_C@_08IEFHEHEG@?$CFi?$HM?$CFi?1?$CFi?$AA@ 100bb068     cg_draw.obj
 0002:0001c078       __real@4054800000000000    100bb078     cg_draw.obj
 0002:0001c080       __real@43d40000            100bb080     cg_draw.obj
 0002:0001c084       __real@3df5c28f            100bb084     cg_draw.obj
 0002:0001c088       ??_C@_03LEPPJAKI@MAX?$AA@  100bb088     cg_draw.obj
 0002:0001c08c       __real@42080000            100bb08c     cg_draw.obj
 0002:0001c090       __real@42100000            100bb090     cg_draw.obj
 0002:0001c094       __real@43b88000            100bb094     cg_draw.obj
 0002:0001c098       __real@43be8000            100bb098     cg_draw.obj
 0002:0001c09c       ??_C@_05LMHIOANG@XP?5?$CFi?$AA@ 100bb09c     cg_draw.obj
 0002:0001c0a4       __real@43ee0000            100bb0a4     cg_draw.obj
 0002:0001c0a8       ??_C@_05LPKOOCEN@HP?5?$CFi?$AA@ 100bb0a8     cg_draw.obj
 0002:0001c0b0       ??_C@_02DCIIBFLB@18?$AA@   100bb0b0     cg_draw.obj
 0002:0001c0b4       ??_C@_02MIGHPNDL@12?$AA@   100bb0b4     cg_draw.obj
 0002:0001c0b8       __real@4044000000000000    100bb0b8     cg_draw.obj
 0002:0001c0c0       __real@43aa0000            100bb0c0     cg_draw.obj
 0002:0001c0c4       __real@43d00000            100bb0c4     cg_draw.obj
 0002:0001c0c8       __real@422c0000            100bb0c8     cg_draw.obj
 0002:0001c0cc       __real@43de0000            100bb0cc     cg_draw.obj
 0002:0001c0d0       __real@43d30000            100bb0d0     cg_draw.obj
 0002:0001c0d4       __real@42340000            100bb0d4     cg_draw.obj
 0002:0001c0d8       __real@43c80000            100bb0d8     cg_draw.obj
 0002:0001c0dc       ??_C@_03OFAPEBGM@?$CFs?6?$AA@ 100bb0dc     cg_draw.obj
 0002:0001c0e0       __real@4083e80000000000    100bb0e0     cg_draw.obj
 0002:0001c0e8       __real@40af400000000000    100bb0e8     cg_draw.obj
 0002:0001c0f0       ??_C@_0O@ONFMLOJ@RECORDING?$CFs?$CFs?$AA@ 100bb0f0     cg_draw.obj
 0002:0001c100       ??_C@_0BA@BJLNLNKA@?5audio?5?$CFs?3?5?$CFik?5?$AA@ 100bb100     cg_draw.obj
 0002:0001c110       ??_C@_0P@GDMHBBBK@?5demo?5?$CFs?3?5?$CFik?5?$AA@ 100bb110     cg_draw.obj
 0002:0001c120       __real@4035fdbc00000000    100bb120     cg_draw.obj
 0002:0001c128       __real@404ab41b20000000    100bb128     cg_draw.obj
 0002:0001c130       __real@40746b9c40000000    100bb130     cg_draw.obj
 0002:0001c138       __real@40478fdba0000000    100bb138     cg_draw.obj
 0002:0001c140       __real@4012000000000000    100bb140     cg_draw.obj
 0002:0001c148       __real@403921fb60000000    100bb148     cg_draw.obj
 0002:0001c150       __real@bfe3333333333333    100bb150     cg_draw.obj
 0002:0001c158       __real@43830000            100bb158     cg_draw.obj
 0002:0001c160       __real@406c000000000000    100bb160     cg_draw.obj
 0002:0001c168       __real@434e0000            100bb168     cg_draw.obj
 0002:0001c16c       __real@43820000            100bb16c     cg_draw.obj
 0002:0001c170       __real@43640000            100bb170     cg_draw.obj
 0002:0001c174       ??_C@_0P@MDECJLOK@Initializing?4?4?$AA@ 100bb174     cg_draw.obj
 0002:0001c184       ??_C@_0M@IPANNIKC@Receiving?4?4?$AA@ 100bb184     cg_draw.obj
 0002:0001c190       ??_C@_0M@CIBINPKK@Preparing?4?4?$AA@ 100bb190     cg_draw.obj
 0002:0001c19c       __real@443b8000            100bb19c     cg_draw.obj
 0002:0001c1a0       __real@3ff19999a0000000    100bb1a0     cg_draw.obj
 0002:0001c1a8       __real@3ff921fb60000000    100bb1a8     cg_draw.obj
 0002:0001c1b0       ??_C@_07HFBACLIM@?$FO1?$CFd?5?$CFs?$AA@ 100bb1b0     cg_draw.obj
 0002:0001c1b8       ??_C@_0M@EBBKLHLN@?$CFs?$FO7?$CFi?3?$CFi?$CFi?$AA@ 100bb1b8     cg_draw.obj
 0002:0001c1c8       __real@3f60624dd2f1a9fc    100bb1c8     cg_draw.obj
 0002:0001c1d0       ??_C@_06OBLBKKFH@?$FON0?300?$AA@ 100bb1d0     cg_draw.obj
 0002:0001c1d8       ??_C@_08PFHJIIGF@?$FO7WARMUP?$AA@ 100bb1d8     cg_draw.obj
 0002:0001c1e4       ??_C@_06EPIJDFAE@?$FOF?$CFd?$CFs?$AA@ 100bb1e4     cg_draw.obj
 0002:0001c1ec       __real@43180000            100bb1ec     cg_draw.obj
 0002:0001c1f0       __real@4084000000000000    100bb1f0     cg_draw.obj
 0002:0001c1f8       __real@430c0000            100bb1f8     cg_draw.obj
 0002:0001c1fc       __real@43a00000            100bb1fc     cg_draw.obj
 0002:0001c200       __real@40d9000000000000    100bb200     cg_draw.obj
 0002:0001c208       ??_C@_0BL@FLIGGHJC@You?5are?5on?5the?5Allied?5team?$AA@ 100bb208     cg_draw.obj
 0002:0001c224       ??_C@_0CG@EOKDNGFN@Keep?5the?5Axis?5from?5beating?5the?5c@ 100bb224     cg_draw.obj
 0002:0001c24c       ??_C@_0BJ@KAJPGOMG@You?5are?5on?5the?5Axis?5team?$AA@ 100bb24c     cg_draw.obj
 0002:0001c268       ??_C@_0CK@KIGJGKLB@You?5have?5been?5switched?5to?5the?5Al@ 100bb268     cg_draw.obj
 0002:0001c294       ??_C@_0BH@IKFOKGNK@Try?5to?5beat?5the?5clock?$CB?$AA@ 100bb294     cg_draw.obj
 0002:0001c2ac       ??_C@_0CI@CKDADHJ@Keep?5the?5Allies?5from?5beating?5the@ 100bb2ac     cg_draw.obj
 0002:0001c2d4       ??_C@_0CI@GPDAFPPD@You?5have?5been?5switched?5to?5the?5Ax@ 100bb2d4     cg_draw.obj
 0002:0001c2fc       ??_C@_0BA@MMCCFKHN@Stopwatch?5Round?$AA@ 100bb2fc     cg_draw.obj
 0002:0001c30c       ??_C@_0BC@MHBEJAIB@PREPARE?5TO?5FIGHT?$CB?$AA@ 100bb30c     cg_draw.obj
 0002:0001c320       __real@3f59999a            100bb320     cg_draw.obj
 0002:0001c324       ??_C@_05INKFKLBN@?$CFs?5?$CFi?$AA@ 100bb324     cg_draw.obj
 0002:0001c32c       ??_C@_0BK@FCDHADC@?$CIWARMUP?$CJ?5Match?5begins?5in?3?$AA@ 100bb32c     cg_draw.obj
 0002:0001c348       ??_C@_0BG@LPOCLHDB@Press?5?$FO3?$CFs?$FO7?5to?5start?$AA@ 100bb348     cg_draw.obj
 0002:0001c360       ??_C@_0CI@GLDDDMOG@Type?5?$FO3?2ready?$FO7?5in?5the?5console?5t@ 100bb360     cg_draw.obj
 0002:0001c388       ??_C@_05EFIKCDOB@?$CI?$DP?$DP?$DP?$CJ?$AA@ 100bb388     cg_draw.obj
 0002:0001c390       ??_C@_0CB@CHEEDOOF@?$FO3WARMUP?3?$FO7?5Waiting?5on?5?$FO2?$CFi?$FO7?5?$CFs@ 100bb390     cg_draw.obj
 0002:0001c3b4       ??_C@_06BALNJMNP@player?$AA@ 100bb3b4     cg_draw.obj
 0002:0001c3bc       ??_C@_0BA@KGPKFKPE@?$FO3Config?3?$FO7?$CFs?$FO7?$AA@ 100bb3bc     cg_draw.obj
 0002:0001c3cc       __real@43940000            100bb3cc     cg_draw.obj
 0002:0001c3d0       ??_C@_0CE@GNKHIBFA@CG_DrawActive?3?5Undefined?5stereoV@ 100bb3d0     cg_draw.obj
 0002:0001c3f4       __real@3faaaaab            100bb3f4     cg_drawtools.obj
 0002:0001c3f8       __real@4040800000000000    100bb3f8     cg_drawtools.obj
 0002:0001c400       __real@c049000000000000    100bb400     cg_effects.obj
 0002:0001c408       __real@3fd3333333333333    100bb408     cg_effects.obj
 0002:0001c410       __real@3fa999999999999a    100bb410     cg_effects.obj
 0002:0001c418       __real@3ff4000000000000    100bb418     cg_effects.obj
 0002:0001c420       __real@4053800000000000    100bb420     cg_effects.obj
 0002:0001c428       __real@3fb3f7cee0000000    100bb428     cg_effects.obj
 0002:0001c430       __real@4052c00000000000    100bb430     cg_effects.obj
 0002:0001c438       ??_C@_0BP@EEHJJPLA@Bad?5clientNum?5on?5player?5entity?$AA@ 100bb438     cg_effects.obj
 0002:0001c458       ??_C@_08LHMBGCLK@tag_back?$AA@ 100bb458     cg_effects.obj
 0002:0001c464       __real@c2800000            100bb464     cg_effects.obj
 0002:0001c468       __real@4064a00000000000    100bb468     cg_effects.obj
 0002:0001c470       ??_C@_08PGAPCFON@tag_head?$AA@ 100bb470     cg_effects.obj
 0002:0001c47c       ??_C@_0M@LAOECEAE@tag_legleft?$AA@ 100bb47c     cg_effects.obj
 0002:0001c488       ??_C@_09JBECDLMC@tag_chest?$AA@ 100bb488     cg_effects.obj
 0002:0001c494       ??_C@_09FJEJHBEN@tag_torso?$AA@ 100bb494     cg_effects.obj
 0002:0001c4a0       ??_C@_0M@CIADLAPD@tag_armleft?$AA@ 100bb4a0     cg_effects.obj
 0002:0001c4ac       ??_C@_0N@DOGDKPHP@tag_armright?$AA@ 100bb4ac     cg_effects.obj
 0002:0001c4bc       ??_C@_0N@BNCCCPFE@tag_legright?$AA@ 100bb4bc     cg_effects.obj
 0002:0001c4cc       ??_C@_0DA@HDCFONME@models?1mapobjects?1supplystands?1s@ 100bb4cc     cg_ents.obj
 0002:0001c4fc       ??_C@_0CN@MGGMALEF@models?1multiplayer?1supplies?1heal@ 100bb4fc     cg_ents.obj
 0002:0001c52c       ??_C@_0P@PIIJKPIE@tag_Medikit_06?$AA@ 100bb52c     cg_ents.obj
 0002:0001c53c       ??_C@_0P@NDKEPMEH@tag_Medikit_05?$AA@ 100bb53c     cg_ents.obj
 0002:0001c54c       ??_C@_0P@MKLPMNAG@tag_Medikit_04?$AA@ 100bb54c     cg_ents.obj
 0002:0001c55c       ??_C@_0P@IFPOFLMB@tag_Medikit_03?$AA@ 100bb55c     cg_ents.obj
 0002:0001c56c       ??_C@_0P@JMOFGKIA@tag_Medikit_02?$AA@ 100bb56c     cg_ents.obj
 0002:0001c57c       ??_C@_0P@LHMIDJED@tag_Medikit_01?$AA@ 100bb57c     cg_ents.obj
 0002:0001c58c       ??_C@_0CO@CKHNKHEO@models?1mapobjects?1supplystands?1s@ 100bb58c     cg_ents.obj
 0002:0001c5bc       ??_C@_0CL@ELNJKFOF@models?1multiplayer?1supplies?1ammo@ 100bb5bc     cg_ents.obj
 0002:0001c5e8       ??_C@_0L@GGJJHGLC@tag_ammo06?$AA@ 100bb5e8     cg_ents.obj
 0002:0001c5f4       ??_C@_0L@ENLECFHB@tag_ammo05?$AA@ 100bb5f4     cg_ents.obj
 0002:0001c600       ??_C@_0L@FEKPBEDA@tag_ammo04?$AA@ 100bb600     cg_ents.obj
 0002:0001c60c       ??_C@_0L@BLOOICPH@tag_ammo03?$AA@ 100bb60c     cg_ents.obj
 0002:0001c618       ??_C@_0L@CPFLDLG@tag_ammo02?$AA@ 100bb618     cg_ents.obj
 0002:0001c624       ??_C@_0L@CJNIOAHF@tag_ammo01?$AA@ 100bb624     cg_ents.obj
 0002:0001c630       __real@3fb2492bc2fc6973    100bb630     cg_ents.obj
 0002:0001c638       __real@4051800000000000    100bb638     cg_ents.obj
 0002:0001c640       __real@4053200000000000    100bb640     cg_ents.obj
 0002:0001c648       __real@bfee147ae0000000    100bb648     cg_ents.obj
 0002:0001c650       __real@3fad2f1aa0000000    100bb650     cg_ents.obj
 0002:0001c658       __real@3f70101020000000    100bb658     cg_ents.obj
 0002:0001c660       ??_C@_09OGNKPGPP@tag_stand?$AA@ 100bb660     cg_ents.obj
 0002:0001c66c       ??_C@_0M@PIONGGCJ@tag_stand?$CFd?$AA@ 100bb66c     cg_ents.obj
 0002:0001c678       ??_C@_0BM@DFPOGHOF@Bad?5item?5index?5?$CFi?5on?5entity?$AA@ 100bb678     cg_ents.obj
 0002:0001c698       __real@3f847ae147ae147b    100bb698     cg_ents.obj
 0002:0001c6a0       __real@3f747ae147ae147b    100bb6a0     cg_ents.obj
 0002:0001c6a8       ??_C@_0BF@NGFHFBLN@Bad?5entity?5type?3?5?$CFi?6?$AA@ 100bb6a8     cg_ents.obj
 0002:0001c6c0       ??_C@_09FNBKMGLL@tag_flash?$AA@ 100bb6c0     cg_ents.obj
 0002:0001c6cc       ??_C@_0N@FILKDDBN@tag_playerpo?$AA@ 100bb6cc     cg_ents.obj
 0002:0001c6dc       ??_C@_08BCHAHEJP@tag_mg42?$AA@ 100bb6dc     cg_ents.obj
 0002:0001c6e8       ??_C@_0N@FNEDJNCG@tag_mg42nest?$AA@ 100bb6e8     cg_ents.obj
 0002:0001c6f8       ??_C@_0L@CCIMLBHF@tag_player?$AA@ 100bb6f8     cg_ents.obj
 0002:0001c708       __real@3f40000000000000    100bb708     cg_ents.obj
 0002:0001c710       __real@40affe0000000000    100bb710     cg_ents.obj
 0002:0001c718       ??_C@_0BM@IDOBJGJM@sound?1world?1fabricbreak?4wav?$AA@ 100bb718     cg_event.obj
 0002:0001c734       ??_C@_0BK@OMIDHNME@sound?1world?1stonefall?4wav?$AA@ 100bb734     cg_event.obj
 0002:0001c750       ??_C@_0BI@GBHNCFMF@sound?1world?1debris1?4wav?$AA@ 100bb750     cg_event.obj
 0002:0001c768       ??_C@_0BF@OCPJPOOE@sound?1player?1gib?4wav?$AA@ 100bb768     cg_event.obj
 0002:0001c780       ??_C@_0BL@JIIJGPP@sound?1world?1metalbreak?4wav?$AA@ 100bb780     cg_event.obj
 0002:0001c79c       ??_C@_0BM@HIDJCGHM@sound?1world?1glassbreak3?4wav?$AA@ 100bb79c     cg_event.obj
 0002:0001c7b8       ??_C@_0BM@LDGFPFNJ@sound?1world?1glassbreak2?4wav?$AA@ 100bb7b8     cg_event.obj
 0002:0001c7d4       ??_C@_0BM@DFPBIHHH@sound?1world?1glassbreak1?4wav?$AA@ 100bb7d4     cg_event.obj
 0002:0001c7f0       ??_C@_0BL@OHFKEEHJ@sound?1world?1boardbreak?4wav?$AA@ 100bb7f0     cg_event.obj
 0002:0001c80c       ??_C@_0BD@OBEIAPGJ@?8s?5throwing?5knife?4?$AA@ 100bb80c     cg_event.obj
 0002:0001c820       ??_C@_0P@DFMPNDPE@was?5impaled?5by?$AA@ 100bb820     cg_event.obj
 0002:0001c830       ??_C@_0BK@DAPIGAJK@was?5thrown?5to?5his?5doom?5by?$AA@ 100bb830     cg_event.obj
 0002:0001c84c       ??_C@_09JHNPCPCE@?8s?5Venom?4?$AA@ 100bb84c     cg_event.obj
 0002:0001c858       ??_C@_0P@EINEBGNC@was?5ventilated?$AA@ 100bb858     cg_event.obj
 0002:0001c868       ??_C@_08FDCKGOIC@?8s?5MP34?4?$AA@ 100bb868     cg_event.obj
 0002:0001c874       ??_C@_0BM@EJAAPNPO@died?5in?5a?5hail?5of?5lead?5from?$AA@ 100bb874     cg_event.obj
 0002:0001c890       ??_C@_0M@JMLHPJKP@?8s?5Johnson?4?$AA@ 100bb890     cg_event.obj
 0002:0001c89c       ??_C@_0M@CINGLNCO@?8s?5Bazooka?4?$AA@ 100bb89c     cg_event.obj
 0002:0001c8a8       ??_C@_0BM@BILEEBCA@was?5blown?5to?5smithereens?5by?$AA@ 100bb8a8     cg_event.obj
 0002:0001c8c4       ??_C@_09LONNABFE@?8s?5StG44?4?$AA@ 100bb8c4     cg_event.obj
 0002:0001c8d0       ??_C@_0BA@LIKKPCIN@was?5shredded?5by?$AA@ 100bb8d0     cg_event.obj
 0002:0001c8e0       ??_C@_07NGOGEDNK@?8s?5BAR?4?$AA@ 100bb8e0     cg_event.obj
 0002:0001c8e8       ??_C@_0BM@CHCHONAJ@?8s?5mobile?5Browning?5?430?5Cal?4?$AA@ 100bb8e8     cg_event.obj
 0002:0001c904       ??_C@_0BG@DAIIGONB@was?5cut?5to?5ribbons?5by?$AA@ 100bb904     cg_event.obj
 0002:0001c91c       ??_C@_0BD@FCJGCLDL@was?5backstabbed?5by?$AA@ 100bb91c     cg_event.obj
 0002:0001c930       ??_C@_0BD@ONEMIJHE@?8s?5Winchester?5M97?4?$AA@ 100bb930     cg_event.obj
 0002:0001c944       ??_C@_0BC@BEAIEDOA@was?5blown?5away?5by?$AA@ 100bb944     cg_event.obj
 0002:0001c958       ??_C@_0BL@CPEFCJLF@wimped?5out?5of?5a?5fight?5with?$AA@ 100bb958     cg_event.obj
 0002:0001c974       ??_C@_0BC@JAEGAMMA@?8s?5poison?5needle?4?$AA@ 100bb974     cg_event.obj
 0002:0001c988       ??_C@_0BJ@IBHMNFME@was?5lethally?5injected?5by?$AA@ 100bb988     cg_event.obj
 0002:0001c9a4       ??_C@_0CA@PPAPCKKA@experienced?5death?5from?5above?5by?$AA@ 100bb9a4     cg_event.obj
 0002:0001c9c4       ??_C@_0BI@CFHEPLD@?$FO2swapped?5places?5with?$FO7?$AA@ 100bb9c4     cg_event.obj
 0002:0001c9dc       ??_C@_0BF@JHOBCHLC@?8s?5airstrike?5marker?4?$AA@ 100bb9dc     cg_event.obj
 0002:0001c9f4       ??_C@_08IOLLOCP@stood?5on?$AA@ 100bb9f4     cg_event.obj
 0002:0001ca00       ??_C@_0BG@LKKOGAJL@?8s?5Akimbo?5Luger?59mms?4?$AA@ 100bba00     cg_event.obj
 0002:0001ca18       ??_C@_0BI@CEFPOJHP@?8s?5Akimbo?5?445ACP?51911s?4?$AA@ 100bba18     cg_event.obj
 0002:0001ca30       ??_C@_0BI@EBMOKBAL@?8s?5mortar?5round?5coming?4?$AA@ 100bba30     cg_event.obj
 0002:0001ca48       ??_C@_09KBNEFOGO@never?5saw?$AA@ 100bba48     cg_event.obj
 0002:0001ca54       ??_C@_07MOACNABC@?8s?5K43?4?$AA@ 100bba54     cg_event.obj
 0002:0001ca5c       ??_C@_0L@GGFAMDDO@?8s?5rubble?4?$AA@ 100bba5c     cg_event.obj
 0002:0001ca68       ??_C@_0BB@NNCGCBFH@got?5buried?5under?$AA@ 100bba68     cg_event.obj
 0002:0001ca7c       ??_C@_0BJ@EMAPOPJA@?8s?5construction?5madness?4?$AA@ 100bba7c     cg_event.obj
 0002:0001ca98       ??_C@_0O@GANBIMGN@got?5caught?5in?$AA@ 100bba98     cg_event.obj
 0002:0001caa8       ??_C@_08KJKFLCJB@?8s?5Colt?4?$AA@ 100bbaa8     cg_event.obj
 0002:0001cab4       ??_C@_0BA@EBLPNCHM@?8s?5Mobile?5MG42?4?$AA@ 100bbab4     cg_event.obj
 0002:0001cac4       ??_C@_0BB@LKGDMEPP@was?5mown?5down?5by?$AA@ 100bbac4     cg_event.obj
 0002:0001cad8       ??_C@_0BD@OEECPJBM@?8s?5Satchel?5Charge?4?$AA@ 100bbad8     cg_event.obj
 0002:0001caec       ??_C@_0N@CAGCAJNK@?8s?5Landmine?4?$AA@ 100bbaec     cg_event.obj
 0002:0001cafc       ??_C@_0P@JKHECIG@failed?5to?5spot?$AA@ 100bbafc     cg_event.obj
 0002:0001cb0c       ??_C@_0BC@NFGCDDO@?8s?5rifle?5grenade?4?$AA@ 100bbb0c     cg_event.obj
 0002:0001cb20       ??_C@_09ONCLHMKI@?8s?5KAR98?4?$AA@ 100bbb20     cg_event.obj
 0002:0001cb2c       ??_C@_0P@NJLIFELK@?8s?5M1?5Carbine?4?$AA@ 100bbb2c     cg_event.obj
 0002:0001cb3c       ??_C@_0BG@IIOINCFN@?8s?5artillery?5support?4?$AA@ 100bbb3c     cg_event.obj
 0002:0001cb54       ??_C@_0P@OCONJGBA@was?5shelled?5by?$AA@ 100bbb54     cg_event.obj
 0002:0001cb64       ??_C@_0O@LKBDLJNL@?8s?5airstrike?4?$AA@ 100bbb64     cg_event.obj
 0002:0001cb74       ??_C@_0N@GGMDCML@?8s?5dynamite?4?$AA@ 100bbb74     cg_event.obj
 0002:0001cb84       ??_C@_0BB@JOCGIOLN@was?5detonated?5by?$AA@ 100bbb84     cg_event.obj
 0002:0001cb98       ??_C@_0BG@IIEKIEIB@got?5his?5ass?5kicked?5by?$AA@ 100bbb98     cg_event.obj
 0002:0001cbb0       ??_C@_0BB@IOAJDBHG@?8s?5flamethrower?4?$AA@ 100bbbb0     cg_event.obj
 0002:0001cbc4       ??_C@_0BD@IEAPBEBF@was?5incinerated?5by?$AA@ 100bbbc4     cg_event.obj
 0002:0001cbd8       ??_C@_0M@KIBEHFGD@?8s?5grenade?4?$AA@ 100bbbd8     cg_event.obj
 0002:0001cbe4       ??_C@_0BA@LJHLBOJN@?8s?5Panzerfaust?4?$AA@ 100bbbe4     cg_event.obj
 0002:0001cbf4       ??_C@_08HCHHJBNI@?8s?5FG42?4?$AA@ 100bbbf4     cg_event.obj
 0002:0001cc00       ??_C@_09CCHAIIGH@?8s?5Luger?4?$AA@ 100bbc00     cg_event.obj
 0002:0001cc0c       ??_C@_0O@PCPPDEKN@?8s?5M1?5Garand?4?$AA@ 100bbc0c     cg_event.obj
 0002:0001cc1c       ??_C@_08NBPKHPLF@?8s?5Sten?4?$AA@ 100bbc1c     cg_event.obj
 0002:0001cc28       ??_C@_0N@MAHLCNDC@?8s?5Thompson?4?$AA@ 100bbc28     cg_event.obj
 0002:0001cc38       ??_C@_08MJPEPOOH@?8s?5MP40?4?$AA@ 100bbc38     cg_event.obj
 0002:0001cc44       ??_C@_0BA@CNJPNMHJ@?8s?5?445ACP?51911?4?$AA@ 100bbc44     cg_event.obj
 0002:0001cc54       ??_C@_0O@KHPHHIJG@?8s?5Luger?59mm?4?$AA@ 100bbc54     cg_event.obj
 0002:0001cc64       ??_C@_09PFJHNJFH@?8s?5knife?4?$AA@ 100bbc64     cg_event.obj
 0002:0001cc70       ??_C@_0P@MHCGMPBF@was?5stabbed?5by?$AA@ 100bbc70     cg_event.obj
 0002:0001cc80       ??_C@_0BG@JLABNKDM@?8s?5tank?9mounted?5MG42?4?$AA@ 100bbc80     cg_event.obj
 0002:0001cc98       ??_C@_0CC@MLPIFEN@?8s?5tank?9mounted?5Browning?5?430?5Cal@ 100bbc98     cg_event.obj
 0002:0001ccbc       ??_C@_0BD@MLNGDINI@?8s?5crew?9served?5MG?4?$AA@ 100bbcbc     cg_event.obj
 0002:0001ccd0       ??_C@_0BE@FKPPEGKH@played?5with?5knives?$CB?$AA@ 100bbcd0     cg_event.obj
 0002:0001cce4       ??_C@_0BD@DOBNAOFJ@bazooka?8d?5himself?4?$AA@ 100bbce4     cg_event.obj
 0002:0001ccf8       ??_C@_0BH@GKNPLAGB@tasted?5his?5own?5poison?4?$AA@ 100bbcf8     cg_event.obj
 0002:0001cd10       ??_C@_0BM@IMBLGMOL@danced?5on?5his?5smoke?5marker?4?$AA@ 100bbd10     cg_event.obj
 0002:0001cd2c       ??_C@_0CH@CLHJCCCC@never?5saw?5his?5own?5mortar?5round?5c@ 100bbd2c     cg_event.obj
 0002:0001cd54       ??_C@_0BG@HOGDHFBL@buried?5himself?5alive?4?$AA@ 100bbd54     cg_event.obj
 0002:0001cd6c       ??_C@_0CC@PFBKLGKN@engineered?5himself?5into?5oblivion@ 100bbd6c     cg_event.obj
 0002:0001cd90       ??_C@_0CE@OFCECKFG@embraced?5his?5own?5satchel?5explosi@ 100bbd90     cg_event.obj
 0002:0001cdb4       ??_C@_0CG@IIEPNNGL@forgot?5where?5he?5planted?5his?5land@ 100bbdb4     cg_event.obj
 0002:0001cddc       ??_C@_0BL@BGJGMFNJ@died?5in?5his?5own?5explosion?4?$AA@ 100bbddc     cg_event.obj
 0002:0001cdf8       ??_C@_0BN@KOKFPJKM@fired?9for?9effect?5on?5himself?4?$AA@ 100bbdf8     cg_event.obj
 0002:0001ce18       ??_C@_0BF@EGHHJCHF@obliterated?5himself?4?$AA@ 100bbe18     cg_event.obj
 0002:0001ce30       ??_C@_0BN@BHCGGELA@dynamited?5himself?5to?5pieces?4?$AA@ 100bbe30     cg_event.obj
 0002:0001ce50       ??_C@_0BO@BMJKPJNI@tried?5to?5put?5the?5pin?5back?5in?4?$AA@ 100bbe50     cg_event.obj
 0002:0001ce70       ??_C@_0BE@GNOCBLM@tried?5to?5tame?5fire?4?$AA@ 100bbe70     cg_event.obj
 0002:0001ce84       ??_C@_0BJ@KOJEJEBA@dove?5on?5his?5own?5grenade?4?$AA@ 100bbe84     cg_event.obj
 0002:0001cea0       ??_C@_0BG@EMBIDIGC@panzernoobed?5himself?4?$AA@ 100bbea0     cg_event.obj
 0002:0001ceb8       ??_C@_0CB@LGLEJLGH@has?5angered?5the?5censorship?5gods?4@ 100bbeb8     cg_event.obj
 0002:0001cedc       ??_C@_0CM@MPJACIFG@stood?5in?5the?5wrong?5place?5at?5the?5@ 100bbedc     cg_event.obj
 0002:0001cf08       ??_C@_0BG@EBBBDIIK@was?5mortally?5wounded?4?$AA@ 100bbf08     cg_event.obj
 0002:0001cf20       ??_C@_0BP@ELGIMFHK@was?5target?5of?5too?5strong?5beam?4?$AA@ 100bbf20     cg_event.obj
 0002:0001cf40       ??_C@_0BG@PDPCFAMA@rediscovered?5gravity?4?$AA@ 100bbf40     cg_event.obj
 0002:0001cf58       ??_C@_0BB@COJHOGM@was?5telefragged?4?$AA@ 100bbf58     cg_event.obj
 0002:0001cf6c       ??_C@_0N@PFHICOOG@was?5crushed?4?$AA@ 100bbf6c     cg_event.obj
 0002:0001cf7c       ??_C@_0BH@HJIGBDMC@tried?5to?5swim?5in?5lava?4?$AA@ 100bbf7c     cg_event.obj
 0002:0001cf94       ??_C@_0BJ@MKGLLOCO@died?5by?5toxic?5materials?4?$AA@ 100bbf94     cg_event.obj
 0002:0001cfb0       ??_C@_08PDPGAIKM@drowned?4?$AA@ 100bbfb0     cg_event.obj
 0002:0001cfbc       ??_C@_0BO@NDAFJBHE@was?5killed?5by?5mortar?5support?4?$AA@ 100bbfbc     cg_event.obj
 0002:0001cfdc       ??_C@_0P@BENKEGFP@Ludicrous?5kill?$AA@ 100bbfdc     cg_event.obj
 0002:0001cfec       ??_C@_09LBMPNMIN@Mega?5kill?$AA@ 100bbfec     cg_event.obj
 0002:0001cff8       ??_C@_0N@CGGGCIHM@Monster?5kill?$AA@ 100bbff8     cg_event.obj
 0002:0001d008       ??_C@_0L@BPFEHFOC@Ultra?5kill?$AA@ 100bc008     cg_event.obj
 0002:0001d014       ??_C@_0L@DCECFNMH@Multi?5kill?$AA@ 100bc014     cg_event.obj
 0002:0001d020       ??_C@_09BLOJLBDH@Shitstorm?$AA@ 100bc020     cg_event.obj
 0002:0001d02c       ??_C@_0BA@NMBLJJLA@Prophet?5of?5Doom?$AA@ 100bc02c     cg_event.obj
 0002:0001d03c       ??_C@_0L@NDEKNNEL@God?5of?5War?$AA@ 100bc03c     cg_event.obj
 0002:0001d048       ??_C@_05EKGLMDJJ@Havoc?$AA@ 100bc048     cg_event.obj
 0002:0001d050       ??_C@_0P@GGBJNHLN@Slaughterhouse?$AA@ 100bc050     cg_event.obj
 0002:0001d060       ??_C@_09EFIJGEJL@Bloodbath?$AA@ 100bc060     cg_event.obj
 0002:0001d06c       ??_C@_0L@IKCFKIGL@Dominating?$AA@ 100bc06c     cg_event.obj
 0002:0001d078       ??_C@_07DLCPLNBG@Rampage?$AA@ 100bc078     cg_event.obj
 0002:0001d080       ??_C@_0P@NGAMFHMG@Killing?5Spree?$CB?$AA@ 100bc080     cg_event.obj
 0002:0001d090       ??_C@_0O@DPBBBMBL@?$CFs?$CFs?5?$CFs?5?$CFs?$CFs?6?$AA@ 100bc090     cg_event.obj
 0002:0001d0a0       ??_C@_0BB@HLOKIJMD@?$CFs?$CFs?$FO7?5?$CFs?5?$CFs?$FO7?$CFs?$AA@ 100bc0a0     cg_event.obj
 0002:0001d0b4       ??_C@_0M@NLIGKFEM@?$CFs?5?$CFs?5?$CFs?$CFs?6?$AA@ 100bc0b4     cg_event.obj
 0002:0001d0c0       ??_C@_0BA@MEGKEMC@?$FO1TEAM?5KILL?3?$FO7?5?$AA@ 100bc0c0     cg_event.obj
 0002:0001d0d0       ??_C@_01LFCBOECM@?4?$AA@   100bc0d0     cg_event.obj
 0002:0001d0d4       ??_C@_0BA@JENODADK@was?5executed?5by?$AA@ 100bc0d4     cg_event.obj
 0002:0001d0e4       ??_C@_09PIPBOPDG@?$CFs?5died?4?6?$AA@ 100bc0e4     cg_event.obj
 0002:0001d0f0       ??_C@_0L@MLIOJPJA@?$CFs?$FO7?5died?4?$AA@ 100bc0f0     cg_event.obj
 0002:0001d0fc       ??_C@_06LNKFDEGN@noname?$AA@ 100bc0fc     cg_event.obj
 0002:0001d104       ??_C@_06KGGGBDJD@killed?$AA@ 100bc104     cg_event.obj
 0002:0001d10c       ??_C@_0L@DANACFJB@You?5killed?$AA@ 100bc10c     cg_event.obj
 0002:0001d118       ??_C@_0L@KCOBKEAM@?$CFs?5?$FO7?$CFs?5?$CFs?$AA@ 100bc118     cg_event.obj
 0002:0001d124       ??_C@_0BE@MCKDMCFA@killed?5?$FO1TEAMMATE?$FO7?$AA@ 100bc124     cg_event.obj
 0002:0001d138       ??_C@_05DNIIFBMG@?$CFs?5?$CFs?$AA@ 100bc138     cg_event.obj
 0002:0001d140       ??_C@_0BI@CCGAKIJB@You?5killed?5?$FO1TEAMMATE?$FO7?$AA@ 100bc140     cg_event.obj
 0002:0001d158       ??_C@_0BE@NCCEHIIH@swapped?5places?5with?$AA@ 100bc158     cg_event.obj
 0002:0001d16c       ??_C@_0BI@DCOHBCEG@You?5swapped?5places?5with?$AA@ 100bc16c     cg_event.obj
 0002:0001d184       ??_C@_07EJOIIKAD@?$CFs?$FO7?5?$CFs?$AA@ 100bc184     cg_event.obj
 0002:0001d18c       ??_C@_06IINFAHFO@?$CFs?5?$CFs?6?$AA@ 100bc18c     cg_event.obj
 0002:0001d194       ??_C@_02PGJLIFGD@?$FO7?$AA@ 100bc194     cg_event.obj
 0002:0001d198       ??_C@_0CB@LLKCBBGA@CG_Obituary?3?5target?5out?5of?5range@ 100bc198     cg_event.obj
 0002:0001d1bc       ??_C@_0N@BJLIPJKA@Picked?5up?5?$CFs?$AA@ 100bc1bc     cg_event.obj
 0002:0001d1cc       __real@447a0000            100bc1cc     cg_event.obj
 0002:0001d1d0       __real@4053000000000000    100bc1d0     cg_event.obj
 0002:0001d1d8       ??_C@_0BP@DECMAFIA@CG_Debris?5has?5an?5unknown?5type?6?$AA@ 100bc1d8     cg_event.obj
 0002:0001d1f8       __real@40bf400000000000    100bc1f8     cg_event.obj
 0002:0001d200       __real@4a100000            100bc200     cg_event.obj
 0002:0001d204       ??_C@_0P@HMELDAND@FIRST?5HEADSHOT?$AA@ 100bc204     cg_event.obj
 0002:0001d214       ??_C@_0M@ONKJPFDE@FIRST?5BLOOD?$AA@ 100bc214     cg_event.obj
 0002:0001d220       ??_C@_0M@HBPNKFIC@textures?1?$CFs?$AA@ 100bc220     cg_event.obj
 0002:0001d22c       ??_C@_08MEIODECE@explode1?$AA@ 100bc22c     cg_event.obj
 0002:0001d238       ??_C@_0P@BLAPONDA@blacksmokeanim?$AA@ 100bc238     cg_event.obj
 0002:0001d248       ??_C@_0BC@OKELKAPM@Unknown?5event?3?5?$CFi?$AA@ 100bc248     cg_event.obj
 0002:0001d25c       ??_C@_08GCOIMFOL@UNKNOWN?6?$AA@ 100bc25c     cg_event.obj
 0002:0001d268       ??_C@_08GIPMACBC@EV_JUNK?6?$AA@ 100bc268     cg_event.obj
 0002:0001d274       ??_C@_09JBHFICJG@EV_SHARD?6?$AA@ 100bc274     cg_event.obj
 0002:0001d280       ??_C@_0O@BMGLFECP@EV_GUNSPARKS?6?$AA@ 100bc280     cg_event.obj
 0002:0001d290       ??_C@_0L@IMCNHMLJ@EV_SPARKS?6?$AA@ 100bc290     cg_event.obj
 0002:0001d29c       ??_C@_08OHPPAIGN@EV_DUST?6?$AA@ 100bc29c     cg_event.obj
 0002:0001d2a8       ??_C@_0BD@DIAILLOA@EV_OILSLICKREMOVE?6?$AA@ 100bc2a8     cg_event.obj
 0002:0001d2bc       ??_C@_0N@DLFOANGF@EV_OILSLICK?6?$AA@ 100bc2bc     cg_event.obj
 0002:0001d2cc       ??_C@_0BB@LPPACLBK@EV_OILPARTICLES?6?$AA@ 100bc2cc     cg_event.obj
 0002:0001d2e0       ??_C@_0BB@JFDGENII@EV_ITEM_RESPAWN?6?$AA@ 100bc2e0     cg_event.obj
 0002:0001d2f4       ??_C@_0N@PBHGFCFD@EV_ITEM_POP?6?$AA@ 100bc2f4     cg_event.obj
 0002:0001d304       ??_C@_0P@BMHFHKBC@EV_SNOWFLURRY?6?$AA@ 100bc304     cg_event.obj
 0002:0001d314       ??_C@_0BC@PKCDEMPH@EV_ARTY_DETECTED?6?$AA@ 100bc314     cg_event.obj
 0002:0001d328       ??_C@_0BE@KADOOLKO@EV_PRIVATE_MESSAGE?6?$AA@ 100bc328     cg_event.obj
 0002:0001d33c       ??_C@_0M@EIEJFNEE@EV_WEAPALT?6?$AA@ 100bc33c     cg_event.obj
 0002:0001d348       ??_C@_0N@FEHGNBJI@EV_FX_SOUND?6?$AA@ 100bc348     cg_event.obj
 0002:0001d358       ??_C@_0P@KNGEHE@EV_MEDIC_CALL?6?$AA@ 100bc358     cg_event.obj
 0002:0001d368       ??_C@_0BF@OBEBABGJ@allies_hq_ffe_denied?$AA@ 100bc368     cg_event.obj
 0002:0001d380       ??_C@_0BD@BJEODJFL@axis_hq_ffe_denied?$AA@ 100bc380     cg_event.obj
 0002:0001d394       ??_C@_0BE@BMLNJBEN@allies_hq_ffe_abort?$AA@ 100bc394     cg_event.obj
 0002:0001d3a8       ??_C@_0BC@HBCLMKJA@axis_hq_ffe_abort?$AA@ 100bc3a8     cg_event.obj
 0002:0001d3bc       ??_C@_0O@FHABNHOL@allies_hq_ffe?$AA@ 100bc3bc     cg_event.obj
 0002:0001d3cc       ??_C@_0M@JDBPJPNC@axis_hq_ffe?$AA@ 100bc3cc     cg_event.obj
 0002:0001d3d8       ??_C@_0BA@JOMLEIAC@EV_ARTYMESSAGE?6?$AA@ 100bc3d8     cg_event.obj
 0002:0001d3e8       ??_C@_0BL@DOBGJINC@allies_hq_airstrike_denied?$AA@ 100bc3e8     cg_event.obj
 0002:0001d404       ??_C@_0BJ@FEBPPAN@axis_hq_airstrike_denied?$AA@ 100bc404     cg_event.obj
 0002:0001d420       ??_C@_0BK@CLMLOJOB@allies_hq_airstrike_abort?$AA@ 100bc420     cg_event.obj
 0002:0001d43c       ??_C@_0BI@BCIMPOMB@axis_hq_airstrike_abort?$AA@ 100bc43c     cg_event.obj
 0002:0001d454       ??_C@_0BE@JAFMOKG@allies_hq_airstrike?$AA@ 100bc454     cg_event.obj
 0002:0001d468       ??_C@_0BC@GEJDJFHL@axis_hq_airstrike?$AA@ 100bc468     cg_event.obj
 0002:0001d47c       ??_C@_0BF@HMOLGNKK@EV_AIRSTRIKEMESSAGE?6?$AA@ 100bc47c     cg_event.obj
 0002:0001d494       ??_C@_0BD@GFEFCFMG@EV_MISSIONMESSAGE?6?$AA@ 100bc494     cg_event.obj
 0002:0001d4a8       ??_C@_0BB@NGDIDEEC@EV_POPUPMESSAGE?6?$AA@ 100bc4a8     cg_event.obj
 0002:0001d4bc       ??_C@_0BC@FPCFEIIK@EV_ALERT_SPEAKER?6?$AA@ 100bc4bc     cg_event.obj
 0002:0001d4d0       ??_C@_09LNKGPALE@EV_SHAKE?6?$AA@ 100bc4d0     cg_event.obj
 0002:0001d4dc       ??_C@_0BH@KOPIMNEC@EV_BUILDDECAYED_SOUND?6?$AA@ 100bc4dc     cg_event.obj
 0002:0001d4f4       ??_C@_0BD@DEGKNONG@EV_DISGUISE_SOUND?6?$AA@ 100bc4f4     cg_event.obj
 0002:0001d508       ??_C@_0O@OGGNDOBH@EV_MORTAREFX?6?$AA@ 100bc508     cg_event.obj
 0002:0001d518       ??_C@_0L@DNMJKIKB@EV_EFFECT?6?$AA@ 100bc518     cg_event.obj
 0002:0001d524       ??_C@_0L@ODCIENMH@EV_DEBRIS?6?$AA@ 100bc524     cg_event.obj
 0002:0001d530       ??_C@_0L@HBLHFBNH@EV_RUBBLE?6?$AA@ 100bc530     cg_event.obj
 0002:0001d53c       ??_C@_0M@PPBMBJBK@EV_EXPLODE?6?$AA@ 100bc53c     cg_event.obj
 0002:0001d548       ??_C@_0M@GAGBALLN@EV_EMITTER?6?$AA@ 100bc548     cg_event.obj
 0002:0001d554       ??_C@_0P@EBBPDJOB@EV_RUMBLE_EFX?6?$AA@ 100bc554     cg_event.obj
 0002:0001d564       ??_C@_09FCFLNPGG@EV_SMOKE?6?$AA@ 100bc564     cg_event.obj
 0002:0001d570       ??_C@_0O@MHELMGMI@EV_RAILTRAIL?6?$AA@ 100bc570     cg_event.obj
 0002:0001d580       ??_C@_0BF@JEGDHJFI@EV_STOPLOOPINGSOUND?6?$AA@ 100bc580     cg_event.obj
 0002:0001d598       ??_C@_0BH@LCMLHHMC@EV_STOPSTREAMINGSOUND?6?$AA@ 100bc598     cg_event.obj
 0002:0001d5b0       ??_C@_0P@OAKOFJEN@EV_GIB_PLAYER?6?$AA@ 100bc5b0     cg_event.obj
 0002:0001d5c0       ??_C@_0N@HLHDANM@EV_LOSE_HAT?6?$AA@ 100bc5c0     cg_event.obj
 0002:0001d5d0       ??_C@_0N@NHOCPMCE@EV_OBITUARY?6?$AA@ 100bc5d0     cg_event.obj
 0002:0001d5e0       ??_C@_0BB@EDBEJLBD@EV_BOUNCE_SOUND?6?$AA@ 100bc5e0     cg_event.obj
 0002:0001d5f4       ??_C@_0L@GGFIAEKN@EV_DEATHx?6?$AA@ 100bc5f4     cg_event.obj
 0002:0001d600       ??_C@_0M@FHIEJBAN@EV_BODY_DP?6?$AA@ 100bc600     cg_event.obj
 0002:0001d60c       ??_C@_08MEMNOIPP@EV_PAIN?6?$AA@ 100bc60c     cg_event.obj
 0002:0001d618       ??_C@_0BI@FOLNNOKM@EV_GLOBAL_CLIENT_SOUND?6?$AA@ 100bc618     cg_event.obj
 0002:0001d630       ??_C@_0BB@DOBOGIIM@EV_GLOBAL_SOUND?6?$AA@ 100bc630     cg_event.obj
 0002:0001d644       ??_C@_0BG@DDNACAKH@EV_GLOBAL_TEAM_SOUND?6?$AA@ 100bc644     cg_event.obj
 0002:0001d65c       ??_C@_0BJ@GOPBFLFN@EV_GENERAL_SOUND_VOLUME?6?$AA@ 100bc65c     cg_event.obj
 0002:0001d678       ??_C@_0BC@BJDFIFFI@EV_GENERAL_SOUND?6?$AA@ 100bc678     cg_event.obj
 0002:0001d68c       ??_C@_0BA@BLHOBPOI@EV_SHOVE_SOUND?6?$AA@ 100bc68c     cg_event.obj
 0002:0001d69c       ??_C@_0BA@BCBLMKGK@EV_MORTAR_MISS?6?$AA@ 100bc69c     cg_event.obj
 0002:0001d6ac       ??_C@_0BC@HPFEFPGM@EV_MORTAR_IMPACT?6?$AA@ 100bc6ac     cg_event.obj
 0002:0001d6c0       ??_C@_0BH@IPMBHGJ@EV_MISSILE_MISS_LARGE?6?$AA@ 100bc6c0     cg_event.obj
 0002:0001d6d8       ??_C@_0BB@PNKCFMCO@EV_MISSILE_MISS?6?$AA@ 100bc6d8     cg_event.obj
 0002:0001d6ec       ??_C@_0BA@IGKGMCOM@EV_MISSILE_HIT?6?$AA@ 100bc6ec     cg_event.obj
 0002:0001d6fc       ??_C@_0L@HHOOBKKC@EV_SPINUP?6?$AA@ 100bc6fc     cg_event.obj
 0002:0001d708       ??_C@_0BG@IFMOEGLI@EV_NOFIRE_UNDERWATER?6?$AA@ 100bc708     cg_event.obj
 0002:0001d720       ??_C@_0P@IEMAHCMD@EV_THROWKNIFE?6?$AA@ 100bc720     cg_event.obj
 0002:0001d730       ??_C@_0BC@ONOEGGMG@EV_WOLFKICK_MISS?6?$AA@ 100bc730     cg_event.obj
 0002:0001d744       ??_C@_0BH@EJEGACCA@EV_WOLFKICK_HIT_FLESH?6?$AA@ 100bc744     cg_event.obj
 0002:0001d75c       ??_C@_0BG@FHLHBHDH@EV_WOLFKICK_HIT_WALL?6?$AA@ 100bc75c     cg_event.obj
 0002:0001d774       ??_C@_08PENKHDOJ@EV_KICK?6?$AA@ 100bc774     cg_event.obj
 0002:0001d780       ??_C@_0BH@BPJPNNOH@EV_GLOBAL_ITEM_PICKUP?6?$AA@ 100bc780     cg_event.obj
 0002:0001d798       ??_C@_0BA@LGJAHGJL@EV_ITEM_PICKUP?6?$AA@ 100bc798     cg_event.obj
 0002:0001d7a8       ??_C@_0BC@KBHMOJOO@EV_CHANGE_WEAPON?6?$AA@ 100bc7a8     cg_event.obj
 0002:0001d7bc       ??_C@_0L@CIOCLBPP@EV_NOAMMO?6?$AA@ 100bc7bc     cg_event.obj
 0002:0001d7c8       __real@3ff547ae147ae148    100bc7c8     cg_event.obj
 0002:0001d7d0       ??_C@_0BC@HDHGBNMB@EV_SHOTGUN_FIRED?6?$AA@ 100bc7d0     cg_event.obj
 0002:0001d7e4       ??_C@_0BB@EGCMHEEF@EV_SHOTGUN_PUMP?6?$AA@ 100bc7e4     cg_event.obj
 0002:0001d7f8       ??_C@_0O@KHAFGPFL@EV_FILL_CLIP?6?$AA@ 100bc7f8     cg_event.obj
 0002:0001d808       ??_C@_0BD@EIBAGLKH@EV_GRENADE_BOUNCE?6?$AA@ 100bc808     cg_event.obj
 0002:0001d81c       ??_C@_0BC@HAIDNCNO@EV_WEAP_OVERHEAT?6?$AA@ 100bc81c     cg_event.obj
 0002:0001d830       ??_C@_0BA@OODKPEF@EV_WATER_CLEAR?6?$AA@ 100bc830     cg_event.obj
 0002:0001d840       ??_C@_0BA@PFCHBJFN@EV_WATER_UNDER?6?$AA@ 100bc840     cg_event.obj
 0002:0001d850       ??_C@_0BA@POIDPCHH@EV_WATER_LEAVE?6?$AA@ 100bc850     cg_event.obj
 0002:0001d860       ??_C@_0BA@PBFGAGAE@EV_WATER_TOUCH?6?$AA@ 100bc860     cg_event.obj
 0002:0001d870       ??_C@_09JHJJDCMJ@EV_STEPx?6?$AA@ 100bc870     cg_event.obj
 0002:0001d87c       ??_C@_0O@CCNBBGCL@EV_FALL_NDIE?6?$AA@ 100bc87c     cg_event.obj
 0002:0001d88c       ??_C@_0BA@OAGKDIEM@EV_FALL_DMG_50?6?$AA@ 100bc88c     cg_event.obj
 0002:0001d89c       __real@c1c00000            100bc89c     cg_event.obj
 0002:0001d8a0       ??_C@_0BA@HLHGMCBO@EV_FALL_DMG_25?6?$AA@ 100bc8a0     cg_event.obj
 0002:0001d8b0       ??_C@_0BA@GJMDGNPA@EV_FALL_DMG_15?6?$AA@ 100bc8b0     cg_event.obj
 0002:0001d8c0       __real@c1800000            100bc8c0     cg_event.obj
 0002:0001d8c4       ??_C@_0BA@GPAIKPBL@EV_FALL_DMG_10?6?$AA@ 100bc8c4     cg_event.obj
 0002:0001d8d4       ??_C@_0P@DBGGEJF@EV_FALL_SHORT?6?$AA@ 100bc8d4     cg_event.obj
 0002:0001d8e4       ??_C@_0BI@PHJNKKGH@EV_FLAMETHROWER_EFFECT?6?$AA@ 100bc8e4     cg_event.obj
 0002:0001d8fc       ??_C@_0BF@KFPMECGM@EV_FIRE_WEAPON_MG42?6?$AA@ 100bc8fc     cg_event.obj
 0002:0001d914       ??_C@_0BE@EIKCMJGE@EV_BULLET_ACCURATE?6?$AA@ 100bc914     cg_event.obj
 0002:0001d928       ??_C@_0BE@DJCGNKAA@EV_BULLET_HIT_WALL?6?$AA@ 100bc928     cg_event.obj
 0002:0001d940       __real@3fe4ccccc0000000    100bc940     cg_event.obj
 0002:0001d948       __real@46000000            100bc948     cg_event.obj
 0002:0001d94c       ??_C@_0L@OINKDJCA@EV_BULLET?6?$AA@ 100bc94c     cg_event.obj
 0002:0001d958       ??_C@_0BJ@ECFKFACO@EV_MG42BULLET_HIT_FLESH?6?$AA@ 100bc958     cg_event.obj
 0002:0001d974       ??_C@_0BI@JADKDIPI@EV_MG42BULLET_HIT_WALL?6?$AA@ 100bc974     cg_event.obj
 0002:0001d98c       ??_C@_0BJ@KDOEEGDA@EV_FIRE_WEAPON_LASTSHOT?6?$AA@ 100bc98c     cg_event.obj
 0002:0001d9a8       ??_C@_0BA@CJMMIDHE@EV_FIRE_WEAPON?6?$AA@ 100bc9a8     cg_event.obj
 0002:0001d9b8       ??_C@_08KPLPEGCK@EV_SWIM?6?$AA@ 100bc9b8     cg_event.obj
 0002:0001d9c4       ??_C@_0P@ECCJNKCN@EV_FOOTSPLASH?6?$AA@ 100bc9c4     cg_event.obj
 0002:0001d9d4       ??_C@_0N@KAJBJGHI@EV_FOOTSTEP?6?$AA@ 100bc9d4     cg_event.obj
 0002:0001d9e4       ??_C@_0L@GMIFJJAD@ZEROEVENT?6?$AA@ 100bc9e4     cg_event.obj
 0002:0001d9f0       ??_C@_0BM@ODIJAADJ@time?3?$CFi?5ent?3?$CF3i?5?5event?3?$CF3i?5?$AA@ 100bc9f0     cg_event.obj
 0002:0001da0c       ??_C@_01NBENCBCI@?$CK?$AA@ 100bca0c     cg_fireteamoverlay.obj
 0002:0001da10       ??_C@_0N@BEEAEDGA@Fireteam?3?5?$CFs?$AA@ 100bca10     cg_fireteamoverlay.obj
 0002:0001da20       ??_C@_03JLNFKLOC@?$CFi?5?$AA@ 100bca20     cg_fireteamoverlay.obj
 0002:0001da24       ??_C@_02NJNOFBBI@?$CFx?$AA@ 100bca24     cg_fireteamoverlay.obj
 0002:0001da28       ??_C@_01HHGOMJKL@l?$AA@    100bca28     cg_fireteamoverlay.obj
 0002:0001da2c       ??_C@_01DICPFPGM@k?$AA@    100bca2c     cg_fireteamoverlay.obj
 0002:0001da30       ??_C@_0L@PEEOGCHH@0x00000000?$AA@ 100bca30     cg_fireteamoverlay.obj
 0002:0001da3c       ??_C@_01KNKLHLMO@K?$AA@    100bca3c     cg_fireteams.obj
 0002:0001da40       ??_C@_04JMHPHBEI@Warn?$AA@ 100bca40     cg_fireteams.obj
 0002:0001da48       ??_C@_04JMEIBOCG@Kick?$AA@ 100bca48     cg_fireteams.obj
 0002:0001da50       ??_C@_06PKDAIMIJ@Invite?$AA@ 100bca50     cg_fireteams.obj
 0002:0001da58       ??_C@_07IHCCGGBK@Disband?$AA@ 100bca58     cg_fireteams.obj
 0002:0001da60       ??_C@_05KMBJHHBA@Leave?$AA@ 100bca60     cg_fireteams.obj
 0002:0001da68       ??_C@_07JJAEOBKM@Propose?$AA@ 100bca68     cg_fireteams.obj
 0002:0001da70       ??_C@_06MIKANEJK@Create?$AA@ 100bca70     cg_fireteams.obj
 0002:0001da78       ??_C@_05KHOEDHDN@Apply?$AA@ 100bca78     cg_fireteams.obj
 0002:0001da80       ??_C@_0BF@MGHGPMME@FTProvideSniperCover?$AA@ 100bca80     cg_fireteams.obj
 0002:0001da98       ??_C@_0P@MIEFPJNM@FTGoUndercover?$AA@ 100bca98     cg_fireteams.obj
 0002:0001daa8       ??_C@_0N@MHDHNDIO@FTInfiltrate?$AA@ 100bcaa8     cg_fireteams.obj
 0002:0001dab8       ??_C@_0BD@CPDJLAGL@FTSatchelObjective?$AA@ 100bcab8     cg_fireteams.obj
 0002:0001dacc       ??_C@_0O@ECGJEENJ@FTExploreArea?$AA@ 100bcacc     cg_fireteams.obj
 0002:0001dadc       ??_C@_01HJOKEEBB@U?$AA@    100bcadc     cg_fireteams.obj
 0002:0001dae0       ??_C@_01JPJNBJEM@I?$AA@    100bcae0     cg_fireteams.obj
 0002:0001dae4       ??_C@_0BF@LICLCKDG@Provide?5Sniper?5Cover?$AA@ 100bcae4     cg_fireteams.obj
 0002:0001dafc       ??_C@_0O@JHHFIFNN@Go?5Undercover?$AA@ 100bcafc     cg_fireteams.obj
 0002:0001db0c       ??_C@_0L@IBNBALOF@Infiltrate?$AA@ 100bcb0c     cg_fireteams.obj
 0002:0001db18       ??_C@_0N@GCEECOON@Explore?5Area?$AA@ 100bcb18     cg_fireteams.obj
 0002:0001db28       ??_C@_0N@CFGLHEIM@FTResupplyMe?$AA@ 100bcb28     cg_fireteams.obj
 0002:0001db38       ??_C@_0BA@MBMFOLFA@FTResupplySquad?$AA@ 100bcb38     cg_fireteams.obj
 0002:0001db48       ??_C@_0BA@OMPIGDCO@FTCallArtillery?$AA@ 100bcb48     cg_fireteams.obj
 0002:0001db58       ??_C@_0BA@IHBCJPBG@FTCallAirStrike?$AA@ 100bcb58     cg_fireteams.obj
 0002:0001db68       ??_C@_0M@NJJFFNBD@Resupply?5Me?$AA@ 100bcb68     cg_fireteams.obj
 0002:0001db74       ??_C@_0P@CJMJFEJB@Resupply?5Squad?$AA@ 100bcb74     cg_fireteams.obj
 0002:0001db84       ??_C@_0P@MCGIHDPE@Call?5Artillery?$AA@ 100bcb84     cg_fireteams.obj
 0002:0001db94       ??_C@_0BA@FIMPLHEJ@Call?5Air?9Strike?$AA@ 100bcb94     cg_fireteams.obj
 0002:0001dba4       ??_C@_0BC@JOKJMDB@FTDisarmLandmines?$AA@ 100bcba4     cg_fireteams.obj
 0002:0001dbb8       ??_C@_0BC@PLMKCLCL@FTDeployLandmines?$AA@ 100bcbb8     cg_fireteams.obj
 0002:0001dbcc       ??_C@_0BB@MACGAFBJ@FTDisarmDynamite?$AA@ 100bcbcc     cg_fireteams.obj
 0002:0001dbe0       ??_C@_0BF@CENHIGJG@FTConstructObjective?$AA@ 100bcbe0     cg_fireteams.obj
 0002:0001dbf8       ??_C@_0BC@IJOBOAH@FTRepairObjective?$AA@ 100bcbf8     cg_fireteams.obj
 0002:0001dc0c       ??_C@_0BD@OPHLMAHI@FTDestroyObjective?$AA@ 100bcc0c     cg_fireteams.obj
 0002:0001dc20       ??_C@_01OCOKONAJ@L?$AA@    100bcc20     cg_fireteams.obj
 0002:0001dc24       ??_C@_0BB@NEOHDIJE@Disarm?5Landmines?$AA@ 100bcc24     cg_fireteams.obj
 0002:0001dc38       ??_C@_0BB@CJHHOBFJ@Deploy?5Landmines?$AA@ 100bcc38     cg_fireteams.obj
 0002:0001dc4c       ??_C@_0BA@MAPOGJHG@Disarm?5Dynamite?$AA@ 100bcc4c     cg_fireteams.obj
 0002:0001dc5c       ??_C@_0BE@FLGDCCHJ@Construct?5Objective?$AA@ 100bcc5c     cg_fireteams.obj
 0002:0001dc70       ??_C@_0BB@DCENOECI@Repair?5Objective?$AA@ 100bcc70     cg_fireteams.obj
 0002:0001dc84       ??_C@_0BC@MAJCPKAP@Destroy?5Objective?$AA@ 100bcc84     cg_fireteams.obj
 0002:0001dc98       ??_C@_0L@GEDEFEAO@FTReviveMe?$AA@ 100bcc98     cg_fireteams.obj
 0002:0001dca4       ??_C@_0BB@DGENPIHO@FTReviveTeamMate?$AA@ 100bcca4     cg_fireteams.obj
 0002:0001dcb8       ??_C@_08PPKFFOCA@FTHealMe?$AA@ 100bccb8     cg_fireteams.obj
 0002:0001dcc4       ??_C@_0M@CBAGMBB@FTHealSquad?$AA@ 100bccc4     cg_fireteams.obj
 0002:0001dcd0       ??_C@_01DGKLNCNG@R?$AA@    100bccd0     cg_fireteams.obj
 0002:0001dcd4       ??_C@_09IPCCKMJI@Revive?5Me?$AA@ 100bccd4     cg_fireteams.obj
 0002:0001dce0       ??_C@_0BB@POHOECCD@Revive?5Team?5Mate?$AA@ 100bcce0     cg_fireteams.obj
 0002:0001dcf4       ??_C@_07OGLLPCHA@Heal?5Me?$AA@ 100bccf4     cg_fireteams.obj
 0002:0001dcfc       ??_C@_0L@JGBBIMDO@Heal?5Squad?$AA@ 100bccfc     cg_fireteams.obj
 0002:0001dd08       ??_C@_08IKDPPLNB@FTMortar?$AA@ 100bcd08     cg_fireteams.obj
 0002:0001dd14       ??_C@_0P@IELJCAKM@FTCoveringFire?$AA@ 100bcd14     cg_fireteams.obj
 0002:0001dd24       ??_C@_09FHNEPGJB@FTCoverMe?$AA@ 100bcd24     cg_fireteams.obj
 0002:0001dd30       ??_C@_0O@IACJNECF@Covering?5Fire?$AA@ 100bcd30     cg_fireteams.obj
 0002:0001dd40       ??_C@_08GDELIAJM@Cover?5Me?$AA@ 100bcd40     cg_fireteams.obj
 0002:0001dd4c       ??_C@_01FHEEJDEE@A?$AA@    100bcd4c     cg_fireteams.obj
 0002:0001dd50       ??_C@_0L@PFKCNEMP@FTFallBack?$AA@ 100bcd50     cg_fireteams.obj
 0002:0001dd5c       ??_C@_08FEINEMIG@FTAttack?$AA@ 100bcd5c     cg_fireteams.obj
 0002:0001dd68       ??_C@_09GFAGLPIA@Fall?5Back?$AA@ 100bcd68     cg_fireteams.obj
 0002:0001dd74       ??_C@_06FDAMAAOH@Attack?$AA@ 100bcd74     cg_fireteams.obj
 0002:0001dd7c       ??_C@_06DBKGGLMH@INVITE?$AA@ 100bcd7c     cg_fireteams.obj
 0002:0001dd84       ??_C@_04JBIELMDE@WARN?$AA@ 100bcd84     cg_fireteams.obj
 0002:0001dd8c       ??_C@_07JNCPDPHO@PROPOSE?$AA@ 100bcd8c     cg_fireteams.obj
 0002:0001dd94       ??_C@_04PJFINEKF@JOIN?$AA@ 100bcd94     cg_fireteams.obj
 0002:0001dd9c       ??_C@_09DBKAEJND@FIRETEAMS?$AA@ 100bcd9c     cg_fireteams.obj
 0002:0001dda8       ??_C@_07BAKMHNGL@MESSAGE?$AA@ 100bcda8     cg_fireteams.obj
 0002:0001ddb0       ??_C@_06JFCBNLCL@?$CFc?4?5?$CFs?$AA@ 100bcdb0     cg_fireteams.obj
 0002:0001ddb8       ??_C@_04MDFHGMOB@Next?$AA@ 100bcdb8     cg_fireteams.obj
 0002:0001ddc0       ??_C@_08CAGLMDLD@Previous?$AA@ 100bcdc0     cg_fireteams.obj
 0002:0001ddcc       ??_C@_06JGPHNJLA@?$CFs?4?5?$CFs?$AA@ 100bcdcc     cg_fireteams.obj
 0002:0001ddd4       ??_C@_0BD@HOANGONK@fireteam?5invite?5?$CFi?$AA@ 100bcdd4     cg_fireteams.obj
 0002:0001dde8       ??_C@_0BB@IEPHNLFN@fireteam?5kick?5?$CFi?$AA@ 100bcde8     cg_fireteams.obj
 0002:0001ddfc       ??_C@_0BB@JMGGOPBA@fireteam?5warn?5?$CFi?$AA@ 100bcdfc     cg_fireteams.obj
 0002:0001de10       ??_C@_0BE@DHOCNJFF@fireteam?5propose?5?$CFi?$AA@ 100bce10     cg_fireteams.obj
 0002:0001de24       ??_C@_0BC@GHNFDFCF@fireteam?5apply?5?$CFi?$AA@ 100bce24     cg_fireteams.obj
 0002:0001de38       ??_C@_0BA@HDGPAPHO@fireteam?5leave?6?$AA@ 100bce38     cg_fireteams.obj
 0002:0001de48       ??_C@_0BC@FBIHANFJ@fireteam?5disband?6?$AA@ 100bce48     cg_fireteams.obj
 0002:0001de5c       ??_C@_0BB@NEAHNODB@fireteam?5create?6?$AA@ 100bce5c     cg_fireteams.obj
 0002:0001de70       ??_C@_0BE@DLOJPFHI@vsay_buddy?5?$CFi?5?$CFs?5?$CFs?$AA@ 100bce70     cg_fireteams.obj
 0002:0001de84       ??_C@_0BE@GPCLPBD@vsay_buddy?5?91?5?$CFs?5?$CFs?$AA@ 100bce84     cg_fireteams.obj
 0002:0001de98       ??_C@_0DJ@EAPJHPCD@CG_MergeFlameChunks?3?5f2?5doesn?8t?5@ 100bce98     cg_flamethrower.obj
 0002:0001ded8       __real@c000000000000000    100bced8     cg_flamethrower.obj
 0002:0001dee0       __real@40a09a0000000000    100bcee0     cg_flamethrower.obj
 0002:0001dee8       __real@3d86ed54            100bcee8     cg_flamethrower.obj
 0002:0001def0       __real@c0a2c00000000000    100bcef0     cg_flamethrower.obj
 0002:0001def8       __real@4090000000000000    100bcef8     cg_flamethrower.obj
 0002:0001df00       __real@3ff7b22d0e560419    100bcf00     cg_flamethrower.obj
 0002:0001df08       __real@3f1a9aa2            100bcf08     cg_flamethrower.obj
 0002:0001df0c       __real@3e54d4cc            100bcf0c     cg_flamethrower.obj
 0002:0001df10       __real@3e570a3d            100bcf10     cg_flamethrower.obj
 0002:0001df18       __real@4045800000000000    100bcf18     cg_flamethrower.obj
 0002:0001df20       __real@43fa0000            100bcf20     cg_flamethrower.obj
 0002:0001df28       __real@3ff6666666666666    100bcf28     cg_flamethrower.obj
 0002:0001df30       __real@3fd6666666666666    100bcf30     cg_flamethrower.obj
 0002:0001df38       __real@3ff4cccccccccccd    100bcf38     cg_flamethrower.obj
 0002:0001df40       ??_C@_0O@MIPBMBCB@nozzleFlame?$CFi?$AA@ 100bcf40     cg_flamethrower.obj
 0002:0001df50       ??_C@_0BD@NAGNMEKL@flamethrowerFire?$CFi?$AA@ 100bcf50     cg_flamethrower.obj
 0002:0001df64       __real@c2c80000            100bcf64     cg_flamethrower.obj
 0002:0001df68       __real@c3160000            100bcf68     cg_flamethrower.obj
 0002:0001df70       __real@4066600000000000    100bcf70     cg_flamethrower.obj
 0002:0001df78       ??_C@_0P@MAFJMPPI@LOADING?4?4?4?5?$CFs?6?$AA@ 100bcf78     cg_info.obj
 0002:0001df88       ??_C@_0BA@PJMLIFEA@gfx?12d?1backtile?$AA@ 100bcf88     cg_info.obj
 0002:0001df98       __real@3f8ccccd            100bcf98     cg_info.obj
 0002:0001df9c       __real@43b40000            100bcf9c     cg_info.obj
 0002:0001dfa0       ??_C@_0BE@HGBFBDIP@cg_thirdPersonAngle?$AA@ 100bcfa0     cg_info.obj
 0002:0001dfb4       __real@44340000            100bcfb4     cg_info.obj
 0002:0001dfb8       ??_C@_0BE@FKFEAA@cg_thirdPersonRange?$AA@ 100bcfb8     cg_info.obj
 0002:0001dfcc       ??_C@_0P@CAOEILFK@cg_thirdperson?$AA@ 100bcfcc     cg_info.obj
 0002:0001dfdc       ??_C@_0O@BFCMBINL@screenshot?$CFs?6?$AA@ 100bcfdc     cg_info.obj
 0002:0001dfec       ??_C@_0BE@MIJPNLEM@No?5skills?5acquired?$CB?$AA@ 100bcfec     cg_info.obj
 0002:0001e000       ??_C@_06LFIBPDEL@Medals?$AA@ 100bd000     cg_info.obj
 0002:0001e008       __real@43930000            100bd008     cg_info.obj
 0002:0001e00c       ??_C@_0BA@JIKIOALP@XP?5?1?5Next?5Level?$AA@ 100bd00c     cg_info.obj
 0002:0001e01c       __real@437e0000            100bd01c     cg_info.obj
 0002:0001e020       ??_C@_05KOHFLOFG@Level?$AA@ 100bd020     cg_info.obj
 0002:0001e028       ??_C@_06LCJAGJME@Skills?$AA@ 100bd028     cg_info.obj
 0002:0001e030       ??_C@_0BK@ODKHEBPP@No?5weapon?5info?5available?4?$AA@ 100bd030     cg_info.obj
 0002:0001e04c       __real@43d20000            100bd04c     cg_info.obj
 0002:0001e050       ??_C@_09PEAPJCOK@Headshots?$AA@ 100bd050     cg_info.obj
 0002:0001e05c       __real@43be0000            100bd05c     cg_info.obj
 0002:0001e060       __real@43af8000            100bd060     cg_info.obj
 0002:0001e064       __real@43908000            100bd064     cg_info.obj
 0002:0001e068       ??_C@_0N@ILJGDCDE@Hits?5?1?5Shots?$AA@ 100bd068     cg_info.obj
 0002:0001e078       ??_C@_08NLCOAFEI@Accuracy?$AA@ 100bd078     cg_info.obj
 0002:0001e084       ??_C@_06KLEAFNAE@Weapon?$AA@ 100bd084     cg_info.obj
 0002:0001e08c       __real@43260000            100bd08c     cg_info.obj
 0002:0001e090       __real@439a0000            100bd090     cg_info.obj
 0002:0001e094       __real@3e2e147b            100bd094     cg_info.obj
 0002:0001e098       ??_C@_0CF@PAMNKEIA@No?5qualifying?5weapon?5info?5availa@ 100bd098     cg_info.obj
 0002:0001e0c0       __real@4402c000            100bd0c0     cg_info.obj
 0002:0001e0c4       ??_C@_06NPAAKFED@Player?$AA@ 100bd0c4     cg_info.obj
 0002:0001e0cc       __real@43f58000            100bd0cc     cg_info.obj
 0002:0001e0d0       __real@43d68000            100bd0d0     cg_info.obj
 0002:0001e0d4       __real@43bc0000            100bd0d4     cg_info.obj
 0002:0001e0d8       __real@439e0000            100bd0d8     cg_info.obj
 0002:0001e0dc       ??_C@_0BF@BFOOFCJE@?$CCTOPSHOT?$CC?5ACCURACIES?$AA@ 100bd0dc     cg_info.obj
 0002:0001e0f8       __real@407e000000000000    100bd0f8     cg_info.obj
 0002:0001e100       ??_C@_0BK@PLFDGBJD@?$FOnBACKSPACE?5?$FOmhelp?5on?1off?$AA@ 100bd100     cg_info.obj
 0002:0001e11c       ??_C@_0O@IPOJIBDI@DEMO?5CONTROLS?$AA@ 100bd11c     cg_info.obj
 0002:0001e12c       __real@43ec0000            100bd12c     cg_info.obj
 0002:0001e130       __real@43140000            100bd130     cg_info.obj
 0002:0001e138       __real@406aa00000000000    100bd138     cg_info.obj
 0002:0001e140       ??_C@_0BK@JJHDJBCO@?$FOnUP?1DOWN?5?5?5?$FOmMove?5in?1out?$AA@ 100bd140     cg_info.obj
 0002:0001e15c       ??_C@_0BL@NMCMNBCP@?$FOnLFT?1RGHT?5?5?$FOmChange?5angle?$AA@ 100bd15c     cg_info.obj
 0002:0001e178       ??_C@_0BM@PFJKKFFC@?$FOnENTER?5?5?5?5?5?$FOmExternal?5view?$AA@ 100bd178     cg_info.obj
 0002:0001e194       ??_C@_0BL@MFEHIKKL@?$FOnSPACE?5?5?5?5?5?$FOmnormal?5speed?$AA@ 100bd194     cg_info.obj
 0002:0001e1b0       ??_C@_0BL@OPMOFDI@?$FOnKP_RIGHT?5?5?$FOmspeed?5up?5?$CI?$CL?$CJ?$AA@ 100bd1b0     cg_info.obj
 0002:0001e1cc       ??_C@_0BM@DHFMPLNL@?$FOnKP_UP?5?5?5?5?5?$FOmspeed?5up?5?$CI?$CL?$CL?$CJ?$AA@ 100bd1cc     cg_info.obj
 0002:0001e1e8       ??_C@_0BM@EGFICLBN@?$FOnKP_LEFT?5?5?5?$FOmslow?5down?5?$CI?9?$CJ?$AA@ 100bd1e8     cg_info.obj
 0002:0001e204       ??_C@_0BN@CLCAJLNC@?$FOnKP_DOWN?5?5?5?$FOmslow?5down?5?$CI?9?9?$CJ?$AA@ 100bd204     cg_info.obj
 0002:0001e224       ??_C@_0BJ@DHFPLOAE@?$FOnF11?9F12?5?5?5?$FOmscreenshot?$AA@ 100bd224     cg_info.obj
 0002:0001e240       ??_C@_0BN@MBFGHGPJ@?$FOnF1?9F5?5?5?5?5?5?$FOmavidemo?5record?$AA@ 100bd240     cg_info.obj
 0002:0001e260       ??_C@_0BF@INJOCJFJ@?$FOnTAB?5?5?5?5?5?5?5?$FOmscores?$AA@ 100bd260     cg_info.obj
 0002:0001e278       ??_C@_04ENHBHKMJ@?$CI?$CFs?$CJ?$AA@ 100bd278     cg_info.obj
 0002:0001e280       ??_C@_08KJLEJKEF@?$CLattack2?$AA@ 100bd280     cg_info.obj
 0002:0001e28c       ??_C@_07CEEFMIBP@?$CLsprint?$AA@ 100bd28c     cg_info.obj
 0002:0001e294       ??_C@_05GAKJCNGF@?$CLzoom?$AA@ 100bd294     cg_info.obj
 0002:0001e29c       ??_C@_01MIFGBAGJ@?$CL?$AA@ 100bd29c     cg_limbopanel.obj
 0002:0001e2a0       ??_C@_09HEBGIPHK@limboname?$AA@ 100bd2a0     cg_limbopanel.obj
 0002:0001e2ac       ??_C@_06JHILMIHF@CANCEL?$AA@ 100bd2ac     cg_limbopanel.obj
 0002:0001e2b4       ??_C@_02GIPFHKNO@OK?$AA@   100bd2b4     cg_limbopanel.obj
 0002:0001e2b8       ??_C@_0BL@BGMEGOGK@gfx?1limbo?1but_objective_dn?$AA@ 100bd2b8     cg_limbopanel.obj
 0002:0001e2d4       ??_C@_0BL@NPGBJIPC@gfx?1limbo?1but_objective_up?$AA@ 100bd2d4     cg_limbopanel.obj
 0002:0001e2f0       ??_C@_0L@NPPIDPEI@OBJECTIVES?$AA@ 100bd2f0     cg_limbopanel.obj
 0002:0001e2fc       ??_C@_01FGNFDNOH@?$CF?$AA@ 100bd2fc     cg_limbopanel.obj
 0002:0001e300       ??_C@_03FEJLDAOE@ACC?$AA@  100bd300     cg_limbopanel.obj
 0002:0001e304       ??_C@_04ENGBIECG@HITS?$AA@ 100bd304     cg_limbopanel.obj
 0002:0001e30c       ??_C@_05JFPAPHBN@SHOTS?$AA@ 100bd30c     cg_limbopanel.obj
 0002:0001e314       ??_C@_06HJAGIOIK@SKILLS?$AA@ 100bd314     cg_limbopanel.obj
 0002:0001e31c       ??_C@_0N@FMLOBACF@PLAYER?5SETUP?$AA@ 100bd31c     cg_limbopanel.obj
 0002:0001e32c       ??_C@_0M@MEGIEIJD@COMMAND?5MAP?$AA@ 100bd32c     cg_limbopanel.obj
 0002:0001e338       ??_C@_0P@DGJHNPFF@REINFORCEMENTS?$AA@ 100bd338     cg_limbopanel.obj
 0002:0001e348       ??_C@_0N@FLEIPGMH@MISSION?5TIME?$AA@ 100bd348     cg_limbopanel.obj
 0002:0001e358       ??_C@_0BI@KLKKAPEN@gfx?1limbo?1limbo_frame08?$AA@ 100bd358     cg_limbopanel.obj
 0002:0001e370       ??_C@_0BI@CMDCBDIC@gfx?1limbo?1limbo_frame07?$AA@ 100bd370     cg_limbopanel.obj
 0002:0001e388       ??_C@_0BI@DFCJCCMD@gfx?1limbo?1limbo_frame06?$AA@ 100bd388     cg_limbopanel.obj
 0002:0001e3a0       ??_C@_0BI@BOAEHBAA@gfx?1limbo?1limbo_frame05?$AA@ 100bd3a0     cg_limbopanel.obj
 0002:0001e3b8       ??_C@_0BI@HBPEAEB@gfx?1limbo?1limbo_frame04?$AA@ 100bd3b8     cg_limbopanel.obj
 0002:0001e3d0       ??_C@_0BI@EIFONGIG@gfx?1limbo?1limbo_frame03?$AA@ 100bd3d0     cg_limbopanel.obj
 0002:0001e3e8       ??_C@_0BI@FBEFOHMH@gfx?1limbo?1limbo_frame02?$AA@ 100bd3e8     cg_limbopanel.obj
 0002:0001e400       ??_C@_0BI@HKGILEAE@gfx?1limbo?1limbo_frame01?$AA@ 100bd400     cg_limbopanel.obj
 0002:0001e418       ??_C@_07EDNBCEAM@FILTERS?$AA@ 100bd418     cg_limbopanel.obj
 0002:0001e420       ??_C@_0BG@JPAEDIIJ@gfx?1limbo?1lightup_bar?$AA@ 100bd420     cg_limbopanel.obj
 0002:0001e438       ??_C@_0BF@DDCOINKJ@gfx?1limbo?1limbo_back?$AA@ 100bd438     cg_limbopanel.obj
 0002:0001e450       ??_C@_07IHJNOHPB@news_?$CFs?$AA@ 100bd450     cg_limbopanel.obj
 0002:0001e458       ??_C@_02FDNJLAOG@rs?$AA@   100bd458     cg_limbopanel.obj
 0002:0001e45c       __real@3e730000            100bd45c     cg_limbopanel.obj
 0002:0001e460       __real@3fce600000000000    100bd460     cg_limbopanel.obj
 0002:0001e468       __real@3f600000            100bd468     cg_limbopanel.obj
 0002:0001e46c       __real@3ec00000            100bd46c     cg_limbopanel.obj
 0002:0001e470       ??_C@_0M@CGEBHBMB@JOIN?5A?5TEAM?$AA@ 100bd470     cg_limbopanel.obj
 0002:0001e480       __real@4055c00000000000    100bd480     cg_limbopanel.obj
 0002:0001e488       __real@4065c00000000000    100bd488     cg_limbopanel.obj
 0002:0001e490       ??_C@_06FPHLHEIO@?$CFiof?$CFi?$AA@ 100bd490     cg_limbopanel.obj
 0002:0001e498       ??_C@_05OINJGPC@1of?$CFi?$AA@ 100bd498     cg_limbopanel.obj
 0002:0001e4a0       ??_C@_0BI@HFCNGIAN@No?5Information?5Supplied?$AA@ 100bd4a0     cg_limbopanel.obj
 0002:0001e4b8       __real@41700000            100bd4b8     cg_limbopanel.obj
 0002:0001e4c0       __real@3ff6666660000000    100bd4c0     cg_limbopanel.obj
 0002:0001e4c8       ??_C@_06KDFICGOL@obj?5?$CFi?$AA@ 100bd4c8     cg_limbopanel.obj
 0002:0001e4d0       __real@43918000            100bd4d0     cg_limbopanel.obj
 0002:0001e4d4       __real@42f00000            100bd4d4     cg_limbopanel.obj
 0002:0001e4d8       ??_C@_0CN@BJHHIDKF@You?5will?5spawn?5as?5an?5?$CFs?5?$CFs?5with?5@ 100bd4d8     cg_limbopanel.obj
 0002:0001e508       ??_C@_0BC@LLHDACND@team?5?$CFs?5?$CFi?5?$CFi?5?$CFi?6?$AA@ 100bd508     cg_limbopanel.obj
 0002:0001e51c       ??_C@_0O@OJLBAMCD@team?5s?50?50?50?6?$AA@ 100bd51c     cg_limbopanel.obj
 0002:0001e52c       ??_C@_09GNDCBOBP@SPECTATOR?$AA@ 100bd52c     cg_limbopanel.obj
 0002:0001e538       ??_C@_05MMODACOB@ws?5?$CFi?$AA@ 100bd538     cg_limbopanel.obj
 0002:0001e540       ??_C@_0BI@GHKLPAPG@gfx?1loading?1progressbar?$AA@ 100bd540     cg_loadpanel.obj
 0002:0001e558       ??_C@_0BN@OPKLDFMH@gfx?1loading?1progressbar_back?$AA@ 100bd558     cg_loadpanel.obj
 0002:0001e578       ??_C@_0BB@OKCCEAPI@?$CK?$CK?$CKTOP?5SECRET?$CK?$CK?$CK?$AA@ 100bd578     cg_loadpanel.obj
 0002:0001e58c       ??_C@_0BG@NIFIFLJN@gfx?1loading?1camp_side?$AA@ 100bd58c     cg_loadpanel.obj
 0002:0001e5a4       ??_C@_07DJMIGIHO@Invalid?$AA@ 100bd5a4     cg_loadpanel.obj
 0002:0001e5ac       ??_C@_0L@CFHKFAPI@Map?5Voting?$AA@ 100bd5ac     cg_loadpanel.obj
 0002:0001e5b8       ??_C@_0BC@EHADLDNJ@Last?5Man?5Standing?$AA@ 100bd5b8     cg_loadpanel.obj
 0002:0001e5cc       ??_C@_08FHHBCJKK@Campaign?$AA@ 100bd5cc     cg_loadpanel.obj
 0002:0001e5d8       ??_C@_09LHCHJKLO@Stopwatch?$AA@ 100bd5d8     cg_loadpanel.obj
 0002:0001e5e4       __real@43400000            100bd5e4     cg_loadpanel.obj
 0002:0001e5e8       __real@43100000            100bd5e8     cg_loadpanel.obj
 0002:0001e5ec       ??_C@_0BG@LHBJPEBO@levelshots?1unknownmap?$AA@ 100bd5ec     cg_loadpanel.obj
 0002:0001e604       ??_C@_0O@OBEFLHGN@levelshots?1?$CFs?$AA@ 100bd604     cg_loadpanel.obj
 0002:0001e618       __real@4082e00000000000    100bd618     cg_loadpanel.obj
 0002:0001e620       __real@4081f80000000000    100bd620     cg_loadpanel.obj
 0002:0001e628       __real@4081100000000000    100bd628     cg_loadpanel.obj
 0002:0001e630       ??_C@_0BJ@PGLCGFGE@g_heavyWeaponRestriction?$AA@ 100bd630     cg_loadpanel.obj
 0002:0001e650       __real@4080300000000000    100bd650     cg_loadpanel.obj
 0002:0001e658       ??_C@_0O@FFCKPCKD@sv_punkbuster?$AA@ 100bd658     cg_loadpanel.obj
 0002:0001e668       __real@407cd00000000000    100bd668     cg_loadpanel.obj
 0002:0001e670       __real@43d08000            100bd670     cg_loadpanel.obj
 0002:0001e674       ??_C@_0P@EFCECDLM@g_friendlyfire?$AA@ 100bd674     cg_loadpanel.obj
 0002:0001e684       __real@43b10000            100bd684     cg_loadpanel.obj
 0002:0001e688       __real@43a10000            100bd688     cg_loadpanel.obj
 0002:0001e68c       __real@3e6147ae            100bd68c     cg_loadpanel.obj
 0002:0001e690       ??_C@_0BF@LIAMMPKH@?$FO1NO?5QUARTER?5?$FO8V?$CFs?$FO7?$AA@ 100bd690     cg_loadpanel.obj
 0002:0001e6a8       __real@4080e00000000000    100bd6a8     cg_loadpanel.obj
 0002:0001e6b0       ??_C@_0BJ@NJLOHHCO@ui?1assets?1filter_balance?$AA@ 100bd6b0     cg_loadpanel.obj
 0002:0001e6cc       ??_C@_0BJ@OFDHLFHE@ui?1assets?1filter_antilag?$AA@ 100bd6cc     cg_loadpanel.obj
 0002:0001e6e8       ??_C@_0BH@OJEBHINP@ui?1assets?1filter_lives?$AA@ 100bd6e8     cg_loadpanel.obj
 0002:0001e700       ??_C@_0BG@JIOLIAEK@ui?1assets?1filter_weap?$AA@ 100bd700     cg_loadpanel.obj
 0002:0001e718       ??_C@_0BE@KPDJELNJ@ui?1assets?1filter_ff?$AA@ 100bd718     cg_loadpanel.obj
 0002:0001e72c       ??_C@_0BE@NDPOFBBP@ui?1assets?1filter_pb?$AA@ 100bd72c     cg_loadpanel.obj
 0002:0001e740       ??_C@_0BF@CEHEGGHI@gfx?1loading?1pin_shot?$AA@ 100bd740     cg_loadpanel.obj
 0002:0001e758       ??_C@_06JLKJHNDD@courbd?$AA@ 100bd758     cg_loadpanel.obj
 0002:0001e760       ??_C@_06MLHBGBIG@ariblk?$AA@ 100bd760     cg_loadpanel.obj
 0002:0001e768       ??_C@_0O@EKHMPCNK@ui_connecting?$AA@ 100bd768     cg_loadpanel.obj
 0002:0001e778       ??_C@_03DKEJHHJP@?$CFs?3?$AA@ 100bd778     cg_loadpanel.obj
 0002:0001e77c       ??_C@_09LILBJGFE@?$CFs?5?$CFiof?$CFi?$AA@ 100bd77c     cg_loadpanel.obj
 0002:0001e788       __real@407b800000000000    100bd788     cg_loadpanel.obj
 0002:0001e790       __real@4d3ebc20            100bd790     cg_localents.obj
 0002:0001e794       ??_C@_07OGADNHAC@?5?$FO3?$CI?$CFs?$CJ?$AA@ 100bd794     cg_localents.obj
 0002:0001e79c       ??_C@_06OHDLLFED@?$FO3?$CI?$CFs?$CJ?$AA@ 100bd79c     cg_localents.obj
 0002:0001e7a4       ??_C@_05JPELFNBE@?$FO3?$CF5i?$AA@ 100bd7a4     cg_localents.obj
 0002:0001e7ac       ??_C@_07IIGMJJOD@?$FO3?5?5?5?5?5?$AA@ 100bd7ac     cg_localents.obj
 0002:0001e7b4       ??_C@_0BK@CDBDMDCN@?$FO2?$CFi?5?$FO9locations?5loaded?4?6?$AA@ 100bd7b4     cg_localents.obj
 0002:0001e7d0       ??_C@_0CA@KDNEHJCA@?$FO9Too?5many?5locations?5specifed?4?6?$AA@ 100bd7d0     cg_localents.obj
 0002:0001e7f0       ??_C@_01EOFPKCAF@?$EA?$AA@ 100bd7f0     cg_localents.obj
 0002:0001e7f4       ??_C@_0DI@DMDGDBOO@?$FOdLoadLocations?3?5?$FO9location?5data@ 100bd7f4     cg_localents.obj
 0002:0001e82c       ??_C@_0DM@LAHPFLCL@Location?5file?5is?5too?5big?0?5make?5i@ 100bd82c     cg_localents.obj
 0002:0001e868       ??_C@_0EG@MAGMJCFN@?$FOdLoadLocations?3?5?$FO3Warning?3?5?$FO9No@ 100bd868     cg_localents.obj
 0002:0001e8b0       ??_C@_0BA@KEAJIJII@maps?1?$CFs_loc?4dat?$AA@ 100bd8b0     cg_localents.obj
 0002:0001e8c0       ??_C@_0BJ@NMDMHMI@maps?1?$CFs_loc_override?4dat?$AA@ 100bd8c0     cg_localents.obj
 0002:0001e8dc       ??_C@_0BP@HOJADAKE@CG_FreeLocalEntity?3?5not?5active?$AA@ 100bd8dc     cg_localents.obj
 0002:0001e8fc       __real@34000000            100bd8fc     cg_localents.obj
 0002:0001e900       __real@4045000000000000    100bd900     cg_localents.obj
 0002:0001e908       __real@3fd51eb851eb851f    100bd908     cg_localents.obj
 0002:0001e910       ??_C@_0P@JBCHHKP@Bad?5leType?3?5?$CFi?$AA@ 100bd910     cg_localents.obj
 0002:0001e934       ??_C@_0BD@NNOAFPIO@?6SENDING?5INFO?3?5?$CFs?6?$AA@ 100bd934     cg_uid.obj
 0002:0001e948       ??_C@_0BE@NHIIEPN@?$FO3NQKEY?5send?3?5?$CK?$CFs?$CK?6?$AA@ 100bd948     cg_uid.obj
 0002:0001e95c       ??_C@_0BK@EFKHMAPL@?$FO3NQKEYDATA?5memory?4?5?$CK?$CFs?$CK?6?$AA@ 100bd95c     cg_uid.obj
 0002:0001e978       ??_C@_0CD@HAGBAJKD@?$FO1NQKEY?5before?5CalculateGUID?5?$CK?$CFs@ 100bd978     cg_uid.obj
 0002:0001e99c       ??_C@_0BN@PLMGFPMA@1111111111111111111111111111?$AA@ 100bd99c     cg_uid.obj
 0002:0001e9bc       ??_C@_0CJ@MENDFKJC@?$FO1NQKEY?5ERROR?3?5can?8t?5write?5NQKEY@ 100bd9bc     cg_uid.obj
 0002:0001e9e8       ??_C@_0BC@CADBAJDM@NQKEY?5BUFFER?3?5?$CFs?6?$AA@ 100bd9e8     cg_uid.obj
 0002:0001e9fc       ??_C@_0BL@EIFPMMJM@?$CFs?$CFs?$CFs?$CFs?$CFs?$CFi?$CFi?$CFi?$CFi?$CFi?$CFi?$CFi?$CFi?$AA@ 100bd9fc     cg_uid.obj
 0002:0001ea18       ??_C@_0N@BHKBODH@000000100220?$AA@ 100bda18     cg_uid.obj
 0002:0001ea28       ??_C@_02PLJDPFIO@00?$AA@   100bda28     cg_uid.obj
 0002:0001ea2c       ??_C@_03KECJIMKH@0?$CFi?$AA@ 100bda2c     cg_uid.obj
 0002:0001ea30       ??_C@_0BE@GGGEIENI@?$FO3NQKEY?5not?5found?4?6?$AA@ 100bda30     cg_uid.obj
 0002:0001ea44       ??_C@_0BM@CLLCEGFO@?$FO3NQKEY?5found?5but?5invalid?4?6?$AA@ 100bda44     cg_uid.obj
 0002:0001ea60       ??_C@_0BP@DLEDMLCA@?$FO3NQKEY?5data?5after?5calc?3?5?$CK?$CFs?$CK?6?$AA@ 100bda60     cg_uid.obj
 0002:0001ea80       ??_C@_0BE@LPDKKHGC@?$FO3NQKEY?5data?3?5?$CK?$CFs?$CK?6?$AA@ 100bda80     cg_uid.obj
 0002:0001ea94       ??_C@_0CF@LPCPNNBA@?$FO3NQKEY?5found?5?9?5current?5size?5is?3@ 100bda94     cg_uid.obj
 0002:0001eabc       ??_C@_09HNCFHEAA@nqkey?4cfg?$AA@ 100bdabc     cg_uid.obj
 0002:0001eac8       ??_C@_0BJ@PPCBGHDL@gfx?12d?1numbers?1minus_32b?$AA@ 100bdac8     cg_main.obj
 0002:0001eae4       ??_C@_0BI@HJFCMICO@gfx?12d?1numbers?1nine_32b?$AA@ 100bdae4     cg_main.obj
 0002:0001eafc       ??_C@_0BJ@OILFPBFC@gfx?12d?1numbers?1eight_32b?$AA@ 100bdafc     cg_main.obj
 0002:0001eb18       ??_C@_0BJ@FHLKICGB@gfx?12d?1numbers?1seven_32b?$AA@ 100bdb18     cg_main.obj
 0002:0001eb34       ??_C@_0BH@DOOFJAPO@gfx?12d?1numbers?1six_32b?$AA@ 100bdb34     cg_main.obj
 0002:0001eb4c       ??_C@_0BI@JGLLLIJP@gfx?12d?1numbers?1five_32b?$AA@ 100bdb4c     cg_main.obj
 0002:0001eb64       ??_C@_0BI@HPOPJJKG@gfx?12d?1numbers?1four_32b?$AA@ 100bdb64     cg_main.obj
 0002:0001eb7c       ??_C@_0BJ@KKKEIAHG@gfx?12d?1numbers?1three_32b?$AA@ 100bdb7c     cg_main.obj
 0002:0001eb98       ??_C@_0BH@BNBCEMFH@gfx?12d?1numbers?1two_32b?$AA@ 100bdb98     cg_main.obj
 0002:0001ebb0       ??_C@_0BH@GPBOJLFB@gfx?12d?1numbers?1one_32b?$AA@ 100bdbb0     cg_main.obj
 0002:0001ebc8       ??_C@_0BI@NODEBLMA@gfx?12d?1numbers?1zero_32b?$AA@ 100bdbc8     cg_main.obj
 0002:0001ebe0       ??_C@_03JCAGBGHO@408?$AA@  100bdbe0     cg_main.obj
 0002:0001ebe4       ??_C@_03FOPFGEPB@112?$AA@  100bdbe4     cg_main.obj
 0002:0001ebe8       ??_C@_03BMCHPHP@388?$AA@   100bdbe8     cg_main.obj
 0002:0001ebec       ??_C@_02JIPGJIFG@44?$AA@   100bdbec     cg_main.obj
 0002:0001ebf0       ??_C@_09HLDLCPGP@?45?5?5?45?5?45?$AA@ 100bdbf0     cg_main.obj
 0002:0001ebfc       ??_C@_0BF@JLBPOIEI@auth_refereePassword?$AA@ 100bdbfc     cg_main.obj
 0002:0001ec14       ??_C@_0BC@DOAINJPK@auth_rconPassword?$AA@ 100bdc14     cg_main.obj
 0002:0001ec28       ??_C@_0N@PKDEOADF@cl_timenudge?$AA@ 100bdc28     cg_main.obj
 0002:0001ec38       ??_C@_0O@MAANEMBM@cg_errordecay?$AA@ 100bdc38     cg_main.obj
 0002:0001ec48       ??_C@_09DNECJBKD@developer?$AA@ 100bdc48     cg_main.obj
 0002:0001ec54       ??_C@_0P@OPFJLCMG@cg_thirdPerson?$AA@ 100bdc54     cg_main.obj
 0002:0001ec64       ??_C@_0BB@PNGPLJB@cg_debugposition?$AA@ 100bdc64     cg_main.obj
 0002:0001ec78       ??_C@_0N@OLFHJPEJ@cg_debuganim?$AA@ 100bdc78     cg_main.obj
 0002:0001ec88       ??_C@_0O@HNKEOLCI@cg_drawHitbox?$AA@ 100bdc88     cg_main.obj
 0002:0001ec98       ??_C@_03GJIMBAPG@160?$AA@  100bdc98     cg_main.obj
 0002:0001ec9c       ??_C@_0BA@CAFKIKHE@cg_tracerlength?$AA@ 100bdc9c     cg_main.obj
 0002:0001ecac       ??_C@_04FBKEMNFE@4500?$AA@ 100bdcac     cg_main.obj
 0002:0001ecb4       ??_C@_0P@LFANMCKL@cg_tracerSpeed?$AA@ 100bdcb4     cg_main.obj
 0002:0001ecc4       ??_C@_0P@ENCNJBFG@cg_tracerwidth?$AA@ 100bdcc4     cg_main.obj
 0002:0001ecd4       ??_C@_0BA@DJBDPKKA@cg_tracerchance?$AA@ 100bdcd4     cg_main.obj
 0002:0001ece4       ??_C@_0BB@HOMHKKFN@cg_noplayeranims?$AA@ 100bdce4     cg_main.obj
 0002:0001ecf8       ??_C@_0N@BMAKLHMK@cg_nopredict?$AA@ 100bdcf8     cg_main.obj
 0002:0001ed08       ??_C@_0P@NKGOJNHN@cg_debugevents?$AA@ 100bdd08     cg_main.obj
 0002:0001ed18       ??_C@_0N@EMGODPLM@cg_animspeed?$AA@ 100bdd18     cg_main.obj
 0002:0001ed28       ??_C@_09OMJCNCAH@cg_skybox?$AA@ 100bdd28     cg_main.obj
 0002:0001ed34       ??_C@_03NKBOLEBK@0?41?$AA@ 100bdd34     cg_main.obj
 0002:0001ed38       ??_C@_0O@NLMPFCHA@cg_swingSpeed?$AA@ 100bdd38     cg_main.obj
 0002:0001ed48       ??_C@_0M@FAEGBIEM@cg_marktime?$AA@ 100bdd48     cg_main.obj
 0002:0001ed54       ??_C@_05GLCAHDPA@73?474?$AA@ 100bdd54     cg_main.obj
 0002:0001ed5c       ??_C@_07KMMGPMGC@cg_fovy?$AA@ 100bdd5c     cg_main.obj
 0002:0001ed64       ??_C@_04IIFCHHKN@90?40?$AA@ 100bdd64     cg_main.obj
 0002:0001ed6c       ??_C@_09DIABHAFB@cl_paused?$AA@ 100bdd6c     cg_main.obj
 0002:0001ed78       ??_C@_0BA@MOHNLIKA@com_buildScript?$AA@ 100bdd78     cg_main.obj
 0002:0001ed88       ??_C@_08OOHKHLPO@?$CFd?5?$CFd?5?$CFd?$AA@ 100bdd88     cg_main.obj
 0002:0001ed94       ??_C@_0N@BFMOJDMP@?$FLskipnotify?$FN?$AA@ 100bdd94     cg_main.obj
 0002:0001eda4       ??_C@_0L@DLEDELBK@?$FLcgnotify?$FN?$AA@ 100bdda4     cg_main.obj
 0002:0001edb0       ??_C@_0P@BPPALCIP@?$FLskipnotify?$FN?$CFs?$AA@ 100bddb0     cg_main.obj
 0002:0001edc0       ??_C@_0DG@FPFEJFIO@?$FO1ERROR?3?5bad?5objdata?5line?5?3?5inva@ 100bddc0     cg_main.obj
 0002:0001edf8       ??_C@_0DN@DICBMLKD@?$FO1ERROR?3?5bad?5objdata?5line?5?3?5?5des@ 100bddf8     cg_main.obj
 0002:0001ee38       ??_C@_0DH@PNHEKAM@?$FO1ERROR?3?5bad?5objdata?5line?5?3?5numb@ 100bde38     cg_main.obj
 0002:0001ee70       ??_C@_0DM@DMGFFOJH@?$FO1ERROR?3?5bad?5objdata?5line?5?3?5desc@ 100bde70     cg_main.obj
 0002:0001eeac       ??_C@_0DF@GNPHNHHK@?$FO1ERROR?3?5bad?5objdata?5line?5?3?5team@ 100bdeac     cg_main.obj
 0002:0001eee4       ??_C@_0BJ@GDJFDOBB@wm_objective_allied_desc?$AA@ 100bdee4     cg_main.obj
 0002:0001ef00       ??_C@_0BH@JNBNFAIM@wm_objective_axis_desc?$AA@ 100bdf00     cg_main.obj
 0002:0001ef18       ??_C@_07JAOEMGIL@neutral?$AA@ 100bdf18     cg_main.obj
 0002:0001ef20       ??_C@_06GFAFCNFM@allied?$AA@ 100bdf20     cg_main.obj
 0002:0001ef28       ??_C@_04HABAAEPG@axis?$AA@ 100bdf28     cg_main.obj
 0002:0001ef30       ??_C@_0BC@PJOLJILH@wm_mapdescription?$AA@ 100bdf30     cg_main.obj
 0002:0001ef44       ??_C@_0BA@IDEDFOKA@maps?1?$CFs?4objdata?$AA@ 100bdf44     cg_main.obj
 0002:0001ef54       ??_C@_0BE@CMNKOEOL@maps?1?$CFs_lms?4objdata?$AA@ 100bdf54     cg_main.obj
 0002:0001ef68       ??_C@_0CA@KDNLLEIK@?4?4?4register?5item?5pickup?5sounds?6?$AA@ 100bdf68     cg_main.obj
 0002:0001ef88       ??_C@_0BP@KAAOENNK@CG_ConfigString?3?5bad?5index?3?5?$CFi?$AA@ 100bdf88     cg_main.obj
 0002:0001efa8       ??_C@_0L@FJAFPCBC@connecting?$AA@ 100bdfa8     cg_main.obj
 0002:0001efb4       ??_C@_03NOAKOCEN@?$CF4i?$AA@ 100bdfb4     cg_main.obj
 0002:0001efb8       ??_C@_0BL@BKEMOAEL@ui?1assets?1sliderbutt_1?4tga?$AA@ 100bdfb8     cg_main.obj
 0002:0001efd4       ??_C@_0BG@JHGOBLH@ui?1assets?1slider2?4tga?$AA@ 100bdfd4     cg_main.obj
 0002:0001efec       ??_C@_0BO@POOFAODB@ui?1assets?1scrollbar_thumb?4tga?$AA@ 100bdfec     cg_main.obj
 0002:0001f00c       ??_C@_0CE@LPPDECNG@ui?1assets?1scrollbar_arrow_right?4@ 100be00c     cg_main.obj
 0002:0001f030       ??_C@_0CD@GGHBFGAG@ui?1assets?1scrollbar_arrow_left?4t@ 100be030     cg_main.obj
 0002:0001f054       ??_C@_0CD@DMKJOOMK@ui?1assets?1scrollbar_arrow_up_a?4t@ 100be054     cg_main.obj
 0002:0001f078       ??_C@_0CE@NANBDJEF@ui?1assets?1scrollbar_arrow_dwn_a?4@ 100be078     cg_main.obj
 0002:0001f09c       ??_C@_0BI@KPCDEFNA@ui?1assets?1scrollbar?4tga?$AA@ 100be09c     cg_main.obj
 0002:0001f0b4       ??_C@_0BC@GAPGDHHF@menu?1art?1fx_white?$AA@ 100be0b4     cg_main.obj
 0002:0001f0c8       ??_C@_0BB@LIJKJPJD@menu?1art?1fx_cyan?$AA@ 100be0c8     cg_main.obj
 0002:0001f0dc       ??_C@_0BB@BKOGMDOJ@menu?1art?1fx_blue?$AA@ 100be0dc     cg_main.obj
 0002:0001f0f0       ??_C@_0BB@ECKDFOKE@menu?1art?1fx_teal?$AA@ 100be0f0     cg_main.obj
 0002:0001f104       ??_C@_0BA@IJJPLEBB@menu?1art?1fx_grn?$AA@ 100be104     cg_main.obj
 0002:0001f114       ??_C@_0BA@BCAGEDMK@menu?1art?1fx_yel?$AA@ 100be114     cg_main.obj
 0002:0001f124       ??_C@_0BA@NNOEOMD@menu?1art?1fx_red?$AA@ 100be124     cg_main.obj
 0002:0001f134       ??_C@_0BB@OMABGHIG@menu?1art?1fx_base?$AA@ 100be134     cg_main.obj
 0002:0001f148       ??_C@_0BL@LDKEDAHM@ui?1assets?1gradientbar2?4tga?$AA@ 100be148     cg_main.obj
 0002:0001f164       ??_C@_0N@HOKLHCDP@exec?5?$CFs?4cfg?6?$AA@ 100be164     cg_main.obj
 0002:0001f174       ??_C@_06EDCEMKKP@?$CFs?4cfg?$AA@ 100be174     cg_main.obj
 0002:0001f17c       ??_C@_0L@LGACJBNJ@wolfet?4exe?$AA@ 100be17c     cg_main.obj
 0002:0001f188       ??_C@_07FFKGIFAO@etl?4exe?$AA@ 100be188     cg_main.obj
 0002:0001f190       ??_C@_06NDNOAAOA@ET?4exe?$AA@ 100be190     cg_main.obj
 0002:0001f198       ??_C@_0BC@IALCFMGL@Processname?5?$DN?5?$CFs?6?$AA@ 100be198     cg_main.obj
 0002:0001f1ac       ??_C@_09EEKGDCPH@?$DMunknown?$DO?$AA@ 100be1ac     cg_main.obj
 0002:0001f1b8       ??_C@_02BMCALKD@?5?0?$AA@  100be1b8     cg_main.obj
 0002:0001f1bc       ??_C@_0M@IKECFODE@?425?5?425?5?425?$AA@ 100be1bc     cg_main.obj
 0002:0001f1c8       ??_C@_09HFDCMBFC@0?5?425?5?425?$AA@ 100be1c8     cg_main.obj
 0002:0001f1d4       ??_C@_0O@DHKKNLOJ@cthulhu_green?$AA@ 100be1d4     cg_main.obj
 0002:0001f1e4       ??_C@_07GMHHMOOO@cthulhu?$AA@ 100be1e4     cg_main.obj
 0002:0001f1ec       ??_C@_04GEBBKIAA@gray?$AA@ 100be1ec     cg_main.obj
 0002:0001f1f4       ??_C@_04GDBIAANM@grey?$AA@ 100be1f4     cg_main.obj
 0002:0001f1fc       ??_C@_08EADAAFKF@darkgray?$AA@ 100be1fc     cg_main.obj
 0002:0001f208       ??_C@_06CCJFBHAM@dkgray?$AA@ 100be208     cg_main.obj
 0002:0001f210       ??_C@_08EHDJKNHJ@darkgrey?$AA@ 100be210     cg_main.obj
 0002:0001f21c       ??_C@_0M@IDBCBMOH@1?40?51?40?51?40?$AA@ 100be21c     cg_main.obj
 0002:0001f228       ??_C@_08MIJFPGGG@?40?5?40?5?40?$AA@ 100be228     cg_main.obj
 0002:0001f234       ??_C@_09DGHIFKI@?40?5?40?5?475?$AA@ 100be234     cg_main.obj
 0002:0001f240       ??_C@_09DIDNLGGL@?40?5?475?5?40?$AA@ 100be240     cg_main.obj
 0002:0001f24c       ??_C@_09NEABEDJD@?475?5?40?5?40?$AA@ 100be24c     cg_main.obj
 0002:0001f258       ??_C@_03BHEEIFFN@def?$AA@  100be258     cg_main.obj
 0002:0001f25c       ??_C@_0O@OPIJAAEA@?$CF2i?3?$CFs?$CFi?3?$CFs?$CFi?$AA@ 100be25c     cg_main.obj
 0002:0001f26c       ??_C@_03IKGEINEE@?$CFs?5?$AA@ 100be26c     cg_main.obj
 0002:0001f270       ??_C@_0DL@HOPAKJO@CG_ReceiveTeamInfo?3?5numSortedTea@ 100be270     cg_main.obj
 0002:0001f2ac       ??_C@_0CK@EANJMGFP@CG_ReceiveTeamInfo?3?5bad?5client?5n@ 100be2ac     cg_main.obj
 0002:0001f2d8       ??_C@_0DE@BDFODCCH@CG_ReceiveTeamInfo?3?5buffer?5size?5@ 100be2d8     cg_main.obj
 0002:0001f30c       ??_C@_0L@MPAGGMDN@sv_running?$AA@ 100be30c     cg_main.obj
 0002:0001f318       ??_C@_0BJ@LBLDAKKL@?$CFd?5client?5cvars?5in?5use?4?6?$AA@ 100be318     cg_main.obj
 0002:0001f334       ??_C@_03OCGDPLBD@500?$AA@  100be334     cg_main.obj
 0002:0001f338       ??_C@_06MNIJPMIH@ref?5?$CFs?$AA@ 100be338     cg_main.obj
 0002:0001f340       ??_C@_0M@MJBAJMKN@rconAuth?5?$CFs?$AA@ 100be340     cg_main.obj
 0002:0001f34c       ??_C@_0BP@GBEGMGMI@?$CFd?9?$CF02d?9?$CF02d?9?$CF02d?$CF02d?$CF02d?9?$CFs?$CFs?$AA@ 100be34c     cg_main.obj
 0002:0001f36c       ??_C@_0BO@BMJOMNFJ@sound?1spree?1firstheadshot?4wav?$AA@ 100be36c     cg_main.obj
 0002:0001f38c       ??_C@_0BL@MNEGIKO@sound?1spree?1firstblood?4wav?$AA@ 100be38c     cg_main.obj
 0002:0001f3a8       ??_C@_0BM@LHBKAANG@sound?1spree?1humiliation?4wav?$AA@ 100be3a8     cg_main.obj
 0002:0001f3c4       ??_C@_0BJ@OBCNENHK@sound?1spree?1holyshit?4wav?$AA@ 100be3c4     cg_main.obj
 0002:0001f3e0       ??_C@_0BH@JCGACNHL@sound?1spree?1potter?4wav?$AA@ 100be3e0     cg_main.obj
 0002:0001f3f8       ??_C@_0BL@HDEOPPJO@sound?1spree?1wickedsick?4wav?$AA@ 100be3f8     cg_main.obj
 0002:0001f414       ??_C@_0BI@GPHIFFOK@sound?1spree?1godlike?4wav?$AA@ 100be414     cg_main.obj
 0002:0001f42c       ??_C@_0BM@BGLINJLG@sound?1spree?1unstoppable?4wav?$AA@ 100be42c     cg_main.obj
 0002:0001f448       ??_C@_0BL@HPDCFDED@sound?1spree?1dominating?4wav?$AA@ 100be448     cg_main.obj
 0002:0001f464       ??_C@_0BI@LBBAPGO@sound?1spree?1rampage?4wav?$AA@ 100be464     cg_main.obj
 0002:0001f47c       ??_C@_0BN@IDCGFFOJ@sound?1spree?1killingspree?4wav?$AA@ 100be47c     cg_main.obj
 0002:0001f49c       ??_C@_0BO@KDBLKFKM@sound?1spree?1ludicrouskill?4wav?$AA@ 100be49c     cg_main.obj
 0002:0001f4bc       ??_C@_0BJ@GHGCBPPG@sound?1spree?1megakill?4wav?$AA@ 100be4bc     cg_main.obj
 0002:0001f4d8       ??_C@_0BM@NPNJNPKG@sound?1spree?1monsterkill?4wav?$AA@ 100be4d8     cg_main.obj
 0002:0001f4f4       ??_C@_0BK@NJIMFDHC@sound?1spree?1ultrakill?4wav?$AA@ 100be4f4     cg_main.obj
 0002:0001f510       ??_C@_0BK@EOIDMMKP@sound?1spree?1multikill?4wav?$AA@ 100be510     cg_main.obj
 0002:0001f52c       ??_C@_0BF@ILCKJHDD@sound?1osp?1kicked?4wav?$AA@ 100be52c     cg_main.obj
 0002:0001f544       ??_C@_0BF@FKBPAAHB@sound?1osp?1banned?4wav?$AA@ 100be544     cg_main.obj
 0002:0001f55c       ??_C@_0BE@HCMMNIFM@sound?1misc?1vote?4wav?$AA@ 100be55c     cg_main.obj
 0002:0001f570       ??_C@_0BH@NLMFGODE@sound?1misc?1referee?4wav?$AA@ 100be570     cg_main.obj
 0002:0001f588       ??_C@_0BH@FEKNGHLG@sound?1misc?1windfly?4wav?$AA@ 100be588     cg_main.obj
 0002:0001f5a0       ??_C@_0BJ@JDKCNBGM@sound?1jetpilot?1whack?4wav?$AA@ 100be5a0     cg_main.obj
 0002:0001f5bc       ??_C@_0BJ@DHEFHCDN@sound?1misc?1vo_revive?4wav?$AA@ 100be5bc     cg_main.obj
 0002:0001f5d8       ??_C@_0BO@JGPNOONL@sound?1misc?1vo_resuscitate?4wav?$AA@ 100be5d8     cg_main.obj
 0002:0001f5f8       ??_C@_0CL@INFMLHML@sound?1movers?1doors?1default_door_@ 100be5f8     cg_main.obj
 0002:0001f624       ??_C@_0BL@OPGHBJBF@sound?1world?1chaircreak?4wav?$AA@ 100be624     cg_main.obj
 0002:0001f640       ??_C@_0BG@OHIGOHGN@sound?1world?1build?4wav?$AA@ 100be640     cg_main.obj
 0002:0001f658       ??_C@_0BI@DGLBHPLI@sound?1world?1jumppad?4wav?$AA@ 100be658     cg_main.obj
 0002:0001f670       ??_C@_0CM@DCIHIFEE@sound?1weapons?1artillery?1artiller@ 100be670     cg_main.obj
 0002:0001f69c       ??_C@_0CM@PJNLFGOB@sound?1weapons?1artillery?1artiller@ 100be69c     cg_main.obj
 0002:0001f6c8       ??_C@_0CM@HPEPCEEP@sound?1weapons?1artillery?1artiller@ 100be6c8     cg_main.obj
 0002:0001f6f4       ??_C@_0CM@JJBKEAAK@sound?1weapons?1airstrike?1airstrik@ 100be6f4     cg_main.obj
 0002:0001f720       ??_C@_0BH@CIEIFFOL@sound?1player?1gurp2?4wav?$AA@ 100be720     cg_main.obj
 0002:0001f738       ??_C@_0BH@KONMCHEF@sound?1player?1gurp1?4wav?$AA@ 100be738     cg_main.obj
 0002:0001f750       ??_C@_0BB@JBMLJPCL@?3caching?5sounds?3?$AA@ 100be750     cg_main.obj
 0002:0001f764       ??_C@_0BC@CAKJDMPL@sound?1misc?1pm?4wav?$AA@ 100be764     cg_main.obj
 0002:0001f778       ??_C@_0BO@KCNGCOM@sound?1weapons?1knife?1throw?4wav?$AA@ 100be778     cg_main.obj
 0002:0001f798       ??_C@_0CA@CKMMOEBD@sound?1weapons?1impact?1flesh1?4wav?$AA@ 100be798     cg_main.obj
 0002:0001f7b8       ??_C@_0BM@IPNEPCNC@sound?1chat?1allies?1medic?4wav?$AA@ 100be7b8     cg_main.obj
 0002:0001f7d4       ??_C@_0BK@NMMCLBJ@sound?1chat?1axis?1medic?4wav?$AA@ 100be7d4     cg_main.obj
 0002:0001f7f0       ??_C@_0BI@HLANAJCP@sound?1misc?1skill_up?4wav?$AA@ 100be7f0     cg_main.obj
 0002:0001f808       ??_C@_0BH@OGLPPOLB@sound?1misc?1rank_up?4wav?$AA@ 100be808     cg_main.obj
 0002:0001f820       ??_C@_0BG@FOBGKEFM@sound?1menu?1filter?4wav?$AA@ 100be820     cg_main.obj
 0002:0001f838       ??_C@_0BG@JOBDMLMJ@sound?1menu?1select?4wav?$AA@ 100be838     cg_main.obj
 0002:0001f850       ??_C@_0BM@FGEJLKCC@sound?1world?1build_abort?4wav?$AA@ 100be850     cg_main.obj
 0002:0001f86c       ??_C@_0BL@GOBMIGEN@sound?1misc?1body_pickup?4wav?$AA@ 100be86c     cg_main.obj
 0002:0001f888       ??_C@_0CB@IKEAHDNN@sound?1weapons?1impact?1whizz?$CFi?4wav@ 100be888     cg_main.obj
 0002:0001f8ac       ??_C@_0CB@IDMBNBBF@sound?1weapons?1impact?1water?$CFi?4wav@ 100be8ac     cg_main.obj
 0002:0001f8d0       ??_C@_0CB@HEADFOBD@sound?1weapons?1impact?1stone?$CFi?4wav@ 100be8d0     cg_main.obj
 0002:0001f8f4       ??_C@_0CB@JGLKAACH@sound?1weapons?1impact?1glass?$CFi?4wav@ 100be8f4     cg_main.obj
 0002:0001f918       ??_C@_0CA@IINCGIJE@sound?1weapons?1impact?1wood?$CFi?4wav?$AA@ 100be918     cg_main.obj
 0002:0001f938       ??_C@_0CB@OBOKNFBP@sound?1weapons?1impact?1metal?$CFi?4wav@ 100be938     cg_main.obj
 0002:0001f95c       ??_C@_0CB@CFCFMBEP@sound?1weapons?1impact?1flesh?$CFi?4wav@ 100be95c     cg_main.obj
 0002:0001f980       ??_C@_0CI@HAJLPFEP@sound?1weapons?1poison?1poison_hitw@ 100be980     cg_main.obj
 0002:0001f9a8       ??_C@_0CE@JAIJOOOA@sound?1weapons?1poison?1poison_hit?4@ 100be9a8     cg_main.obj
 0002:0001f9cc       ??_C@_0CH@NFDPMGIK@sound?1weapons?1knife?1knife_hitwal@ 100be9cc     cg_main.obj
 0002:0001f9f4       ??_C@_0CD@GPKODLOP@sound?1weapons?1knife?1knife_hit4?4w@ 100be9f4     cg_main.obj
 0002:0001fa18       ??_C@_0CD@HCKLALFH@sound?1weapons?1knife?1knife_hit3?4w@ 100bea18     cg_main.obj
 0002:0001fa3c       ??_C@_0CD@LJPHNIPC@sound?1weapons?1knife?1knife_hit2?4w@ 100bea3c     cg_main.obj
 0002:0001fa60       ??_C@_0CD@DPGDKKFM@sound?1weapons?1knife?1knife_hit1?4w@ 100bea60     cg_main.obj
 0002:0001fa84       ??_C@_0BJ@EKNOAHGP@sound?1world?1debris?$CFi?4wav?$AA@ 100bea84     cg_main.obj
 0002:0001faa0       ??_C@_0CH@JJOLIAM@sound?1weapons?1misc?1sg_shell_wood@ 100beaa0     cg_main.obj
 0002:0001fac8       ??_C@_0CE@EAOHLACG@sound?1weapons?1misc?1shell_wood?$CFi?4@ 100beac8     cg_main.obj
 0002:0001faec       ??_C@_0CI@IKFGAJLF@sound?1weapons?1misc?1sg_shell_ston@ 100beaec     cg_main.obj
 0002:0001fb14       ??_C@_0CF@FBKELJGL@sound?1weapons?1misc?1shell_stone?$CFi@ 100beb14     cg_main.obj
 0002:0001fb3c       ??_C@_0CH@GJFPEMPO@sound?1weapons?1misc?1sg_shell_soft@ 100beb3c     cg_main.obj
 0002:0001fb64       ??_C@_0CE@CACGEENE@sound?1weapons?1misc?1shell_soft?$CFi?4@ 100beb64     cg_main.obj
 0002:0001fb88       ??_C@_0CI@BPLPICLJ@sound?1weapons?1misc?1sg_shell_meta@ 100beb88     cg_main.obj
 0002:0001fbb0       ??_C@_0CF@MEENDCGH@sound?1weapons?1misc?1shell_metal?$CFi@ 100bebb0     cg_main.obj
 0002:0001fbd8       ??_C@_0CK@GGDFFGHM@sound?1weapons?1grenade?1gren_expl_@ 100bebd8     cg_main.obj
 0002:0001fc04       ??_C@_0CI@EIHGNOKL@sound?1weapons?1grenade?1gren_expl_@ 100bec04     cg_main.obj
 0002:0001fc2c       ??_C@_0CE@HMHKGNDA@sound?1weapons?1grenade?1gren_expl?4@ 100bec2c     cg_main.obj
 0002:0001fc50       ??_C@_0CJ@NCBAKHLC@sound?1weapons?1mortar?1mortar_expl@ 100bec50     cg_main.obj
 0002:0001fc7c       ??_C@_0CF@EJKAIGDD@sound?1weapons?1mortar?1mortar_expl@ 100bec7c     cg_main.obj
 0002:0001fca4       ??_C@_0CG@CAKMBOKJ@sound?1weapons?1mortar?1mortar_expl@ 100beca4     cg_main.obj
 0002:0001fccc       ??_C@_0CG@OLPAMNAM@sound?1weapons?1mortar?1mortar_expl@ 100beccc     cg_main.obj
 0002:0001fcf4       ??_C@_0CG@GNGELPKC@sound?1weapons?1mortar?1mortar_expl@ 100becf4     cg_main.obj
 0002:0001fd1c       ??_C@_0CJ@DINKCPNA@sound?1weapons?1landmine?1mine_expl@ 100bed1c     cg_main.obj
 0002:0001fd48       ??_C@_0CF@ODKJNBPA@sound?1weapons?1landmine?1mine_expl@ 100bed48     cg_main.obj
 0002:0001fd70       ??_C@_0CL@HDOHALLC@sound?1weapons?1satchel?1satchel_ex@ 100bed70     cg_main.obj
 0002:0001fd9c       ??_C@_0CH@BKHOEEMM@sound?1weapons?1satchel?1satchel_ex@ 100bed9c     cg_main.obj
 0002:0001fdc4       ??_C@_0CN@IILCDGNH@sound?1weapons?1dynamite?1dynamite_@ 100bedc4     cg_main.obj
 0002:0001fdf4       ??_C@_0CJ@KBMKDCOH@sound?1weapons?1dynamite?1dynamite_@ 100bedf4     cg_main.obj
 0002:0001fe20       ??_C@_0CP@MDOHBCNB@sound?1weapons?1airstrike?1airstrik@ 100bee20     cg_main.obj
 0002:0001fe50       ??_C@_0CN@HLBAMOCP@sound?1weapons?1airstrike?1airstrik@ 100bee50     cg_main.obj
 0002:0001fe80       ??_C@_0CN@LAEMBNIK@sound?1weapons?1airstrike?1airstrik@ 100bee80     cg_main.obj
 0002:0001feb0       ??_C@_0CN@DGNIGPCE@sound?1weapons?1airstrike?1airstrik@ 100beeb0     cg_main.obj
 0002:0001fee0       ??_C@_0DA@MOOMKBPA@sound?1weapons?1artillery?1artiller@ 100beee0     cg_main.obj
 0002:0001ff10       ??_C@_0DA@FLAHCFF@sound?1weapons?1artillery?1artiller@ 100bef10     cg_main.obj
 0002:0001ff40       ??_C@_0DA@IDCEAAPL@sound?1weapons?1artillery?1artiller@ 100bef40     cg_main.obj
 0002:0001ff70       ??_C@_0CP@HHOPDDB@sound?1weapons?1artillery?1artiller@ 100bef70     cg_main.obj
 0002:0001ffa0       ??_C@_0CN@LCOGFOPC@sound?1weapons?1artillery?1artiller@ 100befa0     cg_main.obj
 0002:0001ffd0       ??_C@_0CN@HJLKINFH@sound?1weapons?1artillery?1artiller@ 100befd0     cg_main.obj
 0002:00020000       ??_C@_0CN@PPCOPPPJ@sound?1weapons?1artillery?1artiller@ 100bf000     cg_main.obj
 0002:00020030       ??_C@_0CJ@PFMMKHEM@sound?1weapons?1rocket?1rocket_expl@ 100bf030     cg_main.obj
 0002:0002005c       ??_C@_0CF@HKBFCGIL@sound?1weapons?1rocket?1rocket_expl@ 100bf05c     cg_main.obj
 0002:00020084       ??_C@_0CG@GGIKKFJE@sound?1weapons?1grenade?1gren_timer@ 100bf084     cg_main.obj
 0002:000200ac       ??_C@_0CG@OABONHDK@sound?1weapons?1grenade?1gren_timer@ 100bf0ac     cg_main.obj
 0002:000200d4       ??_C@_0CG@CLECAEJP@sound?1weapons?1grenade?1gren_timer@ 100bf0d4     cg_main.obj
 0002:000200fc       ??_C@_0CG@DGEHDECH@sound?1weapons?1grenade?1gren_timer@ 100bf0fc     cg_main.obj
 0002:00020124       ??_C@_0CK@BOCPMJIG@sound?1weapons?1flamethrower?1flame@ 100bf124     cg_main.obj
 0002:00020150       ??_C@_0CI@KCJHNBKH@sound?1weapons?1flamethrower?1flame@ 100bf150     cg_main.obj
 0002:00020178       ??_C@_0CL@GOFMGBMJ@sound?1weapons?1flamethrower?1flame@ 100bf178     cg_main.obj
 0002:000201a4       ??_C@_0CK@CBAEMCN@sound?1weapons?1flamethrower?1flame@ 100bf1a4     cg_main.obj
 0002:000201d0       ??_C@_0BK@JOBOKKKG@sound?1jetpilot?1goomba?4wav?$AA@ 100bf1d0     cg_main.obj
 0002:000201ec       ??_C@_0BK@PGCDLBJC@sound?1jclient?1hitteam?4wav?$AA@ 100bf1ec     cg_main.obj
 0002:00020208       ??_C@_0BG@CBPDHFBE@sound?1jclient?1hit?4wav?$AA@ 100bf208     cg_main.obj
 0002:00020220       ??_C@_0BK@JLNIFBDP@sound?1jclient?1hithead?4wav?$AA@ 100bf220     cg_main.obj
 0002:0002023c       ??_C@_0BD@DLEBLOFA@sound?1osp?1goat?4wav?$AA@ 100bf23c     cg_main.obj
 0002:00020250       ??_C@_0BG@KJCLHOMK@sound?1osp?1prepare?4wav?$AA@ 100bf250     cg_main.obj
 0002:00020268       ??_C@_0BE@BMPBBICO@sound?1osp?1fight?4wav?$AA@ 100bf268     cg_main.obj
 0002:0002027c       ??_C@_0CE@IOOCCCEO@sound?1player?1footsteps?1carpet?$CFi?4@ 100bf27c     cg_main.obj
 0002:000202a0       ??_C@_0CC@BCFHHFEH@sound?1player?1footsteps?1snow?$CFi?4wa@ 100bf2a0     cg_main.obj
 0002:000202c4       ??_C@_0CC@IMAKPAAM@sound?1player?1footsteps?1roof?$CFi?4wa@ 100bf2c4     cg_main.obj
 0002:000202e8       ??_C@_0CE@KAIJIPMH@sound?1player?1footsteps?1gravel?$CFi?4@ 100bf2e8     cg_main.obj
 0002:0002030c       ??_C@_0CD@CCLPHDJC@sound?1player?1footsteps?1grass?$CFi?4w@ 100bf30c     cg_main.obj
 0002:00020330       ??_C@_0CC@LPHIFLDD@sound?1player?1footsteps?1wood?$CFi?4wa@ 100bf330     cg_main.obj
 0002:00020354       ??_C@_0CD@KJGPEJGH@sound?1player?1footsteps?1metal?$CFi?4w@ 100bf354     cg_main.obj
 0002:00020378       ??_C@_0CD@MLEEENGN@sound?1player?1footsteps?1water?$CFi?4w@ 100bf378     cg_main.obj
 0002:0002039c       ??_C@_0CD@DMIGMCGL@sound?1player?1footsteps?1stone?$CFi?4w@ 100bf39c     cg_main.obj
 0002:000203c0       ??_C@_0CH@IGMHNCMC@sound?1player?1footsteps?1carpet_ju@ 100bf3c0     cg_main.obj
 0002:000203e8       ??_C@_0CF@MHOHGFEB@sound?1player?1footsteps?1snow_jump@ 100bf3e8     cg_main.obj
 0002:00020410       ??_C@_0CF@OIAGEGLJ@sound?1player?1footsteps?1roof_jump@ 100bf410     cg_main.obj
 0002:00020438       ??_C@_0CH@KJOKIIJH@sound?1player?1footsteps?1gravel_ju@ 100bf438     cg_main.obj
 0002:00020460       ??_C@_0CG@LECOFPGG@sound?1player?1footsteps?1grass_jum@ 100bf460     cg_main.obj
 0002:00020488       ??_C@_0CF@DEMJJBBF@sound?1player?1footsteps?1wood_jump@ 100bf488     cg_main.obj
 0002:000204b0       ??_C@_0CG@KEFLOCHL@sound?1player?1footsteps?1metal_jum@ 100bf4b0     cg_main.obj
 0002:000204d8       ??_C@_0CG@GBBMFLIL@sound?1player?1footsteps?1water_jum@ 100bf4d8     cg_main.obj
 0002:00020500       ??_C@_0CG@KMOAAANG@sound?1player?1footsteps?1stone_jum@ 100bf500     cg_main.obj
 0002:00020528       ??_C@_0CI@LFECGCLM@sound?1weapons?1grenade?1bounce_sof@ 100bf528     cg_main.obj
 0002:00020550       ??_C@_0CI@NFIDJGEO@sound?1weapons?1grenade?1bounce_woo@ 100bf550     cg_main.obj
 0002:00020578       ??_C@_0CJ@IHLBLPCL@sound?1weapons?1grenade?1bounce_met@ 100bf578     cg_main.obj
 0002:000205a4       ??_C@_0CI@KLMLDDNG@sound?1weapons?1grenade?1bounce_har@ 100bf5a4     cg_main.obj
 0002:000205cc       ??_C@_0CA@CNHEPPIG@sound?1weapons?1melee?1fstmiss?4wav?$AA@ 100bf5cc     cg_main.obj
 0002:000205ec       ??_C@_0CA@KEKFDEFA@sound?1weapons?1melee?1fstatck?4wav?$AA@ 100bf5ec     cg_main.obj
 0002:0002060c       ??_C@_0BM@BFEJFNFP@sound?1player?1underwater?4wav?$AA@ 100bf60c     cg_main.obj
 0002:00020628       ??_C@_0BG@KDDAPEKL@sound?1player?1gasp?4wav?$AA@ 100bf628     cg_main.obj
 0002:00020640       ??_C@_0BK@JOANPNNB@sound?1player?1water_un?4wav?$AA@ 100bf640     cg_main.obj
 0002:0002065c       ??_C@_0BL@PEIAOPIF@sound?1player?1water_out?4wav?$AA@ 100bf65c     cg_main.obj
 0002:00020678       ??_C@_0BK@DOHDALGL@sound?1player?1water_in?4wav?$AA@ 100bf678     cg_main.obj
 0002:00020694       ??_C@_0CH@DIDOENMF@sound?1weapons?1landmine?1mine_boun@ 100bf694     cg_main.obj
 0002:000206bc       ??_C@_0CJ@MLKIKKCG@sound?1weapons?1satchel?1satchel_bo@ 100bf6bc     cg_main.obj
 0002:000206e8       ??_C@_0CL@ELODIPC@sound?1weapons?1dynamite?1dynamite_@ 100bf6e8     cg_main.obj
 0002:00020714       ??_C@_0BL@CCIEAEEP@sound?1player?1land_hurt?4wav?$AA@ 100bf714     cg_main.obj
 0002:00020730       ??_C@_0BO@KKMFJLOB@sound?1weapons?1misc?1change?4wav?$AA@ 100bf730     cg_main.obj
 0002:00020750       ??_C@_0CC@CADNAJMN@sound?1weapons?1misc?1fire_water?4wa@ 100bf750     cg_main.obj
 0002:00020774       ??_C@_0CA@LMJFNDJI@sound?1weapons?1misc?1fire_dry?4wav?$AA@ 100bf774     cg_main.obj
 0002:00020794       ??_C@_0O@FMDLOFNL@?3game?5sounds?3?$AA@ 100bf794     cg_main.obj
 0002:000207a4       ??_C@_0BC@HKFNCLGC@sound?1maps?1?$CFs?4sps?$AA@ 100bf7a4     cg_main.obj
 0002:000207b8       ??_C@_0BC@JAIIJMBI@?3script?5speakers?3?$AA@ 100bf7b8     cg_main.obj
 0002:000207cc       ??_C@_0O@IEFBEDEN@?3voice?5chats?3?$AA@ 100bf7cc     cg_main.obj
 0002:000207dc       ??_C@_0CB@BBBMIPHN@ui?1assets?1portraits?1text_win?4tga@ 100bf7dc     cg_main.obj
 0002:00020800       ??_C@_0CE@PJJKNIA@ui?1assets?1portraits?1text_allies?4@ 100bf800     cg_main.obj
 0002:00020824       ??_C@_0CI@JOCIANF@ui?1assets?1portraits?1allies_win_f@ 100bf824     cg_main.obj
 0002:0002084c       ??_C@_0CC@HMLNDHKI@ui?1assets?1portraits?1text_axis?4tg@ 100bf84c     cg_main.obj
 0002:00020870       ??_C@_0CG@GJGEOIEF@ui?1assets?1portraits?1axis_win_fla@ 100bf870     cg_main.obj
 0002:00020898       ??_C@_0BD@CDIDDFAB@ui?1assets?1usa_flag?$AA@ 100bf898     cg_main.obj
 0002:000208ac       ??_C@_0BD@ENFHOBAJ@ui?1assets?1ger_flag?$AA@ 100bf8ac     cg_main.obj
 0002:000208c0       ??_C@_0BG@OOKBDACL@ui?1assets?1gerusa_flag?$AA@ 100bf8c0     cg_main.obj
 0002:000208d8       ??_C@_0BM@FPKBBEFC@gfx?1hud?1fireteam?1fireteam?$CFi?$AA@ 100bf8d8     cg_main.obj
 0002:000208f4       ??_C@_0BC@BHPBCOEM@gfx?1misc?1tv_grain?$AA@ 100bf8f4     cg_main.obj
 0002:00020908       ??_C@_0BI@DJNHJLML@gfx?1hud?1noquarter?1saber?$AA@ 100bf908     cg_main.obj
 0002:00020920       ??_C@_0BJ@JAOEODFO@gfx?1hud?1noquarter?1masher?$AA@ 100bf920     cg_main.obj
 0002:0002093c       ??_C@_0BM@IINOHEFC@gfx?1hud?1noquarter?1pineapple?$AA@ 100bf93c     cg_main.obj
 0002:00020958       ??_C@_0L@GLPNNMED@gfx?12d?1net?$AA@ 100bf958     cg_main.obj
 0002:00020964       ??_C@_0BG@LPELJPFN@gfx?1limbo?1flag_allied?$AA@ 100bf964     cg_main.obj
 0002:0002097c       ??_C@_0BE@MOMMOOIL@gfx?1limbo?1flag_axis?$AA@ 100bf97c     cg_main.obj
 0002:00020990       ??_C@_0BO@LEOMCOJG@icons?1iconw_browning_1_select?$AA@ 100bf990     cg_main.obj
 0002:000209b0       ??_C@_0CC@JPJLLPLF@models?1players?1hud?1adreneyes?4ski@ 100bf9b0     cg_main.obj
 0002:000209d4       ??_C@_0CN@FAKCHPJK@models?1players?1hud?1damagedskins?1@ 100bf9d4     cg_main.obj
 0002:00020a04       ??_C@_0CN@JFAFEBBE@models?1players?1hud?1damagedskins?1@ 100bfa04     cg_main.obj
 0002:00020a34       ??_C@_0CN@DDHCEKKA@models?1players?1hud?1damagedskins?1@ 100bfa34     cg_main.obj
 0002:00020a64       ??_C@_0CN@CJKFADN@models?1players?1hud?1damagedskins?1@ 100bfa64     cg_main.obj
 0002:00020a94       ??_C@_0BE@NNADOHBK@ui?1assets?13_cursor3?$AA@ 100bfa94     cg_main.obj
 0002:00020aa8       ??_C@_0BG@KOBAGKDG@ui?1assets?1radio_tower?$AA@ 100bfaa8     cg_main.obj
 0002:00020ac0       ??_C@_0BE@PJBDIBF@gfx?1limbo?1spectator?$AA@ 100bfac0     cg_main.obj
 0002:00020ad4       ??_C@_0BH@IEHFFCOA@gfx?1limbo?1but_stop_off?$AA@ 100bfad4     cg_main.obj
 0002:00020aec       ??_C@_0BG@KHBLHAHG@gfx?1limbo?1but_stop_on?$AA@ 100bfaec     cg_main.obj
 0002:00020b04       ??_C@_0BH@GFJGGOCO@gfx?1limbo?1but_play_off?$AA@ 100bfb04     cg_main.obj
 0002:00020b1c       ??_C@_0BG@EKLPKGDN@gfx?1limbo?1but_play_on?$AA@ 100bfb1c     cg_main.obj
 0002:00020b34       ??_C@_0BJ@CDLAMHPF@gfx?1limbo?1objective_back?$AA@ 100bfb34     cg_main.obj
 0002:00020b50       ??_C@_0CA@BDHLNPAB@gfx?1limbo?1objective_back_allied?$AA@ 100bfb50     cg_main.obj
 0002:00020b70       ??_C@_0BO@KEKMDGNF@gfx?1limbo?1objective_back_axis?$AA@ 100bfb70     cg_main.obj
 0002:00020b90       ??_C@_0BL@KGOJAJAD@gfx?1limbo?1weap_dnarrow?4tga?$AA@ 100bfb90     cg_main.obj
 0002:00020bac       ??_C@_0BH@KJLKCKGK@gfx?1limbo?1weaponcard03?$AA@ 100bfbac     cg_main.obj
 0002:00020bc4       ??_C@_0BH@LAKBBLCL@gfx?1limbo?1weaponcard02?$AA@ 100bfbc4     cg_main.obj
 0002:00020bdc       ??_C@_0BH@JLIMEIOI@gfx?1limbo?1weaponcard01?$AA@ 100bfbdc     cg_main.obj
 0002:00020bf4       ??_C@_0BC@BDIDGJIE@gfx?1hud?1ic_health?$AA@ 100bfbf4     cg_main.obj
 0002:00020c08       ??_C@_0BD@ONMGPOPB@gfx?1hud?1ic_stamina?$AA@ 100bfc08     cg_main.obj
 0002:00020c1c       ??_C@_0BB@CFFEDHGP@gfx?1hud?1ic_power?$AA@ 100bfc1c     cg_main.obj
 0002:00020c30       ??_C@_0BI@PNFOLIPG@gfx?1limbo?1number_border?$AA@ 100bfc30     cg_main.obj
 0002:00020c48       ??_C@_0BF@NDPKPMGB@gfx?1limbo?1weap_blend?$AA@ 100bfc48     cg_main.obj
 0002:00020c60       ??_C@_0BD@JLMGNICA@gfx?1limbo?1cc_blend?$AA@ 100bfc60     cg_main.obj
 0002:00020c74       ??_C@_0BI@HGJOMBKA@gfx?1limbo?1but_team_spec?$AA@ 100bfc74     cg_main.obj
 0002:00020c8c       ??_C@_0BI@OKNCMGJI@gfx?1limbo?1but_team_axis?$AA@ 100bfc8c     cg_main.obj
 0002:00020ca4       ??_C@_0BK@OLBBFCCL@gfx?1limbo?1but_team_allied?$AA@ 100bfca4     cg_main.obj
 0002:00020cc0       ??_C@_0BH@LPHCGEIE@gfx?1limbo?1but_team_off?$AA@ 100bfcc0     cg_main.obj
 0002:00020cd8       ??_C@_0BG@MOANNMFG@gfx?1limbo?1but_team_on?$AA@ 100bfcd8     cg_main.obj
 0002:00020cf0       ??_C@_0BG@FFMJMLGG@sprites?1fastCool_aura?$AA@ 100bfcf0     cg_main.obj
 0002:00020d08       ??_C@_0BG@MOPKDGDC@sprites?1caduceus_aura?$AA@ 100bfd08     cg_main.obj
 0002:00020d20       ??_C@_0BL@HHGHHFLH@sprites?1morale_allies_aura?$AA@ 100bfd20     cg_main.obj
 0002:00020d3c       ??_C@_0BJ@HBEGHPHI@sprites?1morale_axis_aura?$AA@ 100bfd3c     cg_main.obj
 0002:00020d58       ??_C@_0BH@PNNMANNM@gfx?12d?1pistolShotLuger?$AA@ 100bfd58     cg_main.obj
 0002:00020d70       ??_C@_0BG@OCIHFKNB@gfx?12d?1pistolShotColt?$AA@ 100bfd70     cg_main.obj
 0002:00020d88       ??_C@_0BL@INELPCJB@gfx?1hud?1noquarter?1fastCool?$AA@ 100bfd88     cg_main.obj
 0002:00020da4       ??_C@_0BL@NMGOCBGD@gfx?1hud?1noquarter?1caduceus?$AA@ 100bfda4     cg_main.obj
 0002:00020dc0       ??_C@_0CA@CDIHGJHE@gfx?1hud?1noquarter?1morale_allies?$AA@ 100bfdc0     cg_main.obj
 0002:00020de0       ??_C@_0BO@IEHHJECE@gfx?1hud?1noquarter?1morale_axis?$AA@ 100bfde0     cg_main.obj
 0002:00020e00       ??_C@_0BN@GPOEDCGK@gfx?1hud?1noquarter?1binoculars?$AA@ 100bfe00     cg_main.obj
 0002:00020e20       ??_C@_0BN@ONEMJEBH@gfx?1hud?1noquarter?1adrenaline?$AA@ 100bfe20     cg_main.obj
 0002:00020e40       ??_C@_0CA@DFOGLAOC@gfx?1hud?1noquarter?1helmet_allies?$AA@ 100bfe40     cg_main.obj
 0002:00020e60       ??_C@_0BO@PPMOHFKO@gfx?1hud?1noquarter?1helmet_axis?$AA@ 100bfe60     cg_main.obj
 0002:00020e80       ??_C@_0CE@EGCGGBBE@gfx?1hud?1noquarter?1flakjacket_all@ 100bfe80     cg_main.obj
 0002:00020ea4       ??_C@_0CC@FENKJAPP@gfx?1hud?1noquarter?1flakjacket_axi@ 100bfea4     cg_main.obj
 0002:00020ec8       ??_C@_0BG@BCCKECCA@gfx?1limbo?1skill_medic?$AA@ 100bfec8     cg_main.obj
 0002:00020ee0       ??_C@_0BJ@IDHPMKBG@gfx?1limbo?1skill_fieldops?$AA@ 100bfee0     cg_main.obj
 0002:00020efc       ??_C@_0BH@OPOBPOJD@gfx?1limbo?1skill_covops?$AA@ 100bfefc     cg_main.obj
 0002:00020f14       ??_C@_0BI@OIHMNOGE@gfx?1limbo?1skill_soldier?$AA@ 100bff14     cg_main.obj
 0002:00020f2c       ??_C@_0BJ@FBJONHEP@gfx?1limbo?1skill_engineer?$AA@ 100bff2c     cg_main.obj
 0002:00020f48       ??_C@_0BI@NPLJFANC@gfx?1limbo?1skill_?$CFipiece?$AA@ 100bff48     cg_main.obj
 0002:00020f60       ??_C@_0BM@GFHBEBOK@gfx?1limbo?1skill_?$CFipiece_off?$AA@ 100bff60     cg_main.obj
 0002:00020f7c       ??_C@_0BJ@IKEMDFGM@gfx?1limbo?1skill_back_off?$AA@ 100bff7c     cg_main.obj
 0002:00020f98       ??_C@_0BI@EFPEMOHO@gfx?1limbo?1skill_back_on?$AA@ 100bff98     cg_main.obj
 0002:00020fb0       ??_C@_0BK@CFKMJGEG@gfx?1limbo?1nadesoutofstock?$AA@ 100bffb0     cg_main.obj
 0002:00020fcc       ??_C@_0BF@OGLBPOLK@gfx?1limbo?1outofstock?$AA@ 100bffcc     cg_main.obj
 0002:00020fe4       ??_C@_0BG@KBIOBPAB@gfx?1limbo?1butsur_corn?$AA@ 100bffe4     cg_main.obj
 0002:00020ffc       ??_C@_0BG@NGBOBNEM@gfx?1limbo?1butsur_vert?$AA@ 100bfffc     cg_main.obj
 0002:00021014       ??_C@_0BF@CCIHLEPP@gfx?1limbo?1butsur_hor?$AA@ 100c0014     cg_main.obj
 0002:0002102c       ??_C@_0BE@EKFLJDDE@gfx?1limbo?1weap_card?$AA@ 100c002c     cg_main.obj
 0002:00021040       ??_C@_0BG@NIPCIIIG@gfx?1limbo?1but_weap_on?$AA@ 100c0040     cg_main.obj
 0002:00021058       ??_C@_0BH@DJLHEJAE@gfx?1limbo?1but_weap_off?$AA@ 100c0058     cg_main.obj
 0002:00021070       ??_C@_0BH@IELEGGIJ@gfx?1limbo?1redlight_off?$AA@ 100c0070     cg_main.obj
 0002:00021088       ??_C@_0BI@NEBFKBHO@gfx?1limbo?1redlight_on02?$AA@ 100c0088     cg_main.obj
 0002:000210a0       ??_C@_0BG@GGCPBJHG@gfx?1limbo?1redlight_on?$AA@ 100c00a0     cg_main.obj
 0002:000210b8       ??_C@_0BF@HDFLDEDK@gfx?1limbo?1skill_back?$AA@ 100c00b8     cg_main.obj
 0002:000210d0       ??_C@_0BF@LHHJAFHB@gfx?1limbo?1skill_roll?$AA@ 100c00d0     cg_main.obj
 0002:000210e8       ??_C@_0BG@FBDPMDK@gfx?1limbo?1number_back?$AA@ 100c00e8     cg_main.obj
 0002:00021100       ??_C@_0BG@MBDBMNHB@gfx?1limbo?1number_roll?$AA@ 100c0100     cg_main.obj
 0002:00021118       ??_C@_0BF@PLFIBJMC@gfx?1limbo?1medal_back?$AA@ 100c0118     cg_main.obj
 0002:00021130       ??_C@_0BC@KIFDFIKC@sprites?1disguised?$AA@ 100c0130     cg_main.obj
 0002:00021144       ??_C@_0BD@JEKHCPFK@sprites?1voiceMedic?$AA@ 100c0144     cg_main.obj
 0002:00021158       ??_C@_0BG@DCCJNKLD@sprites?1voiceMedic_cm?$AA@ 100c0158     cg_main.obj
 0002:00021170       ??_C@_0CM@FCCPKIGH@models?1multiplayer?1browning?1tank@ 100c0170     cg_main.obj
 0002:0002119c       ??_C@_0CM@LANBPGNK@models?1multiplayer?1browning?1thir@ 100c019c     cg_main.obj
 0002:000211c8       ??_C@_0CE@JBINGABK@models?1mapobjects?1tanks_sd?1mg42?4@ 100c01c8     cg_main.obj
 0002:000211ec       ??_C@_0CI@MPANABFO@models?1mapobjects?1tanks_sd?1mg42n@ 100c01ec     cg_main.obj
 0002:00021214       ??_C@_0CM@IPMKKHEL@models?1mapobjects?1tanks_sd?1mg42n@ 100c0214     cg_main.obj
 0002:00021240       ??_C@_07HKKIMKIF@?3media?3?$AA@ 100c0240     cg_main.obj
 0002:00021248       ??_C@_09CBGCDNCG@?3sprites?3?$AA@ 100c0248     cg_main.obj
 0002:00021254       ??_C@_09OAONCAIN@?3classes?3?$AA@ 100c0254     cg_main.obj
 0002:00021260       ??_C@_0M@PPBGEPLO@?3particles?3?$AA@ 100c0260     cg_main.obj
 0002:00021270       ??_C@_0EA@KCNCANB@ERROR?3?5CG_RegisterGraphics?3?5fail@ 100c0270     cg_main.obj
 0002:000212b0       ??_C@_0BA@LPOIGGIP@?3server?5models?3?$AA@ 100c02b0     cg_main.obj
 0002:000212c0       ??_C@_03JLINDLFM@?$CK?$CFi?$AA@ 100c02c0     cg_main.obj
 0002:000212c4       ??_C@_0DB@GEAKEHLE@CG_RegisterGraphics?3?5Too?5many?5in@ 100c02c4     cg_main.obj
 0002:000212f8       ??_C@_0BA@FIDHKAJ@?3inline?5models?3?$AA@ 100c02f8     cg_main.obj
 0002:00021308       ??_C@_0M@NOGECHJB@blood_dot?$CFi?$AA@ 100c0308     cg_main.obj
 0002:00021314       ??_C@_0BF@EMBPJBJN@gfx?1damage?1glass_mrk?$AA@ 100c0314     cg_main.obj
 0002:0002132c       ??_C@_0BE@BCCLMIGH@gfx?1damage?1wood_mrk?$AA@ 100c032c     cg_main.obj
 0002:00021340       ??_C@_0BF@MBAELFOJ@gfx?1damage?1metal_mrk?$AA@ 100c0340     cg_main.obj
 0002:00021358       ??_C@_08GJMCHHBC@wakeAnim?$AA@ 100c0358     cg_main.obj
 0002:00021364       ??_C@_04KNLNBPHI@wake?$AA@ 100c0364     cg_main.obj
 0002:0002136c       ??_C@_0BA@HNHEIILE@markShadowTorso?$AA@ 100c036c     cg_main.obj
 0002:0002137c       ??_C@_0P@OPIEBLEA@markShadowFoot?$AA@ 100c037c     cg_main.obj
 0002:0002138c       ??_C@_0BI@HAJPOEDB@gfx?1damage?1burn_med_mrk?$AA@ 100c038c     cg_main.obj
 0002:000213a4       ??_C@_0BG@FPMKOIGF@gfx?1damage?1bullet_mrk?$AA@ 100c03a4     cg_main.obj
 0002:000213bc       ??_C@_0CG@PMCFFBOK@sound?1weapons?1radio?1callArty_axi@ 100c03bc     cg_main.obj
 0002:000213e4       ??_C@_0CI@LOKGHLBA@sound?1weapons?1radio?1callArty_all@ 100c03e4     cg_main.obj
 0002:0002140c       ??_C@_0CD@EJIMLHAJ@sound?1weapons?1landmine?1mine_on?4w@ 100c040c     cg_main.obj
 0002:00021430       ??_C@_0CJ@GPDAHIEE@sound?1weapons?1browning?1browning_@ 100c0430     cg_main.obj
 0002:0002145c       ??_C@_0CI@IEGAPLNN@sound?1weapons?1browning?1browning_@ 100c045c     cg_main.obj
 0002:00021484       ??_C@_0CJ@GOOBOBPE@sound?1weapons?1browning?1browning_@ 100c0484     cg_main.obj
 0002:000214b0       ??_C@_0CB@IOLGMNOO@sound?1weapons?1mg42?1mg42_heat?4wav@ 100c04b0     cg_main.obj
 0002:000214d4       ??_C@_0CA@MENEJJG@sound?1weapons?1mg42?1mg42_far?4wav?$AA@ 100c04d4     cg_main.obj
 0002:000214f4       ??_C@_0CB@IPGHFEFO@sound?1weapons?1mg42?1mg42_fire?4wav@ 100c04f4     cg_main.obj
 0002:00021518       ??_C@_0BA@NABNBOMN@rocketExplosion?$AA@ 100c0518     cg_main.obj
 0002:00021528       ??_C@_07OLMNPGFB@?3items?3?$AA@ 100c0528     cg_main.obj
 0002:00021530       ??_C@_09PKALKHPH@?3weapons?3?$AA@ 100c0530     cg_main.obj
 0002:0002153c       ??_C@_0CI@IECHFLLG@models?1mapobjects?1debris?1persona@ 100c053c     cg_main.obj
 0002:00021564       ??_C@_0CG@FAKFDMAC@models?1mapobjects?1debris?1brick00@ 100c0564     cg_main.obj
 0002:0002158c       ??_C@_0CG@NGDBEOKM@models?1mapobjects?1debris?1brick00@ 100c058c     cg_main.obj
 0002:000215b4       ??_C@_0CG@BNGNJNAJ@models?1mapobjects?1debris?1brick00@ 100c05b4     cg_main.obj
 0002:000215dc       ??_C@_0BJ@GIEGGPPF@models?1shards?1metal2?4md3?$AA@ 100c05dc     cg_main.obj
 0002:000215f8       ??_C@_0BJ@OONCBNFL@models?1shards?1metal1?4md3?$AA@ 100c05f8     cg_main.obj
 0002:00021614       ??_C@_0BI@BCFJOBGK@models?1shards?1wood2?4md3?$AA@ 100c0614     cg_main.obj
 0002:0002162c       ??_C@_0BI@JEMNJDME@models?1shards?1wood1?4md3?$AA@ 100c062c     cg_main.obj
 0002:00021644       ??_C@_0BJ@DPKDMBPE@models?1shards?1glass2?4md3?$AA@ 100c0644     cg_main.obj
 0002:00021660       ??_C@_0BJ@LJDHLDFK@models?1shards?1glass1?4md3?$AA@ 100c0660     cg_main.obj
 0002:0002167c       ??_C@_0CK@EHMPLIPM@models?1weapons2?1machinegun?1mg42_@ 100c067c     cg_main.obj
 0002:000216a8       ??_C@_0CF@LDEJGIHE@models?1furniture?1barrel?1barrel_a@ 100c06a8     cg_main.obj
 0002:000216d0       ??_C@_0CF@DNMKLBMC@models?1multiplayer?1binocs?1binocs@ 100c06d0     cg_main.obj
 0002:000216f8       ??_C@_0BJ@DAFJJGIB@textures?1props?1cable_m01?$AA@ 100c06f8     cg_main.obj
 0002:00021714       ??_C@_08IJBDIACA@railCore?$AA@ 100c0714     cg_main.obj
 0002:00021720       ??_C@_0BA@CAHMIFDD@gfx?1hud?1ic_mute?$AA@ 100c0720     cg_main.obj
 0002:00021730       ??_C@_0BG@DMEMCOLN@gfx?1hud?1shoveObituary?$AA@ 100c0730     cg_main.obj
 0002:00021748       ??_C@_0BH@NNPPAPIF@gfx?1hud?1goombaObituary?$AA@ 100c0748     cg_main.obj
 0002:00021760       ??_C@_0BH@HNMPGIGF@gfx?1hud?1poisonObituary?$AA@ 100c0760     cg_main.obj
 0002:00021778       ??_C@_0BK@HDNOAPPI@gfx?1hud?1airstrikeObituary?$AA@ 100c0778     cg_main.obj
 0002:00021794       ??_C@_0BF@PPNHLMCN@gfx?1hud?1artyObituary?$AA@ 100c0794     cg_main.obj
 0002:000217ac       ??_C@_0BG@IIAFFMNK@gfx?1hud?1drownObituary?$AA@ 100c07ac     cg_main.obj
 0002:000217c4       ??_C@_0BG@LGCAPAEC@gfx?1hud?1crushObituary?$AA@ 100c07c4     cg_main.obj
 0002:000217dc       ??_C@_0BF@CMJAOKFL@gfx?1hud?1fallObituary?$AA@ 100c07dc     cg_main.obj
 0002:000217f4       ??_C@_0CF@MHBNDFJN@models?1players?1common?1specGlowWe@ 100c07f4     cg_main.obj
 0002:0002181c       ??_C@_0BP@EDDMLLJN@models?1players?1common?1specGlow?$AA@ 100c081c     cg_main.obj
 0002:0002183c       ??_C@_0BH@LENHDBLL@gfx?1limbo?1ic_lightweap?$AA@ 100c083c     cg_main.obj
 0002:00021854       ??_C@_0BH@CPINKAOE@gfx?1limbo?1ic_covertops?$AA@ 100c0854     cg_main.obj
 0002:0002186c       ??_C@_0BG@ICPONNNL@gfx?1limbo?1ic_fieldops?$AA@ 100c086c     cg_main.obj
 0002:00021884       ??_C@_0BG@FABPMAIC@gfx?1limbo?1ic_engineer?$AA@ 100c0884     cg_main.obj
 0002:0002189c       ??_C@_0BD@BMGFDN@gfx?1limbo?1ic_medic?$AA@ 100c089c     cg_main.obj
 0002:000218b0       ??_C@_0BF@LCBKBFCF@gfx?1limbo?1ic_soldier?$AA@ 100c08b0     cg_main.obj
 0002:000218c8       ??_C@_0BJ@CJLPDDD@gfx?1limbo?1ic_battlesense?$AA@ 100c08c8     cg_main.obj
 0002:000218e4       ??_C@_0BL@ICJBCDDA@gfx?1limbo?1mort_targetarrow?$AA@ 100c08e4     cg_main.obj
 0002:00021900       ??_C@_0BG@PCFKPFDL@gfx?1limbo?1mort_target?$AA@ 100c0900     cg_main.obj
 0002:00021918       ??_C@_0BD@CECILBHI@gfx?1limbo?1mort_hit?$AA@ 100c0918     cg_main.obj
 0002:0002192c       ??_C@_0BH@FCBOCGPF@gfx?1limbo?1cm_bo_allied?$AA@ 100c092c     cg_main.obj
 0002:00021944       ??_C@_0BF@EMMHEOAL@gfx?1limbo?1cm_bo_axis?$AA@ 100c0944     cg_main.obj
 0002:0002195c       ??_C@_0BH@CEODHNFN@gfx?1limbo?1cm_churchill?$AA@ 100c095c     cg_main.obj
 0002:00021974       ??_C@_0BG@OFIBGAJD@gfx?1limbo?1cm_dynamite?$AA@ 100c0974     cg_main.obj
 0002:0002198c       ??_C@_0BF@CPBLACBD@gfx?1limbo?1cm_satchel?$AA@ 100c098c     cg_main.obj
 0002:000219a4       ??_C@_0BI@IKIABIPC@gfx?1limbo?1cm_alliedgren?$AA@ 100c09a4     cg_main.obj
 0002:000219bc       ??_C@_0BG@NLLNGAOP@gfx?1limbo?1cm_axisgren?$AA@ 100c09bc     cg_main.obj
 0002:000219d4       ??_C@_0BJ@LNHMKKM@gfx?1limbo?1cm_constallied?$AA@ 100c09d4     cg_main.obj
 0002:000219f0       ??_C@_0BH@PHNDJKIA@gfx?1limbo?1cm_constaxis?$AA@ 100c09f0     cg_main.obj
 0002:00021a08       ??_C@_0CC@ODBAIDOF@ui?1assets?1mp_player_highlight?4tg@ 100c0a08     cg_main.obj
 0002:00021a2c       ??_C@_0BI@OJGLNDFB@ui?1assets2?1stamp_failed?$AA@ 100c0a2c     cg_main.obj
 0002:00021a44       ??_C@_0BK@JNOCONOE@ui?1assets2?1stamp_complete?$AA@ 100c0a44     cg_main.obj
 0002:00021a60       ??_C@_0BK@GPFPNCAF@gfx?1limbo?1filter_back_off?$AA@ 100c0a60     cg_main.obj
 0002:00021a7c       ??_C@_0BJ@IDKNKKLD@gfx?1limbo?1filter_back_on?$AA@ 100c0a7c     cg_main.obj
 0002:00021a98       ??_C@_0BL@MLEBDBNP@gfx?1limbo?1filter_objective?$AA@ 100c0a98     cg_main.obj
 0002:00021ab4       ??_C@_0BN@FAMJGALN@gfx?1limbo?1filter_destruction?$AA@ 100c0ab4     cg_main.obj
 0002:00021ad4       ??_C@_0BO@IBNPLBGI@gfx?1limbo?1filter_construction?$AA@ 100c0ad4     cg_main.obj
 0002:00021af4       ??_C@_0BM@MNCJNIFH@gfx?1limbo?1filter_healthammo?$AA@ 100c0af4     cg_main.obj
 0002:00021b10       ??_C@_0BE@BMAONEOE@gfx?1limbo?1filter_bo?$AA@ 100c0b10     cg_main.obj
 0002:00021b24       ??_C@_0BH@KPGHCMIL@gfx?1limbo?1filter_spawn?$AA@ 100c0b24     cg_main.obj
 0002:00021b3c       ??_C@_0BI@LLACNHNM@gfx?1limbo?1filter_allied?$AA@ 100c0b3c     cg_main.obj
 0002:00021b54       ??_C@_0BG@HCNGPDEH@gfx?1limbo?1filter_axis?$AA@ 100c0b54     cg_main.obj
 0002:00021b6c       ??_C@_0BF@ELCOMEEG@sprites?1uniform_axis?$AA@ 100c0b6c     cg_main.obj
 0002:00021b84       ??_C@_0BH@BKKEHKGK@sprites?1uniform_allied?$AA@ 100c0b84     cg_main.obj
 0002:00021b9c       ??_C@_0BK@NNHAJCMJ@textures?1sfx?1construction?$AA@ 100c0b9c     cg_main.obj
 0002:00021bb8       ??_C@_0N@FNPEPNEB@water_splash?$AA@ 100c0bb8     cg_main.obj
 0002:00021bc8       ??_C@_0M@KFHLBKLH@dirt_splash?$AA@ 100c0bc8     cg_main.obj
 0002:00021bd4       ??_C@_0O@IOMJAIEG@smokeParticle?$AA@ 100c0bd4     cg_main.obj
 0002:00021be4       ??_C@_09GCCHBIJK@lightBeam?$AA@ 100c0be4     cg_main.obj
 0002:00021bf0       ??_C@_09KHJKBKBD@spotLight?$AA@ 100c0bf0     cg_main.obj
 0002:00021bfc       ??_C@_0BD@GJKMDIBP@sparkFlareParticle?$AA@ 100c0bfc     cg_main.obj
 0002:00021c10       ??_C@_0O@HJBFNNNB@entityOnFire2?$AA@ 100c0c10     cg_main.obj
 0002:00021c20       ??_C@_0O@FCDIIOBC@entityOnFire1?$AA@ 100c0c20     cg_main.obj
 0002:00021c30       ??_C@_0BH@HMBAJDJB@flamethrowerFireStream?$AA@ 100c0c30     cg_main.obj
 0002:00021c48       ??_C@_0O@FPKBNHAB@sparkParticle?$AA@ 100c0c48     cg_main.obj
 0002:00021c58       ??_C@_0M@HPFFKMJA@waterSplash?$AA@ 100c0c58     cg_main.obj
 0002:00021c64       ??_C@_0BL@KJKOFMEH@models?1weaphits?1bullet?4md3?$AA@ 100c0c64     cg_main.obj
 0002:00021c80       ??_C@_0O@DGKLIACJ@sprites?1ready?$AA@ 100c0c80     cg_main.obj
 0002:00021c90       ??_C@_0BC@FDKNCPIH@sprites?1objective?$AA@ 100c0c90     cg_main.obj
 0002:00021ca4       ??_C@_0BA@BNICLINO@sprites?1nq_talk?$AA@ 100c0ca4     cg_main.obj
 0002:00021cb4       ??_C@_0BC@KDFCCGCA@sprites?1voiceChat?$AA@ 100c0cb4     cg_main.obj
 0002:00021cc8       ??_C@_0BA@ODBOJBAJ@sprites?1buyIcon?$AA@ 100c0cc8     cg_main.obj
 0002:00021cd8       ??_C@_0BB@KEMFJCAC@sprites?1poisoned?$AA@ 100c0cd8     cg_main.obj
 0002:00021cec       ??_C@_0BE@HDPGHJII@sprites?1resuscitate?$AA@ 100c0cec     cg_main.obj
 0002:00021d00       ??_C@_0BH@CBOKOPEC@gfx?1misc?1poisonoverlay?$AA@ 100c0d00     cg_main.obj
 0002:00021d18       ??_C@_0BF@GPJAGFPI@sprites?1medic_revive?$AA@ 100c0d18     cg_main.obj
 0002:00021d30       ??_C@_0O@KEBKJKIJ@sprites?1skull?$AA@ 100c0d30     cg_main.obj
 0002:00021d40       ??_C@_0P@MLNNMIBK@sprites?1shield?$AA@ 100c0d40     cg_main.obj
 0002:00021d50       ??_C@_0BK@DOMANFFP@models?1shards?1fabric3?4md3?$AA@ 100c0d50     cg_main.obj
 0002:00021d6c       ??_C@_0BK@PFJMAGPK@models?1shards?1fabric2?4md3?$AA@ 100c0d6c     cg_main.obj
 0002:00021d88       ??_C@_0BK@HDAIHEFE@models?1shards?1fabric1?4md3?$AA@ 100c0d88     cg_main.obj
 0002:00021da4       ??_C@_0BL@GGCBPMCI@models?1gibs?1wood?1wood6?4md3?$AA@ 100c0da4     cg_main.obj
 0002:00021dc0       ??_C@_0BL@OALFIOIG@models?1gibs?1wood?1wood5?4md3?$AA@ 100c0dc0     cg_main.obj
 0002:00021ddc       ??_C@_0BL@CLOJFNCD@models?1gibs?1wood?1wood4?4md3?$AA@ 100c0ddc     cg_main.obj
 0002:00021df8       ??_C@_0BL@DGOMGNJL@models?1gibs?1wood?1wood3?4md3?$AA@ 100c0df8     cg_main.obj
 0002:00021e14       ??_C@_0BL@PNLALODO@models?1gibs?1wood?1wood2?4md3?$AA@ 100c0e14     cg_main.obj
 0002:00021e30       ??_C@_0BL@HLCEMMJA@models?1gibs?1wood?1wood1?4md3?$AA@ 100c0e30     cg_main.obj
 0002:00021e4c       ??_C@_0CF@POADIIEG@models?1mapobjects?1debris?1rubble3@ 100c0e4c     cg_main.obj
 0002:00021e74       ??_C@_0CF@DFFPFLOD@models?1mapobjects?1debris?1rubble2@ 100c0e74     cg_main.obj
 0002:00021e9c       ??_C@_0CF@LDMLCJEN@models?1mapobjects?1debris?1rubble1@ 100c0e9c     cg_main.obj
 0002:00021ec4       ??_C@_0CE@MONBAAFE@models?1mapobjects?1debris?1brick6?4@ 100c0ec4     cg_main.obj
 0002:00021ee8       ??_C@_0CE@EIEFHCPK@models?1mapobjects?1debris?1brick5?4@ 100c0ee8     cg_main.obj
 0002:00021f0c       ??_C@_0CE@IDBJKBFP@models?1mapobjects?1debris?1brick4?4@ 100c0f0c     cg_main.obj
 0002:00021f30       ??_C@_0CE@JOBMJBOH@models?1mapobjects?1debris?1brick3?4@ 100c0f30     cg_main.obj
 0002:00021f54       ??_C@_0CE@FFEAECEC@models?1mapobjects?1debris?1brick2?4@ 100c0f54     cg_main.obj
 0002:00021f78       ??_C@_0CE@NDNEDAOM@models?1mapobjects?1debris?1brick1?4@ 100c0f78     cg_main.obj
 0002:00021f9c       ??_C@_0CE@JDLEMBBG@models?1weapons2?1shells?1sm_shell?4@ 100c0f9c     cg_main.obj
 0002:00021fc0       ??_C@_0CE@FPOMAJNG@models?1weapons2?1shells?1pf_shell?4@ 100c0fc0     cg_main.obj
 0002:00021fe4       ??_C@_0CD@LDBBEFLC@models?1weapons2?1shells?1m_shell?4m@ 100c0fe4     cg_main.obj
 0002:00022008       ??_C@_0CE@MECIFHJH@models?1mapobjects?1weapons?1mg42b?4@ 100c1008     cg_main.obj
 0002:0002202c       ??_C@_0CB@OLINGDJD@models?1multiplayer?1mg42?1mg42?4md3@ 100c102c     cg_main.obj
 0002:00022050       ??_C@_0BO@BLENFKPL@models?1ammo?1rocket?1rocket?4md3?$AA@ 100c1050     cg_main.obj
 0002:00022070       ??_C@_0CG@LMIFOMIB@models?1furniture?1chair?1sidechair@ 100c1070     cg_main.obj
 0002:00022098       ??_C@_0CD@OKACDBDG@models?1furniture?1chair?1hiback5?4m@ 100c1098     cg_main.obj
 0002:000220bc       ??_C@_0CJ@FBHFHJBH@models?1furniture?1chair?1chair_off@ 100c10bc     cg_main.obj
 0002:000220e8       ??_C@_0CH@GIMOJGLK@models?1multiplayer?1dogtags?1dogta@ 100c10e8     cg_main.obj
 0002:00022110       ??_C@_0CJ@PAIICAFA@models?1multiplayer?1flagpole?1flag@ 100c1110     cg_main.obj
 0002:0002213c       ??_C@_08FEKANNMB@?3models?3?$AA@ 100c113c     cg_main.obj
 0002:00022148       ??_C@_0BB@CBFILKAB@projectionshadow?$AA@ 100c1148     cg_main.obj
 0002:0002215c       ??_C@_0L@LCDEJIA@AxisHelmet?$AA@ 100c115c     cg_main.obj
 0002:00022168       ??_C@_0N@DHLNDEGJ@AlliedHelmet?$AA@ 100c1168     cg_main.obj
 0002:00022178       ??_C@_09PKGMFINC@sprintbar?$AA@ 100c1178     cg_main.obj
 0002:00022184       ??_C@_0BE@MEJHIMJO@gfx?12d?1colorbar?4tga?$AA@ 100c1184     cg_main.obj
 0002:00022198       ??_C@_0BE@LOHMNHDF@gfx?1limbo?1medals0?$CFi?$AA@ 100c1198     cg_main.obj
 0002:000221ac       ??_C@_0BH@DIFAAFML@gfx?12d?1crosshair?$CFc_alt?$AA@ 100c11ac     cg_main.obj
 0002:000221c4       ??_C@_0BD@PPPBDMEH@gfx?12d?1crosshair?$CFc?$AA@ 100c11c4     cg_main.obj
 0002:000221d8       ??_C@_0BC@NGBKOHJP@sprites?1buddy?4tga?$AA@ 100c11d8     cg_main.obj
 0002:000221ec       ??_C@_0BD@DMCCOECI@gfx?12d?1compass?4tga?$AA@ 100c11ec     cg_main.obj
 0002:00022200       ??_C@_0BE@JPJEBLB@gfx?12d?1compass2?4tga?$AA@ 100c1200     cg_main.obj
 0002:00022214       ??_C@_0BG@IDMCNPKN@gfx?1flags?1world_flags?$AA@ 100c1214     cg_main.obj
 0002:0002222c       ??_C@_0BG@EJAKANNE@sprites?1construct?4tga?$AA@ 100c122c     cg_main.obj
 0002:00022244       ??_C@_0BI@FFEFFHGP@gfx?1limbo?1cm_flagallied?$AA@ 100c1244     cg_main.obj
 0002:0002225c       ??_C@_0BG@PKAOLMKB@gfx?1limbo?1cm_flagaxis?$AA@ 100c125c     cg_main.obj
 0002:00022274       ??_C@_0BI@IFAJDIOG@sprites?1landmine_allied?$AA@ 100c1274     cg_main.obj
 0002:0002228c       ??_C@_0BG@FKOONCBP@sprites?1landmine_axis?$AA@ 100c128c     cg_main.obj
 0002:000222a4       ??_C@_0BM@FAEEBGFG@ui?1assets2?1maptrim_edge?4tga?$AA@ 100c12a4     cg_main.obj
 0002:000222c0       ??_C@_0BJ@IJDAAADP@ui?1assets2?1maptrim_long2?$AA@ 100c12c0     cg_main.obj
 0002:000222dc       ??_C@_0BI@CLPMIOBJ@ui?1assets2?1maptrim_long?$AA@ 100c12dc     cg_main.obj
 0002:000222f4       ??_C@_0BI@KCPDIIMP@levelshots?1automap_mask?$AA@ 100c12f4     cg_main.obj
 0002:0002230c       ??_C@_0BB@MKBOAADD@images?1blackmask?$AA@ 100c130c     cg_main.obj
 0002:00022320       ??_C@_0BJ@LKFBCLIF@levelshots?1?$CFs_cc_automap?$AA@ 100c1320     cg_main.obj
 0002:0002233c       ??_C@_0BH@MKFMNFBH@levelshots?1?$CFs_cc_trans?$AA@ 100c133c     cg_main.obj
 0002:00022354       ??_C@_0BM@CDMIGPHE@levelshots?1?$CFs_?$CFi_cc_automap?$AA@ 100c1354     cg_main.obj
 0002:00022370       ??_C@_0BK@GAAKEHBI@levelshots?1?$CFs_?$CFi_cc_trans?$AA@ 100c1370     cg_main.obj
 0002:0002238c       ??_C@_0BI@GNKOHODM@levelshots?1?$CFs_?$CFi_cc?4tga?$AA@ 100c138c     cg_main.obj
 0002:000223a4       ??_C@_0BD@MOPMECCM@gfx?12d?1uniformHint?$AA@ 100c13a4     cg_main.obj
 0002:000223b8       ??_C@_0BE@OALHMLIL@gfx?12d?1landmineHint?$AA@ 100c13b8     cg_main.obj
 0002:000223cc       ??_C@_0BJ@EEOCGPKA@gfx?12d?1satchelchargeHint?$AA@ 100c13cc     cg_main.obj
 0002:000223e8       ??_C@_0BA@HDEKHNIC@gfx?12d?1tankHint?$AA@ 100c13e8     cg_main.obj
 0002:000223f8       ??_C@_0BK@BKKDPLDL@gfx?12d?1reviveActivateHint?$AA@ 100c13f8     cg_main.obj
 0002:00022414       ??_C@_0BE@JFCHILCA@gfx?12d?1dynamiteHint?$AA@ 100c1414     cg_main.obj
 0002:00022428       ??_C@_0BC@PJBEBIGF@gfx?12d?1reviveHint?$AA@ 100c1428     cg_main.obj
 0002:0002243c       ??_C@_0BC@CEAFAOOH@gfx?12d?1disarmHint?$AA@ 100c143c     cg_main.obj
 0002:00022450       ??_C@_0BB@FMMBBMCA@gfx?12d?1buildHint?$AA@ 100c1450     cg_main.obj
 0002:00022464       ??_C@_0BJ@COICBODJ@gfx?12d?1friendlycross?4tga?$AA@ 100c1464     cg_main.obj
 0002:00022480       ??_C@_0BF@DOBKNOFD@gfx?12d?1inventoryHint?$AA@ 100c1480     cg_main.obj
 0002:00022498       ??_C@_0BD@KGKGMFD@gfx?12d?1powerupHint?$AA@ 100c1498     cg_main.obj
 0002:000224ac       ??_C@_0BD@DDFPJPHI@gfx?12d?1ammoboxHint?$AA@ 100c14ac     cg_main.obj
 0002:000224c0       ??_C@_0BC@LLJHJIEB@gfx?12d?1weaponHint?$AA@ 100c14c0     cg_main.obj
 0002:000224d4       ??_C@_0BB@MLMDMFFO@gfx?12d?1waterHint?$AA@ 100c14d4     cg_main.obj
 0002:000224e8       ??_C@_0BC@CBIFHIOE@gfx?12d?1buttonHint?$AA@ 100c14e8     cg_main.obj
 0002:000224fc       ??_C@_0BC@FNKJJMIE@gfx?12d?1ladderHint?$AA@ 100c14fc     cg_main.obj
 0002:00022510       ??_C@_0BB@OBGNGHKN@gfx?12d?1knifeHint?$AA@ 100c1510     cg_main.obj
 0002:00022524       ??_C@_0BC@BOANKHAB@gfx?12d?1healthHint?$AA@ 100c1524     cg_main.obj
 0002:00022538       ??_C@_0BB@HEJOPOOH@gfx?12d?1alarmHint?$AA@ 100c1538     cg_main.obj
 0002:0002254c       ??_C@_0BF@EMEOEKMJ@gfx?12d?1breakableHint?$AA@ 100c154c     cg_main.obj
 0002:00022564       ??_C@_0BA@BJGCGPOJ@gfx?12d?1mg42Hint?$AA@ 100c1564     cg_main.obj
 0002:00022574       ??_C@_0BC@OKGPBNNA@gfx?12d?1lockedhint?$AA@ 100c1574     cg_main.obj
 0002:00022588       ??_C@_0BG@BIKBLLHK@gfx?12d?1doorRotateHint?$AA@ 100c1588     cg_main.obj
 0002:000225a0       ??_C@_0BA@EIKOHFCG@gfx?12d?1doorHint?$AA@ 100c15a0     cg_main.obj
 0002:000225b0       ??_C@_0BF@KOOHEFFB@gfx?12d?1notUsableHint?$AA@ 100c15b0     cg_main.obj
 0002:000225c8       ??_C@_0BC@KMPKAMCH@gfx?12d?1usableHint?$AA@ 100c15c8     cg_main.obj
 0002:000225dc       ??_C@_0BA@LPLLBJPM@gfx?1misc?1tracer?$AA@ 100c15dc     cg_main.obj
 0002:000225ec       ??_C@_0M@OBGACBNG@waterBubble?$AA@ 100c15ec     cg_main.obj
 0002:000225f8       ??_C@_08EFPAKHKM@oilSlick?$AA@ 100c15f8     cg_main.obj
 0002:00022604       ??_C@_0M@FPAPAJFL@oilParticle?$AA@ 100c1604     cg_main.obj
 0002:00022610       ??_C@_08MDDEKELM@snow_tri?$AA@ 100c1610     cg_main.obj
 0002:0002261c       ??_C@_0BF@GPHHEHKC@gfx?1misc?1binocsimple?$AA@ 100c161c     cg_main.obj
 0002:00022634       ??_C@_0BH@LCBFCAPC@gfx?1misc?1reticlesimple?$AA@ 100c1634     cg_main.obj
 0002:0002264c       ??_C@_0L@LLCKKMKM@bloodTrail?$AA@ 100c164c     cg_main.obj
 0002:00022658       ??_C@_0BB@FPJBCPAO@shotgunSmokePuff?$AA@ 100c1658     cg_main.obj
 0002:0002266c       ??_C@_0BB@LHMIJHPJ@smokePuffRagePro?$AA@ 100c166c     cg_main.obj
 0002:00022680       ??_C@_0BA@BIOAGEFG@viewFlashFire?$CFi?$AA@ 100c1680     cg_main.obj
 0002:00022690       ??_C@_0BB@JKBPHODK@viewBloodBlend?$CFi?$AA@ 100c1690     cg_main.obj
 0002:000226a4       ??_C@_0BA@IBBGHBPE@smokePuffblack5?$AA@ 100c16a4     cg_main.obj
 0002:000226b4       ??_C@_0BA@JIANEALF@smokePuffblack4?$AA@ 100c16b4     cg_main.obj
 0002:000226c4       ??_C@_0BA@NHEMNGHC@smokePuffblack3?$AA@ 100c16c4     cg_main.obj
 0002:000226d4       ??_C@_0BA@MOFHOHDD@smokePuffblack2?$AA@ 100c16d4     cg_main.obj
 0002:000226e4       ??_C@_0BA@OFHKLEPA@smokePuffblack1?$AA@ 100c16e4     cg_main.obj
 0002:000226f4       ??_C@_0P@MDFMKMMN@smokePuffdirty?$AA@ 100c16f4     cg_main.obj
 0002:00022704       ??_C@_0L@EHBDBAED@bloodCloud?$AA@ 100c1704     cg_main.obj
 0002:00022710       ??_C@_09GPGLBPNG@smokePuff?$AA@ 100c1710     cg_main.obj
 0002:0002271c       ??_C@_0BF@PECIOAKL@fleshimpactsmokepuff?$AA@ 100c171c     cg_main.obj
 0002:00022734       ??_C@_0L@HHGCOCAD@?3textures?3?$AA@ 100c1734     cg_main.obj
 0002:00022740       ??_C@_0N@DPNOHCNA@?3game?5media?3?$AA@ 100c1740     cg_main.obj
 0002:00022750       ??_C@_0L@LAJBALHP@?3entities?3?$AA@ 100c1750     cg_main.obj
 0002:0002275c       ??_C@_0BC@OPNBDJHF@bind?5?$CFs?5?$CLattack2?6?$AA@ 100c175c     cg_main.obj
 0002:00022770       ??_C@_09POOEFFLG@?$FLweapalt?$FN?$AA@ 100c1770     cg_main.obj
 0002:0002277c       ??_C@_09HGFIOMKF@?3clients?3?$AA@ 100c177c     cg_main.obj
 0002:00022788       ??_C@_0O@HDLFLGDI@?3flamechunks?3?$AA@ 100c1788     cg_main.obj
 0002:00022798       ??_C@_0L@GJPCBBEJ@?3graphics?3?$AA@ 100c1798     cg_main.obj
 0002:000227a4       ??_C@_08EHHPDGBI@?3sounds?3?$AA@ 100c17a4     cg_main.obj
 0002:000227b0       ??_C@_0BA@KGFNKJPP@?3collision?5map?3?$AA@ 100c17b0     cg_main.obj
 0002:000227c0       ??_C@_0CF@BKJOONEF@Client?1Server?5game?5mismatch?3?5?8?$CFs@ 100c17c0     cg_main.obj
 0002:000227e8       ??_C@_0BA@EMBNJJHJ@Enemy?5Territory?$AA@ 100c17e8     cg_main.obj
 0002:000227f8       ??_C@_0BB@BHIIEMFI@autoexec_default?$AA@ 100c17f8     cg_main.obj
 0002:0002280c       ??_C@_0M@KMANJOPM@autoexec_?$CFs?$AA@ 100c180c     cg_main.obj
 0002:00022818       ??_C@_0CE@GPLJEOPF@Not?5logging?5client?5output?5to?5dis@ 100c1818     cg_main.obj
 0002:0002283c       ??_C@_0CJ@NBFDHJBA@?$FO3WARNING?3?5Couldn?8t?5open?5client?5@ 100c183c     cg_main.obj
 0002:00022868       ??_C@_0BI@EFKAEII@menu?1art?1font2_prop?4tga?$AA@ 100c1868     cg_main.obj
 0002:00022880       ??_C@_0BM@PPJDNIIP@menu?1art?1font1_prop_glo?4tga?$AA@ 100c1880     cg_main.obj
 0002:0002289c       ??_C@_0BI@JNLIGCIJ@menu?1art?1font1_prop?4tga?$AA@ 100c189c     cg_main.obj
 0002:000228b4       ??_C@_0BA@NHGEOFCN@gfx?12d?1hudchars?$AA@ 100c18b4     cg_main.obj
 0002:000228c8       __real@3ff5555560000000    100c18c8     cg_main.obj
 0002:000228d0       ??_C@_0BL@MDCOCEP@vmMain?3?5unknown?5command?5?$CFi?$AA@ 100c18d0     cg_main.obj
 0002:000228ec       ??_C@_0CE@JLCOIDNB@?$FO1unexpected?5token?5?8?$CFs?8?5inside?3?5@ 100c18ec     cg_missionbriefing.obj
 0002:00022910       ??_C@_0CF@HOPIBHEP@?$FO1unexpected?5end?5of?5file?5inside?3@ 100c1910     cg_missionbriefing.obj
 0002:00022938       ??_C@_05CIBCEEFB@maptc?$AA@ 100c1938     cg_missionbriefing.obj
 0002:00022940       ??_C@_0CL@EJLMOGOO@?$FO1too?5many?5maps?5for?5a?5campaign?5i@ 100c1940     cg_missionbriefing.obj
 0002:0002296c       ??_C@_04ILAGGJBN@maps?$AA@ 100c196c     cg_missionbriefing.obj
 0002:00022974       ??_C@_0M@PPJNHBMP@description?$AA@ 100c1974     cg_missionbriefing.obj
 0002:00022980       ??_C@_05NGOMGBBD@image?$AA@ 100c1980     cg_missionbriefing.obj
 0002:00022988       ??_C@_04CJGEDOF@next?$AA@  100c1988     cg_missionbriefing.obj
 0002:00022990       ??_C@_09PJCCCILH@shortname?$AA@ 100c1990     cg_missionbriefing.obj
 0002:0002299c       ??_C@_0BG@BJEIGKLP@?$FO1file?5not?5found?3?5?$CFs?6?$AA@ 100c199c     cg_missionbriefing.obj
 0002:000229b4       ??_C@_0O@FEFCNDNP@mapposition_y?$AA@ 100c19b4     cg_missionbriefing.obj
 0002:000229c4       ??_C@_0O@ENEJOCJO@mapposition_x?$AA@ 100c19c4     cg_missionbriefing.obj
 0002:000229d4       ??_C@_0M@MLOEBFK@axiswintext?$AA@ 100c19d4     cg_missionbriefing.obj
 0002:000229e0       ??_C@_0O@BCGNL@alliedwintext?$AA@ 100c19e0     cg_missionbriefing.obj
 0002:000229f0       ??_C@_08PLKIGCGP@briefing?$AA@ 100c19f0     cg_missionbriefing.obj
 0002:000229fc       ??_C@_0M@MNBCHEID@lmsbriefing?$AA@ 100c19fc     cg_missionbriefing.obj
 0002:00022a08       ??_C@_0BC@IPILKBDN@AlliedRespawnTime?$AA@ 100c1a08     cg_missionbriefing.obj
 0002:00022a1c       ??_C@_0BA@LHGEJANH@AxisRespawnTime?$AA@ 100c1a1c     cg_missionbriefing.obj
 0002:00022a2c       ??_C@_09OACHOJPC@Timelimit?$AA@ 100c1a2c     cg_missionbriefing.obj
 0002:00022a38       ??_C@_03HBNNNHNM@map?$AA@  100c1a38     cg_missionbriefing.obj
 0002:00022a3c       ??_C@_08JJAPLNHH@longname?$AA@ 100c1a3c     cg_missionbriefing.obj
 0002:00022a48       ??_C@_04GPMDFGEJ@type?$AA@ 100c1a48     cg_missionbriefing.obj
 0002:00022a50       ??_C@_0L@GJJFINGI@objectives?$AA@ 100c1a50     cg_missionbriefing.obj
 0002:00022a5c       ??_C@_08IDJEBFOJ@scripts?1?$AA@ 100c1a5c     cg_missionbriefing.obj
 0002:00022a68       ??_C@_07OMEBBDEO@scripts?$AA@ 100c1a68     cg_missionbriefing.obj
 0002:00022a70       ??_C@_09IBJHOELC@?4campaign?$AA@ 100c1a70     cg_missionbriefing.obj
 0002:00022a7c       ??_C@_0CA@FMCCEFFN@Invalid?5mission?9popup?5type?3?5?$CFd?6?$AA@ 100c1a7c     cg_missionmessages.obj
 0002:00022a9c       ??_C@_0BK@DOECDEKJ@?$FO7?$CFs?$CFs?5captured?5the?5flag?$CB?$AA@ 100c1a9c     cg_missionmessages.obj
 0002:00022ab8       ??_C@_0BJ@OBLFDPBG@?$FO7?$CFs?$CFs?5has?5secured?5?$CFs?$CFs?$CB?$AA@ 100c1ab8     cg_missionmessages.obj
 0002:00022ad4       ??_C@_0BE@KCAIAILK@?$CFs?$CFs?$CFs?5is?5returned?$CB?$AA@ 100c1ad4     cg_missionmessages.obj
 0002:00022ae8       ??_C@_0BK@PEILBJMC@?$FO7?$CFs?$CFs?5has?5returned?5?$CFs?$CFs?$CB?$AA@ 100c1ae8     cg_missionmessages.obj
 0002:00022b04       ??_C@_0BI@HNBJHDJF@?$FO7?$CFs?$CFs?5has?5stolen?5?$CFs?$CFs?$CB?$AA@ 100c1b04     cg_missionmessages.obj
 0002:00022b1c       ??_C@_0BC@DBFEHJLJ@?$CFsSpotted?5by?5?$FO7?$CFs?$AA@ 100c1b1c     cg_missionmessages.obj
 0002:00022b30       ??_C@_0BK@MLEPHAFA@?$CFsSpotted?5by?5?$FO7?$CFs?$CFs?5at?5?$CFs?$AA@ 100c1b30     cg_missionmessages.obj
 0002:00022b4c       ??_C@_0BH@DECIALMK@?$CFs?$CFs?5has?5been?5damaged?4?$AA@ 100c1b4c     cg_missionmessages.obj
 0002:00022b64       ??_C@_0BJ@PLLEKCGC@?$CFs?$CFs?5has?5been?5destroyed?4?$AA@ 100c1b64     cg_missionmessages.obj
 0002:00022b80       ??_C@_0CB@PMHENMJK@?$CFs?$CFs?5has?5been?5damaged?5by?5?$FO7?$CFs?$CFs?4@ 100c1b80     cg_missionmessages.obj
 0002:00022ba4       ??_C@_0CD@EMIGOMNE@?$CFs?$CFs?5has?5been?5destroyed?5by?5?$FO7?$CFs?$CF@ 100c1ba4     cg_missionmessages.obj
 0002:00022bc8       ??_C@_0CF@IJOKJMLN@?$CFs?$CFs?5has?5been?5constructed?5by?5?$FO7?$CF@ 100c1bc8     cg_missionmessages.obj
 0002:00022bf0       ??_C@_0CC@KAPCAGLA@?$CFs?$CFs?5has?5been?5repaired?5by?5?$FO7?$CFs?$CFs@ 100c1bf0     cg_missionmessages.obj
 0002:00022c14       ??_C@_0BL@JOJMMEPK@?$CFsPlanted?5at?5?$CFs?5by?5?$FO7?$CFs?$CFs?4?$AA@ 100c1c14     cg_missionmessages.obj
 0002:00022c30       ??_C@_0BL@FIIMCPAB@?$CFsDefused?5at?5?$CFs?5by?5?$FO7?$CFs?$CFs?4?$AA@ 100c1c30     cg_missionmessages.obj
 0002:00022c4c       ??_C@_0CA@CBKOMADA@axis_hq_dynamite_planted_allies?$AA@ 100c1c4c     cg_missionmessages.obj
 0002:00022c6c       ??_C@_0BL@OCDGBJA@allies_hq_dynamite_planted?$AA@ 100c1c6c     cg_missionmessages.obj
 0002:00022c88       ??_C@_0CA@ECABNEHH@allies_hq_dynamite_planted_axis?$AA@ 100c1c88     cg_missionmessages.obj
 0002:00022ca8       ??_C@_0BJ@DFHEAGEP@axis_hq_dynamite_planted?$AA@ 100c1ca8     cg_missionmessages.obj
 0002:00022cc4       ??_C@_0CA@GICEJPHF@axis_hq_dynamite_defused_allies?$AA@ 100c1cc4     cg_missionmessages.obj
 0002:00022ce4       ??_C@_0BL@PEKILFAA@allies_hq_dynamite_defused?$AA@ 100c1ce4     cg_missionmessages.obj
 0002:00022d00       ??_C@_0CA@DJACCAPP@allies_hq_dynamite_defused_axis?$AA@ 100c1d00     cg_missionmessages.obj
 0002:00022d20       ??_C@_0BJ@MPPPNCNP@axis_hq_dynamite_defused?$AA@ 100c1d20     cg_missionmessages.obj
 0002:00022d3c       ??_C@_0BG@CNCIHAFG@axis_hq_mines_spotted?$AA@ 100c1d3c     cg_missionmessages.obj
 0002:00022d54       ??_C@_0BI@INOHOADK@allies_hq_mines_spotted?$AA@ 100c1d54     cg_missionmessages.obj
 0002:00022d6c       ??_C@_0BK@GLJDLIHO@allies_hq_objective_taken?$AA@ 100c1d6c     cg_missionmessages.obj
 0002:00022d88       ??_C@_0BI@FCNEKPFO@axis_hq_objective_taken?$AA@ 100c1d88     cg_missionmessages.obj
 0002:00022da0       ??_C@_0BL@IEDPGKLD@allies_hq_objective_secure?$AA@ 100c1da0     cg_missionmessages.obj
 0002:00022dbc       ??_C@_0BJ@LPGIANGM@axis_hq_objective_secure?$AA@ 100c1dbc     cg_missionmessages.obj
 0002:00022dd8       ??_C@_0BE@POFFIAFP@cl_bypassmouseinput?$AA@ 100c1dd8     cg_newDraw.obj
 0002:00022dec       ??_C@_0BE@HPGFAKLO@cl_bypassMouseInput?$AA@ 100c1dec     cg_newDraw.obj
 0002:00022e00       ??_C@_0BA@GIBCAHCF@blacksmokeanimc?$AA@ 100c1e00     cg_particles.obj
 0002:00022e10       ??_C@_07KKEPOJHD@twiltb2?$AA@ 100c1e10     cg_particles.obj
 0002:00022e18       ??_C@_04MDMPPDAB@?$CFs?$CFi?$AA@ 100c1e18     cg_particles.obj
 0002:00022e20       __real@3f733333            100c1e20     cg_particles.obj
 0002:00022e24       __real@38d1b717            100c1e24     cg_particles.obj
 0002:00022e28       __real@3f7ff972            100c1e28     cg_particles.obj
 0002:00022e30       __real@3ff6a09e60000000    100c1e30     cg_particles.obj
 0002:00022e38       __real@40b0000000000000    100c1e38     cg_particles.obj
 0002:00022e40       __real@3e6b851f            100c1e40     cg_particles.obj
 0002:00022e44       __real@3e8f5c29            100c1e44     cg_particles.obj
 0002:00022e48       __real@3ed70a3d            100c1e48     cg_particles.obj
 0002:00022e4c       __real@49800000            100c1e4c     cg_particles.obj
 0002:00022e50       __real@c1200000            100c1e50     cg_particles.obj
 0002:00022e54       ??_C@_0CI@CKGHJCDF@CG_ParticleSnowFlurry?5pshader?5?$DN?$DN@ 100c1e54     cg_particles.obj
 0002:00022e7c       __real@c2480000            100c1e7c     cg_particles.obj
 0002:00022e80       ??_C@_0BL@MLDGCJII@CG_ParticleSmoke?5?$DN?$DN?5ZERO?$CB?6?$AA@ 100c1e80     cg_particles.obj
 0002:00022e9c       __real@c3a50000            100c1e9c     cg_particles.obj
 0002:00022ea0       ??_C@_0DE@LHPJKLJP@CG_ParticleExplosion?3?5unknown?5an@ 100c1ea0     cg_particles.obj
 0002:00022ed4       __real@43000000            100c1ed4     cg_particles.obj
 0002:00022ed8       ??_C@_0CN@HAOPCKBM@CG_ParticleImpactSmokePuff?5pshad@ 100c1ed8     cg_particles.obj
 0002:00022f08       ??_C@_0CC@KJEJNONH@CG_Particle_OilParticle?5?$DN?$DN?5ZERO?$CB@ 100c1f08     cg_particles.obj
 0002:00022f30       __real@3fe199999999999a    100c1f30     cg_particles.obj
 0002:00022f38       ??_C@_0BP@LFCJGJJN@CG_Particle_OilSlick?5?$DN?$DN?5ZERO?$CB?6?$AA@ 100c1f38     cg_particles.obj
 0002:00022f58       ??_C@_0BL@DDKPPMGF@CG_OilSlickRevove?5NULL?5id?6?$AA@ 100c1f58     cg_particles.obj
 0002:00022f74       __real@42c00000            100c1f74     cg_particles.obj
 0002:00022f78       __real@40ab580000000000    100c1f78     cg_particles.obj
 0002:00022f80       ??_C@_0O@PANPLFGH@Anim?3?5?$CFi?0?5?$CFs?6?$AA@ 100c1f80     cg_players.obj
 0002:00022f90       ??_C@_0DD@MKKOIFIN@CG_SetLerpFrameAnimation?3?5Bad?5an@ 100c1f90     cg_players.obj
 0002:00022fc4       ??_C@_0BF@IBAKKNBL@Clamp?5lf?9?$DOframeTime?6?$AA@ 100c1fc4     cg_players.obj
 0002:00022fdc       ??_C@_0DH@BOCJJPIN@CG_SetLerpFrameAnimationRate?3?5Ba@ 100c1fdc     cg_players.obj
 0002:00023018       __real@3ff999999999999a    100c2018     cg_players.obj
 0002:00023020       __real@3ff199999999999a    100c2020     cg_players.obj
 0002:00023028       ??_C@_06HLPIKOFJ@strafe?$AA@ 100c2028     cg_players.obj
 0002:00023030       __real@41c80000            100c2030     cg_players.obj
 0002:00023038       __real@3fa99999a0000000    100c2038     cg_players.obj
 0002:00023040       __real@40b7700000000000    100c2040     cg_players.obj
 0002:00023048       __real@4003333340000000    100c2048     cg_players.obj
 0002:00023050       __real@40ac200000000000    100c2050     cg_players.obj
 0002:00023058       __real@40d51eb8            100c2058     cg_players.obj
 0002:00023060       __real@3f60000000000000    100c2060     cg_players.obj
 0002:00023068       ??_C@_0BN@FBGKFBHK@?$CFi?5ResetPlayerEntity?5yaw?$DN?$CFf?6?$AA@ 100c2068     cg_players.obj
 0002:00023088       ??_C@_0DL@KGJAOBHN@Bad?5animation?5number?5?$CICG_SetHudH@ 100c2088     cg_players.obj
 0002:000230c4       ??_C@_0DL@JODFKAOI@Type?3?5?$FO3ref?$FO7?5?$CIby?5itself?$CJ?5for?5a?5@ 100c20c4     cg_players.obj
 0002:00023100       ??_C@_0DK@MOIEMNDF@?$FLcgnotify?$FN?$FO2?$CK?$CK?$CK?5You?5have?5been?5au@ 100c2100     cg_players.obj
 0002:0002313c       ??_C@_07LFPJDPHN@referee?$AA@ 100c213c     cg_players.obj
 0002:00023144       ??_C@_04CLKJCJJE@rcon?$AA@ 100c2144     cg_players.obj
 0002:00023150       ??_C@_0EE@BCIEAPOF@?$FLcgnotify?$FN?$FO3?$CK?$CK?$CK?5You?5have?5been?5st@ 100c2150     cg_players.obj
 0002:00023194       ??_C@_0BA@JEMBFLOI@cg_ui_voteFlags?$AA@ 100c2194     cg_players.obj
 0002:000231a4       ??_C@_09NKLPMEMA@voteFlags?$AA@ 100c21a4     cg_players.obj
 0002:000231b0       ??_C@_0BP@OOFAKGNN@You?5have?5been?5rewarded?5with?5?$CFs?$AA@ 100c21b0     cg_players.obj
 0002:000231d0       ??_C@_0BL@OHIPOAHF@Reached?5?$CFs?5skill?5level?5?$CFi?$CB?$AA@ 100c21d0     cg_players.obj
 0002:000231ec       ??_C@_0BF@INJBIDGO@Promoted?5to?5rank?5?$CFs?$CB?$AA@ 100c21ec     cg_players.obj
 0002:00023204       ??_C@_0M@CFPBMJLI@tag_weapon2?$AA@ 100c2204     cg_players.obj
 0002:00023210       ??_C@_09BJAHCGKI@tag_ubelt?$AA@ 100c2210     cg_players.obj
 0002:0002321c       ??_C@_09LFHDCPDM@tag_bleft?$AA@ 100c221c     cg_players.obj
 0002:00023228       ??_C@_0L@DFCFAAMB@tag_bright?$AA@ 100c2228     cg_players.obj
 0002:00023234       ??_C@_0L@FGMMEJDC@tag_weapon?$AA@ 100c2234     cg_players.obj
 0002:00023240       ??_C@_09MCCGJPLJ@r_lodbias?$AA@ 100c2240     cg_players.obj
 0002:00023250       __real@4036000000000000    100c2250     cg_players.obj
 0002:00023258       __real@c020000000000000    100c2258     cg_players.obj
 0002:00023260       ??_C@_0P@CDEPIMHD@r_dynamicLight?$AA@ 100c2260     cg_players.obj
 0002:00023270       __real@4122000000000000    100c2270     cg_players.obj
 0002:00023278       __real@49100000            100c2278     cg_players.obj
 0002:00023280       __real@4102000000000000    100c2280     cg_players.obj
 0002:00023288       __real@48100000            100c2288     cg_players.obj
 0002:00023290       __real@403f000000000000    100c2290     cg_players.obj
 0002:00023298       ??_C@_09FNMDCDOI@spectator?$AA@ 100c2298     cg_playerstate.obj
 0002:000232a4       ??_C@_06GAIGKJMK@allies?$AA@ 100c22a4     cg_playerstate.obj
 0002:000232b0       __real@40dc520000000000    100c22b0     cg_playerstate.obj
 0002:000232b8       __real@40dd4c0000000000    100c22b8     cg_playerstate.obj
 0002:000232c0       ??_C@_0O@FFEMEIHA@Impersonation?$AA@ 100c22c0     cg_popupmessages.obj
 0002:000232d0       ??_C@_0BF@LOMCPLAM@Enemy?5Communications?$AA@ 100c22d0     cg_popupmessages.obj
 0002:000232e8       ??_C@_0BH@MJDHNCGP@Recognition?5Disruption?$AA@ 100c22e8     cg_popupmessages.obj
 0002:00023300       ??_C@_0BC@OEPDFIGC@Stealthy?5Movement?$AA@ 100c2300     cg_popupmessages.obj
 0002:00023314       ??_C@_0BD@NDLHAGEI@Improved?5Disguises?$AA@ 100c2314     cg_popupmessages.obj
 0002:00023328       ??_C@_08GJEPMMPC@Backstab?$AA@ 100c2328     cg_popupmessages.obj
 0002:00023334       ??_C@_0BC@NHKMPPOK@Improved?5Accuracy?$AA@ 100c2334     cg_popupmessages.obj
 0002:00023348       ??_C@_0CK@OBFJMLOK@Improved?5use?5of?5Sabotage?5and?5Mis@ 100c2348     cg_popupmessages.obj
 0002:00023374       ??_C@_0BP@JMEDEINM@Extra?5Scoped?5Weapon?5Ammunition?$AA@ 100c2374     cg_popupmessages.obj
 0002:00023394       ??_C@_0BK@HBHAGOCC@Advanced?5Weapons?5Training?$AA@ 100c2394     cg_popupmessages.obj
 0002:000233b0       ??_C@_0BG@FEAIBOBP@Improved?5Flamethrower?$AA@ 100c23b0     cg_popupmessages.obj
 0002:000233c8       ??_C@_0BN@NFFKBFHL@Additional?5Heavy?5Weapon?5Ammo?$AA@ 100c23c8     cg_popupmessages.obj
 0002:000233e8       ??_C@_0BL@GMMJMIEJ@Improved?5Machine?5Gun?5Usage?$AA@ 100c23e8     cg_popupmessages.obj
 0002:00023404       ??_C@_0M@CPAIAKCO@SMG?5Sidearm?$AA@ 100c2404     cg_popupmessages.obj
 0002:00023410       ??_C@_0BJ@OIGAOEGJ@Increased?5Movement?5Speed?$AA@ 100c2410     cg_popupmessages.obj
 0002:0002342c       ??_C@_0BE@HMAMPBB@Reduced?5Overheating?$AA@ 100c242c     cg_popupmessages.obj
 0002:00023440       ??_C@_0BO@LOAHNOID@Extra?5Heavy?5Weapon?5Ammunition?$AA@ 100c2440     cg_popupmessages.obj
 0002:00023460       ??_C@_0BB@EGEDKBGC@Pistol?5Execution?$AA@ 100c2460     cg_popupmessages.obj
 0002:00023474       ??_C@_0P@JAHOJDCD@Knife?5Throwing?$AA@ 100c2474     cg_popupmessages.obj
 0002:00023484       ??_C@_0P@MCFBODGF@Poison?5Needles?$AA@ 100c2484     cg_popupmessages.obj
 0002:00023494       ??_C@_0CD@DIPPLDAN@Additional?5Light?5Weapon?5Ammuniti@ 100c2494     cg_popupmessages.obj
 0002:000234b8       ??_C@_0BI@KFILIJDL@Faster?5Weapon?5Switching?$AA@ 100c24b8     cg_popupmessages.obj
 0002:000234d0       ??_C@_0BD@CFPKBIHE@Dual?9Wield?5Pistols?$AA@ 100c24d0     cg_popupmessages.obj
 0002:000234e4       ??_C@_0BP@LCMOPNOC@Improved?5Light?5Weapon?5Handling?$AA@ 100c24e4     cg_popupmessages.obj
 0002:00023504       ??_C@_0O@NCOIBJDK@Faster?5Reload?$AA@ 100c2504     cg_popupmessages.obj
 0002:00023514       ??_C@_0BO@ILGPOABI@Extra?5Light?5Weapon?5Ammunition?$AA@ 100c2514     cg_popupmessages.obj
 0002:00023534       ??_C@_0BA@MBAGNAPH@Signals?5Level?59?$AA@ 100c2534     cg_popupmessages.obj
 0002:00023544       ??_C@_0BD@KJGGAKHN@Advanced?5Resources?$AA@ 100c2544     cg_popupmessages.obj
 0002:00023558       ??_C@_0BD@MJDIPBHO@Ammo?5Pack?5Delivery?$AA@ 100c2558     cg_popupmessages.obj
 0002:0002356c       ??_C@_0BB@MOICHBHG@Ammo?5Information?$AA@ 100c256c     cg_popupmessages.obj
 0002:00023580       ??_C@_0P@EDIBKHOB@Inspire?5Morale?$AA@ 100c2580     cg_popupmessages.obj
 0002:00023590       ??_C@_0BC@GKCBBFPG@Enemy?5Recognition?$AA@ 100c2590     cg_popupmessages.obj
 0002:000235a4       ??_C@_0CA@KAJFEBK@Improved?5Air?5and?5Ground?5Support?$AA@ 100c25a4     cg_popupmessages.obj
 0002:000235c4       ??_C@_0BB@JOANDJJH@Improved?5Signals?$AA@ 100c25c4     cg_popupmessages.obj
 0002:000235d8       ??_C@_0BK@KHOPPIPA@Battlefield?5Resuscitation?$AA@ 100c25d8     cg_popupmessages.obj
 0002:000235f4       ??_C@_0BI@NKELJMKI@Improved?5Poison?5Needles?$AA@ 100c25f4     cg_popupmessages.obj
 0002:0002360c       ??_C@_0BF@MFGBLMDP@Health?5Pack?5Delivery?$AA@ 100c260c     cg_popupmessages.obj
 0002:00023624       ??_C@_0N@GBCHPJHO@Full?5Payload?$AA@ 100c2624     cg_popupmessages.obj
 0002:00023634       ??_C@_0BF@GEHELENO@Improved?5Health?5Care?$AA@ 100c2634     cg_popupmessages.obj
 0002:0002364c       ??_C@_0BA@DCINFALJ@Adrenaline?5Self?$AA@ 100c264c     cg_popupmessages.obj
 0002:0002365c       ??_C@_0M@MIMCGBLI@Full?5Revive?$AA@ 100c265c     cg_popupmessages.obj
 0002:00023668       ??_C@_0BD@GLPFLLJI@Improved?5Resources?$AA@ 100c2668     cg_popupmessages.obj
 0002:0002367c       ??_C@_0BA@KGNBMGIG@Additional?5Ammo?$AA@ 100c267c     cg_popupmessages.obj
 0002:0002368c       ??_C@_0BE@NFAMHGBE@Engineering?5Level?59?$AA@ 100c268c     cg_popupmessages.obj
 0002:000236a0       ??_C@_0BG@EKDLDKMB@Faster?5Rifle?5Grenades?$AA@ 100c26a0     cg_popupmessages.obj
 0002:000236b8       ??_C@_0CG@NMLHNGFJ@Advanced?5Construction?5and?5Demoli@ 100c26b8     cg_popupmessages.obj
 0002:000236e0       ??_C@_0BN@OHENLCIG@Advanced?5Arming?5and?5Defusing?$AA@ 100c26e0     cg_popupmessages.obj
 0002:00023700       ??_C@_0BI@EGDIHADP@Advanced?5Weapon?5Cooling?$AA@ 100c2700     cg_popupmessages.obj
 0002:00023718       ??_C@_0O@MJFAOBKK@A?5Flak?5Jacket?$AA@ 100c2718     cg_popupmessages.obj
 0002:00023728       ??_C@_0CG@CKBIJKLL@Improved?5Construction?5and?5Demoli@ 100c2728     cg_popupmessages.obj
 0002:00023750       ??_C@_0BL@ODAABJCM@Faster?5Arming?5and?5Defusing?$AA@ 100c2750     cg_popupmessages.obj
 0002:0002376c       ??_C@_0CA@CGELDAEO@Additional?5Explosive?5Ammunition?$AA@ 100c276c     cg_popupmessages.obj
 0002:0002378c       ??_C@_0BF@KBAKHJLM@Battlefield?5Briefing?$AA@ 100c278c     cg_popupmessages.obj
 0002:000237a4       ??_C@_0BB@DGHBNOIM@Danger?5Awareness?$AA@ 100c27a4     cg_popupmessages.obj
 0002:000237b8       ??_C@_0BE@HBOOOEKA@Dynamite?5Prediction?$AA@ 100c27b8     cg_popupmessages.obj
 0002:000237cc       ??_C@_0BH@FJBNIOMN@Improved?5Lung?5Capacity?$AA@ 100c27cc     cg_popupmessages.obj
 0002:000237e4       ??_C@_0BA@MHFNOILH@Steel?5Toe?5Boots?$AA@ 100c27e4     cg_popupmessages.obj
 0002:000237f4       ??_C@_0P@PEBBAIDE@Trap?5Awareness?$AA@ 100c27f4     cg_popupmessages.obj
 0002:00023804       ??_C@_0BA@OJHDIFHK@Improved?5Health?$AA@ 100c2804     cg_popupmessages.obj
 0002:00023814       ??_C@_0BK@HJHBJIKL@Improved?5Physical?5Fitness?$AA@ 100c2814     cg_popupmessages.obj
 0002:00023830       ??_C@_0BE@NPDEIPIN@gfx?1hud?1pm_mineaxis?$AA@ 100c2830     cg_popupmessages.obj
 0002:00023844       ??_C@_0BG@NDKEHION@gfx?1hud?1pm_mineallied?$AA@ 100c2844     cg_popupmessages.obj
 0002:0002385c       ??_C@_0BF@DJOGHBGN@gfx?1hud?1pm_constaxis?$AA@ 100c285c     cg_popupmessages.obj
 0002:00023874       ??_C@_0BH@NHNPLCMI@gfx?1hud?1pm_constallied?$AA@ 100c2874     cg_popupmessages.obj
 0002:0002388c       ??_C@_0BA@FHKDOPHN@sprites?1destroy?$AA@ 100c288c     cg_popupmessages.obj
 0002:0002389c       ??_C@_0BB@DKPBLCIE@gfx?1hud?1pm_death?$AA@ 100c289c     cg_popupmessages.obj
 0002:000238b0       ??_C@_0BD@OFEAMFKN@gfx?1limbo?1dynamite?$AA@ 100c28b0     cg_popupmessages.obj
 0002:000238c4       ??_C@_0BI@JLLMCFFD@Invalid?5popup?5type?3?5?$CFd?6?$AA@ 100c28c4     cg_popupmessages.obj
 0002:000238dc       __real@43a70000            100c28dc     cg_popupmessages.obj
 0002:000238e0       __real@3e75c28f            100c28e0     cg_popupmessages.obj
 0002:000238e8       __real@405a800000000000    100c28e8     cg_popupmessages.obj
 0002:000238f0       __real@438b0000            100c28f0     cg_popupmessages.obj
 0002:000238f4       ??_C@_0BK@CDEPIBJL@?$CFs?$FO7?5has?5joined?5the?5?$CFs?$FO7?$CB?$AA@ 100c28f4     cg_popupmessages.obj
 0002:00023910       ??_C@_09KKBCBLAJ@Axis?5team?$AA@ 100c2910     cg_popupmessages.obj
 0002:0002391c       ??_C@_0M@DHILCDCN@Allied?5team?$AA@ 100c291c     cg_popupmessages.obj
 0002:00023928       ??_C@_0L@CMACAMIL@Spectators?$AA@ 100c2928     cg_popupmessages.obj
 0002:00023934       ??_C@_0BC@PCIHDBAN@?$CFs?$FO7?5disconnected?$AA@ 100c2934     cg_popupmessages.obj
 0002:00023948       ??_C@_0BH@HBLMMOFK@?$CFs?5has?5been?5destroyed?4?$AA@ 100c2948     cg_popupmessages.obj
 0002:00023960       ??_C@_0BB@LKJLPELH@You?5are?5near?5?$CFs?6?$AA@ 100c2960     cg_predict.obj
 0002:00023974       ??_C@_02NCPIBIBE@33?$AA@   100c2974     cg_predict.obj
 0002:00023978       __real@4f800000            100c2978     cg_scoreboard.obj
 0002:0002397c       ??_C@_01OMGOGALD@u?$AA@    100c297c     cg_scoreboard.obj
 0002:00023980       ??_C@_0N@JLCLOMJK@MAP?5?$CFi?5of?5?$CFi?$AA@ 100c2980     cg_scoreboard.obj
 0002:00023990       ??_C@_0BA@EIKKDCAI@?$CFs?5?$CFi?5?5?$CFs?5?$CFi?9?$CFi?$AA@ 100c2990     cg_scoreboard.obj
 0002:000239a0       ??_C@_05MHBKONGD@ROUND?$AA@ 100c29a0     cg_scoreboard.obj
 0002:000239a8       ??_C@_05PKDFAPGJ@SCORE?$AA@ 100c29a8     cg_scoreboard.obj
 0002:000239b0       ??_C@_0BA@FMLAACLM@STOPWATCH?5ROUND?$AA@ 100c29b0     cg_scoreboard.obj
 0002:000239c0       ??_C@_0BA@JLOPALAB@REINFORCE?5TIME?3?$AA@ 100c29c0     cg_scoreboard.obj
 0002:000239d0       ??_C@_0BA@NDCKCABB@?$CFs?5?5?5?$CF2?40f?3?$CFi?$CFi?$AA@ 100c29d0     cg_scoreboard.obj
 0002:000239e0       ??_C@_0O@CAPCMBJM@MISSION?5TIME?3?$AA@ 100c29e0     cg_scoreboard.obj
 0002:000239f0       ??_C@_0N@CBLEOBI@SUDDEN?5DEATH?$AA@ 100c29f0     cg_scoreboard.obj
 0002:00023a00       ??_C@_06LLIEIDDF@WARMUP?$AA@ 100c2a00     cg_scoreboard.obj
 0002:00023a08       __real@41a80000            100c2a08     cg_scoreboard.obj
 0002:00023a0c       ??_C@_0O@KEIODBOP@?$CFs?5?$CF2?40f?3?$CFi?$CFi?$AA@ 100c2a0c     cg_scoreboard.obj
 0002:00023a1c       ??_C@_0BD@CCIHEBDE@MISSION?5TIME?5LEFT?3?$AA@ 100c2a1c     cg_scoreboard.obj
 0002:00023a30       __real@4072e00000000000    100c2a30     cg_scoreboard.obj
 0002:00023a38       __real@438e8000            100c2a38     cg_scoreboard.obj
 0002:00023a3c       ??_C@_04GMBAOFPN@?5BOT?$AA@ 100c2a3c     cg_scoreboard.obj
 0002:00023a44       ??_C@_08LMBJPKD@?$FO1CONN?$FO7?$AA@ 100c2a44     cg_scoreboard.obj
 0002:00023a50       ??_C@_06IKCMCODM@?$FO3SPEC?$AA@ 100c2a50     cg_scoreboard.obj
 0002:00023a58       ??_C@_06BGIFMONA@?$FO1CONN?$AA@ 100c2a58     cg_scoreboard.obj
 0002:00023a60       ??_C@_06FLAHKMMH@?5?$FO4BOT?$AA@ 100c2a60     cg_scoreboard.obj
 0002:00023a68       ??_C@_04CAGGOBLG@SPEC?$AA@ 100c2a68     cg_scoreboard.obj
 0002:00023a70       ??_C@_04PBAHKAFB@CONN?$AA@ 100c2a70     cg_scoreboard.obj
 0002:00023a78       ??_C@_0CF@IEIABOGC@models?1multiplayer?1treasure?1trea@ 100c2a78     cg_scoreboard.obj
 0002:00023aa0       ??_C@_0BI@GFDBJJBJ@CLOCK?5IS?5NOW?5SET?5TO?5?$CFs?$CB?$AA@ 100c2aa0     cg_scoreboard.obj
 0002:00023ab8       __real@41880000            100c2ab8     cg_scoreboard.obj
 0002:00023abc       __real@3ea0a0a1            100c2abc     cg_scoreboard.obj
 0002:00023ac0       ??_C@_04CPBFGEOK@Ping?$AA@ 100c2ac0     cg_scoreboard.obj
 0002:00023ac8       ??_C@_07KOEOALPP@?$CFs?5?$FO3?$CFs?$AA@ 100c2ac8     cg_scoreboard.obj
 0002:00023ad0       ??_C@_0BA@IEAPIPGJ@?$CFs?5?$FL?$CFd?$FN?5?$CI?$CFd?5?$CFs?$CJ?$AA@ 100c2ad0     cg_scoreboard.obj
 0002:00023ae0       __real@43ac8000            100c2ae0     cg_scoreboard.obj
 0002:00023ae4       ??_C@_0DJ@PBDIJFOB@CG_ParseTeamInfo?3?5numSortedTeamP@ 100c2ae4     cg_servercmds.obj
 0002:00023b20       ??_C@_0CI@LALCPHLD@CG_ParseTeamInfo?3?5bad?5client?5num@ 100c2b20     cg_servercmds.obj
 0002:00023b48       ??_C@_0M@DKNJHPLK@maps?1?$CFs?4bsp?$AA@ 100c2b48     cg_servercmds.obj
 0002:00023b54       ??_C@_02DCIILGAN@SL?$AA@   100c2b54     cg_servercmds.obj
 0002:00023b58       ??_C@_02KMALJLID@SB?$AA@   100c2b58     cg_servercmds.obj
 0002:00023b5c       ??_C@_02LFBAKKMC@SC?$AA@   100c2b5c     cg_servercmds.obj
 0002:00023b60       ??_C@_02MIGHFOIH@SF?$AA@   100c2b60     cg_servercmds.obj
 0002:00023b64       ??_C@_02ODEKANEE@SE?$AA@   100c2b64     cg_servercmds.obj
 0002:00023b68       ??_C@_02CLJDIHEM@SM?$AA@   100c2b68     cg_servercmds.obj
 0002:00023b6c       ??_C@_02PPNCLIJD@SS?$AA@   100c2b6c     cg_servercmds.obj
 0002:00023b70       ??_C@_05OMLAJBCP@FCV?$CFi?$AA@ 100c2b70     cg_servercmds.obj
 0002:00023b78       ??_C@_03IKNANCPO@NUM?$AA@  100c2b78     cg_servercmds.obj
 0002:00023b7c       ??_C@_06NBPFBOED@SVCV?$CFi?$AA@ 100c2b7c     cg_servercmds.obj
 0002:00023b84       ??_C@_01NFFPALBN@Y?$AA@    100c2b84     cg_servercmds.obj
 0002:00023b88       ??_C@_01MMEEDKFM@X?$AA@    100c2b88     cg_servercmds.obj
 0002:00023b8c       ??_C@_02KDKICELI@MC?$AA@   100c2b8c     cg_servercmds.obj
 0002:00023b90       ??_C@_02NONPNAPN@MF?$AA@   100c2b90     cg_servercmds.obj
 0002:00023b94       ??_C@_02PFPCIDDO@ME?$AA@   100c2b94     cg_servercmds.obj
 0002:00023b98       ??_C@_02DNCLAJDG@MM?$AA@   100c2b98     cg_servercmds.obj
 0002:00023b9c       ??_C@_02OJGKDGOJ@MS?$AA@   100c2b9c     cg_servercmds.obj
 0002:00023ba0       ??_C@_02EPINMGPM@DH?$AA@   100c2ba0     cg_servercmds.obj
 0002:00023ba4       ??_C@_0P@MHHKHPJG@?$CFi?5?$CFi?5?$CFi?5?$CFi?5?$CFi?$AA@ 100c2ba4     cg_servercmds.obj
 0002:00023bb4       ??_C@_01GLPGHMHM@z?$AA@    100c2bb4     cg_servercmds.obj
 0002:00023bb8       ??_C@_01EANLCPLP@y?$AA@    100c2bb8     cg_servercmds.obj
 0002:00023bbc       ??_C@_01FJMABOPO@x?$AA@    100c2bbc     cg_servercmds.obj
 0002:00023bc0       ??_C@_01EFFIKLCJ@n?$AA@    100c2bc0     cg_servercmds.obj
 0002:00023bc4       ??_C@_01MCMALHOG@a?$AA@    100c2bc4     cg_servercmds.obj
 0002:00023bc8       ??_C@_01PFHFFBPC@t?$AA@    100c2bc8     cg_servercmds.obj
 0002:00023bcc       ??_C@_09DHNEGLIK@Auto?5Pick?$AA@ 100c2bcc     cg_servercmds.obj
 0002:00023bd8       ??_C@_01JLIPDDHJ@?3?$AA@   100c2bd8     cg_servercmds.obj
 0002:00023bdc       ??_C@_01MHEDDDHA@v?$AA@    100c2bdc     cg_servercmds.obj
 0002:00023be0       ??_C@_01KBJDNOO@i?$AA@     100c2be0     cg_servercmds.obj
 0002:00023be4       ??_C@_0P@INMLCMIF@con_notifytime?$AA@ 100c2be4     cg_servercmds.obj
 0002:00023bf4       ??_C@_0DE@LFCGMCMO@?$FO1expected?5gender?5not?5found?5in?5v@ 100c2bf4     cg_servercmds.obj
 0002:00023c28       ??_C@_0CO@KLAJGEFK@?$FO1Expected?5?$HL?5found?5?$CFs?5in?5voice?5c@ 100c2c28     cg_servercmds.obj
 0002:00023c58       ??_C@_06GHFJMDBL@neuter?$AA@ 100c2c58     cg_servercmds.obj
 0002:00023c60       ??_C@_04ICKCIGNO@male?$AA@ 100c2c60     cg_servercmds.obj
 0002:00023c68       ??_C@_06GJLDEJIL@female?$AA@ 100c2c68     cg_servercmds.obj
 0002:00023c70       ??_C@_0DK@HALCFDOE@?$FO1voice?5chat?5file?5too?5large?3?5?$CFs?5@ 100c2c70     cg_servercmds.obj
 0002:00023cac       ??_C@_0CB@LCNFPPPE@?$FO1voice?5chat?5file?5not?5found?3?5?$CFs?6@ 100c2cac     cg_servercmds.obj
 0002:00023cd0       ??_C@_0DI@PAEBNOEE@?4?4?4?5?$CFi?5total?5voice?5chat?5entries?5@ 100c2cd0     cg_servercmds.obj
 0002:00023d08       ??_C@_0EG@EPKECLI@?4?4?4?5?$CFi?5allies?5voice?5chat?5entries@ 100c2d08     cg_servercmds.obj
 0002:00023d50       ??_C@_0ED@LEHIDMLN@?4?4?4?5?$CFi?5axis?5voice?5chat?5entries?5l@ 100c2d50     cg_servercmds.obj
 0002:00023d94       ??_C@_0BN@BGBDIELK@scripts?1wm_allies_chat?4voice?$AA@ 100c2d94     cg_servercmds.obj
 0002:00023db4       ??_C@_0BL@NJEEKLLI@scripts?1wm_axis_chat?4voice?$AA@ 100c2db4     cg_servercmds.obj
 0002:00023dd0       ??_C@_0BC@DHKAAGFO@?$FLskipnotify?$FN?3?5?$CFs?6?$AA@ 100c2dd0     cg_servercmds.obj
 0002:00023de4       ??_C@_0P@HCEMCFBJ@?$CFs?$CFc?$CFc?3?5?$CFc?$CFc?$CFs?$AA@ 100c2de4     cg_servercmds.obj
 0002:00023df4       ??_C@_0BH@BGFPIIM@?$DM?$CFs?$FO7?$DO?$CFc?$CFc?$DM?$CFs?$DO?3?5?$CFc?$CFc?$CFs?$AA@ 100c2df4     cg_servercmds.obj
 0002:00023e0c       ??_C@_0BF@KEBLJNMD@?$CI?$CFs?$FO7?$CJ?$FO3?$CI?$CFs?$CJ?$FO7?3?$FO?$CFc?$CFs?$AA@ 100c2e0c     cg_servercmds.obj
 0002:00023e24       ??_C@_05FELMEPPK@?$FLlof?$FN?$AA@ 100c2e24     cg_servercmds.obj
 0002:00023e2c       ??_C@_05FKKPBOEC@?$FLlon?$FN?$AA@ 100c2e2c     cg_servercmds.obj
 0002:00023e34       ??_C@_0BN@EIBMAJEK@?$CF?912s?5?$CF5?41f?5?$CF4d?1?$CF?94d?5?$CF5d?5?5?$CFs?$AA@ 100c2e34     cg_servercmds.obj
 0002:00023e54       ??_C@_0N@GGFNGINO@?$CF?915s?5?$CF3d?5?$CFs?$AA@ 100c2e54     cg_servercmds.obj
 0002:00023e64       ??_C@_0BC@PPPAMKMN@?$CF?915s?5?$CF3d?5?$CFs?5?$CF12d?$AA@ 100c2e64     cg_servercmds.obj
 0002:00023e78       ??_C@_08CAJOJKFH@?$CF4d?1?$CF?94d?$AA@ 100c2e78     cg_servercmds.obj
 0002:00023e84       ??_C@_08BOEOJPFG@?$CF?913s?5?$CFd?$AA@ 100c2e84     cg_servercmds.obj
 0002:00023e90       ??_C@_0DG@MEJIMMFF@Hit?5Regions?5?3?5Head?3?$CF?93d?5Arms?3?$CF?93@ 100c2e90     cg_servercmds.obj
 0002:00023ec8       ??_C@_0CE@LHCDHPAJ@KillingSpree?3?5?$CF?96d?5?5?5Best?5spree?3@ 100c2ec8     cg_servercmds.obj
 0002:00023eec       ??_C@_0BB@PIGAPJDM@Damage?5Recvd?3?5?$CFd?$AA@ 100c2eec     cg_servercmds.obj
 0002:00023f00       ??_C@_0DD@CMLPIKML@Damage?5Given?3?5?$CF?96d?5?5Team?5Damage?3@ 100c2f00     cg_servercmds.obj
 0002:00023f34       ??_C@_0M@MCGGGMJH@?$CFs?$CF5d?5?$CF6d?$CFs?$AA@ 100c2f34     cg_servercmds.obj
 0002:00023f40       ??_C@_04EFNLAIFG@?5?$CF9d?$AA@ 100c2f40     cg_servercmds.obj
 0002:00023f48       ??_C@_0BA@GADPLLLA@?$CF5?41f?5?$CF4d?1?$CF?94d?5?$AA@ 100c2f48     cg_servercmds.obj
 0002:00023f58       ??_C@_0BB@FHAPCDKO@?5?5?5?5?5?5?5?5?5?5?5?5?5?5?5?5?$AA@ 100c2f58     cg_servercmds.obj
 0002:00023f6c       ??_C@_07EFKFEGCG@?$CF?912s?5?5?$AA@ 100c2f6c     cg_servercmds.obj
 0002:00023f74       ??_C@_0P@PBPDCLEL@?$CF?914s?5?$FO3?$CF?912s?6?$AA@ 100c2f74     cg_servercmds.obj
 0002:00023f84       ??_C@_0BG@KHIIFNGB@?$CF?914s?5?$FO3?$CF?912s?5?5?$FO2?$CF6d?6?$AA@ 100c2f84     cg_servercmds.obj
 0002:00023f9c       ??_C@_07DONLOGLK@?$CFd?5?$CI?$CFd?$CJ?$AA@ 100c2f9c     cg_servercmds.obj
 0002:00023fa4       ??_C@_0L@MCNIHCHF@?$CFd?5?$CI?$CFd?1?$CFd?$CJ?$AA@ 100c2fa4     cg_servercmds.obj
 0002:00023fb0       ??_C@_0BH@EHDCEAMH@?$FO3No?5skills?5acquired?$CB?6?$AA@ 100c2fb0     cg_servercmds.obj
 0002:00023fc8       ??_C@_0BP@LHJFKCEL@?9?9?9?9?9?9?9?9?9?9?9?9?9?9?9?9?9?9?9?9?9?9?9?9?9?9?9?$CFs?6?$AA@ 100c2fc8     cg_servercmds.obj
 0002:00023fe8       ??_C@_08GGNFKEJM@?9?9?9?9?9?9?9?9?$AA@ 100c2fe8     cg_servercmds.obj
 0002:00023ff4       ??_C@_0BP@JECOMPGA@Skills?5?5?5?5?5?5?5?5?5Level?1Points?$CFs?6?$AA@ 100c2ff4     cg_servercmds.obj
 0002:00024014       ??_C@_08LFGDNIGO@?5?5Medals?$AA@ 100c3014     cg_servercmds.obj
 0002:00024020       ??_C@_0BH@CGIIIGNI@?6?$FO2Rank?3?5?$FO7?$CFs?5?$CI?$CFd?5XP?$CJ?6?$AA@ 100c3020     cg_servercmds.obj
 0002:00024038       ??_C@_03EGHOKNNL@?6?6?6?$AA@ 100c3038     cg_servercmds.obj
 0002:0002403c       ??_C@_0BG@DBPDDBHP@?$FO3Damage?5Recvd?3?5?$FO7?$CFd?6?$AA@ 100c303c     cg_servercmds.obj
 0002:00024054       ??_C@_0CO@OIEMDKGD@?6?$FO3Damage?5Given?3?5?$FO7?$CF?96d?5?5?$FO3Team?5@ 100c3054     cg_servercmds.obj
 0002:00024084       ??_C@_02PHMGELLB@?6?6?$AA@ 100c3084     cg_servercmds.obj
 0002:00024088       ??_C@_0BB@OKMNELME@?$CFs?$FO2?$CF3d?5?$FO1?$CF3d?$CFs?6?$AA@ 100c3088     cg_servercmds.obj
 0002:0002409c       ??_C@_06MMLJHCJN@?5?$FO3?$CF2d?$AA@ 100c309c     cg_servercmds.obj
 0002:000240a4       ??_C@_0BB@FFDNHPJH@?$CFs?$FO2?$CF5d?5?$FO1?$CF6d?$CFs?6?$AA@ 100c30a4     cg_servercmds.obj
 0002:000240b8       ??_C@_06MAOMJNHM@?5?$FO3?$CF9d?$AA@ 100c30b8     cg_servercmds.obj
 0002:000240c0       ??_C@_0BE@ECNNIDIA@?$FO7?$CF5?41f?5?$FO5?$CF4d?1?$CF?94d?5?$AA@ 100c30c0     cg_servercmds.obj
 0002:000240d4       ??_C@_08OHFALEJJ@?$FO3?$CF?99s?3?5?$AA@ 100c30d4     cg_servercmds.obj
 0002:000240e0       ??_C@_0BN@CGNKOEGN@?$FO3No?5weapon?5info?5available?4?6?$AA@ 100c30e0     cg_servercmds.obj
 0002:00024100       ??_C@_01EEMJAFIK@?6?$AA@   100c3100     cg_servercmds.obj
 0002:00024104       ??_C@_0CH@EOMPGDKD@Weapon?5?5?5?5?5Acrcy?5Hits?1Atts?5Kll?5D@ 100c3104     cg_servercmds.obj
 0002:0002412c       ??_C@_0DD@POLPKMBJ@?9?9?9?9?9?9?9?9?9?9?9?9?9?9?9?9?9?9?9?9?9?9?9?9?9?9?9?9?9?9?9?9@ 100c312c     cg_servercmds.obj
 0002:00024160       ??_C@_0DD@MAPELJFA@Weapon?5?5?5?5?5Acrcy?5Hits?1Atts?5Kills@ 100c3160     cg_servercmds.obj
 0002:00024194       ??_C@_0CO@ICPENOAD@?$FO7Overall?5stats?5for?3?5?$FO3?$CFs?5?$FO7?$CI?$FO2?$CF@ 100c3194     cg_servercmds.obj
 0002:000241c4       ??_C@_0CM@DNOGNGFO@?$FO3?$CF?94s?5?$FO7?$CF5?41f?5?$FO5?$CF4d?1?$CF?94d?5?$FO2?$CF3d?5@ 100c31c4     cg_servercmds.obj
 0002:000241f0       ??_C@_0CN@JOICENMC@?$FO3?$CF?911s?5?$FO7?$CF5?41f?5?$FO5?$CF4d?1?$CF?94d?5?$FO2?$CF5d@ 100c31f0     cg_servercmds.obj
 0002:00024220       ??_C@_0CA@NKFMDELC@?$FO3WP?5?5?5Acrcy?5Hits?1Atts?5Kll?5Dth?6?$AA@ 100c3220     cg_servercmds.obj
 0002:00024240       ??_C@_0EG@CFEMLEBO@?9?9?9?9?9?9?9?9?9?9?9?9?9?9?9?9?9?9?9?9?9?9?9?9?9?9?9?9?9?9?9?9@ 100c3240     cg_servercmds.obj
 0002:00024288       ??_C@_0CN@MKMPEKPA@?6?$FO3WP?5?5?5?5?5?5?5?5?5?5Acrcy?5Hits?1Atts?5K@ 100c3288     cg_servercmds.obj
 0002:000242b8       ??_C@_0BI@HMKGBNFF@?$FO2?$CFs?5Match?5Accuracies?3?6?$AA@ 100c32b8     cg_servercmds.obj
 0002:000242d0       ??_C@_05FEDMGGBL@WORST?$AA@ 100c32d0     cg_servercmds.obj
 0002:000242d8       ??_C@_04HAJKDHN@BEST?$AA@  100c32d8     cg_servercmds.obj
 0002:000242e0       ??_C@_0CI@LELDAIDC@?$FO3No?5qualifying?5?$CFsshot?5info?5avai@ 100c32e0     cg_servercmds.obj
 0002:00024308       ??_C@_06PMMPCIPB@bottom?$AA@ 100c3308     cg_servercmds.obj
 0002:00024310       ??_C@_03FGFCOCMD@top?$AA@  100c3310     cg_servercmds.obj
 0002:00024314       ??_C@_0CF@HOAEHKLD@?$CFs?$CF5?41f?5?$FO5?$CF4d?1?$CF?94d?5?$FO2?$CF5d?5?$FO1?$CF6d?5?$CF@ 100c3314     cg_servercmds.obj
 0002:0002433c       ??_C@_02JCPHEAGH@?$FO3?$AA@ 100c333c     cg_servercmds.obj
 0002:00024340       __real@3feff7ced916872b    100c3340     cg_servercmds.obj
 0002:00024348       ??_C@_0CG@MAJBCCHL@NO?5QUALIFYING?5WEAPON?5INFO?5AVAILA@ 100c3348     cg_servercmds.obj
 0002:00024370       ??_C@_0DM@LEMGKOFF@?9?9?9?9?9?9?9?9?9?9?9?9?9?9?9?9?9?9?9?9?9?9?9?9?9?9?9?9?9?9?9?9@ 100c3370     cg_servercmds.obj
 0002:000243ac       ??_C@_0CB@BOANCFHA@?6?$FO3?5?5Acc?5Hits?1Atts?5Kills?5Deaths?6@ 100c33ac     cg_servercmds.obj
 0002:000243d0       ??_C@_0BN@JMLPADNG@Weapon?5accuracies?5for?3?5?$FO3?$CFs?6?$AA@ 100c33d0     cg_servercmds.obj
 0002:000243f0       ??_C@_07NFANNNEC@UNKNOWN?$AA@ 100c33f0     cg_servercmds.obj
 0002:000243f8       ??_C@_0CL@MHOFLFC@?$FLcgnotify?$FN?6?$FO3?$DO?$DO?$DO?5Stats?5recorded?5@ 100c33f8     cg_servercmds.obj
 0002:00024424       ??_C@_0DA@KHDDACC@?6Stats?5recorded?3?5?$CF02d?3?$CF02d?3?$CF02d?5@ 100c3424     cg_servercmds.obj
 0002:00024454       ??_C@_0BK@FLONGNIO@?$FLcgnotify?$FN?6?$FO3?$DO?$DO?$DO?5?$CFs?3?5?$CFs?6?6?$AA@ 100c3454     cg_servercmds.obj
 0002:00024470       ??_C@_0BJ@PJLJBNNH@Could?5not?5create?5logfile?$AA@ 100c3470     cg_servercmds.obj
 0002:0002448c       ??_C@_0CE@PGLOCCOK@stats?1?$CFd?4?$CF02d?4?$CF02d?1?$CF02d?$CF02d?$CF02d?4@ 100c348c     cg_servercmds.obj
 0002:000244b0       ??_C@_0BB@FEJDKKLJ@?$FO3?$DO?$DO?$DO?5?$CFs?3?5?$FO2?$CFs?6?6?$AA@ 100c34b0     cg_servercmds.obj
 0002:000244c4       ??_C@_03NBOPHIOC@Map?$AA@  100c34c4     cg_servercmds.obj
 0002:000244c8       ??_C@_0BB@JEAEHNAJ@bindsearch_r?5?$CFs?6?$AA@ 100c34c8     cg_servercmds.obj
 0002:000244dc       ??_C@_0O@FFJPNGBF@key?5?$CFs?5?$DN?$DO?5?$CFs?6?$AA@ 100c34dc     cg_servercmds.obj
 0002:000244ec       ??_C@_0CJ@IAMNKBNC@?$FO3All?5players?5ready?$CB?$FO7?6Match?5sta@ 100c34ec     cg_servercmds.obj
 0002:00024518       ??_C@_0CK@JCLCJGND@?$FO3All?5players?5ready?$CB?$FO7?6Match?5sta@ 100c3518     cg_servercmds.obj
 0002:00024544       ??_C@_06DOEGFMGC@FIGHT?$CB?$AA@ 100c3544     cg_servercmds.obj
 0002:00024550       ??_C@_0EE@MDGLANHB@ERROR?3?5CG_ConfigStringModified?3?5@ 100c3550     cg_servercmds.obj
 0002:00024594       ??_C@_0CB@KPHIIGNM@Unknown?5client?5game?5command?3?5?$CFs?6@ 100c3594     cg_servercmds.obj
 0002:000245b8       ??_C@_0BE@FKJCALKC@?$FO3Server?5Restarting?$AA@ 100c35b8     cg_servercmds.obj
 0002:000245cc       ??_C@_0CE@BCDLPHN@?$FLcgnotify?$FN?$CK?$CK?$CK?5?$FO3ANNOUNCEMENT?3?5?$FO5@ 100c35cc     cg_servercmds.obj
 0002:000245f0       ??_C@_0M@EEJILCDB@onetimeonly?$AA@ 100c35f0     cg_servercmds.obj
 0002:000245fc       ??_C@_0BA@NHDKLCNO@?$CI?$CFs?$FO7?$CJ?$FO3?$CI?$CFs?$CJ?3?$CFs?$AA@ 100c35fc     cg_servercmds.obj
 0002:0002460c       ??_C@_0BD@ILLBOAMI@connect_filter?3?5?$CFs?$AA@ 100c360c     cg_servercmds.obj
 0002:00024620       ??_C@_0O@HFMIFLKD@?5disconnected?$AA@ 100c3620     cg_servercmds.obj
 0002:00024630       ??_C@_0L@JIHNLGCE@?5connected?$AA@ 100c3630     cg_servercmds.obj
 0002:0002463c       ??_C@_0BM@EKMMIHP@?$FLcgnotify?$FN?$CK?$CK?$CK?5?$FO3INFO?3?5?$FO5?$CFs?6?$AA@ 100c363c     cg_servercmds.obj
 0002:00024658       ??_C@_04HDOCAJNK@?$CFs?$CFs?$AA@ 100c3658     cg_servercmds.obj
 0002:00024660       ??_C@_0BG@MDAEOELP@getgs?5?$CFi?5?$CFi?5?$CFi?5?$CFi?5?$CFi?6?$AA@ 100c3660     cg_servercmds.obj
 0002:00024678       ??_C@_09BOIBCPC@r_oldMode?$AA@ 100c3678     cg_snapshot.obj
 0002:00024684       ??_C@_0CI@JDFDPIEH@CG_TransitionSnapshot?3?5NULL?5cg?4n@ 100c3684     cg_snapshot.obj
 0002:000246ac       ??_C@_0CE@BCLPNDDL@CG_TransitionSnapshot?3?5NULL?5cg?4s@ 100c36ac     cg_snapshot.obj
 0002:000246d0       ??_C@_0EF@CKIGFPMC@?$FLskipnotify?$FNWARNING?3?5CG_ReadNext@ 100c36d0     cg_snapshot.obj
 0002:00024718       ??_C@_0DI@NCDIEGIG@CG_ProcessSnapshots?3?5cg?4nextSnap@ 100c3718     cg_snapshot.obj
 0002:00024750       ??_C@_0CF@EPBFNJFD@CG_ProcessSnapshots?3?5cg?4snap?5?$DN?$DN?5@ 100c3750     cg_snapshot.obj
 0002:00024778       ??_C@_0DA@GODLLJKJ@CG_ProcessSnapshots?3?5Server?5time@ 100c3778     cg_snapshot.obj
 0002:000247a8       ??_C@_0CO@FFJEMNFE@CG_ProcessSnapshots?3?5n?5?$DM?5cg?4late@ 100c37a8     cg_snapshot.obj
 0002:000247d8       ??_C@_06JBKGCNBB@Delete?$AA@ 100c37d8     cg_sound.obj
 0002:000247e0       ??_C@_06FMBNCPDL@Cancel?$AA@ 100c37e0     cg_sound.obj
 0002:000247e8       ??_C@_02PNHBFOHM@Ok?$AA@   100c37e8     cg_sound.obj
 0002:000247ec       ??_C@_06PODHNFME@Range?3?$AA@ 100c37ec     cg_sound.obj
 0002:000247f4       ??_C@_07JIJHLOCJ@Volume?3?$AA@ 100c37f4     cg_sound.obj
 0002:000247fc       ??_C@_07PILAENIE@Random?3?$AA@ 100c37fc     cg_sound.obj
 0002:00024804       ??_C@_05MLJLJOJC@Wait?3?$AA@ 100c3804     cg_sound.obj
 0002:0002480c       ??_C@_0BA@IOEGDCCK@no?$AAglobal?$AAnopvs?$AA@ 100c380c     cg_sound.obj
 0002:0002481c       ??_C@_0L@CNGLAPLA@Broadcast?3?$AA@ 100c381c     cg_sound.obj
 0002:00024828       ??_C@_09DDJCDPP@no?$AAon?$AAoff?$AA@ 100c3828     cg_sound.obj
 0002:00024834       ??_C@_07PPOOCMMM@Looped?3?$AA@ 100c3834     cg_sound.obj
 0002:0002483c       ??_C@_0M@FEMKDKIP@Targetname?3?$AA@ 100c383c     cg_sound.obj
 0002:00024848       ??_C@_06JBIFONG@Noise?3?$AA@ 100c3848     cg_sound.obj
 0002:00024850       ??_C@_0DG@GPHEKCLO@?$FO1Unable?5to?5locate?5a?5valid?5sound@ 100c3850     cg_sound.obj
 0002:00024888       ??_C@_0DI@BAJMNJOC@?$FO3Warning?3?5trap_S_RegisterSound?$CI@ 100c3888     cg_sound.obj
 0002:000248c0       ??_C@_0EC@DLBJDFDN@?$FO3WARNING?3?5CG_SoundPlaySoundScri@ 100c38c0     cg_sound.obj
 0002:00024904       ??_C@_0CJ@FLCLIBFG@?4?4?4?5?$CFs?5loaded?5?9?5total?5script?5sou@ 100c3904     cg_sound.obj
 0002:00024930       ??_C@_0EI@NHHAHIIE@?$FO1Too?5many?5sounds?5for?5soundscrip@ 100c3930     cg_sound.obj
 0002:00024978       ??_C@_07EOMMFHON@looping?$AA@ 100c3978     cg_sound.obj
 0002:00024980       ??_C@_09BHGOACKE@streaming?$AA@ 100c3980     cg_sound.obj
 0002:0002498c       ??_C@_04HAPDLBFF@auto?$AA@ 100c398c     cg_sound.obj
 0002:00024994       ??_C@_04NHONDGDE@item?$AA@ 100c3994     cg_sound.obj
 0002:0002499c       ??_C@_05JMBBACAO@voice?$AA@ 100c399c     cg_sound.obj
 0002:000249a4       ??_C@_04IEJGKNJ@body?$AA@  100c39a4     cg_sound.obj
 0002:000249ac       ??_C@_09JAFDDHI@announcer?$AA@ 100c39ac     cg_sound.obj
 0002:000249b8       ??_C@_05IDKHKMLA@local?$AA@ 100c39b8     cg_sound.obj
 0002:000249c0       ??_C@_07MFOHDNMP@channel?$AA@ 100c39c0     cg_sound.obj
 0002:000249c8       ??_C@_0CL@NMNHDCGD@?$FO1?8?$CFs?8?5unexpected?5after?5sound?5?$CFs@ 100c39c8     cg_sound.obj
 0002:000249f4       ??_C@_0DP@JOLHDNHE@?$FO1MAX_SOUND_SCRIPTS?5exceeded?4?6Re@ 100c39f4     cg_sound.obj
 0002:00024a34       ??_C@_0CK@KGNMGOPB@?$FO1?8?$HN?8?5unexpected?5after?5sound?5?$CFs?0@ 100c3a34     cg_sound.obj
 0002:00024a60       ??_C@_0EF@LELALCOG@?$FO1MAX_SOUND_SCRIPT_SOUNDS?5exceed@ 100c3a60     cg_sound.obj
 0002:00024aa8       ??_C@_0DB@OCDGFDML@?$FO1?8?$HL?8?5found?5but?5not?5expected?0?5af@ 100c3aa8     cg_sound.obj
 0002:00024adc       ??_C@_0CK@KBKKMKHN@?$FO1No?5concluding?5?8?$HN?8?5in?5sound?5?$CFs?0@ 100c3adc     cg_sound.obj
 0002:00024b08       ??_C@_0DF@HMJAPMMD@?4?4?4?5?$CFi?5sound?5scripts?5files?5loade@ 100c3b08     cg_sound.obj
 0002:00024b40       ??_C@_0BD@ELCILMEC@?$FO1Couldn?8t?5load?5?$CFs?$AA@ 100c3b40     cg_sound.obj
 0002:00024b54       ??_C@_0BB@CMGKPEDA@sound?1scripts?1?$CFs?$AA@ 100c3b54     cg_sound.obj
 0002:00024b68       ??_C@_0CB@KILKHIHA@?$FO3WARNING?3?5no?5sound?5files?5found?6@ 100c3b68     cg_sound.obj
 0002:00024b8c       ??_C@_09BFPGABBG@?$CFs?4sounds?$AA@ 100c3b8c     cg_sound.obj
 0002:00024b98       ??_C@_0DD@NAIFDPCG@?$FO1?$CFs?5is?5too?5big?0?5make?5it?5smaller@ 100c3b98     cg_sound.obj
 0002:00024bd0       ??_C@_0EL@IOEHKPLE@?$FO1WARNING?3?5no?5sound?5files?5found?5@ 100c3bd0     cg_sound.obj
 0002:00024c1c       ??_C@_0BL@NCGKKDPD@sound?1scripts?1filelist?4txt?$AA@ 100c3c1c     cg_sound.obj
 0002:00024c38       ??_C@_0CA@EIMBCOCD@?4?4?4?5initializing?5sound?5scripts?6?$AA@ 100c3c38     cg_sound.obj
 0002:00024c58       ??_C@_0CK@CJDPNJGE@Saved?5?$CFi?5speakers?5to?5?8sound?1maps@ 100c3c58     cg_sound.obj
 0002:00024c84       ??_C@_02KGHIDFGE@?$HN?6?$AA@ 100c3c84     cg_sound.obj
 0002:00024c88       ??_C@_0CF@EKDEOEBG@?6?7speakerDef?5?$HL?6?$CFs?$CFs?$CFs?$CFs?$CFs?$CFs?$CFs?$CFs?$CF@ 100c3c88     cg_sound.obj
 0002:00024cb0       ??_C@_0M@ODOHMLOA@?7?7range?5?$CFi?6?$AA@ 100c3cb0     cg_sound.obj
 0002:00024cbc       ??_C@_0N@NLLHHIOM@?7?7volume?5?$CFi?6?$AA@ 100c3cbc     cg_sound.obj
 0002:00024ccc       ??_C@_0N@JAIMLBKK@?7?7random?5?$CFi?6?$AA@ 100c3ccc     cg_sound.obj
 0002:00024cdc       ??_C@_0L@POPKHLKJ@?7?7wait?5?$CFi?6?$AA@ 100c3cdc     cg_sound.obj
 0002:00024ce8       ??_C@_0BC@BBGBLHIG@?7?7broadcast?5?$CC?$CFs?$CC?6?$AA@ 100c3ce8     cg_sound.obj
 0002:00024cfc       ??_C@_0P@HNODEBIE@?7?7looped?5?$CC?$CFs?$CC?6?$AA@ 100c3cfc     cg_sound.obj
 0002:00024d0c       ??_C@_0BD@MNIMIJOH@?7?7targetname?5?$CC?$CFs?$CC?6?$AA@ 100c3d0c     cg_sound.obj
 0002:00024d20       ??_C@_0BJ@EEODNAAK@?7?7origin?5?$CF?42f?5?$CF?42f?5?$CF?42f?6?$AA@ 100c3d20     cg_sound.obj
 0002:00024d3c       ??_C@_0O@ENELJIKO@?7?7noise?5?$CC?$CFs?$CC?6?$AA@ 100c3d3c     cg_sound.obj
 0002:00024d4c       ??_C@_0BA@CPDGJLDP@speakerScript?6?$HL?$AA@ 100c3d4c     cg_sound.obj
 0002:00024d5c       ??_C@_0DJ@KEBBPCNP@?$FO1ERROR?3?5failed?5to?5save?5speakers@ 100c3d5c     cg_sound.obj
 0002:00024d98       ??_C@_0BD@LIHNMEBN@?$CFs?$CFs?$CFs?$CFs?$CFs?$CFs?$CFs?$CFs?$CFs?$AA@ 100c3d98     cg_sound.obj
 0002:00024dac       ??_C@_0L@NFDHBGFP@range?3?5?$CFi?6?$AA@ 100c3dac     cg_sound.obj
 0002:00024db8       ??_C@_0M@CBNLIHNA@volume?3?5?$CFi?6?$AA@ 100c3db8     cg_sound.obj
 0002:00024dc4       ??_C@_0M@LOCPFILM@random?3?5?$CFi?6?$AA@ 100c3dc4     cg_sound.obj
 0002:00024dd0       ??_C@_09NKFOJPMB@wait?3?5?$CFi?6?$AA@ 100c3dd0     cg_sound.obj
 0002:00024ddc       ??_C@_0P@KHEIJHKL@broadcast?3?5?$CFs?6?$AA@ 100c3ddc     cg_sound.obj
 0002:00024dec       ??_C@_0M@CHHEKKG@looped?3?5?$CFs?6?$AA@ 100c3dec     cg_sound.obj
 0002:00024df8       __real@4021000000000000    100c3df8     cg_sound.obj
 0002:00024e00       ??_C@_0BA@CMJPFJPE@targetname?3?5?$CFs?6?$AA@ 100c3e00     cg_sound.obj
 0002:00024e10       ??_C@_0L@OCDDAEFO@noise?3?5?$CFs?6?$AA@ 100c3e10     cg_sound.obj
 0002:00024e1c       __real@41080000            100c3e1c     cg_sound.obj
 0002:00024e20       ??_C@_0BL@PHLLNHDL@Speaker?5at?5?$CF?42f?5?$CF?42f?5?$CF?42f?6?$AA@ 100c3e20     cg_sound.obj
 0002:00024e3c       ??_C@_01FCMHBHNC@V?$AA@    100c3e3c     cg_sound.obj
 0002:00024e40       ??_C@_0BK@DJFFIPIK@Speaker?5at?5?$CF?42f?5?$CF?42f?5?$CF?42f?$AA@ 100c3e40     cg_sound.obj
 0002:00024e5c       ??_C@_0BG@OCINBHCM@Undo?5?$CFs?5speaker?3?5?$CFs?$CFs?$AA@ 100c3e5c     cg_sound.obj
 0002:00024e74       ??_C@_06OJGLKMAC@modify?$AA@ 100c3e74     cg_sound.obj
 0002:00024e7c       ??_C@_06LEMKAMD@remove?$AA@ 100c3e7c     cg_sound.obj
 0002:00024e84       ??_C@_0M@OMFJHMME@undospeaker?$AA@ 100c3e84     cg_sound.obj
 0002:00024e90       ??_C@_0BM@GLEBGLMD@Modify?5target?5speaker?3?5?$CFs?$CFs?$AA@ 100c3e90     cg_sound.obj
 0002:00024eac       ??_C@_0O@DBDKGMKD@modifyspeaker?$AA@ 100c3eac     cg_sound.obj
 0002:00024ebc       ??_C@_0BJ@HJMNDHKE@Create?5new?5speaker?3?5?$CFs?$CFs?$AA@ 100c3ebc     cg_sound.obj
 0002:00024ed8       ??_C@_06ENDIBGDN@?5or?5?$CFs?$AA@ 100c3ed8     cg_sound.obj
 0002:00024ee0       ??_C@_0M@HJFPDILC@dumpspeaker?$AA@ 100c3ee0     cg_sound.obj
 0002:00024ef0       ??_C@_0EB@OMADHECB@Current?5amount?5of?5speakers?5in?5ma@ 100c3ef0     cg_sound.obj
 0002:00024f34       __real@43dd0000            100c3f34     cg_sound.obj
 0002:00024f38       __real@43e20000            100c3f38     cg_sound.obj
 0002:00024f40       __real@c06e000000000000    100c3f40     cg_sound.obj
 0002:00024f48       __real@c074000000000000    100c3f48     cg_sound.obj
 0002:00024f50       ??_C@_0BE@KGLFGJPE@gfx?1misc?1speaker_gs?$AA@ 100c3f50     cg_sound.obj
 0002:00024f64       ??_C@_0BB@CMAANFNK@gfx?1misc?1speaker?$AA@ 100c3f64     cg_sound.obj
 0002:00024f78       ??_C@_0BP@PADKIJJB@Activating?5Speaker?5Edit?5mode?4?6?$AA@ 100c3f78     cg_sound.obj
 0002:00024f98       ??_C@_0CC@NGPIFBGI@De?9activating?5Speaker?5Edit?5mode?4@ 100c3f98     cg_sound.obj
 0002:00024fc0       ??_C@_0EB@MOLHEPKI@UNDO?3?5restoring?5modified?5setting@ 100c3fc0     cg_sound.obj
 0002:00025004       ??_C@_0DD@LGONFHKF@UNDO?3?5restored?5deleted?5speaker?5a@ 100c4004     cg_sound.obj
 0002:00025038       ??_C@_0EJ@IGCFCEJ@?$FO3UNDO?3?5restoring?5deleted?5speake@ 100c4038     cg_sound.obj
 0002:00025084       ??_C@_06PPJHCDEA@corona?$AA@ 100c4084     cg_spawn.obj
 0002:0002508c       ??_C@_0P@HBHINBCE@misc_gamemodel?$AA@ 100c408c     cg_spawn.obj
 0002:0002509c       ??_C@_0BH@BLFALKFD@trigger_objective_info?$AA@ 100c409c     cg_spawn.obj
 0002:000250b4       ??_C@_0BK@LJJEPODN@info_train_spline_control?$AA@ 100c40b4     cg_spawn.obj
 0002:000250d0       ??_C@_0BH@NCIIEBNE@info_train_spline_main?$AA@ 100c40d0     cg_spawn.obj
 0002:000250e8       ??_C@_0O@KNFCCLBN@path_corner_2?$AA@ 100c40e8     cg_spawn.obj
 0002:000250f8       ??_C@_0CL@LKEAINCN@CG_SpawnString?$CI?$CJ?5called?5while?5no@ 100c40f8     cg_spawn.obj
 0002:00025124       ??_C@_08OEKJENGB@?$CFf?5?$CFf?5?$CFf?$AA@ 100c4124     cg_spawn.obj
 0002:00025130       ??_C@_05KCDNKPCA@?$CFf?5?$CFf?$AA@ 100c4130     cg_spawn.obj
 0002:00025138       ??_C@_0L@OPPGOKFJ@?$CI?$CFi?5?$CFi?5?$CFi?$CJ?$AA@ 100c4138     cg_spawn.obj
 0002:00025144       ??_C@_0BK@MPFBDCKP@Maximum?5path_corners?5hit?6?$AA@ 100c4144     cg_spawn.obj
 0002:00025160       ??_C@_0CI@BDNOPLEI@path_corner_2?5with?5no?5targetname@ 100c4160     cg_spawn.obj
 0002:00025188       ??_C@_05JMKGPOEH@0?50?50?$AA@ 100c4188     cg_spawn.obj
 0002:00025190       ??_C@_09NOPIHADG@control?$CFi?$AA@ 100c4190     cg_spawn.obj
 0002:0002519c       ??_C@_07MMBOFDEG@control?$AA@ 100c419c     cg_spawn.obj
 0002:000251a4       ??_C@_05FAGFPHJG@start?$AA@ 100c41a4     cg_spawn.obj
 0002:000251ac       ??_C@_03JBJLGPFL@end?$AA@  100c41ac     cg_spawn.obj
 0002:000251b0       ??_C@_06JJLAMBGK@target?$AA@ 100c41b0     cg_spawn.obj
 0002:000251b8       ??_C@_0DB@OPPOHHLH@info_train_spline_main?5with?5no?5t@ 100c41b8     cg_spawn.obj
 0002:000251ec       ??_C@_0CH@OFJDAKGH@info_train_spline_main?5with?5no?5o@ 100c41ec     cg_spawn.obj
 0002:00025214       ??_C@_0L@HDLPNNAF@modelscale?$AA@ 100c4214     cg_spawn.obj
 0002:00025220       ??_C@_0P@OMAFFCFF@modelscale_vec?$AA@ 100c4220     cg_spawn.obj
 0002:00025230       ??_C@_05PGFNHLMG@1?51?51?$AA@ 100c4230     cg_spawn.obj
 0002:00025238       ??_C@_05FECBCJJD@angle?$AA@ 100c4238     cg_spawn.obj
 0002:00025240       ??_C@_06GNEAMJOC@angles?$AA@ 100c4240     cg_spawn.obj
 0002:00025248       ??_C@_05NCCFOPHA@model?$AA@ 100c4248     cg_spawn.obj
 0002:00025250       ??_C@_0CA@HPALNOBC@?$FO1MAX_STATIC_GAMEMODELS?$CI?$CFi?$CJ?5hit?$AA@ 100c4250     cg_spawn.obj
 0002:00025270       ??_C@_0L@HLIKNEFC@spawnflags?$AA@ 100c4270     cg_spawn.obj
 0002:0002527c       ??_C@_0L@FJFPJEHG@scriptname?$AA@ 100c427c     cg_spawn.obj
 0002:00025288       ??_C@_05PEENBMOG@color?$AA@ 100c4288     cg_spawn.obj
 0002:00025290       ??_C@_06NHOPLGF@_color?$AA@ 100c4290     cg_spawn.obj
 0002:00025298       ??_C@_05MHMEBBGO@scale?$AA@ 100c4298     cg_spawn.obj
 0002:000252a0       ??_C@_0BK@MADJPKDL@?$FO1MAX_GAMECORONAS?$CI?$CFi?$CJ?5hit?$AA@ 100c42a0     cg_spawn.obj
 0002:000252bc       ??_C@_08LFJPIJGH@infoAxis?$AA@ 100c42bc     cg_spawn.obj
 0002:000252c8       ??_C@_0L@JOFGKMBF@infoAllied?$AA@ 100c42c8     cg_spawn.obj
 0002:000252d4       ??_C@_0BD@EDKEKOMM@?$FO1No?5Text?5Supplied?$AA@ 100c42d4     cg_spawn.obj
 0002:000252e8       ??_C@_09CNJINBGN@classname?$AA@ 100c42e8     cg_spawn.obj
 0002:000252f4       ??_C@_07CLBNBEAH@notteam?$AA@ 100c42f4     cg_spawn.obj
 0002:000252fc       ??_C@_0CE@KFIMGHLL@CG_AddSpawnVarToken?3?5MAX_SPAWN_V@ 100c42fc     cg_spawn.obj
 0002:00025320       ??_C@_0CC@FFKCCAOL@CG_ParseSpawnVars?3?5MAX_SPAWN_VAR@ 100c4320     cg_spawn.obj
 0002:00025344       ??_C@_0CO@LBIGDOPL@CG_ParseSpawnVars?3?5closing?5brace@ 100c4344     cg_spawn.obj
 0002:00025374       ??_C@_0CN@KDIJEMJC@CG_ParseSpawnVars?3?5EOF?5without?5c@ 100c4374     cg_spawn.obj
 0002:000253a4       ??_C@_0CN@LHOGJKHF@CG_ParseSpawnVars?3?5found?5?$CFs?5when@ 100c43a4     cg_spawn.obj
 0002:000253d4       ??_C@_0BJ@JHEACKJI@thirtySecondSound_allied?$AA@ 100c43d4     cg_spawn.obj
 0002:000253f0       ??_C@_0BE@KOABGNNH@allies_hq_30seconds?$AA@ 100c43f0     cg_spawn.obj
 0002:00025404       ??_C@_0BH@HFNLPNIH@thirtySecondSound_axis?$AA@ 100c4404     cg_spawn.obj
 0002:0002541c       ??_C@_0BC@MDJHDGAK@axis_hq_30seconds?$AA@ 100c441c     cg_spawn.obj
 0002:00025430       ??_C@_0BG@KAGJDHOG@twoMinuteSound_allied?$AA@ 100c4430     cg_spawn.obj
 0002:00025448       ??_C@_0BD@IFEKFLC@allies_hq_2minutes?$AA@ 100c4448     cg_spawn.obj
 0002:0002545c       ??_C@_0BE@IHLHFEFG@twoMinuteSound_axis?$AA@ 100c445c     cg_spawn.obj
 0002:00025470       ??_C@_0BB@EDOLJDKH@axis_hq_2minutes?$AA@ 100c4470     cg_spawn.obj
 0002:00025484       ??_C@_0BH@DPHHNLB@fiveMinuteSound_allied?$AA@ 100c4484     cg_spawn.obj
 0002:0002549c       ??_C@_0BD@GMDFMIHL@allies_hq_5minutes?$AA@ 100c449c     cg_spawn.obj
 0002:000254b0       ??_C@_0BF@MPICIPOA@fiveMinuteSound_axis?$AA@ 100c44b0     cg_spawn.obj
 0002:000254c8       ??_C@_0BB@CHIKPOGO@axis_hq_5minutes?$AA@ 100c44c8     cg_spawn.obj
 0002:000254dc       ??_C@_0L@GCIACJPL@atmosphere?$AA@ 100c44dc     cg_spawn.obj
 0002:000254e8       ??_C@_0O@KOBCMPIM@cclayerceil?$CFi?$AA@ 100c44e8     cg_spawn.obj
 0002:000254f8       ??_C@_08GJPBIIC@cclayers?$AA@ 100c44f8     cg_spawn.obj
 0002:00025504       ??_C@_0O@CILOKLOH@mapcoordsmaxs?$AA@ 100c4504     cg_spawn.obj
 0002:00025514       ??_C@_08DKMCHMLH@128?5?9128?$AA@ 100c4514     cg_spawn.obj
 0002:00025520       ??_C@_0O@PFKBFMMK@mapcoordsmins?$AA@ 100c4520     cg_spawn.obj
 0002:00025530       ??_C@_08ENNMNBDI@?9128?5128?$AA@ 100c4530     cg_spawn.obj
 0002:0002553c       ??_C@_0DD@EBBCPGHA@SP_worldspawn?3?5The?5first?5entity?5@ 100c453c     cg_spawn.obj
 0002:00025570       ??_C@_0L@BIFLFHPF@worldspawn?$AA@ 100c4570     cg_spawn.obj
 0002:0002557c       ??_C@_0BL@PHJAPJLP@ParseEntities?3?5no?5entities?$AA@ 100c457c     cg_spawn.obj
 0002:00025598       ??_C@_0CI@MILGOJC@models?1players?1temperate?1common?1@ 100c4598     cg_statsranksmedals.obj
 0002:000255c0       ??_C@_0BG@IPFDDMBP@gfx?1hud?1ranks?1xrank19?$AA@ 100c45c0     cg_statsranksmedals.obj
 0002:000255d8       ??_C@_0CH@FPDOELDF@models?1players?1temperate?1common?1@ 100c45d8     cg_statsranksmedals.obj
 0002:00025600       ??_C@_0BF@FEOJABCC@gfx?1hud?1ranks?1rank19?$AA@ 100c4600     cg_statsranksmedals.obj
 0002:00025618       ??_C@_0CI@BFJAFPND@models?1players?1temperate?1common?1@ 100c4618     cg_statsranksmedals.obj
 0002:00025640       ??_C@_0BG@JGEIANFO@gfx?1hud?1ranks?1xrank18?$AA@ 100c4640     cg_statsranksmedals.obj
 0002:00025658       ??_C@_0CH@EGCFHKHE@models?1players?1temperate?1common?1@ 100c4658     cg_statsranksmedals.obj
 0002:00025680       ??_C@_0BF@ENPCDAGD@gfx?1hud?1ranks?1rank18?$AA@ 100c4680     cg_statsranksmedals.obj
 0002:00025698       ??_C@_0CI@JCAIEDBM@models?1players?1temperate?1common?1@ 100c4698     cg_statsranksmedals.obj
 0002:000256c0       ??_C@_0BG@BBNABBJB@gfx?1hud?1ranks?1xrank17?$AA@ 100c46c0     cg_statsranksmedals.obj
 0002:000256d8       ??_C@_0CH@MBLNGGLL@models?1players?1temperate?1common?1@ 100c46d8     cg_statsranksmedals.obj
 0002:00025700       ??_C@_0BF@MKGKCMKM@gfx?1hud?1ranks?1rank17?$AA@ 100c4700     cg_statsranksmedals.obj
 0002:00025718       ??_C@_0CI@ILBDHCFN@models?1players?1temperate?1common?1@ 100c4718     cg_statsranksmedals.obj
 0002:00025740       ??_C@_0BG@IMLCANA@gfx?1hud?1ranks?1xrank16?$AA@ 100c4740     cg_statsranksmedals.obj
 0002:00025758       ??_C@_0CH@NIKGFHPK@models?1players?1temperate?1common?1@ 100c4758     cg_statsranksmedals.obj
 0002:00025780       ??_C@_0BF@NDHBBNON@gfx?1hud?1ranks?1rank16?$AA@ 100c4780     cg_statsranksmedals.obj
 0002:00025798       ??_C@_0CI@KADOCBJO@models?1players?1temperate?1common?1@ 100c4798     cg_statsranksmedals.obj
 0002:000257c0       ??_C@_0BG@CDOGHDBD@gfx?1hud?1ranks?1xrank15?$AA@ 100c47c0     cg_statsranksmedals.obj
 0002:000257d8       ??_C@_0CH@PDILAEDJ@models?1players?1temperate?1common?1@ 100c47d8     cg_statsranksmedals.obj
 0002:00025800       ??_C@_0BF@PIFMEOCO@gfx?1hud?1ranks?1rank15?$AA@ 100c4800     cg_statsranksmedals.obj
 0002:00025818       ??_C@_0CI@LJCFBANP@models?1players?1temperate?1common?1@ 100c4818     cg_statsranksmedals.obj
 0002:00025840       ??_C@_0BG@DKPNECFC@gfx?1hud?1ranks?1xrank14?$AA@ 100c4840     cg_statsranksmedals.obj
 0002:00025858       ??_C@_0CH@OKJADFHI@models?1players?1temperate?1common?1@ 100c4858     cg_statsranksmedals.obj
 0002:00025880       ??_C@_0BF@OBEHHPGP@gfx?1hud?1ranks?1rank14?$AA@ 100c4880     cg_statsranksmedals.obj
 0002:00025898       ??_C@_0CI@PGGEIGBI@models?1players?1temperate?1common?1@ 100c4898     cg_statsranksmedals.obj
 0002:000258c0       ??_C@_0BG@HFLMNEJF@gfx?1hud?1ranks?1xrank13?$AA@ 100c48c0     cg_statsranksmedals.obj
 0002:000258d8       ??_C@_0CH@KFNBKDLP@models?1players?1temperate?1common?1@ 100c48d8     cg_statsranksmedals.obj
 0002:00025900       ??_C@_0BF@KOAGOJKI@gfx?1hud?1ranks?1rank13?$AA@ 100c4900     cg_statsranksmedals.obj
 0002:00025918       ??_C@_0CI@OPHPLHFJ@models?1players?1temperate?1common?1@ 100c4918     cg_statsranksmedals.obj
 0002:00025940       ??_C@_0BG@GMKHOFNE@gfx?1hud?1ranks?1xrank12?$AA@ 100c4940     cg_statsranksmedals.obj
 0002:00025958       ??_C@_0CH@LMMKJCPO@models?1players?1temperate?1common?1@ 100c4958     cg_statsranksmedals.obj
 0002:00025980       ??_C@_0BF@LHBNNIOJ@gfx?1hud?1ranks?1rank12?$AA@ 100c4980     cg_statsranksmedals.obj
 0002:00025998       ??_C@_0CI@MEFCOEJK@models?1players?1temperate?1common?1@ 100c4998     cg_statsranksmedals.obj
 0002:000259c0       ??_C@_0BG@EHIKLGBH@gfx?1hud?1ranks?1xrank11?$AA@ 100c49c0     cg_statsranksmedals.obj
 0002:000259d8       ??_C@_0CH@JHOHMBDN@models?1players?1temperate?1common?1@ 100c49d8     cg_statsranksmedals.obj
 0002:00025a00       ??_C@_0BF@JMDAILCK@gfx?1hud?1ranks?1rank11?$AA@ 100c4a00     cg_statsranksmedals.obj
 0002:00025a18       ??_C@_0CI@NNEJNFNL@models?1players?1temperate?1common?1@ 100c4a18     cg_statsranksmedals.obj
 0002:00025a40       ??_C@_0BG@FOJBIHFG@gfx?1hud?1ranks?1xrank10?$AA@ 100c4a40     cg_statsranksmedals.obj
 0002:00025a58       ??_C@_0CH@IOPMPAHM@models?1players?1temperate?1common?1@ 100c4a58     cg_statsranksmedals.obj
 0002:00025a80       ??_C@_0BF@IFCLLKGL@gfx?1hud?1ranks?1rank10?$AA@ 100c4a80     cg_statsranksmedals.obj
 0002:00025a98       ??_C@_0CH@KKKJKIML@models?1players?1temperate?1common?1@ 100c4a98     cg_statsranksmedals.obj
 0002:00025ac0       ??_C@_0BF@KBHOOCNM@gfx?1hud?1ranks?1xrank9?$AA@ 100c4ac0     cg_statsranksmedals.obj
 0002:00025ad8       ??_C@_0CG@KMBPDPDJ@models?1players?1temperate?1common?1@ 100c4ad8     cg_statsranksmedals.obj
 0002:00025b00       ??_C@_0BE@KAIKAJPG@gfx?1hud?1ranks?1rank9?$AA@ 100c4b00     cg_statsranksmedals.obj
 0002:00025b14       ??_C@_0CH@LDLCJJIK@models?1players?1temperate?1common?1@ 100c4b14     cg_statsranksmedals.obj
 0002:00025b3c       ??_C@_0BF@LIGFNDJN@gfx?1hud?1ranks?1xrank8?$AA@ 100c4b3c     cg_statsranksmedals.obj
 0002:00025b54       ??_C@_0CG@LFAEAOHI@models?1players?1temperate?1common?1@ 100c4b54     cg_statsranksmedals.obj
 0002:00025b7c       ??_C@_0BE@LJJBDILH@gfx?1hud?1ranks?1rank8?$AA@ 100c4b7c     cg_statsranksmedals.obj
 0002:00025b90       ??_C@_0CH@DECKIFEF@models?1players?1temperate?1common?1@ 100c4b90     cg_statsranksmedals.obj
 0002:00025bb8       ??_C@_0BF@DPPNMPFC@gfx?1hud?1ranks?1xrank7?$AA@ 100c4bb8     cg_statsranksmedals.obj
 0002:00025bd0       ??_C@_0CG@DCJMBCLH@models?1players?1temperate?1common?1@ 100c4bd0     cg_statsranksmedals.obj
 0002:00025bf8       ??_C@_0BE@DOAJCEHI@gfx?1hud?1ranks?1rank7?$AA@ 100c4bf8     cg_statsranksmedals.obj
 0002:00025c0c       ??_C@_0CH@CNDBLEAE@models?1players?1temperate?1common?1@ 100c4c0c     cg_statsranksmedals.obj
 0002:00025c34       ??_C@_0BF@CGOGPOBD@gfx?1hud?1ranks?1xrank6?$AA@ 100c4c34     cg_statsranksmedals.obj
 0002:00025c4c       ??_C@_0CG@CLIHCDPG@models?1players?1temperate?1common?1@ 100c4c4c     cg_statsranksmedals.obj
 0002:00025c74       ??_C@_0BE@CHBCBFDJ@gfx?1hud?1ranks?1rank6?$AA@ 100c4c74     cg_statsranksmedals.obj
 0002:00025c88       ??_C@_0CH@GBMOHMH@models?1players?1temperate?1common?1@ 100c4c88     cg_statsranksmedals.obj
 0002:00025cb0       ??_C@_0BF@NMLKNNA@gfx?1hud?1ranks?1xrank5?$AA@ 100c4cb0     cg_statsranksmedals.obj
 0002:00025cc8       ??_C@_0CG@KKHADF@models?1players?1temperate?1common?1@ 100c4cc8     cg_statsranksmedals.obj
 0002:00025cf0       ??_C@_0BE@MDPEGPK@gfx?1hud?1ranks?1rank5?$AA@ 100c4cf0     cg_statsranksmedals.obj
 0002:00025d04       ??_C@_0CH@BPAHNGIG@models?1players?1temperate?1common?1@ 100c4d04     cg_statsranksmedals.obj
 0002:00025d2c       ??_C@_0BF@BENAJMJB@gfx?1hud?1ranks?1xrank4?$AA@ 100c4d2c     cg_statsranksmedals.obj
 0002:00025d44       ??_C@_0CG@BJLBEBHE@models?1players?1temperate?1common?1@ 100c4d44     cg_statsranksmedals.obj
 0002:00025d6c       ??_C@_0BE@BFCEHHLL@gfx?1hud?1ranks?1rank4?$AA@ 100c4d6c     cg_statsranksmedals.obj
 0002:00025d80       ??_C@_0CH@FAEGEAEB@models?1players?1temperate?1common?1@ 100c4d80     cg_statsranksmedals.obj
 0002:00025da8       ??_C@_0BF@FLJBAKFG@gfx?1hud?1ranks?1xrank3?$AA@ 100c4da8     cg_statsranksmedals.obj
 0002:00025dc0       ??_C@_0CG@FGPANHLD@models?1players?1temperate?1common?1@ 100c4dc0     cg_statsranksmedals.obj
 0002:00025de8       ??_C@_0BE@FKGFOBHM@gfx?1hud?1ranks?1rank3?$AA@ 100c4de8     cg_statsranksmedals.obj
 0002:00025dfc       ??_C@_0CH@EJFNHBAA@models?1players?1temperate?1common?1@ 100c4dfc     cg_statsranksmedals.obj
 0002:00025e24       ??_C@_0BF@ECIKDLBH@gfx?1hud?1ranks?1xrank2?$AA@ 100c4e24     cg_statsranksmedals.obj
 0002:00025e3c       ??_C@_0CG@EPOLOGPC@models?1players?1temperate?1common?1@ 100c4e3c     cg_statsranksmedals.obj
 0002:00025e64       ??_C@_0BE@EDHONADN@gfx?1hud?1ranks?1rank2?$AA@ 100c4e64     cg_statsranksmedals.obj
 0002:00025e78       ??_C@_0CH@GCHACCMD@models?1players?1temperate?1common?1@ 100c4e78     cg_statsranksmedals.obj
 0002:00025ea0       ??_C@_0BF@GJKHGINE@gfx?1hud?1ranks?1xrank1?$AA@ 100c4ea0     cg_statsranksmedals.obj
 0002:00025eb8       ??_C@_0CG@GEMGLFDB@models?1players?1temperate?1common?1@ 100c4eb8     cg_statsranksmedals.obj
 0002:00025ee0       ??_C@_0BE@GIFDIDPO@gfx?1hud?1ranks?1rank1?$AA@ 100c4ee0     cg_statsranksmedals.obj
 0002:00025ef4       ??_C@_0BI@IEKNMOBE@ET?52?460b?5?$CFs?5May?5?58?52006?$AA@ 100c4ef4     cg_syscalls.obj
 0002:00025f0c       ??_C@_0BH@PAOCIBJN@ET?52?460?5?$CFs?5Mar?510?52005?$AA@ 100c4f0c     cg_syscalls.obj
 0002:00025f24       ??_C@_07CECGJJJI@win?9x86?$AA@ 100c4f24     cg_syscalls.obj
 0002:00025f2c       ??_C@_07CPCPJPKL@version?$AA@ 100c4f2c     cg_syscalls.obj
 0002:00025f38       __real@3fd999999999999a    100c4f38     cg_trails.obj
 0002:00025f40       __real@4071f00000000000    100c4f40     cg_view.obj
 0002:00025f48       __real@43bf0000            100c4f48     cg_view.obj
 0002:00025f50       __real@c04ca5dc00000000    100c4f50     cg_view.obj
 0002:00025f58       ??_C@_0P@PEILODOP@cg_recoilPitch?$AA@ 100c4f58     cg_view.obj
 0002:00025f68       __real@3faeb851eb851eb8    100c4f68     cg_view.obj
 0002:00025f70       __real@3fbeb851e0000000    100c4f70     cg_view.obj
 0002:00025f78       __real@3fc0a3d700000000    100c4f78     cg_view.obj
 0002:00025f80       __real@3fceb851e0000000    100c4f80     cg_view.obj
 0002:00025f88       __real@407c200000000000    100c4f88     cg_view.obj
 0002:00025f90       __real@4087700000000000    100c4f90     cg_view.obj
 0002:00025f98       __real@c1700000            100c4f98     cg_view.obj
 0002:00025f9c       __real@42028f5c            100c4f9c     cg_view.obj
 0002:00025fa0       __real@405b800000000000    100c4fa0     cg_view.obj
 0002:00025fa8       __real@423ac28f            100c4fa8     cg_view.obj
 0002:00025fac       __real@42960000            100c4fac     cg_view.obj
 0002:00025fb0       __real@42937ae1            100c4fb0     cg_view.obj
 0002:00025fb8       __real@401399999999999a    100c4fb8     cg_view.obj
 0002:00025fc0       __real@405fc00000000000    100c4fc0     cg_view.obj
 0002:00025fc8       ??_C@_0EE@LOKCLBCB@CG_DrawSkyBoxPortal?3?5error?5parsi@ 100c4fc8     cg_view.obj
 0002:00026010       ??_C@_0EE@KMBHBOMP@CG_DrawSkyBoxPortal?3?5error?5parsi@ 100c5010     cg_view.obj
 0002:00026058       ??_C@_0EE@BEKLHJKK@CG_DrawSkyBoxPortal?3?5error?5parsi@ 100c5058     cg_view.obj
 0002:000260a0       ??_C@_0EC@HOGIMGFO@CG_ParseSkyBox?3?5error?5parsing?5sk@ 100c50a0     cg_view.obj
 0002:000260e4       ??_C@_0DD@NHGEKDAF@CG_ParseSkyBox?3?5error?5parsing?5sk@ 100c50e4     cg_view.obj
 0002:00026118       ??_C@_0BO@MFGNAEAO@Invalid?5TAGCONNECT?5tagparent?6?$AA@ 100c5118     cg_view.obj
 0002:00026138       ??_C@_0BO@BBLJCKOG@Invalid?5TAGCONNECT?5entitynum?6?$AA@ 100c5138     cg_view.obj
 0002:00026158       ??_C@_0CB@JHDNLMFC@Invalid?5TAGCONNECT?5configstring?6@ 100c5158     cg_view.obj
 0002:0002617c       __real@453b8000            100c517c     cg_view.obj
 0002:00026180       ??_C@_06ODIBONAL@?$FOW?$CFs?$FOW?$AA@ 100c5180     cg_view.obj
 0002:00026188       ??_C@_0L@LEAIALED@MORTAR?5CAM?$AA@ 100c5188     cg_view.obj
 0002:00026194       ??_C@_0O@MJPPJJKM@RIFLENADE?5CAM?$AA@ 100c5194     cg_view.obj
 0002:000261a4       ??_C@_0M@IBMLLGA@MISSILE?5CAM?$AA@ 100c51a4     cg_view.obj
 0002:000261b0       ??_C@_05NICFGAPO@?$CF8?44f?$AA@ 100c51b0     cg_view.obj
 0002:000261b8       __real@3f1a36e2e0000000    100c51b8     cg_view.obj
 0002:000261c0       __real@3fd99999a0000000    100c51c0     cg_weapons.obj
 0002:000261c8       __real@3ee4f8b588e368f1    100c51c8     cg_weapons.obj
 0002:000261d0       __real@4050400000000000    100c51d0     cg_weapons.obj
 0002:000261d8       __real@c097700000000000    100c51d8     cg_weapons.obj
 0002:000261e0       __real@c087700000000000    100c51e0     cg_weapons.obj
 0002:000261e8       __real@c059000000000000    100c51e8     cg_weapons.obj
 0002:000261f0       __real@c079000000000000    100c51f0     cg_weapons.obj
 0002:000261f8       __real@c024000000000000    100c51f8     cg_weapons.obj
 0002:00026200       __real@40ce460000000000    100c5200     cg_weapons.obj
 0002:00026208       __real@3f70624de0000000    100c5208     cg_weapons.obj
 0002:00026210       ??_C@_0CI@LCCPAJPK@Error?5parsing?5weapon?5animation?5f@ 100c5210     cg_weapons.obj
 0002:00026238       ??_C@_0BJ@NOHDAKII@part?5index?5out?5of?5bounds?$AA@ 100c5238     cg_weapons.obj
 0002:00026254       ??_C@_0BI@GMIJHIDJ@expected?5model?5filename?$AA@ 100c5254     cg_weapons.obj
 0002:0002626c       ??_C@_0L@NOANHHKE@alliedSkin?$AA@ 100c526c     cg_weapons.obj
 0002:00026278       ??_C@_08JBCPPBFF@axisSkin?$AA@ 100c5278     cg_weapons.obj
 0002:00026284       ??_C@_0M@CKEOLMDK@alliedModel?$AA@ 100c5284     cg_weapons.obj
 0002:00026290       ??_C@_09OALLFMDG@axisModel?$AA@ 100c5290     cg_weapons.obj
 0002:0002629c       ??_C@_0BC@CHFAMKHB@expected?5tag?5name?$AA@ 100c529c     cg_weapons.obj
 0002:000262b0       ??_C@_03FJEPELFP@tag?$AA@  100c52b0     cg_weapons.obj
 0002:000262b4       ??_C@_0BE@GEPGKGAA@expected?5part?5index?$AA@ 100c52b4     cg_weapons.obj
 0002:000262c8       ??_C@_04FPLDHIIH@part?$AA@ 100c52c8     cg_weapons.obj
 0002:000262d0       ??_C@_0BN@NFNGPFOA@expected?5flashModel?5filename?$AA@ 100c52d0     cg_weapons.obj
 0002:000262f0       ??_C@_0L@MDIKMJIB@weaponLink?$AA@ 100c52f0     cg_weapons.obj
 0002:000262fc       ??_C@_0L@KNOIEDJK@flashModel?$AA@ 100c52fc     cg_weapons.obj
 0002:00026308       ??_C@_0BI@EPHBFKOB@mod?5index?5out?5of?5bounds?$AA@ 100c5308     cg_weapons.obj
 0002:00026320       ??_C@_0EG@GKKGBMPC@?$FO1ERROR?3?5CG_RW_ParseModModel?$CI?$CJ?5n@ 100c5320     cg_weapons.obj
 0002:00026368       ??_C@_04IPGOONMB@?4mdc?$AA@ 100c5368     cg_weapons.obj
 0002:00026370       ??_C@_04DFNFLAJF@?4md3?$AA@ 100c5370     cg_weapons.obj
 0002:00026378       ??_C@_0BD@LPGIHMCO@expected?5mod?5index?$AA@ 100c5378     cg_weapons.obj
 0002:0002638c       ??_C@_0CE@KDNLMPDJ@Bad?5animation?5number?5?$CICG_SWLFA?$CJ?3@ 100c538c     cg_weapons.obj
 0002:000263b0       ??_C@_0P@MCJIIECE@Weap?5Anim?3?5?$CFd?6?$AA@ 100c53b0     cg_weapons.obj
 0002:000263c0       ??_C@_0CJ@LJJLOAOP@oldframe?3?5?$CFd?5?5?5frame?3?5?$CFd?5?5?5backl@ 100c53c0     cg_weapons.obj
 0002:000263f0       __real@c034000000000000    100c53f0     cg_weapons.obj
 0002:000263f8       __real@3ff3333333333333    100c53f8     cg_weapons.obj
 0002:00026400       ??_C@_0BB@GAMCMGHE@cg_drawCrossHair?$AA@ 100c5400     cg_weapons.obj
 0002:00026414       ??_C@_0CL@JGKOCEED@weapAlt?5is?5obsolete?0?5please?5use?5@ 100c5414     cg_weapons.obj
 0002:00026440       ??_C@_0DK@LEFDLAEL@?$FO3Ext?3?5time?3?5?$CFd?0?5j?3?5?$CFd?0?5k?3?5?$CFd?0?5o@ 100c5440     cg_weapons.obj
 0002:00026480       ??_C@_0EH@JOFMMEPF@?$FO5frac?3?5?$CF0?44f?0?5origin1?3?5?$CF0?42f?5?$CF0@ 100c5480     cg_weapons.obj
 0002:000264c8       ??_C@_0DK@KPAOPAAM@?$FO3Int?3?5time?3?5?$CFd?0?5j?3?5?$CFd?0?5k?3?5?$CFd?0?5o@ 100c54c8     cg_weapons.obj
 0002:00026504       ??_C@_0CN@NBNBAPF@CG_FireWeapon?3?5ent?9?$DOweapon?5?$DO?$DN?5WP@ 100c5504     cg_weapons.obj
 0002:00026538       __real@bfe999999999999a    100c5538     cg_weapons.obj
 0002:00026540       __real@44480000            100c5540     cg_weapons.obj
 0002:00026548       __real@3fe4cccccccccccd    100c5548     cg_weapons.obj
 0002:00026550       __real@4060400000000000    100c5550     cg_weapons.obj
 0002:00026558       __real@4082c00000000000    100c5558     cg_weapons.obj
 0002:00026560       __real@4041800000000000    100c5560     cg_weapons.obj
 0002:00026568       ??_C@_0L@LBJOCELD@tag_flash2?$AA@ 100c5568     cg_weapons.obj
 0002:00026574       ??_C@_0L@EKFDHKMA@tag_barrel?$AA@ 100c5574     cg_weapons.obj
 0002:00026580       ??_C@_09FPEHCODP@tag_bipod?$AA@ 100c5580     cg_weapons.obj
 0002:0002658c       ??_C@_07JDOMAANK@tag_prj?$AA@ 100c558c     cg_weapons.obj
 0002:00026594       ??_C@_0L@NAHDKHND@tag_scope2?$AA@ 100c5594     cg_weapons.obj
 0002:000265a0       ??_C@_09NLGGHFGF@tag_scope?$AA@ 100c55a0     cg_weapons.obj
 0002:000265ac       ??_C@_0M@DJBPFDHM@tag_barrel5?$AA@ 100c55ac     cg_weapons.obj
 0002:000265b8       ??_C@_0M@CAAEGCDN@tag_barrel4?$AA@ 100c55b8     cg_weapons.obj
 0002:000265c4       ??_C@_0L@GPMDJBLF@tag_needle?$AA@ 100c55c4     cg_weapons.obj
 0002:000265d0       ??_C@_0L@FOMBEMIN@tag_glight?$AA@ 100c55d0     cg_weapons.obj
 0002:000265dc       ??_C@_0L@GLCHPPOE@tag_rlight?$AA@ 100c55dc     cg_weapons.obj
 0002:000265e8       __real@414e848000000000    100c55e8     cg_weapons.obj
 0002:000265f0       __real@4a746284            100c55f0     cg_weapons.obj
 0002:000265f8       __real@3fe51eb860000000    100c55f8     cg_weapons.obj
 0002:00026600       ??_C@_09LAGNGGNE@tag_brass?$AA@ 100c5600     cg_weapons.obj
 0002:0002660c       ??_C@_0L@GMHOCPNK@tag_brass2?$AA@ 100c560c     cg_weapons.obj
 0002:00026618       __real@bfd99999a0000000    100c5618     cg_weapons.obj
 0002:00026620       ??_C@_0BP@HFBMKKEG@returning?5due?5to?3?5?$CBgun?4hModel?6?$AA@ 100c5620     cg_weapons.obj
 0002:00026640       __real@bfc999999999999a    100c5640     cg_weapons.obj
 0002:00026648       ??_C@_06MHFHNEHA@?$CLzoom?6?$AA@ 100c5648     cg_weapons.obj
 0002:00026650       ??_C@_0BF@ECPHHJPL@?$FO1Stop?5AVI?5Recording?$AA@ 100c5650     cg_window.obj
 0002:00026668       ??_C@_0BJ@EICLCLGC@?$FO3Record?5AVI?5?$EA?5?$FO7?$CFd?$FO2fps?$AA@ 100c5668     cg_window.obj
 0002:00026684       __real@41980000            100c5684     cg_window.obj
 0002:00026688       ??_C@_0BE@CHIBPGOK@?$FO3TimeScale?3?5?$FO7?$CF?41f?$AA@ 100c5688     cg_window.obj
 0002:0002669c       ??_C@_02BCPJPDCN@mu?$AA@   100c569c     g_match_tokens.obj
 0002:000266a0       ??_C@_07PABIOCAD@respawn?$AA@ 100c56a0     g_match_tokens.obj
 0002:000266a8       ??_C@_02FCGJFOGF@dr?$AA@   100c56a8     g_match_tokens.obj
 0002:000266ac       ??_C@_02LEBOADDI@dn?$AA@   100c56ac     g_match_tokens.obj
 0002:000266b0       ??_C@_02DGHHBPNF@sw?$AA@   100c56b0     g_match_tokens.obj
 0002:000266b4       ??_C@_02FOPACDJH@he?$AA@   100c56b4     g_match_tokens.obj
 0002:000266b8       ??_C@_02KMLFNMPK@rn?$AA@   100c56b8     g_match_tokens.obj
 0002:000266bc       ??_C@_02EHOLBCNG@hd?$AA@   100c56bc     g_match_tokens.obj
 0002:000266c0       ??_C@_02GIIHKPLE@ip?$AA@   100c56c0     g_match_tokens.obj
 0002:000266c4       ??_C@_02CBANPLJI@lw?$AA@   100c56c4     g_match_tokens.obj
 0002:000266c8       ??_C@_02BLAHNHF@dc?$AA@    100c56c8     g_match_tokens.obj
 0002:000266cc       ??_C@_02EKHMJHAA@bd?$AA@   100c56cc     g_match_tokens.obj
 0002:000266d0       ??_C@_02ECGIJGEA@hs?$AA@   100c56d0     g_match_tokens.obj
 0002:000266d4       ??_C@_02EJDENBHN@gs?$AA@   100c56d4     g_match_tokens.obj
 0002:000266d8       ??_C@_0L@JIJOLLHC@scriptName?$AA@ 100c56d8     g_match_tokens.obj
 0002:000266e4       ??_C@_03BMPDIJGA@brs?$AA@  100c56e4     g_match_tokens.obj
 0002:000266e8       ??_C@_02FGOECCNH@br?$AA@   100c56e8     g_match_tokens.obj
 0002:000266ec       ??_C@_02OHALLCDL@ch?$AA@   100c56ec     g_match_tokens.obj
 0002:000266f0       ??_C@_07EEBDLOIC@cl_guid?$AA@ 100c56f0     g_match_tokens.obj
 0002:000266f8       ??_C@_08NLHBPEGP@password?$AA@ 100c56f8     g_match_tokens.obj
 0002:00026704       ??_C@_02PKDCMMN@lc?$AA@    100c5704     g_match_tokens.obj
 0002:00026708       ??_C@_01JEJKBAGA@g?$AA@    100c5708     g_match_tokens.obj
 0002:0002670c       ??_C@_03KELAHBK@bls?$AA@   100c570c     g_match_tokens.obj
 0002:00026710       ??_C@_02ICKFBNAI@bl?$AA@   100c5710     g_match_tokens.obj
 0002:00026714       ??_C@_03BBHEACH@bcs?$AA@   100c5714     g_match_tokens.obj
 0002:00026718       ??_C@_02FDNABMH@bc?$AA@    100c5718     g_match_tokens.obj
 0002:00026aa0       __real@4066c16c16c16c17    100c5aa0     q_math.obj
 0002:00026aa8       __real@c056800000000000    100c5aa8     q_math.obj
 0002:00026ab0       ??_C@_0BJ@OLBOPICM@Q_strncpyz?3?5destsize?5?$DM?51?$AA@ 100c5ab0     q_shared.obj
 0002:00026acc       ??_C@_0BF@BJHHBLMD@Q_strncpyz?3?5NULL?5src?$AA@ 100c5acc     q_shared.obj
 0002:00026ae4       ??_C@_0BN@EFOOAHFL@Q_strcat?3?5already?5overflowed?$AA@ 100c5ae4     q_shared.obj
 0002:00026b04       ??_C@_0CK@KHOBLOFO@Com_sprintf?3?5overflow?5of?5?$CFi?5byte@ 100c5b04     q_shared.obj
 0002:00026b30       ??_C@_0CN@PKGLJABL@Attempted?5to?5overrun?5string?5in?5c@ 100c5b30     q_shared.obj
 0002:00026b60       ??_C@_0DA@LIKJOKD@Info_ValueForKey?3?5oversize?5infos@ 100c5b60     q_shared.obj
 0002:00026b90       ??_C@_0P@EHPKKHPK@itemHotkeyMode?$AA@ 100c5b90     ui_shared.obj
 0002:00026ba0       ??_C@_05NFCMEHKM@modal?$AA@ 100c5ba0     ui_shared.obj
 0002:00026ba8       ??_C@_0M@LEIOAIA@alwaysontop?$AA@ 100c5ba8     ui_shared.obj
 0002:00026bb4       ??_C@_0L@BNAEKCAN@execKeyInt?$AA@ 100c5bb4     ui_shared.obj
 0002:00026bc0       ??_C@_0L@JDDHILPC@fadeAmount?$AA@ 100c5bc0     ui_shared.obj
 0002:00026bcc       ??_C@_09LGBLEGN@fadeCycle?$AA@ 100c5bcc     ui_shared.obj
 0002:00026bd8       ??_C@_09DPBPOIDH@fadeClamp?$AA@ 100c5bd8     ui_shared.obj
 0002:00026be4       ??_C@_05EIEHMANA@popup?$AA@ 100c5be4     ui_shared.obj
 0002:00026bec       ??_C@_07BNAIEIKL@itemDef?$AA@ 100c5bec     ui_shared.obj
 0002:00026bf4       ??_C@_09LMHPKFJB@soundLoop?$AA@ 100c5bf4     ui_shared.obj
 0002:00026c00       ??_C@_0BB@FOHPFLED@outOfBoundsClick?$AA@ 100c5c00     ui_shared.obj
 0002:00026c14       ??_C@_0N@EEPADJLO@disablecolor?$AA@ 100c5c14     ui_shared.obj
 0002:00026c24       ??_C@_0L@OKFLOHAM@focuscolor?$AA@ 100c5c24     ui_shared.obj
 0002:00026c30       ??_C@_0L@NBMNMLHL@borderSize?$AA@ 100c5c30     ui_shared.obj
 0002:00026c3c       ??_C@_05IIPJAONP@onESC?$AA@ 100c5c3c     ui_shared.obj
 0002:00026c44       ??_C@_09PIOOHDON@onTimeout?$AA@ 100c5c44     ui_shared.obj
 0002:00026c50       ??_C@_07LAOJOJAJ@onClose?$AA@ 100c5c50     ui_shared.obj
 0002:00026c58       ??_C@_06CJGNFCEB@onOpen?$AA@ 100c5c58     ui_shared.obj
 0002:00026c60       ??_C@_0L@GIACNHMO@fullscreen?$AA@ 100c5c60     ui_shared.obj
 0002:00026c6c       ??_C@_07ICKFFHJA@bitflag?$AA@ 100c5c6c     ui_shared.obj
 0002:00026c74       ??_C@_07FJHHECNJ@wrapped?$AA@ 100c5c74     ui_shared.obj
 0002:00026c7c       ??_C@_08BGHADAON@voteFlag?$AA@ 100c5c7c     ui_shared.obj
 0002:00026c88       ??_C@_07DPDAEJMK@visible?$AA@ 100c5c88     ui_shared.obj
 0002:00026c90       ??_C@_0O@ILKOLHGF@tooltipaligny?$AA@ 100c5c90     ui_shared.obj
 0002:00026ca0       ??_C@_0O@JCLFIGCE@tooltipalignx?$AA@ 100c5ca0     ui_shared.obj
 0002:00026cb0       ??_C@_07OGDNBKKB@tooltip?$AA@ 100c5cb0     ui_shared.obj
 0002:00026cb8       ??_C@_09FMCFHDEN@textstyle?$AA@ 100c5cb8     ui_shared.obj
 0002:00026cc4       ??_C@_09BLEIEHKP@textscale?$AA@ 100c5cc4     ui_shared.obj
 0002:00026cd0       ??_C@_08BPKLDJKM@textfont?$AA@ 100c5cd0     ui_shared.obj
 0002:00026cdc       ??_C@_08GKJNJBAO@textfile?$AA@ 100c5cdc     ui_shared.obj
 0002:00026ce8       ??_C@_0L@FCLMCIJC@textaligny?$AA@ 100c5ce8     ui_shared.obj
 0002:00026cf4       ??_C@_0L@ELKHBJND@textalignx?$AA@ 100c5cf4     ui_shared.obj
 0002:00026d00       ??_C@_09PNBDGNCL@textalign?$AA@ 100c5d00     ui_shared.obj
 0002:00026d0c       ??_C@_04CIMGMMMG@text?$AA@ 100c5d0c     ui_shared.obj
 0002:00026d14       ??_C@_05IAKJCFIM@style?$AA@ 100c5d14     ui_shared.obj
 0002:00026d1c       ??_C@_07BELCMIIP@special?$AA@ 100c5d1c     ui_shared.obj
 0002:00026d24       ??_C@_08LNBEMJIA@showCvar?$AA@ 100c5d24     ui_shared.obj
 0002:00026d30       ??_C@_0P@BCBEJNDD@settingEnabled?$AA@ 100c5d30     ui_shared.obj
 0002:00026d40       ??_C@_0BA@BGMCKCOH@settingDisabled?$AA@ 100c5d40     ui_shared.obj
 0002:00026d50       ??_C@_04LHPFHFPH@rect?$AA@ 100c5d50     ui_shared.obj
 0002:00026d58       ??_C@_0O@DACAJCLK@ownerdrawFlag?$AA@ 100c5d58     ui_shared.obj
 0002:00026d68       ??_C@_09HGLBOMNF@ownerdraw?$AA@ 100c5d68     ui_shared.obj
 0002:00026d74       ??_C@_0N@LGJOCBPD@outlinecolor?$AA@ 100c5d74     ui_shared.obj
 0002:00026d84       ??_C@_07PFEHHELH@onFocus?$AA@ 100c5d84     ui_shared.obj
 0002:00026d8c       ??_C@_0O@FDEIBLKE@notselectable?$AA@ 100c5d8c     ui_shared.obj
 0002:00026d9c       ??_C@_08HOAALKBK@noToggle?$AA@ 100c5d9c     ui_shared.obj
 0002:00026da8       ??_C@_0O@GFPABKKP@mouseExitText?$AA@ 100c5da8     ui_shared.obj
 0002:00026db8       ??_C@_09OIHCIOIA@mouseExit?$AA@ 100c5db8     ui_shared.obj
 0002:00026dc4       ??_C@_0P@BCEPHLNB@mouseEnterText?$AA@ 100c5dc4     ui_shared.obj
 0002:00026dd4       ??_C@_0L@KAGOMOPN@mouseEnter?$AA@ 100c5dd4     ui_shared.obj
 0002:00026de0       ??_C@_0P@NOKHMHPD@model_rotation?$AA@ 100c5de0     ui_shared.obj
 0002:00026df0       ??_C@_0N@LHLPLFLG@model_origin?$AA@ 100c5df0     ui_shared.obj
 0002:00026e00       ??_C@_0L@NMCIJLPA@model_fovy?$AA@ 100c5e00     ui_shared.obj
 0002:00026e0c       ??_C@_0L@MFDDKKLB@model_fovx?$AA@ 100c5e0c     ui_shared.obj
 0002:00026e18       ??_C@_0P@DLMIHLMC@model_animplay?$AA@ 100c5e18     ui_shared.obj
 0002:00026e28       ??_C@_0M@HHMGANAM@model_angle?$AA@ 100c5e28     ui_shared.obj
 0002:00026e34       ??_C@_0O@HPCOAMJM@maxPaintChars?$AA@ 100c5e34     ui_shared.obj
 0002:00026e44       ??_C@_08IHGPPBOI@maxChars?$AA@ 100c5e44     ui_shared.obj
 0002:00026e50       ??_C@_0L@LMAJDKOE@leaveFocus?$AA@ 100c5e50     ui_shared.obj
 0002:00026e5c       ??_C@_0BB@EIBMEDHI@horizontalscroll?$AA@ 100c5e5c     ui_shared.obj
 0002:00026e70       ??_C@_08BDDCOCNI@hideCvar?$AA@ 100c5e70     ui_shared.obj
 0002:00026e7c       ??_C@_05MGJOOGAJ@group?$AA@ 100c5e7c     ui_shared.obj
 0002:00026e84       ??_C@_09MONNBKNO@forecolor?$AA@ 100c5e84     ui_shared.obj
 0002:00026e90       ??_C@_0L@NOGKCHFE@focusSound?$AA@ 100c5e90     ui_shared.obj
 0002:00026e9c       ??_C@_06GEEPENGB@feeder?$AA@ 100c5e9c     ui_shared.obj
 0002:00026ea4       ??_C@_07KHAOJHDJ@execKey?$AA@ 100c5ea4     ui_shared.obj
 0002:00026eac       ??_C@_0L@LCDHKNEJ@enableCvar?$AA@ 100c5eac     ui_shared.obj
 0002:00026eb8       ??_C@_0N@MILKKPGL@elementwidth?$AA@ 100c5eb8     ui_shared.obj
 0002:00026ec8       ??_C@_0M@HBNIAHKL@elementtype?$AA@ 100c5ec8     ui_shared.obj
 0002:00026ed4       ??_C@_0O@MNJDKOBB@elementheight?$AA@ 100c5ed4     ui_shared.obj
 0002:00026ee4       ??_C@_07IGEANCLO@onEnter?$AA@ 100c5ee4     ui_shared.obj
 0002:00026eec       ??_C@_05CFDAGMJN@onEsc?$AA@ 100c5eec     ui_shared.obj
 0002:00026ef4       ??_C@_0M@IHJKFHF@doubleclick?$AA@ 100c5ef4     ui_shared.obj
 0002:00026f00       ??_C@_0M@FBHLBFCC@disableCvar?$AA@ 100c5f00     ui_shared.obj
 0002:00026f0c       ??_C@_0M@OIJJAIPM@textasfloat?$AA@ 100c5f0c     ui_shared.obj
 0002:00026f18       ??_C@_09KAFPKMCM@textasint?$AA@ 100c5f18     ui_shared.obj
 0002:00026f24       ??_C@_0L@GFEIECKE@decoration?$AA@ 100c5f24     ui_shared.obj
 0002:00026f30       ??_C@_08KBIDCBHN@cvarTest?$AA@ 100c5f30     ui_shared.obj
 0002:00026f3c       ??_C@_0BC@IJHOLNF@cvarListUndefined?$AA@ 100c5f3c     ui_shared.obj
 0002:00026f50       ??_C@_0M@GOKMFACI@cvarStrList?$AA@ 100c5f50     ui_shared.obj
 0002:00026f5c       ??_C@_0O@IKNDJMDK@cvarFloatList?$AA@ 100c5f5c     ui_shared.obj
 0002:00026f6c       ??_C@_09CGGKHKAP@cvarFloat?$AA@ 100c5f6c     ui_shared.obj
 0002:00026f78       ??_C@_04PNAHEAFM@cvar?$AA@ 100c5f78     ui_shared.obj
 0002:00026f80       ??_C@_0M@NAMPODJM@contextmenu?$AA@ 100c5f80     ui_shared.obj
 0002:00026f8c       ??_C@_07HIFEPIJN@columns?$AA@ 100c5f8c     ui_shared.obj
 0002:00026f94       ??_C@_09DHDJHDLH@cinematic?$AA@ 100c5f94     ui_shared.obj
 0002:00026fa0       ??_C@_0L@BAAMOEHP@bordersize?$AA@ 100c5fa0     ui_shared.obj
 0002:00026fac       ??_C@_0M@CJNAABJD@bordercolor?$AA@ 100c5fac     ui_shared.obj
 0002:00026fb8       ??_C@_06ODFLABIG@border?$AA@ 100c5fb8     ui_shared.obj
 0002:00026fc0       ??_C@_0L@EGCKCJDC@background?$AA@ 100c5fc0     ui_shared.obj
 0002:00026fcc       ??_C@_09OPNKCLNO@backcolor?$AA@ 100c5fcc     ui_shared.obj
 0002:00026fd8       ??_C@_0M@HHKOOJO@autowrapped?$AA@ 100c5fd8     ui_shared.obj
 0002:00026fe4       ??_C@_0N@HLFJAKEA@asset_shader?$AA@ 100c5fe4     ui_shared.obj
 0002:00026ff4       ??_C@_0M@DKAIGAGN@asset_model?$AA@ 100c5ff4     ui_shared.obj
 0002:00027000       ??_C@_05CBJPDLOK@align?$AA@ 100c6000     ui_shared.obj
 0002:00027008       ??_C@_0BB@NGONGLOH@addColorRangeRel?$AA@ 100c6008     ui_shared.obj
 0002:0002701c       ??_C@_0O@BGFKBLBI@addColorRange?$AA@ 100c601c     ui_shared.obj
 0002:0002702c       ??_C@_06DDLLCOJG@action?$AA@ 100c602c     ui_shared.obj
 0002:00027034       ??_C@_06MPKMECK@accept?$AA@ 100c6034     ui_shared.obj
 0002:0002703c       ??_C@_0P@NGPDLPMB@selectbuddy?5?92?$AA@ 100c603c     ui_shared.obj
 0002:0002704c       ??_C@_0O@GPNAOAHJ@selectbuddy?55?$AA@ 100c604c     ui_shared.obj
 0002:0002705c       ??_C@_0O@HGMLNBDI@selectbuddy?54?$AA@ 100c605c     ui_shared.obj
 0002:0002706c       ??_C@_0O@DJIKEHPP@selectbuddy?53?$AA@ 100c606c     ui_shared.obj
 0002:0002707c       ??_C@_0O@CAJBHGLO@selectbuddy?52?$AA@ 100c607c     ui_shared.obj
 0002:0002708c       ??_C@_0O@LLMCFHN@selectbuddy?51?$AA@ 100c608c     ui_shared.obj
 0002:0002709c       ??_C@_0O@BCKHBEDM@selectbuddy?50?$AA@ 100c609c     ui_shared.obj
 0002:000270ac       ??_C@_0P@PNNOOMAC@selectbuddy?5?91?$AA@ 100c60ac     ui_shared.obj
 0002:000270bc       ??_C@_0P@CFKIOMCJ@autoscreenshot?$AA@ 100c60bc     ui_shared.obj
 0002:000270cc       ??_C@_0BA@DHFEGEJI@mp_quickmessage?$AA@ 100c60cc     ui_shared.obj
 0002:000270dc       ??_C@_0M@JINOELJH@messagemode?$AA@ 100c60dc     ui_shared.obj
 0002:000270e8       ??_C@_09MIFHBA@mapzoomin?$AA@ 100c60e8     ui_shared.obj
 0002:000270f4       ??_C@_0L@GDPMHHIM@mapzoomout?$AA@ 100c60f4     ui_shared.obj
 0002:00027100       ??_C@_0L@GILFCCIB@mvactivate?$AA@ 100c6100     ui_shared.obj
 0002:0002710c       ??_C@_0L@HBDHBCHM@togglemenu?$AA@ 100c610c     ui_shared.obj
 0002:00027118       ??_C@_0O@JJBKLGLG@toggleconsole?$AA@ 100c6118     ui_shared.obj
 0002:00027128       ??_C@_07GKAMHDNA@?$CLreload?$AA@ 100c6128     ui_shared.obj
 0002:00027130       ??_C@_09DHBCCNNM@?$CLactivate?$AA@ 100c6130     ui_shared.obj
 0002:0002713c       ??_C@_06JIDIHCBO@?$CLspeed?$AA@ 100c613c     ui_shared.obj
 0002:00027144       ??_C@_0N@IFDIBLGC@weaponbank?59?$AA@ 100c6144     ui_shared.obj
 0002:00027154       ??_C@_0N@JMCDCKCD@weaponbank?58?$AA@ 100c6154     ui_shared.obj
 0002:00027164       ??_C@_0N@BLLLDGOM@weaponbank?57?$AA@ 100c6164     ui_shared.obj
 0002:00027174       ??_C@_0N@CKAAHKN@weaponbank?56?$AA@ 100c6174     ui_shared.obj
 0002:00027184       ??_C@_0N@CJINFEGO@weaponbank?55?$AA@ 100c6184     ui_shared.obj
 0002:00027194       ??_C@_0N@DAJGGFCP@weaponbank?54?$AA@ 100c6194     ui_shared.obj
 0002:000271a4       ??_C@_0N@HPNHPDOI@weaponbank?53?$AA@ 100c61a4     ui_shared.obj
 0002:000271b4       ??_C@_0N@GGMMMCKJ@weaponbank?52?$AA@ 100c61b4     ui_shared.obj
 0002:000271c4       ??_C@_0N@ENOBJBGK@weaponbank?51?$AA@ 100c61c4     ui_shared.obj
 0002:000271d4       ??_C@_0O@HCGMFPCE@weaponbank?510?$AA@ 100c61d4     ui_shared.obj
 0002:000271e4       ??_C@_06BOJPGNBE@?$CLprone?$AA@ 100c61e4     ui_shared.obj
 0002:000271ec       ??_C@_09MBJIAMKH@?$CLleanleft?$AA@ 100c61ec     ui_shared.obj
 0002:000271f8       ??_C@_0L@FCIMKBCO@?$CLleanright?$AA@ 100c61f8     ui_shared.obj
 0002:00027204       ??_C@_09HNJJMOJG@?$CLmovedown?$AA@ 100c6204     ui_shared.obj
 0002:00027210       ??_C@_07CKGNAPCP@?$CLmoveup?$AA@ 100c6210     ui_shared.obj
 0002:00027218       ??_C@_0L@FMBJCMEG@?$CLmoveright?$AA@ 100c6218     ui_shared.obj
 0002:00027224       ??_C@_09IPJNFGKP@?$CLmoveleft?$AA@ 100c6224     ui_shared.obj
 0002:00027230       ??_C@_05IPKGNIPH@?$CLback?$AA@ 100c6230     ui_shared.obj
 0002:00027238       ??_C@_08KKEOHAPB@?$CLforward?$AA@ 100c6238     ui_shared.obj
 0002:00027244       ??_C@_05BBAEEBBH@abort?$AA@ 100c6244     ui_shared.obj
 0002:0002724c       ??_C@_0N@BKPIBBDE@setEditFocus?$AA@ 100c624c     ui_shared.obj
 0002:0002725c       ??_C@_0P@IBJMDJHM@execwolfconfig?$AA@ 100c625c     ui_shared.obj
 0002:0002726c       ??_C@_0N@PKBHEBMI@setmenufocus?$AA@ 100c626c     ui_shared.obj
 0002:0002727c       ??_C@_0O@MHFCLLDF@getautoupdate?$AA@ 100c627c     ui_shared.obj
 0002:0002728c       ??_C@_0BA@FIGLFAEL@checkautoupdate?$AA@ 100c628c     ui_shared.obj
 0002:0002729c       ??_C@_0M@NJCMCKNA@addlistitem?$AA@ 100c629c     ui_shared.obj
 0002:000272a8       ??_C@_05KJPHCDKJ@orbit?$AA@ 100c62a8     ui_shared.obj
 0002:000272b0       ??_C@_0L@NDOCJLDE@playlooped?$AA@ 100c62b0     ui_shared.obj
 0002:000272bc       ??_C@_04GBHMDDO@play?$AA@  100c62bc     ui_shared.obj
 0002:000272c4       ??_C@_07KDPGGAGN@execnow?$AA@ 100c62c4     ui_shared.obj
 0002:000272cc       ??_C@_04MGEIEJAD@exec?$AA@ 100c62cc     ui_shared.obj
 0002:000272d4       ??_C@_08HBEMCALL@copycvar?$AA@ 100c62d4     ui_shared.obj
 0002:000272e0       ??_C@_0O@BCMNOI@togglecvarbit?$AA@ 100c62e0     ui_shared.obj
 0002:000272f0       ??_C@_09KLAIFHLA@clearcvar?$AA@ 100c62f0     ui_shared.obj
 0002:000272fc       ??_C@_07DFOFNCMO@setcvar?$AA@ 100c62fc     ui_shared.obj
 0002:00027304       ??_C@_0L@KGLELNDP@transition?$AA@ 100c6304     ui_shared.obj
 0002:00027310       ??_C@_0O@DDHOJBLA@setplayerhead?$AA@ 100c6310     ui_shared.obj
 0002:00027320       ??_C@_0P@COHLPKKB@setplayermodel?$AA@ 100c6320     ui_shared.obj
 0002:00027330       ??_C@_0L@FNKDCLKA@clearfocus?$AA@ 100c6330     ui_shared.obj
 0002:0002733c       ??_C@_08OKIAJKBO@setfocus?$AA@ 100c633c     ui_shared.obj
 0002:00027348       ??_C@_0N@KMLJLNON@setteamcolor?$AA@ 100c6348     ui_shared.obj
 0002:00027358       ??_C@_0BB@OAEMNPFA@setmenuitemcolor?$AA@ 100c6358     ui_shared.obj
 0002:0002736c       ??_C@_0N@EBBIOPHN@setitemcolor?$AA@ 100c636c     ui_shared.obj
 0002:0002737c       ??_C@_0O@FOIIKEEB@setbackground?$AA@ 100c637c     ui_shared.obj
 0002:0002738c       ??_C@_08FBOLLCAN@setasset?$AA@ 100c638c     ui_shared.obj
 0002:00027398       ??_C@_08JHFFJMNE@showpage?$AA@ 100c6398     ui_shared.obj
 0002:000273a4       ??_C@_09DEBOPNMH@clipboard?$AA@ 100c63a4     ui_shared.obj
 0002:000273b0       ??_C@_0BD@NMAMMAAO@closeallothermenus?$AA@ 100c63b0     ui_shared.obj
 0002:000273c4       ??_C@_08FBNJNOBD@closeall?$AA@ 100c63c4     ui_shared.obj
 0002:000273d0       ??_C@_05LBOHBHFK@close?$AA@ 100c63d0     ui_shared.obj
 0002:000273d8       ??_C@_0BC@FFFCDEPN@conditionalscript?$AA@ 100c63d8     ui_shared.obj
 0002:000273ec       ??_C@_0BA@JLPGECPM@conditionalopen?$AA@ 100c63ec     ui_shared.obj
 0002:000273fc       ??_C@_0M@EGJEAEHJ@fadeoutmenu?$AA@ 100c63fc     ui_shared.obj
 0002:00027408       ??_C@_0L@NKDDLLBJ@fadeinmenu?$AA@ 100c6408     ui_shared.obj
 0002:00027414       ??_C@_04PMOCAHAA@open?$AA@ 100c6414     ui_shared.obj
 0002:0002741c       ??_C@_08OKIEAMBM@setcolor?$AA@ 100c641c     ui_shared.obj
 0002:00027428       ??_C@_04IBOFHAPJ@hide?$AA@ 100c6428     ui_shared.obj
 0002:00027430       ??_C@_04FKMICODN@show?$AA@ 100c6430     ui_shared.obj
 0002:00027438       ??_C@_07BJADIKJG@fadeout?$AA@ 100c6438     ui_shared.obj
 0002:00027440       ??_C@_06JFGPOFJL@fadein?$AA@ 100c6440     ui_shared.obj
 0002:00027450       __real@4083d80000000000    100c6450     ui_shared.obj
 0002:00027458       ??_C@_0CD@LBKPCJLM@UI_Alloc?3?5Failure?4?5Out?5of?5memory@ 100c6458     ui_shared.obj
 0002:0002747c       ??_C@_04OEDFLLKD@?$CC?$CFs?$CC?$AA@ 100c647c     ui_shared.obj
 0002:00027484       ??_C@_0L@KEDOKIKJ@team_model?$AA@ 100c6484     ui_shared.obj
 0002:00027490       ??_C@_0P@JMIBMNM@team_headmodel?$AA@ 100c6490     ui_shared.obj
 0002:000274a0       ??_C@_05LKKGNBCL@?$CFs?5?$DL?5?$AA@ 100c64a0     ui_shared.obj
 0002:000274a8       ??_C@_07JKMGABMM@com_pid?$AA@ 100c64a8     ui_shared.obj
 0002:000274b0       ??_C@_0CG@GNPMJMIO@Script_WriteProfile?3?5Can?8t?5write@ 100c64b0     ui_shared.obj
 0002:000274d8       ??_C@_08NNCMPFKC@exec?5?$CFs?6?$AA@ 100c64d8     ui_shared.obj
 0002:000274e4       ??_C@_0DD@EJGBNGNL@?$FO3WARNING?3?5couldn?8t?5write?5profil@ 100c64e4     ui_shared.obj
 0002:00027518       ??_C@_0EC@PKMOAFGL@?$FO3WARNING?3?5profile?4pid?5found?5for@ 100c6518     ui_shared.obj
 0002:0002755c       ??_C@_0BI@FGPNFEHN@profiles?1?$CFs?1profile?4pid?$AA@ 100c655c     ui_shared.obj
 0002:00027574       ??_C@_0O@IKFJJNBJ@Delete?5?$CFs?5?$CFd?6?$AA@ 100c6574     ui_shared.obj
 0002:00027584       ??_C@_0BG@EJDHPPBA@profiles?1?$CFs?1backup_?$CFs?$AA@ 100c6584     ui_shared.obj
 0002:0002759c       ??_C@_0P@NNHNPLN@profiles?1?$CFs?1?$CFs?$AA@ 100c659c     ui_shared.obj
 0002:000275ac       ??_C@_0N@JFLPIDNL@etconfig?4cfg?$AA@ 100c65ac     ui_shared.obj
 0002:000275bc       ??_C@_0L@BMGAKOKM@cl_profile?$AA@ 100c65bc     ui_shared.obj
 0002:000275c8       __real@4058000000000000    100c65c8     ui_shared.obj
 0002:000275d0       ??_C@_06IFGIOHDE@Custom?$AA@ 100c65d0     ui_shared.obj
 0002:000275d8       ??_C@_0N@PABJFGMA@None?5Defined?$AA@ 100c65d8     ui_shared.obj
 0002:000275e8       ??_C@_04LIFAFMCE@?$FL?$CFs?$FN?$AA@ 100c65e8     ui_shared.obj
 0002:000275f0       ??_C@_04FJKIFICP@?5or?5?$AA@ 100c65f0     ui_shared.obj
 0002:000275f8       ??_C@_0BK@FLAIOFFC@MAX_MODAL_MENUS?5exceeded?6?$AA@ 100c65f8     ui_shared.obj
 0002:00027614       __real@3f0ccccd            100c6614     ui_shared.obj
 0002:00027618       ??_C@_0BO@GKGLOPGG@end?5of?5file?5inside?5menu?5item?6?$AA@ 100c6618     ui_shared.obj
 0002:00027638       ??_C@_0ED@EJHMBLGN@both?5addColorRange?5and?5addColorR@ 100c6638     ui_shared.obj
 0002:0002767c       ??_C@_0CE@OIGKMGKE@couldn?8t?5parse?5menu?5item?5keyword@ 100c667c     ui_shared.obj
 0002:000276a0       ??_C@_0BN@JHFMAPJL@unknown?5menu?5item?5keyword?5?$CFs?$AA@ 100c66a0     ui_shared.obj
 0002:000276c0       ??_C@_0EE@CBEPHLCH@?$FO3WARNING?3?5tried?5closing?5a?5modal@ 100c66c0     ui_shared.obj
 0002:00027704       ??_C@_0O@DKNGICKJ@ROldModeCheck?$AA@ 100c6704     ui_shared.obj
 0002:00027714       ??_C@_0O@NHGMKMHI@r_texturemode?$AA@ 100c6714     ui_shared.obj
 0002:00027724       ??_C@_0BB@GBAJKCAL@ui_r_texturemode?$AA@ 100c6724     ui_shared.obj
 0002:00027738       ??_C@_0P@CEFBGCNE@r_subdivisions?$AA@ 100c6738     ui_shared.obj
 0002:00027748       ??_C@_0BB@OJJFINJB@r_detailtextures?$AA@ 100c6748     ui_shared.obj
 0002:0002775c       ??_C@_05GPLACMP@s_khz?$AA@ 100c675c     ui_shared.obj
 0002:00027764       ??_C@_0BC@IBAMDMJB@r_allowextensions?$AA@ 100c6764     ui_shared.obj
 0002:00027778       ??_C@_0BK@GPIDLLEE@r_ext_compressed_textures?$AA@ 100c6778     ui_shared.obj
 0002:00027794       ??_C@_0N@JILGCMBC@r_fullscreen?$AA@ 100c6794     ui_shared.obj
 0002:000277a4       ??_C@_0BC@ONOLCHFM@ui_r_subdivisions?$AA@ 100c67a4     ui_shared.obj
 0002:000277b8       ??_C@_0BE@BMHJODHH@ui_r_detailtextures?$AA@ 100c67b8     ui_shared.obj
 0002:000277cc       ??_C@_08PBDNBDJG@ui_s_khz?$AA@ 100c67cc     ui_shared.obj
 0002:000277d8       ??_C@_0BF@MIJAJHLC@ui_r_allowextensions?$AA@ 100c67d8     ui_shared.obj
 0002:000277f0       ??_C@_0BN@GCJBLFGF@ui_r_ext_compressed_textures?$AA@ 100c67f0     ui_shared.obj
 0002:00027810       ??_C@_0P@FOKPMCPI@ui_r_depthbits?$AA@ 100c6810     ui_shared.obj
 0002:00027820       ??_C@_0BB@MGIMHMKB@ui_r_texturebits?$AA@ 100c6820     ui_shared.obj
 0002:00027834       ??_C@_0BA@JLJFGCCN@ui_r_fullscreen?$AA@ 100c6834     ui_shared.obj
 0002:00027844       ??_C@_0P@MFNNJOLC@ui_r_colorbits?$AA@ 100c6844     ui_shared.obj
 0002:00027854       ??_C@_09KDEPNMFH@ui_r_mode?$AA@ 100c6854     ui_shared.obj
 0002:00027860       ??_C@_0BF@JHKFGNEG@vidrestartIsRequired?$AA@ 100c6860     ui_shared.obj
 0002:00027878       ??_C@_07NGGBHANB@ui_rate?$AA@ 100c6878     ui_shared.obj
 0002:00027880       ??_C@_0BF@EPIALJJC@ReadyToCreateProfile?$AA@ 100c6880     ui_shared.obj
 0002:00027898       ??_C@_0BE@NCDNMBCO@ui_profile_renameto?$AA@ 100c6898     ui_shared.obj
 0002:000278ac       ??_C@_0BO@IELJGOMJ@UIProfileAlreadyExists_Rename?$AA@ 100c68ac     ui_shared.obj
 0002:000278cc       ??_C@_0BI@MNFHNHFM@profiles?1?$CFs?1profile?4dat?$AA@ 100c68cc     ui_shared.obj
 0002:000278e4       ??_C@_0BH@JGHBFCBG@UIProfileAlreadyExists?$AA@ 100c68e4     ui_shared.obj
 0002:000278fc       ??_C@_0BD@DLLNMEGL@UIProfileValidName?$AA@ 100c68fc     ui_shared.obj
 0002:00027910       ??_C@_0L@LMAKGLGA@ui_profile?$AA@ 100c6910     ui_shared.obj
 0002:0002791c       ??_C@_0BJ@OGBOMNBM@UIProfileIsActiveProfile?$AA@ 100c691c     ui_shared.obj
 0002:00027938       ??_C@_06GKHDGJNB@?$FO1?$CFd?$FO?$CK?$AA@ 100c6938     ui_shared.obj
 0002:00027940       ??_C@_04GEFJINEE@?$CF?42f?$AA@ 100c6940     ui_shared.obj
 0002:00027948       ??_C@_02JINPPBEP@No?$AA@   100c6948     ui_shared.obj
 0002:0002794c       ??_C@_03CCLAEDDF@Yes?$AA@  100c694c     ui_shared.obj
 0002:00027950       ??_C@_05DJCKAPIL@FIXME?$AA@ 100c6950     ui_shared.obj
 0002:00027958       __real@3faaceea00000000    100c6958     ui_shared.obj
 0002:00027960       ??_C@_0BA@LBKCGOOB@ui_showtooltips?$AA@ 100c6960     ui_shared.obj
 0002:00027970       ??_C@_0N@FFBFPIKO@mouse?3?5?$CFi?5?$CFi?$AA@ 100c6970     ui_shared.obj
 0002:00027980       ??_C@_09EEMLMMJE@fps?3?5?$CF?42f?$AA@ 100c6980     ui_shared.obj
 0002:0002798c       ??_C@_05DPGHPOOK@?$FO7?$CFs?5?$AA@ 100c698c     ui_shared.obj
 0002:00027994       ??_C@_07GMDMIILO@?$FO7?$CFs?$FO0_?$AA@ 100c6994     ui_shared.obj
 0002:0002799c       ??_C@_07NCJFPPNP@?$FO7?$CFs?$FO0?$HM?$AA@ 100c699c     ui_shared.obj
 0002:000279a4       ??_C@_03OMCBPMHJ@?$FO0_?$AA@ 100c69a4     ui_shared.obj
 0002:000279a8       ??_C@_03FCIIILBI@?$FO0?$HM?$AA@ 100c69a8     ui_shared.obj
 0002:000279ac       __FPinit                   100c69ac     LIBCMT:_fpinit_.obj
 0002:00027a00       ??_C@_0P@MIGLKIOC@CorExitProcess?$AA@ 100c6a00     LIBCMT:crt0dat.obj
 0002:00027a10       ??_C@_1BI@BGOHAHKC@?$AAm?$AAs?$AAc?$AAo?$AAr?$AAe?$AAe?$AA?4?$AAd?$AAl?$AAl?$AA?$AA@ 100c6a10     LIBCMT:crt0dat.obj
 0002:00027a78       __pRawDllMain              100c6a78     LIBCMT:dllcrt0.obj
 0002:00027a78       __pDefaultRawDllMain       100c6a78     LIBCMT:dllcrt0.obj
 0002:00027a7c       ??_C@_1BK@DBDEIDLH@?$AAK?$AAE?$AAR?$AAN?$AAE?$AAL?$AA3?$AA2?$AA?4?$AAD?$AAL?$AAL?$AA?$AA@ 100c6a7c     LIBCMT:tidtable.obj
 0002:00027a98       ??_C@_07PEJMOBNF@FlsFree?$AA@ 100c6a98     LIBCMT:tidtable.obj
 0002:00027aa0       ??_C@_0M@JCPCPOEF@FlsSetValue?$AA@ 100c6aa0     LIBCMT:tidtable.obj
 0002:00027aac       ??_C@_0M@GDNOONDI@FlsGetValue?$AA@ 100c6aac     LIBCMT:tidtable.obj
 0002:00027ab8       ??_C@_08KNHFBNJ@FlsAlloc?$AA@ 100c6ab8     LIBCMT:tidtable.obj
 0002:00027ac4       ??_C@_05KLBDPFGC@e?$CL000?$AA@ 100c6ac4     LIBCMT:cvt.obj
 0002:00027acc       ??_C@_1BC@GDGBMEMK@?$AAH?$AAH?$AA?3?$AAm?$AAm?$AA?3?$AAs?$AAs?$AA?$AA@ 100c6acc     LIBCMT:nlsdata2.obj
 0002:00027ae0       ??_C@_1CI@KNAKOEBC@?$AAd?$AAd?$AAd?$AAd?$AA?0?$AA?5?$AAM?$AAM?$AAM?$AAM?$AA?5?$AAd?$AAd?$AA?0?$AA?5?$AAy?$AAy?$AAy?$AAy?$AA?$AA@ 100c6ae0     LIBCMT:nlsdata2.obj
 0002:00027b08       ??_C@_1BC@IEBCMHCM@?$AAM?$AAM?$AA?1?$AAd?$AAd?$AA?1?$AAy?$AAy?$AA?$AA@ 100c6b08     LIBCMT:nlsdata2.obj
 0002:00027b1c       ??_C@_15CLMNNGEL@?$AAP?$AAM?$AA?$AA@ 100c6b1c     LIBCMT:nlsdata2.obj
 0002:00027b24       ??_C@_15ODEHAHHF@?$AAA?$AAM?$AA?$AA@ 100c6b24     LIBCMT:nlsdata2.obj
 0002:00027b2c       ??_C@_1BC@FEMKIFH@?$AAD?$AAe?$AAc?$AAe?$AAm?$AAb?$AAe?$AAr?$AA?$AA@ 100c6b2c     LIBCMT:nlsdata2.obj
 0002:00027b40       ??_C@_1BC@BGLIFPF@?$AAN?$AAo?$AAv?$AAe?$AAm?$AAb?$AAe?$AAr?$AA?$AA@ 100c6b40     LIBCMT:nlsdata2.obj
 0002:00027b54       ??_C@_1BA@EPANDLNG@?$AAO?$AAc?$AAt?$AAo?$AAb?$AAe?$AAr?$AA?$AA@ 100c6b54     LIBCMT:nlsdata2.obj
 0002:00027b64       ??_C@_1BE@DKAAMBJL@?$AAS?$AAe?$AAp?$AAt?$AAe?$AAm?$AAb?$AAe?$AAr?$AA?$AA@ 100c6b64     LIBCMT:nlsdata2.obj
 0002:00027b78       ??_C@_1O@PAHLKOAC@?$AAA?$AAu?$AAg?$AAu?$AAs?$AAt?$AA?$AA@ 100c6b78     LIBCMT:nlsdata2.obj
 0002:00027b88       ??_C@_19BIFMLPCD@?$AAJ?$AAu?$AAl?$AAy?$AA?$AA@ 100c6b88     LIBCMT:nlsdata2.obj
 0002:00027b94       ??_C@_19EPFLPGAP@?$AAJ?$AAu?$AAn?$AAe?$AA?$AA@ 100c6b94     LIBCMT:nlsdata2.obj
 0002:00027ba0       ??_C@_1M@GJNLMHFD@?$AAA?$AAp?$AAr?$AAi?$AAl?$AA?$AA@ 100c6ba0     LIBCMT:nlsdata2.obj
 0002:00027bac       ??_C@_1M@IKEENEDF@?$AAM?$AAa?$AAr?$AAc?$AAh?$AA?$AA@ 100c6bac     LIBCMT:nlsdata2.obj
 0002:00027bb8       ??_C@_1BC@JGDDFFAM@?$AAF?$AAe?$AAb?$AAr?$AAu?$AAa?$AAr?$AAy?$AA?$AA@ 100c6bb8     LIBCMT:nlsdata2.obj
 0002:00027bcc       ??_C@_1BA@EFMEIEBA@?$AAJ?$AAa?$AAn?$AAu?$AAa?$AAr?$AAy?$AA?$AA@ 100c6bcc     LIBCMT:nlsdata2.obj
 0002:00027bdc       ??_C@_17EGKACKIF@?$AAD?$AAe?$AAc?$AA?$AA@ 100c6bdc     LIBCMT:nlsdata2.obj
 0002:00027be4       ??_C@_17BBDMLCIG@?$AAN?$AAo?$AAv?$AA?$AA@ 100c6be4     LIBCMT:nlsdata2.obj
 0002:00027bec       ??_C@_17FNLKOI@?$AAO?$AAc?$AAt?$AA?$AA@ 100c6bec     LIBCMT:nlsdata2.obj
 0002:00027bf4       ??_C@_17HCHCOKMG@?$AAS?$AAe?$AAp?$AA?$AA@ 100c6bf4     LIBCMT:nlsdata2.obj
 0002:00027bfc       ??_C@_17ICPELBCN@?$AAA?$AAu?$AAg?$AA?$AA@ 100c6bfc     LIBCMT:nlsdata2.obj
 0002:00027c04       ??_C@_17IJPCKHK@?$AAJ?$AAu?$AAl?$AA?$AA@ 100c6c04     LIBCMT:nlsdata2.obj
 0002:00027c0c       ??_C@_17KCJGOCPB@?$AAJ?$AAu?$AAn?$AA?$AA@ 100c6c0c     LIBCMT:nlsdata2.obj
 0002:00027c14       ??_C@_17PNNKMEED@?$AAM?$AAa?$AAy?$AA?$AA@ 100c6c14     LIBCMT:nlsdata2.obj
 0002:00027c1c       ??_C@_17LFPOIHDD@?$AAA?$AAp?$AAr?$AA?$AA@ 100c6c1c     LIBCMT:nlsdata2.obj
 0002:00027c24       ??_C@_17CKNLEDEC@?$AAM?$AAa?$AAr?$AA?$AA@ 100c6c24     LIBCMT:nlsdata2.obj
 0002:00027c2c       ??_C@_17LMDJEKJN@?$AAF?$AAe?$AAb?$AA?$AA@ 100c6c2c     LIBCMT:nlsdata2.obj
 0002:00027c34       ??_C@_17DKNBKCHM@?$AAJ?$AAa?$AAn?$AA?$AA@ 100c6c34     LIBCMT:nlsdata2.obj
 0002:00027c3c       ??_C@_1BC@ENMNNPAJ@?$AAS?$AAa?$AAt?$AAu?$AAr?$AAd?$AAa?$AAy?$AA?$AA@ 100c6c3c     LIBCMT:nlsdata2.obj
 0002:00027c50       ??_C@_1O@PDICJHAG@?$AAF?$AAr?$AAi?$AAd?$AAa?$AAy?$AA?$AA@ 100c6c50     LIBCMT:nlsdata2.obj
 0002:00027c60       ??_C@_1BC@HHMNLIHE@?$AAT?$AAh?$AAu?$AAr?$AAs?$AAd?$AAa?$AAy?$AA?$AA@ 100c6c60     LIBCMT:nlsdata2.obj
 0002:00027c74       ??_C@_1BE@EBOGMDOH@?$AAW?$AAe?$AAd?$AAn?$AAe?$AAs?$AAd?$AAa?$AAy?$AA?$AA@ 100c6c74     LIBCMT:nlsdata2.obj
 0002:00027c88       ??_C@_1BA@ENFBFFEK@?$AAT?$AAu?$AAe?$AAs?$AAd?$AAa?$AAy?$AA?$AA@ 100c6c88     LIBCMT:nlsdata2.obj
 0002:00027c98       ??_C@_1O@MMNBFLIA@?$AAM?$AAo?$AAn?$AAd?$AAa?$AAy?$AA?$AA@ 100c6c98     LIBCMT:nlsdata2.obj
 0002:00027ca8       ??_C@_1O@IHNHDHPB@?$AAS?$AAu?$AAn?$AAd?$AAa?$AAy?$AA?$AA@ 100c6ca8     LIBCMT:nlsdata2.obj
 0002:00027cb8       ??_C@_17GGIBDPIH@?$AAS?$AAa?$AAt?$AA?$AA@ 100c6cb8     LIBCMT:nlsdata2.obj
 0002:00027cc0       ??_C@_17HFOLPPLP@?$AAF?$AAr?$AAi?$AA?$AA@ 100c6cc0     LIBCMT:nlsdata2.obj
 0002:00027cc8       ??_C@_17PDPHAADD@?$AAT?$AAh?$AAu?$AA?$AA@ 100c6cc8     LIBCMT:nlsdata2.obj
 0002:00027cd0       ??_C@_17CJEDCEPE@?$AAW?$AAe?$AAd?$AA?$AA@ 100c6cd0     LIBCMT:nlsdata2.obj
 0002:00027cd8       ??_C@_17BMKGEGOJ@?$AAT?$AAu?$AAe?$AA?$AA@ 100c6cd8     LIBCMT:nlsdata2.obj
 0002:00027ce0       ??_C@_17KBOMKBF@?$AAM?$AAo?$AAn?$AA?$AA@ 100c6ce0     LIBCMT:nlsdata2.obj
 0002:00027ce8       ??_C@_17MBGCMIPB@?$AAS?$AAu?$AAn?$AA?$AA@ 100c6ce8     LIBCMT:nlsdata2.obj
 0002:00027cf0       ??_C@_08JCCMCCIL@HH?3mm?3ss?$AA@ 100c6cf0     LIBCMT:nlsdata2.obj
 0002:00027cfc       ??_C@_0BE@CKGJFCPC@dddd?0?5MMMM?5dd?0?5yyyy?$AA@ 100c6cfc     LIBCMT:nlsdata2.obj
 0002:00027d10       ??_C@_08BPBNCDIB@MM?1dd?1yy?$AA@ 100c6d10     LIBCMT:nlsdata2.obj
 0002:00027d1c       ??_C@_02CJNFDJBF@PM?$AA@   100c6d1c     LIBCMT:nlsdata2.obj
 0002:00027d20       ??_C@_02DEDBPAFC@AM?$AA@   100c6d20     LIBCMT:nlsdata2.obj
 0002:00027d24       ??_C@_08EDHMEBNP@December?$AA@ 100c6d24     LIBCMT:nlsdata2.obj
 0002:00027d30       ??_C@_08HCHEGEOA@November?$AA@ 100c6d30     LIBCMT:nlsdata2.obj
 0002:00027d3c       ??_C@_07JJNFCEND@October?$AA@ 100c6d3c     LIBCMT:nlsdata2.obj
 0002:00027d44       ??_C@_09BHHEALKD@September?$AA@ 100c6d44     LIBCMT:nlsdata2.obj
 0002:00027d50       ??_C@_06LBBHFDDG@August?$AA@ 100c6d50     LIBCMT:nlsdata2.obj
 0002:00027d58       ??_C@_04MIEPOIFP@July?$AA@ 100c6d58     LIBCMT:nlsdata2.obj
 0002:00027d60       ??_C@_04CNLMGBGM@June?$AA@ 100c6d60     LIBCMT:nlsdata2.obj
 0002:00027d68       ??_C@_05DMJDNLEJ@April?$AA@ 100c6d68     LIBCMT:nlsdata2.obj
 0002:00027d70       ??_C@_05HPCKOFNC@March?$AA@ 100c6d70     LIBCMT:nlsdata2.obj
 0002:00027d78       ??_C@_08GNJGEPFN@February?$AA@ 100c6d78     LIBCMT:nlsdata2.obj
 0002:00027d84       ??_C@_07CGJPFGJA@January?$AA@ 100c6d84     LIBCMT:nlsdata2.obj
 0002:00027d8c       ??_C@_08INBOOONO@Saturday?$AA@ 100c6d8c     LIBCMT:nlsdata2.obj
 0002:00027d98       ??_C@_06JECMNKMI@Friday?$AA@ 100c6d98     LIBCMT:nlsdata2.obj
 0002:00027da0       ??_C@_08HACCIKIA@Thursday?$AA@ 100c6da0     LIBCMT:nlsdata2.obj
 0002:00027dac       ??_C@_09DLIGFAKA@Wednesday?$AA@ 100c6dac     LIBCMT:nlsdata2.obj
 0002:00027db8       ??_C@_07BAAGCFCM@Tuesday?$AA@ 100c6db8     LIBCMT:nlsdata2.obj
 0002:00027dc0       ??_C@_06JLEDEDGH@Monday?$AA@ 100c6dc0     LIBCMT:nlsdata2.obj
 0002:00027dc8       ??_C@_06OOPIFAJ@Sunday?$AA@ 100c6dc8     LIBCMT:nlsdata2.obj
 0002:00027dd0       ??_C@_03FEFJNEK@Sat?$AA@   100c6dd0     LIBCMT:nlsdata2.obj
 0002:00027dd4       ??_C@_03IDIOELNC@Fri?$AA@  100c6dd4     LIBCMT:nlsdata2.obj
 0002:00027dd8       ??_C@_03IOFIKPDN@Thu?$AA@  100c6dd8     LIBCMT:nlsdata2.obj
 0002:00027ddc       ??_C@_03MHOMLAJA@Wed?$AA@  100c6ddc     LIBCMT:nlsdata2.obj
 0002:00027de0       ??_C@_03NAGEINEP@Tue?$AA@  100c6de0     LIBCMT:nlsdata2.obj
 0002:00027de4       ??_C@_03PDAGKDH@Mon?$AA@   100c6de4     LIBCMT:nlsdata2.obj
 0002:00027de8       ??_C@_03KOEHGMDN@Sun?$AA@  100c6de8     LIBCMT:nlsdata2.obj
 0002:00027e70       __indefinite               100c6e70     LIBCMT:_87disp_.obj
 0002:00027e7a       __piby2                    100c6e7a     LIBCMT:_87disp_.obj
 0002:00027ea8       __DEFAULT_CW_in_mem        100c6ea8     LIBCMT:_common_.obj
 0002:00027eaa       __pi_by_2_to_61            100c6eaa     LIBCMT:_common_.obj
 0002:00027f50       ??_C@_03IIINPABG@tan?$AA@  100c6f50     LIBCMT:_libm_error_.obj
 0002:00027f54       ??_C@_03LALBNOCG@cos?$AA@  100c6f54     LIBCMT:_libm_error_.obj
 0002:00027f58       ??_C@_03BLEJJJBH@sin?$AA@  100c6f58     LIBCMT:_libm_error_.obj
 0002:00027f5c       ??_C@_04EHEDPDJG@modf?$AA@ 100c6f5c     LIBCMT:_libm_error_.obj
 0002:00027f64       ??_C@_05PBJFFIGL@floor?$AA@ 100c6f64     LIBCMT:_libm_error_.obj
 0002:00027f6c       ??_C@_04GFPJNGEK@ceil?$AA@ 100c6f6c     LIBCMT:_libm_error_.obj
 0002:00027f74       ??_C@_04MLLJIGOK@atan?$AA@ 100c6f74     LIBCMT:_libm_error_.obj
 0002:00027f7c       ??_C@_05EOHGHCHD@exp10?$AA@ 100c6f7c     LIBCMT:_libm_error_.obj
 0002:00027f84       ??_C@_04PDIFKINK@acos?$AA@ 100c6f84     LIBCMT:_libm_error_.obj
 0002:00027f8c       ??_C@_04FIHNOPOL@asin?$AA@ 100c6f8c     LIBCMT:_libm_error_.obj
 0002:00027f94       ??_C@_03MGHMBJCF@log?$AA@  100c6f94     LIBCMT:_libm_error_.obj
 0002:00027f98       ??_C@_05HGHHAHAP@log10?$AA@ 100c6f98     LIBCMT:_libm_error_.obj
 0002:00027fa0       ??_C@_03KHJOGHMM@exp?$AA@  100c6fa0     LIBCMT:_libm_error_.obj
 0002:00027fa4       ??_C@_03JGHBODFD@pow?$AA@  100c6fa4     LIBCMT:_libm_error_.obj
 0002:00028860       ??_C@_1O@CEDCILHN@?$AA?$CI?$AAn?$AAu?$AAl?$AAl?$AA?$CJ?$AA?$AA@ 100c7860     LIBCMT:output.obj
 0002:00028870       ??_C@_06OJHGLDPL@?$CInull?$CJ?$AA@ 100c7870     LIBCMT:output.obj
 0002:00028878       ___lookuptable             100c7878     LIBCMT:output.obj
 0002:000291a0       __OP_ATAN2jmptab           100c81a0     LIBCMT:_87triga_.obj
 0002:0002e200       __infinity                 100cd200     LIBCMT:_87tran_.obj
 0002:0002e20a       __minfinity                100cd20a     LIBCMT:_87tran_.obj
 0002:0002e214       __logemax                  100cd214     LIBCMT:_87tran_.obj
 0002:0002e23a       __OP_EXPjmptab             100cd23a     LIBCMT:_87tran_.obj
 0002:0002e25c       ??_C@_02CLFPBFFP@TZ?$AA@   100cd25c     LIBCMT:tzset.obj
 0002:0002e260       ___dnames                  100cd260     LIBCMT:timeset.obj
 0002:0002e278       ___mnames                  100cd278     LIBCMT:timeset.obj
 0002:0002e2a0       ??_C@_1BO@BKOMIGKJ@?$AAr?$AAu?$AAn?$AAt?$AAi?$AAm?$AAe?$AA?5?$AAe?$AAr?$AAr?$AAo?$AAr?$AA?5?$AA?$AA@ 100cd2a0     LIBCMT:crt0msg.obj
 0002:0002e2c0       ??_C@_15JNBOKNOG@?$AA?$AN?$AA?6?$AA?$AA@ 100cd2c0     LIBCMT:crt0msg.obj
 0002:0002e2c8       ??_C@_1BM@JBBEPPHI@?$AAT?$AAL?$AAO?$AAS?$AAS?$AA?5?$AAe?$AAr?$AAr?$AAo?$AAr?$AA?$AN?$AA?6?$AA?$AA@ 100cd2c8     LIBCMT:crt0msg.obj
 0002:0002e2e4       ??_C@_1BK@KMOMNAAI@?$AAS?$AAI?$AAN?$AAG?$AA?5?$AAe?$AAr?$AAr?$AAo?$AAr?$AA?$AN?$AA?6?$AA?$AA@ 100cd2e4     LIBCMT:crt0msg.obj
 0002:0002e300       ??_C@_1BO@BFCDCGC@?$AAD?$AAO?$AAM?$AAA?$AAI?$AAN?$AA?5?$AAe?$AAr?$AAr?$AAo?$AAr?$AA?$AN?$AA?6?$AA?$AA@ 100cd300     LIBCMT:crt0msg.obj
 0002:0002e320       ??_C@_1BOO@KGEDBGAJ@?$AAR?$AA6?$AA0?$AA3?$AA3?$AA?$AN?$AA?6?$AA?9?$AA?5?$AAA?$AAt?$AAt?$AAe?$AAm?$AAp?$AAt?$AA?5?$AAt?$AAo?$AA?5?$AAu?$AAs?$AAe?$AA?5?$AAM?$AAS?$AAI?$AAL?$AA?5?$AAc?$AAo?$AAd@ 100cd320     LIBCMT:crt0msg.obj
 0002:0002e510       ??_C@_1GG@GOPILAJP@?$AAR?$AA6?$AA0?$AA3?$AA2?$AA?$AN?$AA?6?$AA?9?$AA?5?$AAn?$AAo?$AAt?$AA?5?$AAe?$AAn?$AAo?$AAu?$AAg?$AAh?$AA?5?$AAs?$AAp?$AAa?$AAc?$AAe?$AA?5?$AAf?$AAo?$AAr?$AA?5?$AAl?$AAo@ 100cd510     LIBCMT:crt0msg.obj
 0002:0002e578       ??_C@_1MG@ENCOOIDF@?$AAR?$AA6?$AA0?$AA3?$AA1?$AA?$AN?$AA?6?$AA?9?$AA?5?$AAA?$AAt?$AAt?$AAe?$AAm?$AAp?$AAt?$AA?5?$AAt?$AAo?$AA?5?$AAi?$AAn?$AAi?$AAt?$AAi?$AAa?$AAl?$AAi?$AAz?$AAe?$AA?5?$AAt@ 100cd578     LIBCMT:crt0msg.obj
 0002:0002e640       ??_C@_1DO@BMFCDCD@?$AAR?$AA6?$AA0?$AA3?$AA0?$AA?$AN?$AA?6?$AA?9?$AA?5?$AAC?$AAR?$AAT?$AA?5?$AAn?$AAo?$AAt?$AA?5?$AAi?$AAn?$AAi?$AAt?$AAi?$AAa?$AAl?$AAi?$AAz?$AAe?$AAd?$AA?$AN?$AA?6?$AA?$AA@ 100cd640     LIBCMT:crt0msg.obj
 0002:0002e680       ??_C@_1EK@HHFLMAOL@?$AAR?$AA6?$AA0?$AA2?$AA8?$AA?$AN?$AA?6?$AA?9?$AA?5?$AAu?$AAn?$AAa?$AAb?$AAl?$AAe?$AA?5?$AAt?$AAo?$AA?5?$AAi?$AAn?$AAi?$AAt?$AAi?$AAa?$AAl?$AAi?$AAz?$AAe?$AA?5?$AAh?$AAe@ 100cd680     LIBCMT:crt0msg.obj
 0002:0002e6d0       ??_C@_1GK@MFGOKLAG@?$AAR?$AA6?$AA0?$AA2?$AA7?$AA?$AN?$AA?6?$AA?9?$AA?5?$AAn?$AAo?$AAt?$AA?5?$AAe?$AAn?$AAo?$AAu?$AAg?$AAh?$AA?5?$AAs?$AAp?$AAa?$AAc?$AAe?$AA?5?$AAf?$AAo?$AAr?$AA?5?$AAl?$AAo@ 100cd6d0     LIBCMT:crt0msg.obj
 0002:0002e740       ??_C@_1GK@MCAAGJMO@?$AAR?$AA6?$AA0?$AA2?$AA6?$AA?$AN?$AA?6?$AA?9?$AA?5?$AAn?$AAo?$AAt?$AA?5?$AAe?$AAn?$AAo?$AAu?$AAg?$AAh?$AA?5?$AAs?$AAp?$AAa?$AAc?$AAe?$AA?5?$AAf?$AAo?$AAr?$AA?5?$AAs?$AAt@ 100cd740     LIBCMT:crt0msg.obj
 0002:0002e7b0       ??_C@_1EM@MAADIHMB@?$AAR?$AA6?$AA0?$AA2?$AA5?$AA?$AN?$AA?6?$AA?9?$AA?5?$AAp?$AAu?$AAr?$AAe?$AA?5?$AAv?$AAi?$AAr?$AAt?$AAu?$AAa?$AAl?$AA?5?$AAf?$AAu?$AAn?$AAc?$AAt?$AAi?$AAo?$AAn?$AA?5?$AAc@ 100cd7b0     LIBCMT:crt0msg.obj
 0002:0002e800       ??_C@_1GK@FHCKBEFA@?$AAR?$AA6?$AA0?$AA2?$AA4?$AA?$AN?$AA?6?$AA?9?$AA?5?$AAn?$AAo?$AAt?$AA?5?$AAe?$AAn?$AAo?$AAu?$AAg?$AAh?$AA?5?$AAs?$AAp?$AAa?$AAc?$AAe?$AA?5?$AAf?$AAo?$AAr?$AA?5?$AA_?$AAo@ 100cd800     LIBCMT:crt0msg.obj
 0002:0002e870       ??_C@_1FC@ECHBIFBC@?$AAR?$AA6?$AA0?$AA1?$AA9?$AA?$AN?$AA?6?$AA?9?$AA?5?$AAu?$AAn?$AAa?$AAb?$AAl?$AAe?$AA?5?$AAt?$AAo?$AA?5?$AAo?$AAp?$AAe?$AAn?$AA?5?$AAc?$AAo?$AAn?$AAs?$AAo?$AAl?$AAe?$AA?5@ 100cd870     LIBCMT:crt0msg.obj
 0002:0002e8c8       ??_C@_1EC@JIBHAOPH@?$AAR?$AA6?$AA0?$AA1?$AA8?$AA?$AN?$AA?6?$AA?9?$AA?5?$AAu?$AAn?$AAe?$AAx?$AAp?$AAe?$AAc?$AAt?$AAe?$AAd?$AA?5?$AAh?$AAe?$AAa?$AAp?$AA?5?$AAe?$AAr?$AAr?$AAo?$AAr?$AA?$AN?$AA?6@ 100cd8c8     LIBCMT:crt0msg.obj
 0002:0002e910       ??_C@_1FK@BEOGODMC@?$AAR?$AA6?$AA0?$AA1?$AA7?$AA?$AN?$AA?6?$AA?9?$AA?5?$AAu?$AAn?$AAe?$AAx?$AAp?$AAe?$AAc?$AAt?$AAe?$AAd?$AA?5?$AAm?$AAu?$AAl?$AAt?$AAi?$AAt?$AAh?$AAr?$AAe?$AAa?$AAd?$AA?5@ 100cd910     LIBCMT:crt0msg.obj
 0002:0002e970       ??_C@_1FI@LOGNIKDM@?$AAR?$AA6?$AA0?$AA1?$AA6?$AA?$AN?$AA?6?$AA?9?$AA?5?$AAn?$AAo?$AAt?$AA?5?$AAe?$AAn?$AAo?$AAu?$AAg?$AAh?$AA?5?$AAs?$AAp?$AAa?$AAc?$AAe?$AA?5?$AAf?$AAo?$AAr?$AA?5?$AAt?$AAh@ 100cd970     LIBCMT:crt0msg.obj
 0002:0002e9c8       ??_C@_1EG@BEHAGFJD@?$AAR?$AA6?$AA0?$AA1?$AA0?$AA?$AN?$AA?6?$AA?9?$AA?5?$AAa?$AAb?$AAo?$AAr?$AAt?$AA?$CI?$AA?$CJ?$AA?5?$AAh?$AAa?$AAs?$AA?5?$AAb?$AAe?$AAe?$AAn?$AA?5?$AAc?$AAa?$AAl?$AAl?$AAe?$AAd@ 100cd9c8     LIBCMT:crt0msg.obj
 0002:0002ea10       ??_C@_1FI@HONFMGBI@?$AAR?$AA6?$AA0?$AA0?$AA9?$AA?$AN?$AA?6?$AA?9?$AA?5?$AAn?$AAo?$AAt?$AA?5?$AAe?$AAn?$AAo?$AAu?$AAg?$AAh?$AA?5?$AAs?$AAp?$AAa?$AAc?$AAe?$AA?5?$AAf?$AAo?$AAr?$AA?5?$AAe?$AAn@ 100cda10     LIBCMT:crt0msg.obj
 0002:0002ea68       ??_C@_1FE@LLNEDJMD@?$AAR?$AA6?$AA0?$AA0?$AA8?$AA?$AN?$AA?6?$AA?9?$AA?5?$AAn?$AAo?$AAt?$AA?5?$AAe?$AAn?$AAo?$AAu?$AAg?$AAh?$AA?5?$AAs?$AAp?$AAa?$AAc?$AAe?$AA?5?$AAf?$AAo?$AAr?$AA?5?$AAa?$AAr@ 100cda68     LIBCMT:crt0msg.obj
 0002:0002eac0       ??_C@_1FK@PGACCAFB@?$AAR?$AA6?$AA0?$AA0?$AA2?$AA?$AN?$AA?6?$AA?9?$AA?5?$AAf?$AAl?$AAo?$AAa?$AAt?$AAi?$AAn?$AAg?$AA?5?$AAp?$AAo?$AAi?$AAn?$AAt?$AA?5?$AAs?$AAu?$AAp?$AAp?$AAo?$AAr?$AAt?$AA?5@ 100cdac0     LIBCMT:crt0msg.obj
 0002:0002ebd0       ??_C@_1EK@MBDPDCGA@?$AAM?$AAi?$AAc?$AAr?$AAo?$AAs?$AAo?$AAf?$AAt?$AA?5?$AAV?$AAi?$AAs?$AAu?$AAa?$AAl?$AA?5?$AAC?$AA?$CL?$AA?$CL?$AA?5?$AAR?$AAu?$AAn?$AAt?$AAi?$AAm?$AAe?$AA?5?$AAL?$AAi?$AAb@ 100cdbd0     LIBCMT:crt0msg.obj
 0002:0002ec1c       ??_C@_15IABLJNFO@?$AA?6?$AA?6?$AA?$AA@ 100cdc1c     LIBCMT:crt0msg.obj
 0002:0002ec24       ??_C@_17LGKOMLJ@?$AA?4?$AA?4?$AA?4?$AA?$AA@ 100cdc24     LIBCMT:crt0msg.obj
 0002:0002ec2c       ??_C@_1CO@EAEJAADC@?$AA?$DM?$AAp?$AAr?$AAo?$AAg?$AAr?$AAa?$AAm?$AA?5?$AAn?$AAa?$AAm?$AAe?$AA?5?$AAu?$AAn?$AAk?$AAn?$AAo?$AAw?$AAn?$AA?$DO?$AA?$AA@ 100cdc2c     LIBCMT:crt0msg.obj
 0002:0002ec5c       ??_C@_1DE@JNGNBFGO@?$AAR?$AAu?$AAn?$AAt?$AAi?$AAm?$AAe?$AA?5?$AAE?$AAr?$AAr?$AAo?$AAr?$AA?$CB?$AA?6?$AA?6?$AAP?$AAr?$AAo?$AAg?$AAr?$AAa?$AAm?$AA?3?$AA?5?$AA?$AA@ 100cdc5c     LIBCMT:crt0msg.obj
 0002:0002ede0       __XcptActTab               100cdde0     LIBCMT:winxfltr.obj
 0002:0002ee70       __First_FPE_Indx           100cde70     LIBCMT:winxfltr.obj
 0002:0002ee74       __Num_FPE                  100cde74     LIBCMT:winxfltr.obj
 0002:0002ee78       __XcptActTabSize           100cde78     LIBCMT:winxfltr.obj
 0002:0002ee7c       __XcptActTabCount          100cde7c     LIBCMT:winxfltr.obj
 0002:0002ee80       ___newctype                100cde80     LIBCMT:ctype.obj
 0002:0002f180       __wctype                   100ce180     LIBCMT:ctype.obj
 0002:0002f388       ___newclmap                100ce388     LIBCMT:ctype.obj
 0002:0002f508       ___newcumap                100ce508     LIBCMT:ctype.obj
 0002:0002f688       ??_C@_0L@KDOEJCKC@_nextafter?$AA@ 100ce688     LIBCMT:_fpexcept_.obj
 0002:0002f694       ??_C@_05JGDBENOH@_logb?$AA@ 100ce694     LIBCMT:_fpexcept_.obj
 0002:0002f69c       ??_C@_03ONILCKOB@_yn?$AA@  100ce69c     LIBCMT:_fpexcept_.obj
 0002:0002f6a0       ??_C@_03NAKIGLHK@_y1?$AA@  100ce6a0     LIBCMT:_fpexcept_.obj
 0002:0002f6a4       ??_C@_03MJLDFKDL@_y0?$AA@  100ce6a4     LIBCMT:_fpexcept_.obj
 0002:0002f6a8       ??_C@_05GKKHEGJL@frexp?$AA@ 100ce6a8     LIBCMT:_fpexcept_.obj
 0002:0002f6b0       ??_C@_04KEPJIHGP@fmod?$AA@ 100ce6b0     LIBCMT:_fpexcept_.obj
 0002:0002f6b8       ??_C@_06MEIMCGCF@_hypot?$AA@ 100ce6b8     LIBCMT:_fpexcept_.obj
 0002:0002f6c0       ??_C@_05KBKMEMPO@_cabs?$AA@ 100ce6c0     LIBCMT:_fpexcept_.obj
 0002:0002f6c8       ??_C@_05CEJMAHNP@ldexp?$AA@ 100ce6c8     LIBCMT:_fpexcept_.obj
 0002:0002f6d0       ??_C@_04ODHECPBC@fabs?$AA@ 100ce6d0     LIBCMT:_fpexcept_.obj
 0002:0002f6d8       ??_C@_04EIAKFFMI@sqrt?$AA@ 100ce6d8     LIBCMT:_fpexcept_.obj
 0002:0002f6e0       ??_C@_05KNGEOGJB@atan2?$AA@ 100ce6e0     LIBCMT:_fpexcept_.obj
 0002:0002f6e8       ??_C@_04FJHINJAO@tanh?$AA@ 100ce6e8     LIBCMT:_fpexcept_.obj
 0002:0002f6f0       ??_C@_04HPJJNFIM@cosh?$AA@ 100ce6f0     LIBCMT:_fpexcept_.obj
 0002:0002f6f8       ??_C@_04COOMCNPB@sinh?$AA@ 100ce6f8     LIBCMT:_fpexcept_.obj
 0002:0002f708       ??_C@_0BI@DFKBFLJE@GetProcessWindowStation?$AA@ 100ce708     LIBCMT:crtmboxw.obj
 0002:0002f720       ??_C@_0BK@DEKFELLI@GetUserObjectInformationW?$AA@ 100ce720     LIBCMT:crtmboxw.obj
 0002:0002f73c       ??_C@_0BD@HHGDFDBJ@GetLastActivePopup?$AA@ 100ce73c     LIBCMT:crtmboxw.obj
 0002:0002f750       ??_C@_0BA@HNOPNCHB@GetActiveWindow?$AA@ 100ce750     LIBCMT:crtmboxw.obj
 0002:0002f760       ??_C@_0M@DLDCCGNP@MessageBoxW?$AA@ 100ce760     LIBCMT:crtmboxw.obj
 0002:0002f76c       ??_C@_1BG@GOEBHBDC@?$AAU?$AAS?$AAE?$AAR?$AA3?$AA2?$AA?4?$AAD?$AAL?$AAL?$AA?$AA@ 100ce76c     LIBCMT:crtmboxw.obj
 0002:0002f788       __atan_table               100ce788     LIBCMT:_atan_table_.obj
 0002:00030f98       ___lookuptable_s           100cff98     LIBCMT:outputs.obj
 0002:00030ff4       ??_C@_06IMKFLFPG@1?$CDQNAN?$AA@ 100cfff4     LIBCMT:_x10fout_.obj
 0002:00030ffc       ??_C@_05DNEBIAHO@1?$CDINF?$AA@ 100cfffc     LIBCMT:_x10fout_.obj
 0002:00031004       ??_C@_05PHHOCPM@1?$CDIND?$AA@ 100d0004     LIBCMT:_x10fout_.obj
 0002:0003100c       ??_C@_06PGGFOGJG@1?$CDSNAN?$AA@ 100d000c     LIBCMT:_x10fout_.obj
 0002:00031014       ??_C@_1BA@BALFACEM@?$AAC?$AAO?$AAN?$AAO?$AAU?$AAT?$AA$?$AA?$AA@ 100d0014     LIBCMT:initcon.obj
 0002:00031028       __load_config_used         100d0028     LIBCMT:loadcfg.obj
 0002:00031070       ___safe_se_handler_table   100d0070     <linker-defined>
 0002:0003107c       ___rtc_iaa                 100d007c     LIBCMT:_initsect_.obj
 0002:00031080       ___rtc_izz                 100d0080     LIBCMT:_initsect_.obj
 0002:00031084       ___rtc_taa                 100d0084     LIBCMT:_initsect_.obj
 0002:00031088       ___rtc_tzz                 100d0088     LIBCMT:_initsect_.obj
 0002:000314ac       __IMPORT_DESCRIPTOR_PSAPI  100d04ac     psapi:PSAPI.DLL
 0002:000314c0       __IMPORT_DESCRIPTOR_KERNEL32 100d04c0     kernel32:KERNEL32.dll
 0002:000314d4       __IMPORT_DESCRIPTOR_USER32 100d04d4     user32:USER32.dll
 0002:000314e8       __NULL_IMPORT_DESCRIPTOR   100d04e8     psapi:PSAPI.DLL
 0003:00000000       _animStateStr              100d1000     bg_animation.obj
 0003:00000230       _animBodyPartsStr          100d1230     bg_animation.obj
 0003:00000580       _bg_allies_playerclasses   100d1580     bg_classes.obj
 0003:00000728       _bg_axis_playerclasses     100d1728     bg_classes.obj
 0003:000008d0       _HQMessages                100d18d0     bg_misc.obj
 0003:00000954       _syringeLoadout            100d1954     bg_misc.obj
 0003:0000097c       _skillNames                100d197c     bg_misc.obj
 0003:00000998       _medalNames                100d1998     bg_misc.obj
 0003:000009b4       _playerlegsProneMins       100d19b4     bg_misc.obj
 0003:000009c0       _skillLevels               100d19c0     bg_misc.obj
 0003:00000ad8       _playerlegsProneMaxs       100d1ad8     bg_misc.obj
 0003:00000ae4       _bg_numItems               100d1ae4     bg_misc.obj
 0003:00000ae8       _reloadableWeapons         100d1ae8     bg_misc.obj
 0003:00000b5c       _numVotesAvailable         100d1b5c     bg_misc.obj
 0003:00000b60       _WeaponTable               100d1b60     bg_misc.obj
 0003:00001c1c       _weapOverheat              100d2c1c     bg_misc.obj
 0003:00001c40       _weapAlts                  100d2c40     bg_misc.obj
 0003:00001d40       _weapTeamConversion        100d2d40     bg_misc.obj
 0003:00001e40       _weaponCanRestrict         100d2e40     bg_misc.obj
 0003:00001e80       _modWeaponTableMP          100d2e80     bg_misc.obj
 0003:00002340       _modFalloffDamage          100d3340     bg_misc.obj
 0003:00002470       _modHeadshotModeWeapon     100d3470     bg_misc.obj
 0003:000025a0       _WP_names                  100d35a0     bg_misc.obj
 0003:000026a0       _bg_itemlist               100d36a0     bg_misc.obj
 0003:00004000       _jP_GrenadesPerLevel       100d5000     bg_misc.obj
 0003:00004118       _rankSoundNames_Allies     100d5118     bg_misc.obj
 0003:00004168       _rankSoundNames_Axis       100d5168     bg_misc.obj
 0003:000041b8       _rankNames_Axis            100d51b8     bg_misc.obj
 0003:00004208       _rankNames_Allies          100d5208     bg_misc.obj
 0003:00004258       _miniRankNames_Axis        100d5258     bg_misc.obj
 0003:000042a8       _miniRankNames_Allies      100d52a8     bg_misc.obj
 0003:000042f4       _bg_fireteamNames          100d52f4     bg_misc.obj
 0003:00004310       _OSP_Colortable            100d5310     bg_misc.obj
 0003:000043b8       _armSpeed_LandMine         100d53b8     bg_misc.obj
 0003:000043e0       _armSpeed_Dynamite         100d53e0     bg_misc.obj
 0003:00004408       _disarmSpeed_Dynamite      100d5408     bg_misc.obj
 0003:00004430       _disarmSpeed_LandMine      100d5430     bg_misc.obj
 0003:00004458       _artilleryBombs            100d5458     bg_misc.obj
 0003:00004480       _disarmSpeed_Satchel       100d5480     bg_misc.obj
 0003:000044a8       _chargeCost_Repair         100d54a8     bg_misc.obj
 0003:000044d0       _chargeCost_Construct      100d54d0     bg_misc.obj
 0003:000044f8       _chargeCost_Landmine       100d54f8     bg_misc.obj
 0003:00004520       _chargeCost_Dynamite       100d5520     bg_misc.obj
 0003:00004548       _chargeCost_Riflenade      100d5548     bg_misc.obj
 0003:00004570       _chargeCost_Defuse         100d5570     bg_misc.obj
 0003:00004598       _chargeCost_Satchel        100d5598     bg_misc.obj
 0003:000045c0       _chargeCost_Smoke          100d55c0     bg_misc.obj
 0003:000045e8       _chargeCost_Health         100d55e8     bg_misc.obj
 0003:00004610       _chargeCost_Ammo           100d5610     bg_misc.obj
 0003:00004638       _chargeCost_Adrenaline     100d5638     bg_misc.obj
 0003:00004660       _chargeCost_Artillery      100d5660     bg_misc.obj
 0003:00004688       _chargeCost_Airstrike      100d5688     bg_misc.obj
 0003:000046b0       _chargeCost_Panzer         100d56b0     bg_misc.obj
 0003:000046d8       _chargeCost_Bazooka        100d56d8     bg_misc.obj
 0003:00004700       _chargeCost_Mortar         100d5700     bg_misc.obj
 0003:00004728       _lightWeapon_Spread        100d5728     bg_misc.obj
 0003:00004750       _disguiseTestCost          100d5750     bg_misc.obj
 0003:00004778       _pm_stopspeed              100d5778     bg_pmove.obj
 0003:0000477c       _pm_waterSwimScale         100d577c     bg_pmove.obj
 0003:00004780       _pm_waterWadeScale         100d5780     bg_pmove.obj
 0003:00004784       _pm_slagSwimScale          100d5784     bg_pmove.obj
 0003:00004788       _pm_slagWadeScale          100d5788     bg_pmove.obj
 0003:0000478c       _pm_proneSpeedScale        100d578c     bg_pmove.obj
 0003:00004790       _pm_accelerate             100d5790     bg_pmove.obj
 0003:00004794       _pm_airaccelerate          100d5794     bg_pmove.obj
 0003:00004798       _pm_wateraccelerate        100d5798     bg_pmove.obj
 0003:0000479c       _pm_slagaccelerate         100d579c     bg_pmove.obj
 0003:000047a0       _pm_flyaccelerate          100d57a0     bg_pmove.obj
 0003:000047a4       _pm_friction               100d57a4     bg_pmove.obj
 0003:000047a8       _pm_waterfriction          100d57a8     bg_pmove.obj
 0003:000047ac       _pm_slagfriction           100d57ac     bg_pmove.obj
 0003:000047b0       _pm_flightfriction         100d57b0     bg_pmove.obj
 0003:000047b4       _pm_ladderfriction         100d57b4     bg_pmove.obj
 0003:000047b8       _pm_spectatorfriction      100d57b8     bg_pmove.obj
 0003:000047c0       _modNames                  100d57c0     bg_weapons.obj
 0003:000048f4       _bg_numMods                100d58f4     bg_weapons.obj
 0003:00004968       _serverHelpCategories      100d5968     cg_consolecmds.obj
 0003:00004a40       _helpTexts                 100d5a40     cg_consolecmds.obj
 0003:0000b164       _numConsoleCommands        100dc164     cg_consolecmds.obj
 0003:0000b168       _clientHelpCategories      100dc168     cg_consolecmds.obj
 0003:0000b1f0       _clientHelpTexts           100dc1f0     cg_consolecmds.obj
 0003:0000fb9c       _aMonths                   100e0b9c     cg_consolecmds.obj
 0003:0000fef8       _clrTxtBck                 100e0ef8     cg_debriefing.obj
 0003:0000ff08       _clrBck                    100e0f08     cg_debriefing.obj
 0003:0000ff18       _debriefTitleFont          100e0f18     cg_debriefing.obj
 0003:0000ff3c       _debriefHeadingFont        100e0f3c     cg_debriefing.obj
 0003:0000ff60       _debriefListFont           100e0f60     cg_debriefing.obj
 0003:0000ff84       _debriefPlayerHeadingSmallerFont 100e0f84     cg_debriefing.obj
 0003:0000ffa8       _debriefTitleBack          100e0fa8     cg_debriefing.obj
 0003:0000fff8       _debriefTitleBackBorderLower 100e0ff8     cg_debriefing.obj
 0003:00010048       _debriefTitleBackLower     100e1048     cg_debriefing.obj
 0003:00010098       _debriefTitleBackBorder    100e1098     cg_debriefing.obj
 0003:000100e8       _debriefTitle              100e10e8     cg_debriefing.obj
 0003:00010138       _debriefPlayerHeaderBackBorderLower 100e1138     cg_debriefing.obj
 0003:00010188       _debriefPlayerHeaderBackLower 100e1188     cg_debriefing.obj
 0003:000101d8       _debriefPlayerHeaderBack   100e11d8     cg_debriefing.obj
 0003:00010228       _debriefPlayerHeaderBackBorder 100e1228     cg_debriefing.obj
 0003:00010278       _debriefPlayerSkillsBackBorderLower 100e1278     cg_debriefing.obj
 0003:000102c8       _debriefPlayerSkillsBackLower 100e12c8     cg_debriefing.obj
 0003:00010318       _debriefPlayerSkillsBack   100e1318     cg_debriefing.obj
 0003:00010368       _debriefPlayerSkillsBackBorder 100e1368     cg_debriefing.obj
 0003:000103b8       _debriefPlayerWeaponStatsHeader 100e13b8     cg_debriefing.obj
 0003:00010408       _debriefPlayerWeaponStatsNameHeader 100e1408     cg_debriefing.obj
 0003:00010458       _debriefPlayerWeaponStatsShotsHeader 100e1458     cg_debriefing.obj
 0003:000104a8       _debriefPlayerWeaponStatsHitsHeader 100e14a8     cg_debriefing.obj
 0003:000104f8       _debriefPlayerWeaponStatsKillsHeader 100e14f8     cg_debriefing.obj
 0003:00010548       _debriefPlayerWeaponStatsList 100e1548     cg_debriefing.obj
 0003:00010598       _debriefPlayerWeaponStatsListScroll 100e1598     cg_debriefing.obj
 0003:000105e8       _debriefTitleWindow        100e15e8     cg_debriefing.obj
 0003:00010638       _debriefMissionTitleWindow 100e1638     cg_debriefing.obj
 0003:00010688       _debriefMissionImage       100e1688     cg_debriefing.obj
 0003:000106d8       _debriefMissionMaps        100e16d8     cg_debriefing.obj
 0003:00010728       _debriefMissionAwardsWindow 100e1728     cg_debriefing.obj
 0003:00010778       _debriefMissionAwardsList  100e1778     cg_debriefing.obj
 0003:000107c8       _debriefMissionAwardsListScroll 100e17c8     cg_debriefing.obj
 0003:00010818       _debriefMissionStatsWindow 100e1818     cg_debriefing.obj
 0003:00010868       _debriefMissionStatsHeaders 100e1868     cg_debriefing.obj
 0003:000108b8       _debriefMissionStatsWinner 100e18b8     cg_debriefing.obj
 0003:00010908       _debriefMissionStatsLoser  100e1908     cg_debriefing.obj
 0003:00010958       _debriefPlayerListWindow   100e1958     cg_debriefing.obj
 0003:000109a8       _debriefPlayerListFont     100e19a8     cg_debriefing.obj
 0003:000109cc       _debriefPlayerInfoFont     100e19cc     cg_debriefing.obj
 0003:000109f0       _debriefHeadingRank        100e19f0     cg_debriefing.obj
 0003:00010a40       _debriefHeadingName        100e1a40     cg_debriefing.obj
 0003:00010a90       _debriefHeadingTime        100e1a90     cg_debriefing.obj
 0003:00010ae0       _debriefHeadingXP          100e1ae0     cg_debriefing.obj
 0003:00010b30       _debriefHeadingKills       100e1b30     cg_debriefing.obj
 0003:00010b80       _debriefHeadingTK          100e1b80     cg_debriefing.obj
 0003:00010bd0       _debriefHeadingDeaths      100e1bd0     cg_debriefing.obj
 0003:00010c20       _debriefPlayerList         100e1c20     cg_debriefing.obj
 0003:00010c70       _debriefPlayerListScroll   100e1c70     cg_debriefing.obj
 0003:00010cc0       _debriefPlayerInfoWindow   100e1cc0     cg_debriefing.obj
 0003:00010d10       _debriefPlayerInfoName     100e1d10     cg_debriefing.obj
 0003:00010d60       _debriefPlayerInfoRank     100e1d60     cg_debriefing.obj
 0003:00010db0       _debriefPlayerInfoMedals   100e1db0     cg_debriefing.obj
 0003:00010e00       _debriefPlayerInfoTime     100e1e00     cg_debriefing.obj
 0003:00010e50       _debriefPlayerInfoXP       100e1e50     cg_debriefing.obj
 0003:00010ea0       _debriefPlayerInfoACC      100e1ea0     cg_debriefing.obj
 0003:00010ef0       _debriefPlayerInfoHitRegions 100e1ef0     cg_debriefing.obj
 0003:00010f40       _debriefPlayerInfoSkills0  100e1f40     cg_debriefing.obj
 0003:00010f90       _debriefPlayerInfoSkills1  100e1f90     cg_debriefing.obj
 0003:00010fe0       _debriefPlayerInfoSkills2  100e1fe0     cg_debriefing.obj
 0003:00011030       _debriefPlayerInfoSkills3  100e2030     cg_debriefing.obj
 0003:00011080       _debriefPlayerInfoSkills4  100e2080     cg_debriefing.obj
 0003:000110d0       _debriefPlayerInfoSkills5  100e20d0     cg_debriefing.obj
 0003:00011120       _debriefPlayerInfoSkills6  100e2120     cg_debriefing.obj
 0003:00011170       _debriefPanelButtons       100e2170     cg_debriefing.obj
 0003:000111f8       _teamDebriefOutcome        100e21f8     cg_debriefing.obj
 0003:00011248       _teamDebriefMapListBackBorderLower 100e2248     cg_debriefing.obj
 0003:00011298       _teamDebriefMapListBackLower 100e2298     cg_debriefing.obj
 0003:000112e8       _teamDebriefMapListBackBorder 100e22e8     cg_debriefing.obj
 0003:00011338       _teamDebriefMapListBack    100e2338     cg_debriefing.obj
 0003:00011388       _teamDebriefMapList        100e2388     cg_debriefing.obj
 0003:000113d8       _teamDebriefMapListScroll  100e23d8     cg_debriefing.obj
 0003:00011428       _teamDebriefMapShot        100e2428     cg_debriefing.obj
 0003:00011478       _teamDebriefBigTitle       100e2478     cg_debriefing.obj
 0003:0001149c       _teamDebriefTitleSmall     100e249c     cg_debriefing.obj
 0003:000114c0       _teamDebriefTitle          100e24c0     cg_debriefing.obj
 0003:000114e4       _chatPanelButtonFont       100e24e4     cg_debriefing.obj
 0003:00011508       _teamDebriefMapWinnerText  100e2508     cg_debriefing.obj
 0003:00011558       _teamDebriefMapWinnerBackBorderLower 100e2558     cg_debriefing.obj
 0003:000115a8       _teamDebriefMapWinnerBackLower 100e25a8     cg_debriefing.obj
 0003:000115f8       _teamDebriefMapWinnerTextBackBorder 100e25f8     cg_debriefing.obj
 0003:00011648       _teamDebriefMapWinnerTextBack 100e2648     cg_debriefing.obj
 0003:00011698       _teamDebriefAxisXPText     100e2698     cg_debriefing.obj
 0003:000116e8       _teamDebriefAlliesXPText   100e26e8     cg_debriefing.obj
 0003:00011738       _teamDebriefSkillXPText_0  100e2738     cg_debriefing.obj
 0003:00011788       _teamDebriefSkillXPText_1  100e2788     cg_debriefing.obj
 0003:000117d8       _teamDebriefSkillXPText_2  100e27d8     cg_debriefing.obj
 0003:00011828       _teamDebriefSkillXPText_3  100e2828     cg_debriefing.obj
 0003:00011878       _teamDebriefSkillXPText_4  100e2878     cg_debriefing.obj
 0003:000118c8       _teamDebriefSkillXPText_5  100e28c8     cg_debriefing.obj
 0003:00011918       _teamDebriefSkillXPText_6  100e2918     cg_debriefing.obj
 0003:00011968       _teamDebriefSkillXPText_7  100e2968     cg_debriefing.obj
 0003:000119b8       _teamDebriefSkillXPText0_0 100e29b8     cg_debriefing.obj
 0003:00011a08       _teamDebriefSkillXPText0_1 100e2a08     cg_debriefing.obj
 0003:00011a58       _teamDebriefSkillXPText0_2 100e2a58     cg_debriefing.obj
 0003:00011aa8       _teamDebriefSkillXPText0_3 100e2aa8     cg_debriefing.obj
 0003:00011af8       _teamDebriefSkillXPText0_4 100e2af8     cg_debriefing.obj
 0003:00011b48       _teamDebriefSkillXPText0_5 100e2b48     cg_debriefing.obj
 0003:00011b98       _teamDebriefSkillXPText0_6 100e2b98     cg_debriefing.obj
 0003:00011be8       _teamDebriefSkillXPText0_7 100e2be8     cg_debriefing.obj
 0003:00011c38       _teamDebriefSkillXPText1_0 100e2c38     cg_debriefing.obj
 0003:00011c88       _teamDebriefSkillXPText1_1 100e2c88     cg_debriefing.obj
 0003:00011cd8       _teamDebriefSkillXPText1_2 100e2cd8     cg_debriefing.obj
 0003:00011d28       _teamDebriefSkillXPText1_3 100e2d28     cg_debriefing.obj
 0003:00011d78       _teamDebriefSkillXPText1_4 100e2d78     cg_debriefing.obj
 0003:00011dc8       _teamDebriefSkillXPText1_5 100e2dc8     cg_debriefing.obj
 0003:00011e18       _teamDebriefSkillXPText1_6 100e2e18     cg_debriefing.obj
 0003:00011e68       _teamDebriefSkillXPText1_7 100e2e68     cg_debriefing.obj
 0003:00011eb8       _teamDebriefPanelButtons   100e2eb8     cg_debriefing.obj
 0003:00011ee8       _chatPanelButtonFontRed    100e2ee8     cg_debriefing.obj
 0003:00011f0c       _mapVoteFont               100e2f0c     cg_debriefing.obj
 0003:00011f30       _chatPanelWindow           100e2f30     cg_debriefing.obj
 0003:00011f80       _chatPanelText             100e2f80     cg_debriefing.obj
 0003:00011fd0       _chatPanelNextButton       100e2fd0     cg_debriefing.obj
 0003:00012020       _chatPanelHTMLButton       100e3020     cg_debriefing.obj
 0003:00012070       _chatPanelQCButton         100e3070     cg_debriefing.obj
 0003:000120c0       _chatPanelReadyButton      100e30c0     cg_debriefing.obj
 0003:00012110       _chatTypeButton            100e3110     cg_debriefing.obj
 0003:00012160       _charPanelEditSurround     100e3160     cg_debriefing.obj
 0003:000121b0       _charPanelEdit             100e31b0     cg_debriefing.obj
 0003:00012210       _mapVoteWindow             100e3210     cg_debriefing.obj
 0003:00012260       _mapVoteHeadingName        100e3260     cg_debriefing.obj
 0003:000122b0       _mapVoteHeadingVotes       100e32b0     cg_debriefing.obj
 0003:00012300       _mapVoteNamesList          100e3300     cg_debriefing.obj
 0003:00012350       _mapVoteNamesListScroll    100e3350     cg_debriefing.obj
 0003:000123a0       _mapVoteButton             100e33a0     cg_debriefing.obj
 0003:000123f0       _mapVoteButton1            100e33f0     cg_debriefing.obj
 0003:00012440       _mapVoteButton2            100e3440     cg_debriefing.obj
 0003:00012490       _mapVoteButton3            100e3490     cg_debriefing.obj
 0003:000124e0       _mapVoteBorder1            100e34e0     cg_debriefing.obj
 0003:00012530       _mapVoteBorder2            100e3530     cg_debriefing.obj
 0003:00012580       _mapVoteBorder3            100e3580     cg_debriefing.obj
 0003:000125d0       _chatPanelButtons          100e35d0     cg_debriefing.obj
 0003:000125f4       _mapVoteButtons            100e35f4     cg_debriefing.obj
 0003:00012630       _awardNames                100e3630     cg_debriefing.obj
 0003:00012698       _skillPositions            100e3698     cg_debriefing.obj
 0003:000126b8       _HUD_Background            100e36b8     cg_draw.obj
 0003:000126c8       _HUD_Border                100e36c8     cg_draw.obj
 0003:000126d8       _HUD_Text                  100e36d8     cg_draw.obj
 0003:000126e8       _HUD_Progress              100e36e8     cg_draw.obj
 0003:000126f8       _HUD_Alpha                 100e36f8     cg_draw.obj
 0003:000126fc       _barBgcolour               100e36fc     cg_draw.obj
 0003:0001270c       _color_background_mortar   100e370c     cg_draw.obj
 0003:00012760       _carryWeapons              100e3760     cg_draw.obj
 0003:00013380       _cabinetInfo               100e4380     cg_ents.obj
 0003:00013420       _SpreeMsg                  100e4420     cg_event.obj
 0003:00013448       _MultikillMsg              100e4448     cg_event.obj
 0003:00013460       _OB_YELLOW                 100e4460     cg_event.obj
 0003:0001346c       _OB_RED                    100e446c     cg_event.obj
 0003:00013478       _obituaries_singleclient   100e4478     cg_event.obj
 0003:00013938       _obituary_message_gpg40_m7 100e4938     cg_event.obj
 0003:00013954       _obituary_message_bulletguns 100e4954     cg_event.obj
 0003:00013974       _obituary_message_default  100e4974     cg_event.obj
 0003:00013988       _obituaries_suicide        100e4988     cg_event.obj
 0003:00013e48       _obituary_message_gunneddown 100e4e48     cg_event.obj
 0003:00013e5c       _obituary_message_silentlygunneddown 100e4e5c     cg_event.obj
 0003:00013e7c       _obituary_message_silentlykilled 100e4e7c     cg_event.obj
 0003:00013e94       _obituary_message_silenced 100e4e94     cg_event.obj
 0003:00013ea8       _obituary_message_sniped   100e4ea8     cg_event.obj
 0003:00013eb8       _obituary_message_killed   100e4eb8     cg_event.obj
 0003:00013ec8       _obituary_message_exploded 100e4ec8     cg_event.obj
 0003:00013edc       _obituary_message_blasted  100e4edc     cg_event.obj
 0003:00013eec       _obituary_message_perforated 100e4eec     cg_event.obj
 0003:00013f00       _obituary_message_period   100e4f00     cg_event.obj
 0003:00013f18       _obituaries_kill           100e4f18     cg_event.obj
 0003:000144d0       _fireteamTitleFont         100e54d0     cg_fireteams.obj
 0003:000144f4       _fireteamFont              100e54f4     cg_fireteams.obj
 0003:00014518       _fireteamTopBorder         100e5518     cg_fireteams.obj
 0003:00014568       _fireteamTopBorderBack     100e5568     cg_fireteams.obj
 0003:000145b8       _fireteamTopBorderInner    100e55b8     cg_fireteams.obj
 0003:00014608       _fireteamTopBorderInnerText 100e5608     cg_fireteams.obj
 0003:00014658       _fireteamMenuItemText      100e5658     cg_fireteams.obj
 0003:000146a8       _fireteamButtons           100e56a8     cg_fireteams.obj
 0003:000146c0       _ftMenuRootStrings         100e56c0     cg_fireteams.obj
 0003:000146e4       _ftMenuRootStringsMsg      100e56e4     cg_fireteams.obj
 0003:00014708       _ftMenuRootStringsAlphachars 100e5708     cg_fireteams.obj
 0003:0001472c       _ftMenuSoliderStrings      100e572c     cg_fireteams.obj
 0003:0001473c       _ftMenuSoliderStringsAlphachars 100e573c     cg_fireteams.obj
 0003:0001474c       _ftMenuSoliderStringsMsg   100e574c     cg_fireteams.obj
 0003:0001475c       _ftMenuMedicStrings        100e575c     cg_fireteams.obj
 0003:00014770       _ftMenuMedicStringsAlphachars 100e5770     cg_fireteams.obj
 0003:00014784       _ftMenuMedicStringsMsg     100e5784     cg_fireteams.obj
 0003:00014798       _ftMenuEngineerStrings     100e5798     cg_fireteams.obj
 0003:000147b4       _ftMenuEngineerStringsAlphachars 100e57b4     cg_fireteams.obj
 0003:000147d0       _ftMenuEngineerStringsMsg  100e57d0     cg_fireteams.obj
 0003:000147ec       _ftMenuFieldOpsStrings     100e57ec     cg_fireteams.obj
 0003:00014800       _ftMenuFieldOpsStringsAlphachars 100e5800     cg_fireteams.obj
 0003:00014814       _ftMenuFieldOpsStringsMsg  100e5814     cg_fireteams.obj
 0003:00014828       _ftMenuCovertOpsStrings    100e5828     cg_fireteams.obj
 0003:00014840       _ftMenuCovertOpsStringsAlphachars 100e5840     cg_fireteams.obj
 0003:00014858       _ftMenuCovertOpsStringsMsg 100e5858     cg_fireteams.obj
 0003:00014870       _ftMenuStrings             100e5870     cg_fireteams.obj
 0003:00014884       _ftMenuStringsAlphachars   100e5884     cg_fireteams.obj
 0003:00014898       _ftMenuStringsMsg          100e5898     cg_fireteams.obj
 0003:000148ac       _ftOffMenuList             100e58ac     cg_fireteams.obj
 0003:000148b8       _ftOffMenuListAlphachars   100e58b8     cg_fireteams.obj
 0003:000148c4       _ftOnMenuList              100e58c4     cg_fireteams.obj
 0003:000148d0       _ftOnMenuListAlphachars    100e58d0     cg_fireteams.obj
 0003:000148dc       _ftLeaderMenuList          100e58dc     cg_fireteams.obj
 0003:000148f4       _ftLeaderMenuListAlphachars 100e58f4     cg_fireteams.obj
 0003:0001490c       _rotatingFlames            100e590c     cg_flamethrower.obj
 0003:00014924       _color_bg                  100e5924     cg_info.obj
 0003:00014934       _color_border              100e5934     cg_info.obj
 0003:00014944       _color_hdr                 100e5944     cg_info.obj
 0003:00014954       _color_name                100e5954     cg_info.obj
 0003:00014968       _teamOrder                 100e5968     cg_limbopanel.obj
 0003:00014974       _nameEditFont              100e5974     cg_limbopanel.obj
 0003:00014998       _classBarFont              100e5998     cg_limbopanel.obj
 0003:000149bc       _titleLimboFont            100e59bc     cg_limbopanel.obj
 0003:000149e0       _titleLimboFontBig         100e59e0     cg_limbopanel.obj
 0003:00014a04       _titleLimboFontBigCenter   100e5a04     cg_limbopanel.obj
 0003:00014a28       _spawnLimboFont            100e5a28     cg_limbopanel.obj
 0003:00014a4c       _weaponButtonFont          100e5a4c     cg_limbopanel.obj
 0003:00014a70       _weaponPanelNameFont       100e5a70     cg_limbopanel.obj
 0003:00014a94       _weaponPanelFilterFont     100e5a94     cg_limbopanel.obj
 0003:00014ab8       _weaponPanelStatsFont      100e5ab8     cg_limbopanel.obj
 0003:00014adc       _weaponPanelStatsPercFont  100e5adc     cg_limbopanel.obj
 0003:00014b00       _objectivePanelTxt         100e5b00     cg_limbopanel.obj
 0003:00014b28       _rightLimboPannel          100e5b28     cg_limbopanel.obj
 0003:00014b78       _medalPic0                 100e5b78     cg_limbopanel.obj
 0003:00014bc8       _medalPic1                 100e5bc8     cg_limbopanel.obj
 0003:00014c18       _medalPic2                 100e5c18     cg_limbopanel.obj
 0003:00014c68       _medalPic3                 100e5c68     cg_limbopanel.obj
 0003:00014cb8       _medalPic4                 100e5cb8     cg_limbopanel.obj
 0003:00014d08       _medalPic5                 100e5d08     cg_limbopanel.obj
 0003:00014d58       _medalPic6                 100e5d58     cg_limbopanel.obj
 0003:00014da8       _teamCounter0              100e5da8     cg_limbopanel.obj
 0003:00014df8       _teamCounterLight0         100e5df8     cg_limbopanel.obj
 0003:00014e48       _teamButton0               100e5e48     cg_limbopanel.obj
 0003:00014e98       _teamCounter1              100e5e98     cg_limbopanel.obj
 0003:00014ee8       _teamCounterLight1         100e5ee8     cg_limbopanel.obj
 0003:00014f38       _teamButton1               100e5f38     cg_limbopanel.obj
 0003:00014f88       _teamCounter2              100e5f88     cg_limbopanel.obj
 0003:00014fd8       _teamCounterLight2         100e5fd8     cg_limbopanel.obj
 0003:00015028       _teamButton2               100e6028     cg_limbopanel.obj
 0003:00015078       _classBar                  100e6078     cg_limbopanel.obj
 0003:000150c8       _classBarText              100e60c8     cg_limbopanel.obj
 0003:00015118       _classCounter0             100e6118     cg_limbopanel.obj
 0003:00015168       _classButton0              100e6168     cg_limbopanel.obj
 0003:000151b8       _classCounter1             100e61b8     cg_limbopanel.obj
 0003:00015208       _classButton1              100e6208     cg_limbopanel.obj
 0003:00015258       _classCounter2             100e6258     cg_limbopanel.obj
 0003:000152a8       _classButton2              100e62a8     cg_limbopanel.obj
 0003:000152f8       _classCounter3             100e62f8     cg_limbopanel.obj
 0003:00015348       _classButton3              100e6348     cg_limbopanel.obj
 0003:00015398       _classCounter4             100e6398     cg_limbopanel.obj
 0003:000153e8       _classButton4              100e63e8     cg_limbopanel.obj
 0003:00015438       _filterButton0             100e6438     cg_limbopanel.obj
 0003:00015488       _filterButton1             100e6488     cg_limbopanel.obj
 0003:000154d8       _filterButton2             100e64d8     cg_limbopanel.obj
 0003:00015528       _filterButton3             100e6528     cg_limbopanel.obj
 0003:00015578       _filterButton4             100e6578     cg_limbopanel.obj
 0003:000155c8       _filterButton5             100e65c8     cg_limbopanel.obj
 0003:00015618       _filterButton6             100e6618     cg_limbopanel.obj
 0003:00015668       _filterButton7             100e6668     cg_limbopanel.obj
 0003:000156b8       _filterTitleText           100e66b8     cg_limbopanel.obj
 0003:00015708       _leftFrame01               100e6708     cg_limbopanel.obj
 0003:00015758       _leftFrame02               100e6758     cg_limbopanel.obj
 0003:000157a8       _leftFrame03               100e67a8     cg_limbopanel.obj
 0003:000157f8       _leftFrame04               100e67f8     cg_limbopanel.obj
 0003:00015848       _leftFrame05               100e6848     cg_limbopanel.obj
 0003:00015898       _leftFrame06               100e6898     cg_limbopanel.obj
 0003:000158e8       _leftFrame07               100e68e8     cg_limbopanel.obj
 0003:00015938       _leftFrame08               100e6938     cg_limbopanel.obj
 0003:00015988       _playerLimboHead           100e6988     cg_limbopanel.obj
 0003:000159d8       _playerXPCounterText       100e69d8     cg_limbopanel.obj
 0003:00015a28       _playerXPCounter           100e6a28     cg_limbopanel.obj
 0003:00015a78       _playerSkillCounter0       100e6a78     cg_limbopanel.obj
 0003:00015ac8       _playerSkillCounter1       100e6ac8     cg_limbopanel.obj
 0003:00015b18       _playerSkillCounter2       100e6b18     cg_limbopanel.obj
 0003:00015b68       _playerSkillIcon0          100e6b68     cg_limbopanel.obj
 0003:00015bb8       _playerSkillIcon1          100e6bb8     cg_limbopanel.obj
 0003:00015c08       _playerSkillIcon2          100e6c08     cg_limbopanel.obj
 0003:00015c58       _mapTimeCounter            100e6c58     cg_limbopanel.obj
 0003:00015ca8       _mapTimeCounter2           100e6ca8     cg_limbopanel.obj
 0003:00015cf8       _mapTimeCounterText        100e6cf8     cg_limbopanel.obj
 0003:00015d48       _respawnCounter            100e6d48     cg_limbopanel.obj
 0003:00015d98       _respawnCounterText        100e6d98     cg_limbopanel.obj
 0003:00015de8       _limboTitleText            100e6de8     cg_limbopanel.obj
 0003:00015e38       _playerSetupText           100e6e38     cg_limbopanel.obj
 0003:00015e88       _skillsText                100e6e88     cg_limbopanel.obj
 0003:00015ed8       _weaponPanel               100e6ed8     cg_limbopanel.obj
 0003:00015f28       _weaponLight1              100e6f28     cg_limbopanel.obj
 0003:00015f78       _weaponLight1Text          100e6f78     cg_limbopanel.obj
 0003:00015fc8       _weaponLight2              100e6fc8     cg_limbopanel.obj
 0003:00016018       _weaponLight2Text          100e7018     cg_limbopanel.obj
 0003:00016068       _weaponStatsShotsText      100e7068     cg_limbopanel.obj
 0003:000160b8       _weaponStatsShotsCounter   100e70b8     cg_limbopanel.obj
 0003:00016108       _weaponStatsHitsText       100e7108     cg_limbopanel.obj
 0003:00016158       _weaponStatsHitsCounter    100e7158     cg_limbopanel.obj
 0003:000161a8       _weaponStatsAccText        100e71a8     cg_limbopanel.obj
 0003:000161f8       _weaponStatsAccCounter     100e71f8     cg_limbopanel.obj
 0003:00016248       _weaponStatsAccPercentage  100e7248     cg_limbopanel.obj
 0003:00016298       _commandmapPanel           100e7298     cg_limbopanel.obj
 0003:000162e8       _objectivePanel            100e72e8     cg_limbopanel.obj
 0003:00016338       _objectivePanelText        100e7338     cg_limbopanel.obj
 0003:00016388       _objectivePanelTitle       100e7388     cg_limbopanel.obj
 0003:000163d8       _objectivePanelButtonUp    100e73d8     cg_limbopanel.obj
 0003:00016428       _briefingButton            100e7428     cg_limbopanel.obj
 0003:00016478       _objectivePanelButtonDown  100e7478     cg_limbopanel.obj
 0003:000164c8       _okButtonText              100e74c8     cg_limbopanel.obj
 0003:00016518       _okButton                  100e7518     cg_limbopanel.obj
 0003:00016568       _cancelButtonText          100e7568     cg_limbopanel.obj
 0003:000165b8       _cancelButton              100e75b8     cg_limbopanel.obj
 0003:00016608       _nameEdit                  100e7608     cg_limbopanel.obj
 0003:00016658       _plusButton                100e7658     cg_limbopanel.obj
 0003:000166a8       _plusButtonText            100e76a8     cg_limbopanel.obj
 0003:000166f8       _minusButton               100e76f8     cg_limbopanel.obj
 0003:00016748       _minusButtonText           100e7748     cg_limbopanel.obj
 0003:00016798       _limboPanelButtons         100e7798     cg_limbopanel.obj
 0003:00016908       _missiondescriptionTxt     100e7908     cg_loadpanel.obj
 0003:0001692c       _missiondescriptionHeaderTxt 100e792c     cg_loadpanel.obj
 0003:00016950       _campaignpheaderTxt        100e7950     cg_loadpanel.obj
 0003:00016974       _campaignpTxt              100e7974     cg_loadpanel.obj
 0003:00016998       _loadScreenMeterBackTxt    100e7998     cg_loadpanel.obj
 0003:000169bc       _loadpanelButtons          100e79bc     cg_loadpanel.obj
 0003:000169e8       _loadScreenMap             100e79e8     cg_loadpanel.obj
 0003:00016a38       _loadScreenBack            100e7a38     cg_loadpanel.obj
 0003:00016a88       _loadScreenPins            100e7a88     cg_loadpanel.obj
 0003:00016ad8       _missiondescriptionPanelHeaderText 100e7ad8     cg_loadpanel.obj
 0003:00016b28       _missiondescriptionPanelText 100e7b28     cg_loadpanel.obj
 0003:00016b78       _campaignheaderPanelText   100e7b78     cg_loadpanel.obj
 0003:00016bc8       _campaignPanelText         100e7bc8     cg_loadpanel.obj
 0003:00016c18       _loadScreenMeterBack       100e7c18     cg_loadpanel.obj
 0003:00016c68       _loadScreenMeterBack2      100e7c68     cg_loadpanel.obj
 0003:00016cb8       _loadScreenMeterBackText   100e7cb8     cg_loadpanel.obj
 0003:00016d30       _cvarTable                 100e7d30     cg_main.obj
 0003:00017b90       _cvarTableSize             100e8b90     cg_main.obj
 0003:00017c60       _cl_numparticles           100e8c60     cg_particles.obj
 0003:00017c70       _cg_skillRewards           100e8c70     cg_popupmessages.obj
 0003:00017d84       _clrUiBack                 100e8d84     cg_scoreboard.obj
 0003:00017d94       _clrUiBar                  100e8d94     cg_scoreboard.obj
 0003:00017dc0       _speakerEditorTxt          100e8dc0     cg_sound.obj
 0003:00017de8       _speakerInfo               100e8de8     cg_sound.obj
 0003:00017e40       _speakerEditorBack         100e8e40     cg_sound.obj
 0003:00017e90       _speakerEditorLocInfo      100e8e90     cg_sound.obj
 0003:00017ee0       _speakerEditorNoiseLabel   100e8ee0     cg_sound.obj
 0003:00017f30       _speakerEditorNoiseEdit    100e8f30     cg_sound.obj
 0003:00017f80       _speakerEditorTargetnameLabel 100e8f80     cg_sound.obj
 0003:00017fd0       _speakerEditorTargetnameEdit 100e8fd0     cg_sound.obj
 0003:00018020       _speakerEditorLoopedLabel  100e9020     cg_sound.obj
 0003:00018070       _speakerEditorLoopedDropdown 100e9070     cg_sound.obj
 0003:000180c0       _speakerEditorBroadcastLabel 100e90c0     cg_sound.obj
 0003:00018110       _speakerEditorBroadcastDropdown 100e9110     cg_sound.obj
 0003:00018160       _speakerEditorWaitLabel    100e9160     cg_sound.obj
 0003:000181b0       _speakerEditorWaitEdit     100e91b0     cg_sound.obj
 0003:00018200       _speakerEditorRandomLabel  100e9200     cg_sound.obj
 0003:00018250       _speakerEditorRandomEdit   100e9250     cg_sound.obj
 0003:000182a0       _speakerEditorVolumeLabel  100e92a0     cg_sound.obj
 0003:000182f0       _speakerEditorVolumeEdit   100e92f0     cg_sound.obj
 0003:00018340       _speakerEditorRangeLabel   100e9340     cg_sound.obj
 0003:00018390       _speakerEditorRangeEdit    100e9390     cg_sound.obj
 0003:000183e0       _speakerEditorOkButton     100e93e0     cg_sound.obj
 0003:00018430       _speakerEditorCancelButton 100e9430     cg_sound.obj
 0003:00018480       _speakerEditorDeleteButton 100e9480     cg_sound.obj
 0003:00018528       _spawns                    100e9528     cg_spawn.obj
 0003:00018560       _rankicons                 100e9560     cg_statsranksmedals.obj
 0003:00018a54       _zoomTable                 100e9a54     cg_view.obj
 0003:00018ac0       _weapBanksMultiPlayer      100e9ac0     cg_weapons.obj
 0003:00018e78       _colorGreen2               100e9e78     cg_window.obj
 0003:00018e88       _axisDefault               100e9e88     q_math.obj
 0003:00018eac       _colorBlack                100e9eac     q_math.obj
 0003:00018ebc       _colorRed                  100e9ebc     q_math.obj
 0003:00018ecc       _colorGreen                100e9ecc     q_math.obj
 0003:00018edc       _colorBlue                 100e9edc     q_math.obj
 0003:00018eec       _colorYellow               100e9eec     q_math.obj
 0003:00018efc       _colorOrange               100e9efc     q_math.obj
 0003:00018f0c       _colorMagenta              100e9f0c     q_math.obj
 0003:00018f1c       _colorCyan                 100e9f1c     q_math.obj
 0003:00018f2c       _colorWhite                100e9f2c     q_math.obj
 0003:00018f3c       _colorLtGrey               100e9f3c     q_math.obj
 0003:00018f4c       _colorMdGrey               100e9f4c     q_math.obj
 0003:00018f5c       _colorDkGrey               100e9f5c     q_math.obj
 0003:00018f6c       _colorMdRed                100e9f6c     q_math.obj
 0003:00018f7c       _colorMdGreen              100e9f7c     q_math.obj
 0003:00018f8c       _colorDkGreen              100e9f8c     q_math.obj
 0003:00018f9c       _colorMdCyan               100e9f9c     q_math.obj
 0003:00018fac       _colorMdYellow             100e9fac     q_math.obj
 0003:00018fbc       _colorMdOrange             100e9fbc     q_math.obj
 0003:00018fcc       _colorMdBlue               100e9fcc     q_math.obj
 0003:00018fdc       _colorPink                 100e9fdc     q_math.obj
 0003:00018fec       _colorCthulhu              100e9fec     q_math.obj
 0003:00018ffc       _clrBrown                  100e9ffc     q_math.obj
 0003:0001900c       _clrBrownDk                100ea00c     q_math.obj
 0003:0001901c       _clrBrownLine              100ea01c     q_math.obj
 0003:0001902c       _clrBrownLineFull          100ea02c     q_math.obj
 0003:0001903c       _clrBrownTextLt2           100ea03c     q_math.obj
 0003:0001904c       _clrBrownTextLt            100ea04c     q_math.obj
 0003:0001905c       _clrBrownText              100ea05c     q_math.obj
 0003:0001906c       _clrBrownTextDk            100ea06c     q_math.obj
 0003:0001907c       _clrBrownTextDk2           100ea07c     q_math.obj
 0003:00019090       _g_color_table             100ea090     q_math.obj
 0003:00019290       _bytedirs                  100ea290     q_math.obj
 0003:00019a2c       _scriptCommandCount        100eaa2c     ui_shared.obj
 0003:00019a30       _commandList               100eaa30     ui_shared.obj
 0003:0001a360       _itemParseKeywords         100eb360     ui_shared.obj
 0003:0001a750       _menuParseKeywords         100eb750     ui_shared.obj
 0003:0001a900       __fltused                  100eb900     LIBCMT:_fpinit_.obj
 0003:0001a904       __ldused                   100eb904     LIBCMT:_fpinit_.obj
 0003:0001a950       __half                     100eb950     LIBCMT:_pow_.obj
 0003:0001a960       __iob                      100eb960     LIBCMT:_file.obj
 0003:0001abf0       ___flsindex                100ebbf0     LIBCMT:tidtable.obj
 0003:0001abf4       ___getvalueindex           100ebbf4     LIBCMT:tidtable.obj
 0003:0001abf8       __cfltcvt_tab              100ebbf8     LIBCMT:cmiscdat.obj
 0003:0001ac20       ___initialmbcinfo          100ebc20     LIBCMT:mbctype.obj
 0003:0001ae40       __mbctype                  100ebe40     LIBCMT:mbctype.obj
 0003:0001af48       __mbcasemap                100ebf48     LIBCMT:mbctype.obj
 0003:0001b048       ___ptmbcinfo               100ec048     LIBCMT:mbctype.obj
 0003:0001b140       ___globallocalestatus      100ec140     LIBCMT:glstatus.obj
 0003:0001b144       ___clocalestr              100ec144     LIBCMT:nlsdata2.obj
 0003:0001b148       ___lc_time_c               100ec148     LIBCMT:nlsdata2.obj
 0003:0001b2b0       ___initiallocinfo          100ec2b0     LIBCMT:nlsdata2.obj
 0003:0001b388       ___ptlocinfo               100ec388     LIBCMT:nlsdata2.obj
 0003:0001b38c       ___initiallocalestructinfo 100ec38c     LIBCMT:nlsdata2.obj
 0003:0001b520       ___nullstring              100ec520     LIBCMT:output.obj
 0003:0001b524       ___wnullstring             100ec524     LIBCMT:output.obj
 0003:0001b530       ___security_cookie         100ec530     LIBCMT:gs_cookie.obj
 0003:0001b534       ___security_cookie_complement 100ec534     LIBCMT:gs_cookie.obj
 0003:0001b540       ___badioinfo               100ec540     LIBCMT:ioinit.obj
 0003:0001b598       __timezone                 100ec598     LIBCMT:timeset.obj
 0003:0001b59c       __daylight                 100ec59c     LIBCMT:timeset.obj
 0003:0001b5a0       __dstbias                  100ec5a0     LIBCMT:timeset.obj
 0003:0001b628       __tzname                   100ec628     LIBCMT:timeset.obj
 0003:0001b760       ___lconv_static_decimal    100ec760     LIBCMT:lconv.obj
 0003:0001b764       ___lconv_static_W_decimal  100ec764     LIBCMT:lconv.obj
 0003:0001b768       ___lconv_c                 100ec768     LIBCMT:lconv.obj
 0003:0001b7b8       ___lconv                   100ec7b8     LIBCMT:lconv.obj
 0003:0001b7bc       __pctype                   100ec7bc     LIBCMT:ctype.obj
 0003:0001b7c0       __pwctype                  100ec7c0     LIBCMT:ctype.obj
 0003:0001b7d0       ___mb_cur_max              100ec7d0     LIBCMT:nlsdata1.obj
 0003:0001b7d4       ___decimal_point           100ec7d4     LIBCMT:nlsdata1.obj
 0003:0001b7d8       ___decimal_point_length    100ec7d8     LIBCMT:nlsdata1.obj
 0003:0001b7e0       __matherr_flag             100ec7e0     LIBCMT:_matherr_.obj
 0003:0001b8d0       __d_inf                    100ec8d0     LIBCMT:_util_.obj
 0003:0001b8d8       __d_ind                    100ec8d8     LIBCMT:_util_.obj
 0003:0001b8e0       __d_max                    100ec8e0     LIBCMT:_util_.obj
 0003:0001b8e8       __d_min                    100ec8e8     LIBCMT:_util_.obj
 0003:0001b8f0       __d_mzero                  100ec8f0     LIBCMT:_util_.obj
 0003:0001b948       __pow10pos                 100ec948     LIBCMT:_constpow_.obj
 0003:0001baa8       __pow10neg                 100ecaa8     LIBCMT:_constpow_.obj
 0003:0001bc10       __NLG_Destination          100ecc10     LIBCMT:exsup.obj
 0003:0001bc20       __lpdays                   100ecc20     LIBCMT:days.obj
 0003:0001bc54       __days                     100ecc54     LIBCMT:days.obj
 0003:0001bc88       ___abort_behavior          100ecc88     LIBCMT:abort.obj
 0003:0001bc90       __lookuptrailbytes         100ecc90     LIBCMT:read.obj
 0003:0001bd90       __confh                    100ecd90     LIBCMT:initcon.obj
 0003:00069b38       _c_pmove                   1013ab38     bg_pmove.obj
 0003:0018e5ec       _resetmaxspeed             1025f5ec     cg_consolecmds.obj
 0003:0018e5f4       _imagehlp                  1025f5f4     cg_crash.obj
 0003:0018e5f8       _pfnSymInitialize          1025f5f8     cg_crash.obj
 0003:0018e5fc       _pfnSymCleanup             1025f5fc     cg_crash.obj
 0003:0018e600       _pfnSymGetModuleBase       1025f600     cg_crash.obj
 0003:0018e604       _pfnStackWalk              1025f604     cg_crash.obj
 0003:0018e608       _pfnSymGetSymFromAddr      1025f608     cg_crash.obj
 0003:0018e60c       _pfnSymEnumerateModules    1025f60c     cg_crash.obj
 0003:0018e610       _pfnSymFunctionTableAccess 1025f610     cg_crash.obj
 0003:001d9f70       _bg_loadscreeninited       102aaf70     cg_loadpanel.obj
 0003:001d9f7c       _localEntCount             102aaf7c     cg_localents.obj
 0003:001da3a8       _systemFlag                102ab3a8     cg_main.obj
 0003:001da3ac       _cvarsLoaded               102ab3ac     cg_main.obj
 0003:001dabc0       _initparticles             102abbc0     cg_particles.obj
 0003:00643b34       _numSoundScripts           10714b34     cg_sound.obj
 0003:00643b38       _numSoundScriptSounds      10714b38     cg_sound.obj
 0003:00673d7c       _initTrails                10744d7c     cg_trails.obj
 0003:00674de8       _vec3_origin               10745de8     q_math.obj
 0003:00aed4f0       _g_waitingForKey           10bbe4f0     ui_shared.obj
 0003:00aed4f4       _g_editingField            10bbe4f4     ui_shared.obj
 0003:00aed4f8       _g_bindItem                10bbe4f8     ui_shared.obj
 0003:00aed4fc       _g_editItem                10bbe4fc     ui_shared.obj
 0003:00aed500       _menuCount                 10bbe500     ui_shared.obj
 0003:00aed504       _scrolltime                10bbe504     ui_shared.obj
 0003:00aed508       _modalMenuCount            10bbe508     ui_shared.obj
 0003:00aed520       ___fastflag                10bbe520     LIBCMT:_fpinit_.obj
 0003:00aed524       __cflush                   10bbe524     LIBCMT:_file.obj
 0003:00aed528       __umaskval                 10bbe528     LIBCMT:crt0dat.obj
 0003:00aed52c       ___argc                    10bbe52c     LIBCMT:crt0dat.obj
 0003:00aed530       ___argv                    10bbe530     LIBCMT:crt0dat.obj
 0003:00aed534       ___wargv                   10bbe534     LIBCMT:crt0dat.obj
 0003:00aed538       __environ                  10bbe538     LIBCMT:crt0dat.obj
 0003:00aed53c       ___initenv                 10bbe53c     LIBCMT:crt0dat.obj
 0003:00aed540       __wenviron                 10bbe540     LIBCMT:crt0dat.obj
 0003:00aed544       ___winitenv                10bbe544     LIBCMT:crt0dat.obj
 0003:00aed548       __pgmptr                   10bbe548     LIBCMT:crt0dat.obj
 0003:00aed54c       __wpgmptr                  10bbe54c     LIBCMT:crt0dat.obj
 0003:00aed550       __exitflag                 10bbe550     LIBCMT:crt0dat.obj
 0003:00aed554       __C_Termination_Done       10bbe554     LIBCMT:crt0dat.obj
 0003:00aed558       __C_Exit_Done              10bbe558     LIBCMT:crt0dat.obj
 0003:00aed560       __aenvptr                  10bbe560     LIBCMT:dllcrt0.obj
 0003:00aed564       __wenvptr                  10bbe564     LIBCMT:dllcrt0.obj
 0003:00aed568       ___error_mode              10bbe568     LIBCMT:dllcrt0.obj
 0003:00aed56c       ___app_type                10bbe56c     LIBCMT:dllcrt0.obj
 0003:00aed570       _gpFlsAlloc                10bbe570     LIBCMT:tidtable.obj
 0003:00aed574       _gpFlsGetValue             10bbe574     LIBCMT:tidtable.obj
 0003:00aed578       _gpFlsSetValue             10bbe578     LIBCMT:tidtable.obj
 0003:00aed57c       _gpFlsFree                 10bbe57c     LIBCMT:tidtable.obj
 0003:00aed584       ___mbulinfo                10bbe584     LIBCMT:mbctype.obj
 0003:00aed590       ___mbcodepage              10bbe590     LIBCMT:mbctype.obj
 0003:00aed594       ___ismbcodepage            10bbe594     LIBCMT:mbctype.obj
 0003:00aed598       ___mblcid                  10bbe598     LIBCMT:mbctype.obj
 0003:00aed59c       ___locale_changed          10bbe59c     LIBCMT:setlocal.obj
 0003:00aed5a4       ___pInvalidArgHandler      10bbe5a4     LIBCMT:invarg.obj
 0003:00aed5a8       __stdbuf                   10bbe5a8     LIBCMT:_sftbuf.obj
 0003:00aed7b8       __maxwait                  10bbe7b8     LIBCMT:crtheap.obj
 0003:00aed7bc       ?__pInconsistency@@3P6AXXZA 10bbe7bc     LIBCMT:hooks.obj
 0003:00aed7d8       ___pPurecall               10bbe7d8     LIBCMT:inithelp.obj
 0003:00aed7dc       ?_pnhHeap@@3P6AHI@ZA       10bbe7dc     LIBCMT:handler.obj
 0003:00aedf10       __crtheap                  10bbef10     LIBCMT:heapinit.obj
 0003:00aedf14       __outputformat             10bbef14     LIBCMT:outputformat.obj
 0003:00aedf18       ___lconv_static_null       10bbef18     LIBCMT:lconv.obj
 0003:00aedf1c       ___lconv_static_W_null     10bbef1c     LIBCMT:lconv.obj
 0003:00aee24c       __commode                  10bbf24c     LIBCMT:ncommode.obj
 0003:00aee264       __newmode                  10bbf264     LIBCMT:_newmode.obj
 0003:00aee268       __fmode                    10bbf268     LIBCMT:txtmode.obj
 0003:00aee26c       _bg_focusButton            10bbf26c     <common>
 0003:00aee280       _itemParseKeywordHash      10bbf280     <common>
 0003:00aeea80       _Menus                     10bbfa80     <common>
 0003:00b80280       _g_nameBind1               10c51280     <common>
 0003:00b802a0       _scrollYmenu               10c512a0     <common>
 0003:00b80ac0       _g_nameBind2               10c51ac0     <common>
 0003:00b80ae0       _imgBlingbling             10c51ae0     <common>
 0003:00b80b00       _menuParseKeywordHash      10c51b00     <common>
 0003:00b81300       _imgFadeCircle             10c52300     <common>
 0003:00b81304       _DC                        10c52304     <common>
 0003:00b81320       _modalMenuStack            10c52320     <common>
 0003:00b81360       _imgFadeToBlack            10c52360     <common>
 0003:00b81364       _freeTrails                10c52364     <common>
 0003:00b81380       _trailJuncs                10c52380     <common>
 0003:00c01380       _numTrailsInuse            10cd2380     <common>
 0003:00c01384       _activeTrails              10cd2384     <common>
 0003:00c01388       _headTrails                10cd2388     <common>
 0003:00c01390       _waitEditBuffer            10cd2390     <common>
 0003:00c013a0       _rangeEditBuffer           10cd23a0     <common>
 0003:00c013c0       _targetnameEditBuffer      10cd23c0     <common>
 0003:00c013e0       _noiseEditBuffer           10cd23e0     <common>
 0003:00c01420       _randomEditBuffer          10cd2420     <common>
 0003:00c01430       _volumeEditBuffer          10cd2430     <common>
 0003:00c01440       _voiceChatLists            10cd2440     <common>
 0003:010ed880       _voiceChatBuffer           111be880     <common>
 0003:010f0200       _oldpmext                  111c1200     <common>
 0003:010f2800       _cg_pmWaitingList          111c3800     <common>
 0003:010f2804       _cg_pmWaitingListBig       111c3804     <common>
 0003:010f2820       _cg_pmStack                111c3820     <common>
 0003:010f4d20       _cg_pmOldList              111c5d20     <common>
 0003:010f4d40       _cg_pmStackBig             111c5d40     <common>
 0003:010f5240       _cg_polyBuffersInuse       111c6240     <common>
 0003:010f5440       _cg_polyBuffers            111c6440     <common>
 0003:01777440       _vright                    11848440     <common>
 0003:0177744c       _active_particles          1184844c     <common>
 0003:01777450       _oldtime                   11848450     <common>
 0003:01777460       _rup                       11848460     <common>
 0003:01777480       _particles                 11848480     <common>
 0003:01867480       _rright                    11938480     <common>
 0003:0186748c       _free_particles            1193848c     <common>
 0003:01867490       _vup                       11938490     <common>
 0003:018674a0       _rforward                  119384a0     <common>
 0003:018674b0       _vforward                  119384b0     <common>
 0003:018674bc       _cg_mmOldList              119384bc     <common>
 0003:018674c0       _cg_mmStack                119384c0     <common>
 0003:018699c0       _cg_mmWaitingList          1193a9c0     <common>
 0003:018699c4       _cg_freeMarkPolys          1193a9c4     <common>
 0003:018699e0       _cg_markPolys              1193a9e0     <common>
 0003:0187bde0       _cg_activeMarkPolys        1194cde0     <common>
 0003:0187bf20       _cg_weapAltReloads         1194cf20     <common>
 0003:0187c040       _cg_bloodDamageBlend       1194d040     <common>
 0003:0187c160       _cg_weapons                1194d160     <common>
 0003:018de660       _cg_drawCarryWeapons       119af660     <common>
 0003:018de780       _cl_demorecording          119af780     <common>
 0003:018de8a0       _cg_zoomStepSniper         119af8a0     <common>
 0003:018de9c0       _cg_announcer              119af9c0     <common>
 0003:018deae0       _cg_animSpeed              119afae0     <common>
 0003:018dec00       _cgDC                      119afc00     <common>
 0003:018fec80       _authLevel                 119cfc80     <common>
 0003:018feda0       _cg_limbo_secondary        119cfda0     <common>
 0003:018feec0       _hud_skillBarAlpha         119cfec0     <common>
 0003:018fefe0       _cg_markTime               119cffe0     <common>
 0003:018ff100       _cg_drawWeaponIconFlash    119d0100     <common>
 0003:018ff220       _cg_autoReload             119d0220     <common>
 0003:018ff340       _demo_infoWindow           119d0340     <common>
 0003:018ff460       _cg_speedunit              119d0460     <common>
 0003:018ff580       _cgs                       119d0580     <common>
 0003:039a8e00       _cg_drawMuzzleFlash        13a79e00     <common>
 0003:039a8f20       _cg_FTAutoSelect           13a79f20     <common>
 0003:039a9040       _cg_drawFPS                13a7a040     <common>
 0003:039a9160       _cg_thirdPerson            13a7a160     <common>
 0003:039a9280       _cg_drawTracers            13a7a280     <common>
 0003:039a93a0       _cg_drawKillSpree          13a7a3a0     <common>
 0003:039a94c0       _hud_skillBarX             13a7a4c0     <common>
 0003:039a95e0       _cg_drawCrosshair          13a7a5e0     <common>
 0003:039a9700       _cg_shadows                13a7a700     <common>
 0003:039a9820       _cg_autoAction             13a7a820     <common>
 0003:039a9940       _cg_messageType            13a7a940     <common>
 0003:039a9a60       _cl_demooffset             13a7aa60     <common>
 0003:039a9b80       _cg_drawTime               13a7ab80     <common>
 0003:039a9ca0       _cg_message                13a7aca0     <common>
 0003:039a9dc0       _cg_debugAnim              13a7adc0     <common>
 0003:039a9ee0       _cg_timescale              13a7aee0     <common>
 0003:039aa000       _cg_goatSound              13a7b000     <common>
 0003:039aa120       _cg_favWeaponBank          13a7b120     <common>
 0003:039aa240       _hud_powerupSize           13a7b240     <common>
 0003:039aa360       _cg_spawnTimer_set         13a7b360     <common>
 0003:039aa480       _cg_noAmmoAutoSwitch       13a7b480     <common>
 0003:039aa5a0       _pmove_msec                13a7b5a0     <common>
 0003:039aa6c0       _cg_autoswitch             13a7b6c0     <common>
 0003:039aa7e0       _cg_noVoiceText            13a7b7e0     <common>
 0003:039aa900       _cg_drawTimeSeconds        13a7b900     <common>
 0003:039aaa20       _cg_hitSounds              13a7ba20     <common>
 0003:039aab40       _cg_drawStatus             13a7bb40     <common>
 0003:039aac60       _cg_autoactivate           13a7bc60     <common>
 0003:039aad80       _cg_drawSnapshot           13a7bd80     <common>
 0003:039aaea0       _demo_avifpsF3             13a7bea0     <common>
 0003:039aafc0       _cg_drawFireteamOverlay    13a7bfc0     <common>
 0003:039ab0e0       _cg_voiceSpriteTime        13a7c0e0     <common>
 0003:039ab200       _cg_runpitch               13a7c200     <common>
 0003:039ab320       _cg_bloodFlash             13a7c320     <common>
 0003:039ab440       _hud_rankX                 13a7c440     <common>
 0003:039ab560       _cg_gameType               13a7c560     <common>
 0003:039ab680       _cg_markDistance           13a7c680     <common>
 0003:039ab7a0       _cg_spawnTimer_period      13a7c7a0     <common>
 0003:039ab8c0       _cg_fixedFTeamSize         13a7c8c0     <common>
 0003:039ab9e0       _hud_drawAltHUD            13a7c9e0     <common>
 0003:039abb00       _cg_drawspeed              13a7cb00     <common>
 0003:039abc20       _cg_skybox                 13a7cc20     <common>
 0003:039abd40       _cg_draw2D                 13a7cd40     <common>
 0003:039abe60       _cg_gun_foreshorten        13a7ce60     <common>
 0003:039abf80       _cg_pmPopupTime            13a7cf80     <common>
 0003:039ac0a0       _cg_crosshairAlpha         13a7d0a0     <common>
 0003:039ac1c0       _cg_cycleAllWeaps          13a7d1c0     <common>
 0003:039ac2e0       _cf_wstats                 13a7d2e0     <common>
 0003:039ac400       _int_sensitivity           13a7d400     <common>
 0003:039ac520       _cg_popupMessageFilter     13a7d520     <common>
 0003:039ac640       _cg_debugPosition          13a7d640     <common>
 0003:039ac760       _cg_drawAuraIcons          13a7d760     <common>
 0003:039ac880       _cg_drawGun                13a7d880     <common>
 0003:039ac9a0       _demo_avifpsF5             13a7d9a0     <common>
 0003:039acac0       _cg_HUDBackgroundColor     13a7dac0     <common>
 0003:039acbe0       _cg_swingSpeed             13a7dbe0     <common>
 0003:039acd00       _cg_rtcwShake              13a7dd00     <common>
 0003:039ace20       _cl_waveoffset             13a7de20     <common>
 0003:039acf40       _cg_wolfparticles          13a7df40     <common>
 0003:039ad060       _cg_modelHilights          13a7e060     <common>
 0003:039ad180       _cg_atmosphericEffects     13a7e180     <common>
 0003:039ad2a0       _demo_avifpsF1             13a7e2a0     <common>
 0003:039ad3c0       _int_cl_timenudge          13a7e3c0     <common>
 0003:039ad4e0       _cg_whizzSounds            13a7e4e0     <common>
 0003:039ad600       _cg_drawHitbox             13a7e600     <common>
 0003:039ad720       _cg_items                  13a7e720     <common>
 0003:039af720       _cg_tracerSpeed            13a80720     <common>
 0003:039af840       _cg_rconPassword           13a80840     <common>
 0003:039af960       _cg_crosshairHealth        13a80960     <common>
 0003:039afa80       _cg_redlimbotime           13a80a80     <common>
 0003:039afba0       _cg_crosshairY             13a80ba0     <common>
 0003:039afcc0       _cg_drawNotifyText         13a80cc0     <common>
 0003:039afde0       _cg_optimizePrediction     13a80de0     <common>
 0003:039aff00       _cg_messageTarget          13a80f00     <common>
 0003:039b0020       _cg_trailparticles         13a81020     <common>
 0003:039b0140       _cg_antilag                13a81140     <common>
 0003:039b0260       _cg_tracerChance           13a81260     <common>
 0003:039b0380       _cg_skillOptions           13a81380     <common>
 0003:039b04a0       _cl_wavefilename           13a814a0     <common>
 0003:039b05c0       _cg_crosshairColorAlt      13a815c0     <common>
 0003:039b06e0       _cg_drawSpreadScale        13a816e0     <common>
 0003:039b0800       _hud_rankY                 13a81800     <common>
 0003:039b0920       _cg_pmBigPopupTime         13a81920     <common>
 0003:039b0a40       _cg_instanttapout          13a81a40     <common>
 0003:039b0b60       _hud_skillBarY             13a81b60     <common>
 0003:039b0c80       _cg_thirdPersonRange       13a81c80     <common>
 0003:039b0da0       _cg_bluelimbotime          13a81da0     <common>
 0003:039b0ec0       _cg_debugSkills            13a81ec0     <common>
 0003:039b0fe0       _cg_useWeapsForZoom        13a81fe0     <common>
 0003:039b1100       _cg_debugEvents            13a82100     <common>
 0003:039b1220       _cg_stereoSeparation       13a82220     <common>
 0003:039b1340       _cg_bobroll                13a82340     <common>
 0003:039b1460       _cg_drawCompass            13a82460     <common>
 0003:039b1580       _cg_smallFont              13a82580     <common>
 0003:039b16a0       _cg_spectator              13a826a0     <common>
 0003:039b17c0       _cg_drawCrosshairNames     13a827c0     <common>
 0003:039b18e0       _cg_pmFadeTime             13a828e0     <common>
 0003:039b1a00       _cg_crosshairX             13a82a00     <common>
 0003:039b1b20       _cg_coronas                13a82b20     <common>
 0003:039b1c40       _cg_quickMessageAlt        13a82c40     <common>
 0003:039b1d60       _cg_drawObjIcons           13a82d60     <common>
 0003:039b1e80       _cg_crosshairPulse         13a82e80     <common>
 0003:039b1fa0       _cg_altHQVoice             13a82fa0     <common>
 0003:039b20c0       _cg_drawReinforcementTime  13a830c0     <common>
 0003:039b21e0       _cg_noVoiceChats           13a831e0     <common>
 0003:039b2300       _cg_useScreenshotJPEG      13a83300     <common>
 0003:039b2420       _cg_drawCrosshairPickups   13a83420     <common>
 0003:039b2540       _cl_demofilename           13a83540     <common>
 0003:039b2660       _cg_teamChatTime           13a83660     <common>
 0003:039b2780       _cg_nopredict              13a83780     <common>
 0003:039b28a0       _cg_smokeparticles         13a838a0     <common>
 0003:039b29c0       _cg_buildScript            13a839c0     <common>
 0003:039b2ae0       _int_m_pitch               13a83ae0     <common>
 0003:039b2c00       _demo_drawTimeScale        13a83c00     <common>
 0003:039b2d20       _cg_impactparticles        13a83d20     <common>
 0003:039b2e40       _hud_drawPowerups          13a83e40     <common>
 0003:039b2f60       _cg_HUDBorderColor         13a83f60     <common>
 0003:039b3080       _cg_uinfo                  13a84080     <common>
 0003:039b31a0       _cg_crosshairAlphaAlt      13a841a0     <common>
 0003:039b32c0       _cg_locations              13a842c0     <common>
 0003:039b33e0       _cg_graphicObituaries      13a843e0     <common>
 0003:039b3500       _cg_bobpitch               13a84500     <common>
 0003:039b3620       _demo_avifpsF4             13a84620     <common>
 0003:039b3740       _cg_fovy                   13a84740     <common>
 0003:039b3860       _cg_drawPing               13a84860     <common>
 0003:039b3980       _cg_lagometer              13a84980     <common>
 0003:039b3aa0       _cg_zoomDefaultSniper      13a84aa0     <common>
 0003:039b3bc0       _cg_errorDecay             13a84bc0     <common>
 0003:039b3ce0       _cg_teamChatHeight         13a84ce0     <common>
 0003:039b3e00       _cf_wtopshots              13a84e00     <common>
 0003:039b3f20       _cg_complaintPopUp         13a84f20     <common>
 0003:039b4040       _cg_coronafardist          13a85040     <common>
 0003:039b4160       _int_cl_maxpackets         13a85160     <common>
 0003:039b4280       _cg_runroll                13a85280     <common>
 0003:039b43a0       _cg_drawHUDHead            13a853a0     <common>
 0003:039b44c0       _cg                        13a854c0     <common>
 0003:03a82de0       _cl_waverecording          13b53de0     <common>
 0003:03a82f00       _cg_gibs                   13b53f00     <common>
 0003:03a83020       _cg_pmWaitTime             13b54020     <common>
 0003:03a83140       _cg_countryflags           13b54140     <common>
 0003:03a83260       _cg_bobup                  13b54260     <common>
 0003:03a83380       _cg_tracerWidth            13b54380     <common>
 0003:03a834a0       _developer                 13b544a0     <common>
 0003:03a835c0       _cg_recording_statusline   13b545c0     <common>
 0003:03a836e0       _cg_logFile                13b546e0     <common>
 0003:03a83800       _demo_avifpsF2             13b54800     <common>
 0003:03a83920       _hud_rankAlpha             13b54920     <common>
 0003:03a83a40       _cg_entities               13b54a40     <common>
 0003:03d46a40       _cg_drawSmallPopupIcons    13e17a40     <common>
 0003:03d46b60       _pmove_fixed               13e17b60     <common>
 0003:03d46c80       _cg_brassTime              13e17c80     <common>
 0003:03d46da0       _cg_teamChatsOnly          13e17da0     <common>
 0003:03d46ec0       _cg_shoveSounds            13e17ec0     <common>
 0003:03d46fe0       _cg_insanity               13e17fe0     <common>
 0003:03d47100       _cg_printObjectiveInfo     13e18100     <common>
 0003:03d47220       _cg_noPlayerAnims          13e18220     <common>
 0003:03d47340       _cg_crosshairSize          13e18340     <common>
 0003:03d47460       _cg_predictItems           13e18460     <common>
 0003:03d47580       _cg_descriptiveText        13e18580     <common>
 0003:03d476a0       _cg_fov                    13e186a0     <common>
 0003:03d477c0       _cg_crosshairColor         13e187c0     <common>
 0003:03d478e0       _cg_refereePassword        13e188e0     <common>
 0003:03d47a00       _cg_automapZoom            13e18a00     <common>
 0003:03d47b20       _int_ui_blackout           13e18b20     <common>
 0003:03d47c40       _cg_weaponBounceSound      13e18c40     <common>
 0003:03d47d60       _cg_bloodTime              13e18d60     <common>
 0003:03d47e80       _cg_HUDAlpha               13e18e80     <common>
 0003:03d47fa0       _cg_paused                 13e18fa0     <common>
 0003:03d480c0       _cg_cursorHints            13e190c0     <common>
 0003:03d481e0       _cg_thirdPersonAngle       13e191e0     <common>
 0003:03d48300       _cg_tracerLength           13e19300     <common>
 0003:03d48420       _cg_drawRoundTimer         13e19420     <common>
 0003:03d48530       _NQKey                     13e19530     <common>
 0003:03d48540       _nqkey                     13e19540     <common>
 0003:03d48560       _cg_localEntities          13e19560     <common>
 0003:03d9d160       _cg_freeLocalEntities      13e6e160     <common>
 0003:03d9d180       _cg_activeLocalEntities    13e6e180     <common>
 0003:03d9d344       _bg_filter_hw              13e6e344     <common>
 0003:03d9d348       _bg_alliedpin              13e6e348     <common>
 0003:03d9d34c       _bg_neutralpin             13e6e34c     <common>
 0003:03d9d350       _bg_axispin                13e6e350     <common>
 0003:03d9d354       _bg_pin                    13e6e354     <common>
 0003:03d9d360       _bg_loadscreenfont2        13e6e360     <common>
 0003:03da23c0       _bg_loadscreenfont1        13e733c0     <common>
 0003:03da7404       _bg_filter_ff              13e78404     <common>
 0003:03da7408       _bg_filter_lv              13e78408     <common>
 0003:03da740c       _bg_filter_bt              13e7840c     <common>
 0003:03da7410       _bg_filter_al              13e78410     <common>
 0003:03da7414       _bg_loadscreeninteractive  13e78414     <common>
 0003:03da7418       _bg_mappic                 13e78418     <common>
 0003:03da741c       _bg_filter_pb              13e7841c     <common>
 0003:03da7420       _lagometer                 13e78420     <common>
 0003:03da7a28       _activeFont                13e78a28     <common>
 0003:03da7a2c       _imgA                      13e78a2c     <common>
 0003:03da7a30       _imgH                      13e78a30     <common>
 0003:03da7a34       _img                       13e78a34     <common>
 0003:03da7a38       _imgB                      13e78a38     <common>
 0003:03da7a3c       _imgL                      13e78a3c     <common>
 0003:03da7a40       _cg_highlightTextRect      13e78a40     <common>
 0003:03da7a60       _cg_highlightText          13e78a60     <common>
 0003:03da7b60       _bigTextBuffer             13e78b60     <common>
 0003:03dc0200       _laddervec                 13e91200     <common>
 0003:03dc020c       _ladderforward             13e9120c     <common>
 0003:03dc0220       _pml                       13e91220     <common>
 0003:03dc02b0       _pm                        13e912b0     <common>
 0003:03dc02c0       _pathCorners               13e912c0     <common>
 0003:03dc9ac0       _numPathCorners            13e9aac0     <common>
 0003:03dc9ac4       _numSplinePaths            13e9aac4     <common>
 0003:03dc9ae0       _splinePaths               13e9aae0     <common>
 0003:03e3c2e0       _bg_characterPool          13f0d2e0     <common>
 0003:03e440a0       _alliedClassCharacters     13f150a0     <common>
 0003:03e46800       _bg_characterPoolInuse     13f17800     <common>
 0003:03e46840       _axisClassCharacters       13f17840     <common>
 0003:03e48fa0       _cg_pmove                  13f19fa0     <common>
 0003:03e490e0       _weapon_restrictions       13f1a0e0     <common>
 0003:03e498c0       _BG_Weapons                13f1a8c0     <common>
 0003:03e4fac0       _weaponStrings             13f20ac0     <common>
 0003:03e4fcb8       __debugger_hook_dummy      13f20cb8     <common>
 0003:03e4fcbc       __pDestructExceptionObject 13f20cbc     <common>
 0003:03e4fcc0       __nhandle                  13f20cc0     <common>
 0003:03e4fce0       ___pioinfo                 13f20ce0     <common>
 0003:03e4fde0       ___use_sse2_mathfcns       13f20de0     <common>
 0003:03e4fde4       __pmatherr                 13f20de4     <common>
 0003:03e4fde8       ___sse2_available          13f20de8     <common>
 0003:03e4fdec       __acmdln                   13f20dec     <common>
 0003:03e4fdf0       ___env_initialized         13f20df0     <common>
 0003:03e4fdf4       ___onexitend               13f20df4     <common>
 0003:03e4fdf8       ___onexitbegin             13f20df8     <common>
 0003:03e4fdfc       ___mbctype_initialized     13f20dfc     <common>
 0003:03e4fe00       ___dyn_tls_init_callback   13f20e00     <common>
 0003:03e4fe04       ___piob                    13f20e04     <common>
 0003:03e4fe20       __bufin                    13f20e20     <common>
 0003:03e50e20       __nstream                  13f21e20     <common>

 entry point at        0001:0008cb2b

 Static symbols

 0001:00000070       _BG_AnimationIndexForString 10001070 f   bg_animation.obj
 0001:000006f0       _BG_ParseCommands          100016f0 f   bg_animation.obj
 0001:00001980       _BG_RAG_ParseError         10002980 f   bg_animgroup.obj
 0001:000019f0       _BG_RAG_ParseAnimation     100029f0 f   bg_animgroup.obj
 0001:00001b80       _BG_RAG_FindFreeAnimation  10002b80 f   bg_animgroup.obj
 0001:00001c10       _BG_RAG_ParseAnimFile      10002c10 f   bg_animgroup.obj
 0001:00001f20       _BG_PCF_ParseError         10002f20 f   bg_character.obj
 0001:00005b90       _PM_StartWeaponAnim        10006b90 f   bg_pmove.obj
 0001:00006160       _PM_Friction               10007160 f   bg_pmove.obj
 0001:00006320       _PM_Accelerate             10007320 f   bg_pmove.obj
 0001:000063e0       _PM_CmdScale               100073e0 f   bg_pmove.obj
 0001:00006570       _PM_SetMovementDir         10007570 f   bg_pmove.obj
 0001:000066c0       _PM_CheckJump              100076c0 f   bg_pmove.obj
 0001:00006790       _PM_CheckDoubleJump        10007790 f   bg_pmove.obj
 0001:00006870       _PM_CheckWaterJump         10007870 f   bg_pmove.obj
 0001:000069a0       _PM_CheckPlayDead          100079a0 f   bg_pmove.obj
 0001:00006d10       _PM_WaterJumpMove          10007d10 f   bg_pmove.obj
 0001:00006d60       _PM_WaterMove              10007d60 f   bg_pmove.obj
 0001:00006f80       _PM_FlyMove                10007f80 f   bg_pmove.obj
 0001:00007090       _PM_AirMove                10008090 f   bg_pmove.obj
 0001:00007240       _PM_WalkMove               10008240 f   bg_pmove.obj
 0001:000075f0       _PM_DeadMove               100085f0 f   bg_pmove.obj
 0001:00007680       _PM_NoclipMove             10008680 f   bg_pmove.obj
 0001:00007880       _PM_FootstepForSurface     10008880 f   bg_pmove.obj
 0001:00007890       _PM_CrashLand              10008890 f   bg_pmove.obj
 0001:00007b10       _PM_CorrectAllSolid        10008b10 f   bg_pmove.obj
 0001:00007c40       _PM_GroundTraceMissed      10008c40 f   bg_pmove.obj
 0001:00007d50       _PM_GroundTrace            10008d50 f   bg_pmove.obj
 0001:00008000       _PM_SetWaterLevel          10009000 f   bg_pmove.obj
 0001:00008170       _PM_CheckDuck              10009170 f   bg_pmove.obj
 0001:000082d0       _PM_Footsteps              100092d0 f   bg_pmove.obj
 0001:00008870       _PM_WaterEvents            10009870 f   bg_pmove.obj
 0001:00008940       _PM_BeginShotgunReload     10009940 f   bg_pmove.obj
 0001:00008a10       _PM_ContinueShotgunReload  10009a10 f   bg_pmove.obj
 0001:00008a80       _PM_Shotgun_PumpToLoop     10009a80 f   bg_pmove.obj
 0001:00008ac0       _PM_StopShotgunReload      10009ac0 f   bg_pmove.obj
 0001:00008b30       _PM_Shotgun_StopFromPump   10009b30 f   bg_pmove.obj
 0001:00008ba0       _PM_BeginWeaponReload      10009ba0 f   bg_pmove.obj
 0001:00008da0       _PM_FinishWeaponChange     10009da0 f   bg_pmove.obj
 0001:00009090       _PM_ReloadClip             1000a090 f   bg_pmove.obj
 0001:00009120       _PM_FinishWeaponReload     1000a120 f   bg_pmove.obj
 0001:00009170       _PM_SwitchIfEmpty          1000a170 f   bg_pmove.obj
 0001:00009860       _PM_MountedFire            1000a860 f   bg_pmove.obj
 0001:00009b90       _PM_HandleRecoil           1000ab90 f   bg_pmove.obj
 0001:00009dd0       _PM_CheckGrenade           1000add0 f   bg_pmove.obj
 0001:00009fc0       _getAltWeapon              1000afc0 f   bg_pmove.obj
 0001:00009fd0       _PM_WeaponHasAmmo          1000afd0 f   bg_pmove.obj
 0001:0000a020       _PM_WeaponSelectable       1000b020 f   bg_pmove.obj
 0001:0000a070       _PM_Foot                   1000b070 f   bg_pmove.obj
 0001:0000a230       _PM_DropTimers             1000b230 f   bg_pmove.obj
 0001:0000bf90       _PM_AltWeapon              1000cf90 f   bg_pmove.obj
 0001:0000c190       _PM_Weapon                 1000d190 f   bg_pmove.obj
 0001:0000dbb0       _PM_CheckProne             1000ebb0 f   bg_pmove.obj
 0001:0000f880       _BG_SS_ParseError          10010880 f   bg_sscript.obj
 0001:0000f8f0       _BG_SS_ParseSpeaker        100108f0 f   bg_sscript.obj
 0001:00011290       _BG_ClampPointToTracemapExtends 10012290 f   bg_tracemap.obj
 0001:00011650       _BG_RW_ParseError          10012650 f   bg_weapons.obj
 0001:000116c0       _BG_ParseWeaponConfig      100126c0 f   bg_weapons.obj
 0001:000118c0       _BG_RW_ParseClient         100128c0 f   bg_weapons.obj
 0001:00012bf0       _BG_RW_ParseDefinition     10013bf0 f   bg_weapons.obj
 0001:000135f0       _BG_RW_ParseEmpty          100145f0 f   bg_weapons.obj
 0001:00013670       _BG_RegisterWeaponFromWeaponFile 10014670 f   bg_weapons.obj
 0001:00013c00       _CG_AddPolyToPool          10014c00 f   cg_atmospheric.obj
 0001:00013d90       _CG_SetParticleActive      10014d90 f   cg_atmospheric.obj
 0001:00013da0       _CG_RainParticleGenerate   10014da0 f   cg_atmospheric.obj
 0001:00014060       _CG_RainParticleCheckVisible 10015060 f   cg_atmospheric.obj
 0001:00014130       _CG_RainParticleRender     10015130 f   cg_atmospheric.obj
 0001:00014460       _CG_SnowParticleGenerate   10015460 f   cg_atmospheric.obj
 0001:00014640       _CG_SnowParticleCheckVisible 10015640 f   cg_atmospheric.obj
 0001:00014710       _CG_SnowParticleRender     10015710 f   cg_atmospheric.obj
 0001:00014a50       _CG_EffectGust             10015a50 f   cg_atmospheric.obj
 0001:00014b20       _CG_EffectGustCurrent      10015b20 f   cg_atmospheric.obj
 0001:00014d20       _CG_EP_ParseFloats         10015d20 f   cg_atmospheric.obj
 0001:00014d90       _CG_EP_ParseInts           10015d90 f   cg_atmospheric.obj
 0001:00015460       _CG_ParseGibModels         10016460 f   cg_character.obj
 0001:00015550       _CG_ParseHudHeadConfig     10016550 f   cg_character.obj
 0001:000156c0       _CG_CalcMoveSpeeds         100166c0 f   cg_character.obj
 0001:000158c0       _CG_ParseAnimationFiles    100168c0 f   cg_character.obj
 0001:00015980       _CG_CheckForExistingAnimModelInfo 10016980 f   cg_character.obj
 0001:00015a20       _CG_RegisterAcc            10016a20 f   cg_character.obj
 0001:00016320       _CG_ScissorEntIsCulled     10017320 f   cg_commandmap.obj
 0001:00016420       _CG_ScissorPointIsCulled   10017420 f   cg_commandmap.obj
 0001:00016a50       _CG_DrawGrid               10017a50 f   cg_commandmap.obj
 0001:00019ba0       _CG_Viewpos_f              1001aba0 f   cg_consolecmds.obj
 0001:00019e80       _CG_StatsDown_f            1001ae80 f   cg_consolecmds.obj
 0001:00019f50       _CG_StatsUp_f              1001af50 f   cg_consolecmds.obj
 0001:0001a130       _CG_LoadWeapons_f          1001b130 f   cg_consolecmds.obj
 0001:0001a150       _CG_TellTarget_f           1001b150 f   cg_consolecmds.obj
 0001:0001a1b0       _CG_TellAttacker_f         1001b1b0 f   cg_consolecmds.obj
 0001:0001a210       _CG_Fade_f                 1001b210 f   cg_consolecmds.obj
 0001:0001a390       _CG_QuickFireteams_f       1001b390 f   cg_consolecmds.obj
 0001:0001a3f0       _CG_FTSayPlayerClass_f     1001b3f0 f   cg_consolecmds.obj
 0001:0001a490       _CG_SayPlayerClass_f       1001b490 f   cg_consolecmds.obj
 0001:0001a530       _CG_VoiceChat_f            1001b530 f   cg_consolecmds.obj
 0001:0001a570       _CG_TeamVoiceChat_f        1001b570 f   cg_consolecmds.obj
 0001:0001a5f0       _CG_BuddyVoiceChat_f       1001b5f0 f   cg_consolecmds.obj
 0001:0001a680       _CG_MessageMode_f          1001b680 f   cg_consolecmds.obj
 0001:0001a750       _CG_MessageSend_f          1001b750 f   cg_consolecmds.obj
 0001:0001a880       _CG_SetWeaponCrosshair_f   1001b880 f   cg_consolecmds.obj
 0001:0001a8b0       _CG_SelectBuddy_f          1001b8b0 f   cg_consolecmds.obj
 0001:0001a990       _CG_AutomapZoomIn_f        1001b990 f   cg_consolecmds.obj
 0001:0001a9b0       _CG_AutomapZoomOut_f       1001b9b0 f   cg_consolecmds.obj
 0001:0001a9d0       _CG_KickDown_f             1001b9d0 f   cg_consolecmds.obj
 0001:0001a9e0       _CG_KickUp_f               1001b9e0 f   cg_consolecmds.obj
 0001:0001a9f0       _CG_Server_Help_f          1001b9f0 f   cg_consolecmds.obj
 0001:0001ad80       _CG_Client_Help_f          1001bd80 f   cg_consolecmds.obj
 0001:0001b0d0       _CG_AutomapExpandDown_f    1001c0d0 f   cg_consolecmds.obj
 0001:0001b140       _CG_AutomapExpandUp_f      1001c140 f   cg_consolecmds.obj
 0001:0001b1b0       _CG_ToggleAutomap_f        1001c1b0 f   cg_consolecmds.obj
 0001:0001b380       _CG_EditSpeakers_f         1001c380 f   cg_consolecmds.obj
 0001:0001b3c0       _CG_DumpSpeaker_f          1001c3c0 f   cg_consolecmds.obj
 0001:0001b4e0       _CG_ModifySpeaker_f        1001c4e0 f   cg_consolecmds.obj
 0001:0001b4f0       _CG_UndoSpeaker_f          1001c4f0 f   cg_consolecmds.obj
 0001:0001b510       _CG_CPM_f                  1001c510 f   cg_consolecmds.obj
 0001:0001b530       _CG_ResetMaxSpeed_f        1001c530 f   cg_consolecmds.obj
 0001:0001b6e0       _CG_RestrictionInfo_f      1001c6e0 f   cg_consolecmds.obj
 0001:00021db0       _CG_DrawSnapshot           10022db0 f   cg_draw.obj
 0001:00021f40       _CG_DrawPing               10022f40 f   cg_draw.obj
 0001:00022100       _CG_DrawKillSpree          10023100 f   cg_draw.obj
 0001:00022510       _CG_DrawFPS                10023510 f   cg_draw.obj
 0001:00022740       _CG_DrawSpeed              10023740 f   cg_draw.obj
 0001:00022c80       _CG_DrawTeamInfo           10023c80 f   cg_draw.obj
 0001:00023240       _CG_DrawDisconnect         10024240 f   cg_draw.obj
 0001:00023340       _CG_DrawLagometer          10024340 f   cg_draw.obj
 0001:00023b00       _CG_DrawAnnouncement       10024b00 f   cg_draw.obj
 0001:00023c80       _CG_DrawCenterString       10024c80 f   cg_draw.obj
 0001:00023e20       _CG_DrawWeapReticle        10024e20 f   cg_draw.obj
 0001:000242e0       _CG_DrawMortarReticle      100252e0 f   cg_draw.obj
 0001:00025340       _CG_DrawBinocReticle       10026340 f   cg_draw.obj
 0001:00025580       _CG_DrawNoShootIcon        10026580 f   cg_draw.obj
 0001:00025850       _CG_ScanForCrosshairEntity 10026850 f   cg_draw.obj
 0001:00025e50       _CG_DrawCrosshairNames     10026e50 f   cg_draw.obj
 0001:00026ac0       _CG_DrawVote               10027ac0 f   cg_draw.obj
 0001:00027530       _CG_DrawIntermission       10028530 f   cg_draw.obj
 0001:000275f0       _CG_DrawSpectatorMessage   100285f0 f   cg_draw.obj
 0001:000278c0       _CG_DrawTinyOrMicroStringColor 100288c0 f   cg_draw.obj
 0001:000278e0       _CG_DrawLimboMessage       100288e0 f   cg_draw.obj
 0001:00027a30       _CG_DrawFollow             10028a30 f   cg_draw.obj
 0001:00027eb0       _CG_DrawFlashFade          10028eb0 f   cg_draw.obj
 0001:000280f0       _CG_DrawFlashZoomTransition 100290f0 f   cg_draw.obj
 0001:000281c0       _CG_DrawFlashDamage        100291c0 f   cg_draw.obj
 0001:000282b0       _CG_DrawFlashFire          100292b0 f   cg_draw.obj
 0001:00028470       _CG_DrawFlashPoison        10029470 f   cg_draw.obj
 0001:000284c0       _CG_DrawFlashBlendBehindHUD 100294c0 f   cg_draw.obj
 0001:000284d0       _CG_DrawFlashBlend         100294d0 f   cg_draw.obj
 0001:00028600       _CG_DrawObjectiveInfo      10029600 f   cg_draw.obj
 0001:00028ce0       _CG_ScreenFade             10029ce0 f   cg_draw.obj
 0001:00029020       _CG_DrawNewCompass         1002a020 f   cg_draw.obj
 0001:00029470       _CG_PlayerAmmoValue        1002a470 f   cg_draw.obj
 0001:00029660       _CG_DrawPlayerStatusHead   1002a660 f   cg_draw.obj
 0001:00029cb0       _CG_DrawPlayerHealthBar    1002acb0 f   cg_draw.obj
 0001:00029ed0       _CG_DrawBreathBar          1002aed0 f   cg_draw.obj
 0001:00029ff0       _CG_DrawStaminaBar         1002aff0 f   cg_draw.obj
 0001:0002a2b0       _CG_DrawWeapRecharge       1002b2b0 f   cg_draw.obj
 0001:0002a660       _CG_DrawPlayerStatus       1002b660 f   cg_draw.obj
 0001:0002b710       _CG_DrawPlayerStats        1002c710 f   cg_draw.obj
 0001:0002bad0       _CG_DrawStatsDebug         1002cad0 f   cg_draw.obj
 0001:0002d1d0       _CG_DrawTimer              1002e1d0 f   cg_draw.obj
 0001:0002d4f0       _CG_DrawUpperRight         1002e4f0 f   cg_draw.obj
 0001:0002d680       _CG_DrawDanger             1002e680 f   cg_draw.obj
 0001:0002da30       _CG_DrawCrosshair          1002ea30 f   cg_draw.obj
 0001:0002dea0       _CG_DrawWarmup             1002eea0 f   cg_draw.obj
 0001:0002e390       _CG_Draw2D                 1002f390 f   cg_draw.obj
 0001:0002f8a0       _CG_TileClearBox           100308a0 f   cg_drawtools.obj
 0001:00030a20       _AllocSmokeSprite          10031a20 f   cg_effects.obj
 0001:00030a60       _DeAllocSmokeSprite        10031a60 f   cg_effects.obj
 0001:00030ac0       _CG_SmokeSpritePhysics     10031ac0 f   cg_effects.obj
 0001:00032420       _CG_EntityEffects          10033420 f   cg_ents.obj
 0001:00032a50       _CG_General                10033a50 f   cg_ents.obj
 0001:00032e20       _CG_Speaker                10033e20 f   cg_ents.obj
 0001:00032f90       _CG_Item                   10033f90 f   cg_ents.obj
 0001:00033900       _CG_Smoker                 10034900 f   cg_ents.obj
 0001:00033990       _CG_DrawMineMarkerFlag     10034990 f   cg_ents.obj
 0001:00033ac0       _CG_Missile                10034ac0 f   cg_ents.obj
 0001:000342a0       _CG_PitfallSetAnim         100352a0 f   cg_ents.obj
 0001:000342d0       _CG_Pitfall                100352d0 f   cg_ents.obj
 0001:000343f0       _CG_Corona                 100353f0 f   cg_ents.obj
 0001:00034570       _CG_Explosive              10035570 f   cg_ents.obj
 0001:00034660       _CG_Constructible          10035660 f   cg_ents.obj
 0001:00034740       _CG_Mover                  10035740 f   cg_ents.obj
 0001:00034d50       _CG_Portal                 10035d50 f   cg_ents.obj
 0001:00034e70       _CG_Prop                   10035e70 f   cg_ents.obj
 0001:00035320       _CG_InterpolateEntityPosition 10036320 f   cg_ents.obj
 0001:00035480       _CG_ProcessEntity          10036480 f   cg_ents.obj
 0001:00036af0       _CG_CheckFilterObituary    10037af0 f   cg_event.obj
 0001:00036c40       _CG_Obituary               10037c40 f   cg_event.obj
 0001:00037430       _CG_ItemPickup             10038430 f   cg_event.obj
 0001:00038e80       _CG_StartFootStepSound     10039e80 f   cg_event.obj
 0001:00049c00       _CG_AddMoveScaleFade       1004ac00 f   cg_localents.obj
 0001:00049d30       _CG_AddScaleFade           1004ad30 f   cg_localents.obj
 0001:00049e00       _CG_AddFallScaleFade       1004ae00 f   cg_localents.obj
 0001:00049ed0       _CG_AddExplosion           1004aed0 f   cg_localents.obj
 0001:00049f90       _CG_AddSpriteExplosion     1004af90 f   cg_localents.obj
 0001:0004a250       _MD5Transform              1004b250 f   md5.obj
 0001:0004a8d0       _MD5Update                 1004b8d0 f   md5.obj
 0001:0004a9a0       _MD5Final                  1004b9a0 f   md5.obj
 0001:0004aa80       _CalculateMD5ForSeed       1004ba80 f   md5.obj
 0001:0004abe0       _CG_GenerateNQKey          1004bbe0 f   cg_uid.obj
 0001:0004b4e0       _CG_RegisterItemSounds     1004c4e0 f   cg_main.obj
 0001:0004b6e0       _CG_FeederCount            1004c6e0 f   cg_main.obj
 0001:0004b760       _CG_InfoFromScoreIndex     1004c760 f   cg_main.obj
 0001:0004b7d0       _CG_FeederItemText         1004c7d0 f   cg_main.obj
 0001:0004b8c0       _CG_FeederSelection        1004c8c0 f   cg_main.obj
 0001:0004cbb0       _CG_RegisterSounds         1004dbb0 f   cg_main.obj
 0001:0004d880       _CG_RegisterGraphics       1004e880 f   cg_main.obj
 0001:0004f0c0       _CG_RegisterClients        100500c0 f   cg_main.obj
 0001:00050750       _CG_CheckMsgFilter         10051750 f   cg_missionmessages.obj
 0001:00051880       _weapIconDrawSize          10052880 f   cg_newDraw.obj
 0001:000520f0       _CG_OwnerDrawHandleKey     100530f0 f   cg_newDraw.obj
 0001:000520f0       _CG_OwnerDrawWidth         100530f0 f   cg_newDraw.obj
 0001:000520f0       _CG_FeederItemImage        100530f0 f   cg_newDraw.obj
 0001:000561f0       _CG_SetLerpFrameAnimation  100571f0 f   cg_players.obj
 0001:000563e0       _CG_ClearLerpFrame         100573e0 f   cg_players.obj
 0001:00056dc0       _CG_PlayerAnimation        10057dc0 f   cg_players.obj
 0001:00056f90       _CG_SwingAngles            10057f90 f   cg_players.obj
 0001:00057170       _CG_AddPainTwitch          10058170 f   cg_players.obj
 0001:00057520       _CG_PlayerAngles           10058520 f   cg_players.obj
 0001:00057a80       _CG_BreathPuffs            10058a80 f   cg_players.obj
 0001:00057f30       _CG_PlayerFloatText        10058f30 f   cg_players.obj
 0001:00057fa0       _CG_PlayerFloatSprite      10058fa0 f   cg_players.obj
 0001:00058140       _CG_PlayerSprites          10059140 f   cg_players.obj
 0001:000583d0       _CG_PlayerAura             100593d0 f   cg_players.obj
 0001:00058520       _CG_PlayerShadow           10059520 f   cg_players.obj
 0001:000588e0       _CG_PlayerSplash           100598e0 f   cg_players.obj
 0001:00059750       _CG_LoadClientInfo         1005a750 f   cg_players.obj
 0001:0005c0d0       _CG_CheckMsgFilter         1005d0d0 f   cg_popupmessages.obj
 0001:0005d890       _CG_ClipMoveToEntities     1005e890 f   cg_predict.obj
 0001:0005dc90       _CG_InterpolatePlayerState 1005ec90 f   cg_predict.obj
 0001:0005de20       _CG_TouchTriggerPrediction 1005ee20 f   cg_predict.obj
 0001:0005fc00       _WM_DrawClientScore        10060c00 f   cg_scoreboard.obj
 0001:00060240       _WM_DrawClientScore_Small  10061240 f   cg_scoreboard.obj
 0001:00060780       _WM_DrawInfoLine           10061780 f   cg_scoreboard.obj
 0001:00060950       _WM_TeamScoreboard         10061950 f   cg_scoreboard.obj
 0001:000611f0       _CG_ParseScore             100621f0 f   cg_servercmds.obj
 0001:00061360       _CG_ParseTeamInfo          10062360 f   cg_servercmds.obj
 0001:000623c0       _CG_ParseScreenFade        100633c0 f   cg_servercmds.obj
 0001:00062430       _CG_ParseFog               10063430 f   cg_servercmds.obj
 0001:00062560       _CG_ParseGlobalFog         10063560 f   cg_servercmds.obj
 0001:000629c0       _CG_AddToTeamChat          100639c0 f   cg_servercmds.obj
 0001:00063840       _CG_RemoveChatEscapeChar   10064840 f   cg_servercmds.obj
 0001:00064e70       _CG_ParseWarmup            10065e70 f   cg_servercmds.obj
 0001:000650e0       _CG_ConfigStringModified   100660e0 f   cg_servercmds.obj
 0001:00065500       _CG_MapRestart             10066500 f   cg_servercmds.obj
 0001:00065a40       _CG_ServerCommand          10066a40 f   cg_servercmds.obj
 0001:00066c20       _CG_ResetEntity            10067c20 f   cg_snapshot.obj
 0001:00066d00       _CG_TransitionEntity       10067d00 f   cg_snapshot.obj
 0001:00067070       _CG_TransitionSnapshot     10068070 f   cg_snapshot.obj
 0001:00067260       _CG_SetNextSnap            10068260 f   cg_snapshot.obj
 0001:00067390       _CG_ReadNextSnapshot       10068390 f   cg_snapshot.obj
 0001:00067610       _generateHashValue         10068610 f   cg_sound.obj
 0001:000679f0       _CG_SoundParseSounds       100689f0 f   cg_sound.obj
 0001:00067dd0       _CG_SoundLoadSoundFiles    10068dd0 f   cg_sound.obj
 0001:00068490       _CG_RenderScriptSpeakers   10069490 f   cg_sound.obj
 0001:0006ac60       _CG_PlayScriptSpeaker      1006bc60 f   cg_sound.obj
 0001:0006e570       _CG_CalcVrect              1006f570 f   cg_view.obj
 0001:0006ec40       _CG_StepOffset             1006fc40 f   cg_view.obj
 0001:0006efe0       _CG_ZoomSway               1006ffe0 f   cg_view.obj
 0001:0006f0e0       _CG_OffsetFirstPersonView  100700e0 f   cg_view.obj
 0001:0006fa70       _CG_CalcFov                10070a70 f   cg_view.obj
 0001:0006fef0       _CG_UnderwaterSounds       10070ef0 f   cg_view.obj
 0001:0006ff20       _CG_DamageBlendBlob        10070f20 f   cg_view.obj
 0001:000711b0       _CG_RenderLocations        100721b0 f   cg_view.obj
 0001:00071b90       _CG_StartWeaponAnim        10072b90 f   cg_weapons.obj
 0001:00071bd0       _CG_ContinueWeaponAnim     10072bd0 f   cg_weapons.obj
 0001:000740d0       _CG_SetWeapLerpFrameAnimation 100750d0 f   cg_weapons.obj
 0001:00074160       _CG_RunWeapLerpFrame       10075160 f   cg_weapons.obj
 0001:000742f0       _CG_FootAnimation          100752f0 f   cg_weapons.obj
 0001:00074380       _CG_WeaponAnimation        10075380 f   cg_weapons.obj
 0001:00074410       _CG_CalculateWeaponPosition 10075410 f   cg_weapons.obj
 0001:00074840       _CG_FlamethrowerFlame      10075840 f   cg_weapons.obj
 0001:00074870       _CG_VenomSpinAngle         10075870 f   cg_weapons.obj
 0001:00074960       _CG_AddWeaponWithPowerups  10075960 f   cg_weapons.obj
 0001:00074c00       _CG_WeaponHasAmmo          10075c00 f   cg_weapons.obj
 0001:00074d40       _getNextWeapInBank         10075d40 f   cg_weapons.obj
 0001:00074d80       _getNextWeapInBankBynum    10075d80 f   cg_weapons.obj
 0001:00074db0       _getPrevWeapInBank         10075db0 f   cg_weapons.obj
 0001:00074df0       _getPrevWeapInBankBynum    10075df0 f   cg_weapons.obj
 0001:00074e20       _getNextBankWeap           10075e20 f   cg_weapons.obj
 0001:00074e60       _getPrevBankWeap           10075e60 f   cg_weapons.obj
 0001:0007e480       _hash                      1007f480 f   g_match_tokens.obj
 0001:0007f990       _SkipWhitespace            10080990 f   q_shared.obj
 0001:00080580       _hashForString             10081580 f   ui_shared.obj
 0001:00082ad0       _Window_CloseCinematic     10083ad0 f   ui_shared.obj
 0001:00082b00       _Menu_CloseCinematics      10083b00 f   ui_shared.obj
 0001:00082b60       _Display_CloseCinematics   10083b60 f   ui_shared.obj
 0001:00082c30       _Item_CorrectedTextRect    10083c30 f   ui_shared.obj
 0001:00086870       _Menu_RunCloseScript       10087870 f   ui_shared.obj
 0001:0008ad10       _shortsort                 1008bd10 f   LIBCMT:qsort.obj
 0001:0008b40a       _vscan_fn                  1008c40a f   LIBCMT:sscanf.obj
 0001:0008ba49       _flsall                    1008ca49 f   LIBCMT:fflush.obj
 0001:0008c0e8       _doexit                    1008d0e8 f   LIBCMT:crt0dat.obj
 0001:0008ca35       ___DllMainCRTStartup       1008da35 f   LIBCMT:dllcrt0.obj
 0001:0008cc18       ?strtoxl@@YAKPAUlocaleinfo_struct@@PBDPAPBDHH@Z 1008dc18 f   LIBCMT:strtol.obj
 0001:0008d4c1       __shift                    1008e4c1 f   LIBCMT:cvt.obj
 0001:0008d506       __cftoe2_l                 1008e506 f   LIBCMT:cvt.obj
 0001:0008dac4       __cftof2_l                 1008eac4 f   LIBCMT:cvt.obj
 0001:0008de6b       ?CPtoLCID@@YAHH@Z          1008ee6b f   LIBCMT:mbctype.obj
 0001:0008de9a       ?setSBCS@@YAXPAUthreadmbcinfostruct@@@Z 1008ee9a f   LIBCMT:mbctype.obj
 0001:0008defe       ?setSBUpLow@@YAXPAUthreadmbcinfostruct@@@Z 1008eefe f   LIBCMT:mbctype.obj
 0001:0008e132       ?getSystemCP@@YAHH@Z       1008f132 f   LIBCMT:mbctype.obj
 0001:0008e8a8       ?__crtLCMapStringA_stat@@YAHPAUlocaleinfo_struct@@KKPBDHPADHHH@Z 1008f8a8 f   LIBCMT:a_map.obj
 0001:0008f700       _write_char                10090700 f   LIBCMT:output.obj
 0001:0008f733       _write_string              10090733 f   LIBCMT:output.obj
 0001:00091d40       __unwind_handler4          10092d40 f   LIBCMT:exsup4.obj
 0001:0009328c       ___check_float_string      1009428c f   LIBCMT:input.obj
 0001:000932e3       __hextodec                 100942e3 f   LIBCMT:input.obj
 0001:00093303       __inc                      10094303 f   LIBCMT:input.obj
 0001:00093319       __whiteout                 10094319 f   LIBCMT:input.obj
 0001:00094347       __tzset_nolock             10095347 f   LIBCMT:tzset.obj
 0001:0009465a       _cvtdate                   1009565a f   LIBCMT:tzset.obj
 0001:00094851       __isindst_nolock           10095851 f   LIBCMT:tzset.obj
 0001:00095c99       _siglookup                 10096c99 f   LIBCMT:winsig.obj
 0001:00095ed5       __onexit_nolock            10096ed5 f   LIBCMT:onexit.obj
 0001:00096868       _parse_cmdline             10097868 f   LIBCMT:stdargv.obj
 0001:00097547       ?__crtGetStringTypeA_stat@@YAHPAUlocaleinfo_struct@@KPBDHPAGHHH@Z 10098547 f   LIBCMT:a_str.obj
 0001:00099e8e       __tsopen_nolock            1009ae8e f   LIBCMT:open.obj
 0001:0009aa50       __unwind_handler           1009ba50 f   LIBCMT:exsup.obj
 0001:0009b570       ?x_ismbbtype_l@@YAHPAUlocaleinfo_struct@@IHH@Z 1009c570 f   LIBCMT:ismbbyte.obj
 0001:0009bed3       __hw_cw                    1009ced3 f   LIBCMT:_ieee87_.obj
 0001:0009bf61       ___hw_cw_sse2              1009cf61 f   LIBCMT:_ieee87_.obj
 0001:0009cfc1       ?__crtCompareStringA_stat@@YAHPAUlocaleinfo_struct@@KKPBDH1HH@Z 1009dfc1 f   LIBCMT:a_cmp.obj
 0001:0009d35b       _findenv                   1009e35b f   LIBCMT:setenv.obj
 0001:0009d3ad       _copy_environ              1009e3ad f   LIBCMT:setenv.obj
