 ui_mp_x86

 Timestamp is 4f8e6daa (Wed Apr 18 09:30:50 2012)

 Preferred load address is 40000000

 Start         Length     Name                   Class
 0001:00000000 0002b718H .text                   CODE
 0002:00000000 00000104H .idata$5                DATA
 0002:00000104 00000004H .CRT$XCA                DATA
 0002:00000108 00000004H .CRT$XCZ                DATA
 0002:0000010c 00000004H .CRT$XIA                DATA
 0002:00000110 00000014H .CRT$XIC                DATA
 0002:00000124 00000004H .CRT$XIZ                DATA
 0002:00000128 00000004H .CRT$XPA                DATA
 0002:0000012c 00000004H .CRT$XPX                DATA
 0002:00000130 00000004H .CRT$XPXA               DATA
 0002:00000134 00000004H .CRT$XPZ                DATA
 0002:00000138 00000004H .CRT$XTA                DATA
 0002:0000013c 00000004H .CRT$XTZ                DATA
 0002:00000140 0000d0a8H .rdata                  DATA
 0002:0000d1f0 0000000cH .rdata$sxdata           DATA
 0002:0000d1fc 00000004H .rtc$IAA                DATA
 0002:0000d200 00000004H .rtc$IZZ                DATA
 0002:0000d204 00000004H .rtc$TAA                DATA
 0002:0000d208 00000004H .rtc$TZZ                DATA
 0002:0000d210 000002d4H .xdata$x                DATA
 0002:0000d4e4 00000014H .idata$2                DATA
 0002:0000d4f8 00000014H .idata$3                DATA
 0002:0000d50c 00000104H .idata$4                DATA
 0002:0000d610 000004a0H .idata$6                DATA
 0002:0000dab0 0000005aH .edata                  DATA
 0003:00000000 00008894H .data                   DATA
 0003:000088a0 005c5908H .bss                    DATA

  Address         Publics by Value              Rva+Base       Lib:Object

 0000:00000000       __except_list              00000000     <absolute>
 0000:00000003       ___safe_se_handler_count   00000003     <absolute>
 0000:00000000       ___ImageBase               40000000     <linker-defined>
 0001:00000000       _BG_LoadCampaignSave       40001000 f   bg_campaign.obj
 0001:00000170       _PC_String_Parse           40001170 f   bg_misc.obj
 0001:000001c0       _BG_setCrosshair           400011c0 f   bg_misc.obj
 0001:000004b0       _Q_vsnprintf               400014b0 f   bg_misc.obj
 0001:000004f0       _PC_SourceError            400014f0 f   bg_misc.obj
 0001:00000560       _PC_Float_Parse            40001560 f   bg_misc.obj
 0001:00000600       _PC_Color_Parse            40001600 f   bg_misc.obj
 0001:00000650       _PC_Int_Parse              40001650 f   bg_misc.obj
 0001:000006e0       _AxisClear                 400016e0 f   q_math.obj
 0001:00000710       _AngleVectors              40001710 f   q_math.obj
 0001:00000870       _AnglesToAxis              40001870 f   q_math.obj
 0001:000008c0       _Com_Clamp                 400018c0 f   q_shared.obj
 0001:000008f0       _COM_BackupParseSession    400018f0 f   q_shared.obj
 0001:00000950       _COM_ParseExt              40001950 f   q_shared.obj
 0001:00000b20       _Q_strncpyz                40001b20 f   q_shared.obj
 0001:00000b70       _Q_stricmpn                40001b70 f   q_shared.obj
 0001:00000bd0       _Q_strncmp                 40001bd0 f   q_shared.obj
 0001:00000c10       _Q_stricmp                 40001c10 f   q_shared.obj
 0001:00000c40       _Q_strlwr                  40001c40 f   q_shared.obj
 0001:00000c70       _Q_strupr                  40001c70 f   q_shared.obj
 0001:00000ca0       _Q_strcat                  40001ca0 f   q_shared.obj
 0001:00000cf0       _Q_CleanStr                40001cf0 f   q_shared.obj
 0001:00000d40       _Q_isBadDirChar            40001d40 f   q_shared.obj
 0001:00000d90       _Q_CleanDirName            40001d90 f   q_shared.obj
 0001:00000de0       _Com_sprintf               40001de0 f   q_shared.obj
 0001:00000e20       _va                        40001e20 f   q_shared.obj
 0001:00000eb0       _Info_ValueForKey          40001eb0 f   q_shared.obj
 0001:00000fb0       _COM_StripExtensionSafe    40001fb0 f   q_shared.obj
 0001:00001000       _Com_Error                 40002000 f   ui_atoms.obj
 0001:00001040       _Com_Printf                40002040 f   ui_atoms.obj
 0001:00001080       _UI_Argv                   40002080 f   ui_atoms.obj
 0001:000010a0       _UI_Cvar_VariableString    400020a0 f   ui_atoms.obj
 0001:000010f0       _UI_ConsoleCommand         400020f0 f   ui_atoms.obj
 0001:00001280       _UI_AdjustFrom640          40002280 f   ui_atoms.obj
 0001:000012f0       _UI_DrawHandlePic          400022f0 f   ui_atoms.obj
 0001:000013a0       _UI_FillRect               400023a0 f   ui_atoms.obj
 0001:00001410       _UI_SetColor               40002410 f   ui_atoms.obj
 0001:00001420       _Com_DPrintf               40002420 f   ui_atoms.obj
 0001:00001900       _UI_SortArenas             40002900 f   ui_gameinfo.obj
 0001:000019b0       _UI_LoadArenas             400029b0 f   ui_gameinfo.obj
 0001:00001a90       _UI_FindMapInfoByMapname   40002a90 f   ui_gameinfo.obj
 0001:00002050       _UI_DescriptionForCampaign 40003050 f   ui_gameinfo.obj
 0001:00002100       _UI_NameForCampaign        40003100 f   ui_gameinfo.obj
 0001:000021b0       _UI_FindCampaignInCampaignList 400031b0 f   ui_gameinfo.obj
 0001:00002200       _UI_SortCampaigns          40003200 f   ui_gameinfo.obj
 0001:000022b0       _UI_LoadCampaigns          400032b0 f   ui_gameinfo.obj
 0001:00002500       _UI_DrawLoadPanel          40003500 f   ui_loadpanel.obj
 0001:00002600       _Downloading               40003600 f   ui_loadpanel.obj
 0001:00002660       _UI_LoadPanel_RenderDownloadingBarBg 40003660 f   ui_loadpanel.obj
 0001:00002680       _UI_LoadPanel_DownloadingBarText 40003680 f   ui_loadpanel.obj
 0001:00002760       _UI_LoadPanel_RenderDownloadingBar 40003760 f   ui_loadpanel.obj
 0001:00002860       _UI_LoadPanel_RenderHeaderText 40003860 f   ui_loadpanel.obj
 0001:000028e0       _UI_DownloadInfo           400038e0 f   ui_loadpanel.obj
 0001:00002ad0       _UI_LoadPanel_RenderLoadingText 40003ad0 f   ui_loadpanel.obj
 0001:00002eb0       _AssetCache                40003eb0 f   ui_main.obj
 0001:00003030       __UI_DrawSides             40004030 f   ui_main.obj
 0001:000030f0       __UI_DrawTopBottom         400040f0 f   ui_main.obj
 0001:000031b0       __UI_DrawRect              400041b0 f   ui_main.obj
 0001:00003220       _Text_SetActiveFont        40004220 f   ui_main.obj
 0001:00003230       _Text_Width_Ext            40004230 f   ui_main.obj
 0001:000032c0       _Text_Width                400042c0 f   ui_main.obj
 0001:000032f0       _Multiline_Text_Width      400042f0 f   ui_main.obj
 0001:00003410       _Text_Height_Ext           40004410 f   ui_main.obj
 0001:000034c0       _Text_Height               400044c0 f   ui_main.obj
 0001:000034f0       _Multiline_Text_Height     400044f0 f   ui_main.obj
 0001:00003610       _Text_PaintCharExt         40004610 f   ui_main.obj
 0001:00003690       _Text_PaintChar            40004690 f   ui_main.obj
 0001:00003710       _Text_Paint_Ext            40004710 f   ui_main.obj
 0001:000039a0       _Text_Paint                400049a0 f   ui_main.obj
 0001:00003a10       _Text_PaintWithCursor      40004a10 f   ui_main.obj
 0001:00003f40       __UI_Shutdown              40004f40 f   ui_main.obj
 0001:00003f50       _GetMenuBuffer             40004f50 f   ui_main.obj
 0001:00003ff0       _Asset_Parse               40004ff0 f   ui_main.obj
 0001:000043d0       _UI_Report                 400053d0 f   ui_main.obj
 0001:000043e0       _UI_ParseMenu              400053e0 f   ui_main.obj
 0001:000044c0       _Load_Menu                 400054c0 f   ui_main.obj
 0001:00004540       _UI_LoadMenus              40005540 f   ui_main.obj
 0001:00004bb0       _UI_DrawMapPreview         40005bb0 f   ui_main.obj
 0001:00005060       _UI_DrawNetMapPreview      40006060 f   ui_main.obj
 0001:000054c0       _UI_DrawCampaignDescription 400064c0 f   ui_main.obj
 0001:000056d0       _UI_DrawGametypeDescription 400066d0 f   ui_main.obj
 0001:00007790       _UI_OwnerDrawVisible       40008790 f   ui_main.obj
 0001:00007fb0       _UI_ServersSort            40008fb0 f   ui_main.obj
 0001:00007ff0       _UI_SortMods               40008ff0 f   ui_main.obj
 0001:000086b0       _UI_CheckExecKey           400096b0 f   ui_main.obj
 0001:00008710       _UI_Update                 40009710 f   ui_main.obj
 0001:00009c10       _UI_FeederItemText         4000ac10 f   ui_main.obj
 0001:0000ad60       _UI_FeederSelectionClick   4000bd60 f   ui_main.obj
 0001:0000b360       __UI_KeyEvent              4000c360 f   ui_main.obj
 0001:0000b410       __UI_MouseEvent            4000c410 f   ui_main.obj
 0001:0000b490       __UI_GetActiveMenu         4000c490 f   ui_main.obj
 0001:0000b4a0       __UI_SetActiveMenu         4000c4a0 f   ui_main.obj
 0001:0000b9e0       __UI_IsFullscreen          4000c9e0 f   ui_main.obj
 0001:0000b9f0       _UI_ReadableSize           4000c9f0 f   ui_main.obj
 0001:0000bb70       _UI_PrintTime              4000cb70 f   ui_main.obj
 0001:0000bc20       _UI_DrawConnectScreen      4000cc20 f   ui_main.obj
 0001:0000bd20       _UI_RegisterCvars          4000cd20 f   ui_main.obj
 0001:0000bdc0       _UI_UpdateCvars            4000cdc0 f   ui_main.obj
 0001:0000c0c0       _UI_Campaign_f             4000d0c0 f   ui_main.obj
 0001:0000c1e0       _UI_ListCampaigns_f        4000d1e0 f   ui_main.obj
 0001:0000c270       _UI_ShowPostGame           4000d270 f   ui_main.obj
 0001:0000c2b0       _UI_Load                   4000d2b0 f   ui_main.obj
 0001:0000c9f0       __UI_Refresh               4000d9f0 f   ui_main.obj
 0001:0000cba0       _UI_RunMenuScript          4000dba0 f   ui_main.obj
 0001:00010a40       __UI_Init                  40011a40 f   ui_main.obj
 0001:00010fd0       _vmMain                    40011fd0 f   ui_main.obj
 0001:000110e0       _RestoreYcoords            400120e0 f   ui_shared.obj
 0001:00011170       _BackupYcoords             40012170 f   ui_shared.obj
 0001:000111f0       _Cui_WideRect              400121f0 f   ui_shared.obj
 0001:00011270       _Cui_WideX                 40012270 f   ui_shared.obj
 0001:000112c0       _Cui_WideXoffset           400122c0 f   ui_shared.obj
 0001:00011320       _Tooltip_Initialize        40012320 f   ui_shared.obj
 0001:000113d0       _Tooltip_ComputePosition   400123d0 f   ui_shared.obj
 0001:000114f0       _UI_Alloc                  400124f0 f   ui_shared.obj
 0001:00011550       _UI_InitMemory             40012550 f   ui_shared.obj
 0001:00011560       _UI_OutOfMemory            40012560 f   ui_shared.obj
 0001:000115b0       _String_Alloc              400125b0 f   ui_shared.obj
 0001:000116b0       _String_Report             400126b0 f   ui_shared.obj
 0001:00011750       _LerpColor                 40012750 f   ui_shared.obj
 0001:00011860       _Float_Parse               40012860 f   ui_shared.obj
 0001:000118a0       _Color_Parse               400128a0 f   ui_shared.obj
 0001:000118f0       _Int_Parse                 400128f0 f   ui_shared.obj
 0001:00011930       _Rect_Parse                40012930 f   ui_shared.obj
 0001:00011990       _String_Parse              40012990 f   ui_shared.obj
 0001:000119d0       _PC_Char_Parse             400129d0 f   ui_shared.obj
 0001:00011a10       _PC_Script_Parse           40012a10 f   ui_shared.obj
 0001:00011b40       _Init_Display              40012b40 f   ui_shared.obj
 0001:00011b50       _GradientBar_Paint         40012b50 f   ui_shared.obj
 0001:00011bb0       _Window_Init               40012bb0 f   ui_shared.obj
 0001:00011bf0       _Fade                      40012bf0 f   ui_shared.obj
 0001:00011c70       _Window_Paint              40012c70 f   ui_shared.obj
 0001:000120d0       _Item_SetScreenCoords      400130d0 f   ui_shared.obj
 0001:00012180       _Item_UpdatePosition       40013180 f   ui_shared.obj
 0001:000121b0       _Menu_UpdatePosition       400131b0 f   ui_shared.obj
 0001:000123e0       _Menu_PostParse            400133e0 f   ui_shared.obj
 0001:00012420       _IsVisible                 40013420 f   ui_shared.obj
 0001:00012440       _Rect_ContainsPoint        40013440 f   ui_shared.obj
 0001:000124b0       _Menu_ItemsMatchingGroup   400134b0 f   ui_shared.obj
 0001:00012570       _Menu_GetMatchingItemByNumber 40013570 f   ui_shared.obj
 0001:00012670       _Script_SetColor           40013670 f   ui_shared.obj
 0001:00012730       _Script_SetAsset           40013730 f   ui_shared.obj
 0001:00012750       _Script_SetBackground      40013750 f   ui_shared.obj
 0001:00012790       _Menu_FindItemByName       40013790 f   ui_shared.obj
 0001:000127f0       _Script_SetTeamColor       400137f0 f   ui_shared.obj
 0001:00012840       _Script_SetItemColor       40013840 f   ui_shared.obj
 0001:00012960       _Menu_FadeItemByName       40013960 f   ui_shared.obj
 0001:000129c0       _Menus_FindByName          400139c0 f   ui_shared.obj
 0001:00012a10       _Script_FadeIn             40013a10 f   ui_shared.obj
 0001:00012a50       _Script_FadeOut            40013a50 f   ui_shared.obj
 0001:00012a90       _Menu_FadeMenuByName       40013a90 f   ui_shared.obj
 0001:00012af0       _Script_FadeInMenu         40013af0 f   ui_shared.obj
 0001:00012b30       _Script_FadeOutMenu        40013b30 f   ui_shared.obj
 0001:00012b70       _Script_Clipboard          40013b70 f   ui_shared.obj
 0001:00012b70       _Script_NotebookShowpage   40013b70 f   ui_shared.obj
 0001:00012b80       _Menu_TransitionItemByName 40013b80 f   ui_shared.obj
 0001:00012c90       _Script_Transition         40013c90 f   ui_shared.obj
 0001:00012d70       _Menu_OrbitItemByName      40013d70 f   ui_shared.obj
 0001:00012de0       _Script_Orbit              40013de0 f   ui_shared.obj
 0001:00012eb0       _Script_SetPlayerModel     40013eb0 f   ui_shared.obj
 0001:00012ef0       _Script_SetPlayerHead      40013ef0 f   ui_shared.obj
 0001:00012f30       _Script_ClearCvar          40013f30 f   ui_shared.obj
 0001:00012f70       _Script_SetCvar            40013f70 f   ui_shared.obj
 0001:00012fc0       _Script_ToggleCvarBit      40013fc0 f   ui_shared.obj
 0001:00013050       _Script_CopyCvar           40014050 f   ui_shared.obj
 0001:000130c0       _Script_Exec               400140c0 f   ui_shared.obj
 0001:00013110       _Script_ExecNOW            40014110 f   ui_shared.obj
 0001:00013160       _Script_Play               40014160 f   ui_shared.obj
 0001:000131b0       _Script_playLooped         400141b0 f   ui_shared.obj
 0001:00013200       _Script_AddListItem        40014200 f   ui_shared.obj
 0001:000132b0       _Script_CheckAutoUpdate    400142b0 f   ui_shared.obj
 0001:000132c0       _Script_GetAutoUpdate      400142c0 f   ui_shared.obj
 0001:000132d0       _FileExists                400142d0 f   ui_shared.obj
 0001:00013320       _Script_CheckProfile       40014320 f   ui_shared.obj
 0001:000133c0       _Script_WriteProfile       400143c0 f   ui_shared.obj
 0001:00013470       _Script_ExecWolfConfig     40014470 f   ui_shared.obj
 0001:00013680       _Script_Abort              40014680 f   ui_shared.obj
 0001:00013690       _Item_RunScript            40014690 f   ui_shared.obj
 0001:000137b0       _Item_EnableShowViaCvar    400147b0 f   ui_shared.obj
 0001:000138f0       _Item_SettingShow          400148f0 f   ui_shared.obj
 0001:000139b0       _Item_ListBox_MaxScroll    400149b0 f   ui_shared.obj
 0001:00013a10       _Item_ListBox_ThumbPosition 40014a10 f   ui_shared.obj
 0001:00013ae0       _Item_ListBox_ThumbDrawPosition 40014ae0 f   ui_shared.obj
 0001:00013bd0       _Item_Slider_ThumbPosition 40014bd0 f   ui_shared.obj
 0001:00013c90       _Item_Slider_OverSlider    40014c90 f   ui_shared.obj
 0001:00013cf0       _Item_ListBox_OverLB       40014cf0 f   ui_shared.obj
 0001:00014000       _Item_ListBox_MouseEnter   40015000 f   ui_shared.obj
 0001:00014140       _Item_MouseEnter           40015140 f   ui_shared.obj
 0001:000142c0       _Item_MouseLeave           400152c0 f   ui_shared.obj
 0001:00014310       _Item_SetMouseOver         40015310 f   ui_shared.obj
 0001:00014330       _Item_OwnerDraw_HandleKey  40015330 f   ui_shared.obj
 0001:00014370       _Item_CheckBox_HandleKey   40015370 f   ui_shared.obj
 0001:00014460       _Item_YesNo_HandleKey      40015460 f   ui_shared.obj
 0001:00014520       _Item_Multi_CountSettings  40015520 f   ui_shared.obj
 0001:00014540       _Item_Multi_FindCvarByValue 40015540 f   ui_shared.obj
 0001:00014600       _Item_Multi_Setting        40015600 f   ui_shared.obj
 0001:000146e0       _Item_Multi_HandleKey      400156e0 f   ui_shared.obj
 0001:00014920       _Item_Slider_HandleKey     40015920 f   ui_shared.obj
 0001:00014a80       _Item_Action               40015a80 f   ui_shared.obj
 0001:00014b60       _Menus_Activate            40015b60 f   ui_shared.obj
 0001:00014c00       _Menus_CaptureFuncActive   40015c00 f   ui_shared.obj
 0001:00014c10       _Display_VisibleMenuCount  40015c10 f   ui_shared.obj
 0001:00014cc0       _ToWindowCoords            40015cc0 f   ui_shared.obj
 0001:00014ce0       _Item_SetTextExtents       40015ce0 f   ui_shared.obj
 0001:00014ee0       _Item_TextColor            40015ee0 f   ui_shared.obj
 0001:000150e0       _Item_Text_AutoWrapped_Paint 400160e0 f   ui_shared.obj
 0001:00015310       _Item_Text_Wrapped_Paint   40016310 f   ui_shared.obj
 0001:00015480       _Controls_GetConfig        40016480 f   ui_shared.obj
 0001:000154c0       _Controls_SetConfig        400164c0 f   ui_shared.obj
 0001:00015540       _Controls_SetDefaults      40016540 f   ui_shared.obj
 0001:000155c0       _BindingIDFromName         400165c0 f   ui_shared.obj
 0001:00015600       _BindingFromName           40016600 f   ui_shared.obj
 0001:000156e0       _Display_KeyBindPending    400166e0 f   ui_shared.obj
 0001:000156f0       _Item_Bind_HandleKey       400166f0 f   ui_shared.obj
 0001:00015ab0       _AdjustFrom640             40016ab0 f   ui_shared.obj
 0001:00015b40       _Item_Model_Paint          40016b40 f   ui_shared.obj
 0001:00015e50       _Item_ListBox_Paint        40016e50 f   ui_shared.obj
 0001:00016750       _Menu_Init                 40017750 f   ui_shared.obj
 0001:000167c0       _Menu_GetFocused           400177c0 f   ui_shared.obj
 0001:00016800       _Menu_SetFeederSelection   40017800 f   ui_shared.obj
 0001:000168d0       _Menus_AnyFullScreenVisible 400178d0 f   ui_shared.obj
 0001:00016900       _Menus_ActivateByName      40017900 f   ui_shared.obj
 0001:000169c0       _Item_Init                 400179c0 f   ui_shared.obj
 0001:00016a00       _Item_ValidateTypeData     40017a00 f   ui_shared.obj
 0001:00016af0       _Item_ValidateTooltipData  40017af0 f   ui_shared.obj
 0001:00016b40       _KeywordHash_Key           40017b40 f   ui_shared.obj
 0001:00016b90       _KeywordHash_Add           40017b90 f   ui_shared.obj
 0001:00016bc0       _KeywordHash_Find          40017bc0 f   ui_shared.obj
 0001:00016c10       _ItemParse_name            40017c10 f   ui_shared.obj
 0001:00016c10       _MenuParse_name            40017c10 f   ui_shared.obj
 0001:00016c30       _ItemParse_focusSound      40017c30 f   ui_shared.obj
 0001:00016c80       _ItemParse_text            40017c80 f   ui_shared.obj
 0001:00016ca0       _ItemParse_textfile        40017ca0 f   ui_shared.obj
 0001:00016d00       _ItemParse_group           40017d00 f   ui_shared.obj
 0001:00016d20       _ItemParse_asset_model     40017d20 f   ui_shared.obj
 0001:00016d80       _ItemParse_asset_shader    40017d80 f   ui_shared.obj
 0001:00016dd0       _ItemParse_model_origin    40017dd0 f   ui_shared.obj
 0001:00016e30       _ItemParse_elementwidth    40017e30 f   ui_shared.obj
 0001:00016e30       _ItemParse_model_fovx      40017e30 f   ui_shared.obj
 0001:00016e60       _ItemParse_model_rotation  40017e60 f   ui_shared.obj
 0001:00016e90       _ItemParse_model_angle     40017e90 f   ui_shared.obj
 0001:00016ec0       _ItemParse_model_animplay  40017ec0 f   ui_shared.obj
 0001:00016f60       _ItemParse_origin          40017f60 f   ui_shared.obj
 0001:00016fc0       _ItemParse_style           40017fc0 f   ui_shared.obj
 0001:00016fe0       _ItemParse_decoration      40017fe0 f   ui_shared.obj
 0001:00017000       _ItemParse_textasint       40018000 f   ui_shared.obj
 0001:00017020       _ItemParse_textasfloat     40018020 f   ui_shared.obj
 0001:00017040       _ItemParse_notselectable   40018040 f   ui_shared.obj
 0001:00017080       _ItemParse_wrapped         40018080 f   ui_shared.obj
 0001:000170a0       _ItemParse_autowrapped     400180a0 f   ui_shared.obj
 0001:000170c0       _ItemParse_bitflag         400180c0 f   ui_shared.obj
 0001:000170e0       _ItemParse_horizontalscroll 400180e0 f   ui_shared.obj
 0001:00017100       _ItemParse_type            40018100 f   ui_shared.obj
 0001:00017140       _ItemParse_elementheight   40018140 f   ui_shared.obj
 0001:00017140       _ItemParse_model_fovy      40018140 f   ui_shared.obj
 0001:00017170       _ItemParse_elementtype     40018170 f   ui_shared.obj
 0001:000171b0       _ItemParse_columns         400181b0 f   ui_shared.obj
 0001:00017280       _MenuParse_border          40018280 f   ui_shared.obj
 0001:00017280       _ItemParse_border          40018280 f   ui_shared.obj
 0001:000172a0       _MenuParse_borderSize      400182a0 f   ui_shared.obj
 0001:000172a0       _ItemParse_bordersize      400182a0 f   ui_shared.obj
 0001:000172c0       _ItemParse_ownerdraw       400182c0 f   ui_shared.obj
 0001:000172f0       _ItemParse_textalign       400182f0 f   ui_shared.obj
 0001:00017310       _ItemParse_textaligny      40018310 f   ui_shared.obj
 0001:00017330       _ItemParse_textscale       40018330 f   ui_shared.obj
 0001:00017350       _ItemParse_textstyle       40018350 f   ui_shared.obj
 0001:00017370       _ItemParse_textfont        40018370 f   ui_shared.obj
 0001:00017390       _MenuParse_backcolor       40018390 f   ui_shared.obj
 0001:00017390       _ItemParse_backcolor       40018390 f   ui_shared.obj
 0001:000173f0       _ItemParse_outlinecolor    400183f0 f   ui_shared.obj
 0001:000173f0       _MenuParse_outlinecolor    400183f0 f   ui_shared.obj
 0001:00017410       _ItemParse_background      40018410 f   ui_shared.obj
 0001:00017410       _MenuParse_background      40018410 f   ui_shared.obj
 0001:00017460       _MenuParse_cinematic       40018460 f   ui_shared.obj
 0001:00017460       _ItemParse_cinematic       40018460 f   ui_shared.obj
 0001:00017480       _ItemParse_doubleClick     40018480 f   ui_shared.obj
 0001:000174c0       _ItemParse_onEsc           400184c0 f   ui_shared.obj
 0001:000174e0       _ItemParse_onEnter         400184e0 f   ui_shared.obj
 0001:00017500       _ItemParse_contextMenu     40018500 f   ui_shared.obj
 0001:00017540       _ItemParse_onFocus         40018540 f   ui_shared.obj
 0001:00017560       _ItemParse_leaveFocus      40018560 f   ui_shared.obj
 0001:00017580       _ItemParse_mouseEnter      40018580 f   ui_shared.obj
 0001:000175a0       _ItemParse_mouseExit       400185a0 f   ui_shared.obj
 0001:000175c0       _ItemParse_mouseEnterText  400185c0 f   ui_shared.obj
 0001:000175e0       _ItemParse_mouseExitText   400185e0 f   ui_shared.obj
 0001:00017600       _ItemParse_action          40018600 f   ui_shared.obj
 0001:00017620       _ItemParse_accept          40018620 f   ui_shared.obj
 0001:00017640       _ItemParse_feeder          40018640 f   ui_shared.obj
 0001:00017640       _ItemParse_special         40018640 f   ui_shared.obj
 0001:00017660       _ItemParse_cvarTest        40018660 f   ui_shared.obj
 0001:00017680       _ItemParse_cvar            40018680 f   ui_shared.obj
 0001:000176e0       _ItemParse_maxChars        400186e0 f   ui_shared.obj
 0001:00017740       _ItemParse_maxPaintChars   40018740 f   ui_shared.obj
 0001:000177a0       _ItemParse_cvarFloat       400187a0 f   ui_shared.obj
 0001:00017820       _ItemParse_cvarStrList     40018820 f   ui_shared.obj
 0001:00017950       _ItemParse_cvarFloatList   40018950 f   ui_shared.obj
 0001:00017a50       _ItemParse_cvarListUndefined 40018a50 f   ui_shared.obj
 0001:00017ac0       _ParseColorRange           40018ac0 f   ui_shared.obj
 0001:00017b80       _ItemParse_addColorRangeRel 40018b80 f   ui_shared.obj
 0001:00017ba0       _ItemParse_addColorRange   40018ba0 f   ui_shared.obj
 0001:00017bc0       _ItemParse_ownerdrawFlag   40018bc0 f   ui_shared.obj
 0001:00017bc0       _MenuParse_ownerdrawFlag   40018bc0 f   ui_shared.obj
 0001:00017c00       _ItemParse_enableCvar      40018c00 f   ui_shared.obj
 0001:00017c40       _ItemParse_disableCvar     40018c40 f   ui_shared.obj
 0001:00017c80       _ItemParse_noToggle        40018c80 f   ui_shared.obj
 0001:00017ca0       _ItemParse_showCvar        40018ca0 f   ui_shared.obj
 0001:00017ce0       _ItemParse_hideCvar        40018ce0 f   ui_shared.obj
 0001:00017d20       _ItemParse_execKey         40018d20 f   ui_shared.obj
 0001:00017d70       _ItemParse_settingDisabled 40018d70 f   ui_shared.obj
 0001:00017da0       _ItemParse_settingEnabled  40018da0 f   ui_shared.obj
 0001:00017dd0       _ItemParse_tooltip         40018dd0 f   ui_shared.obj
 0001:00017e10       _ItemParse_tooltipalignx   40018e10 f   ui_shared.obj
 0001:00017e50       _ItemParse_tooltipaligny   40018e50 f   ui_shared.obj
 0001:00017e90       _ItemParse_voteFlag        40018e90 f   ui_shared.obj
 0001:00017eb0       _Item_SetupKeywordHash     40018eb0 f   ui_shared.obj
 0001:00017f00       _Item_Parse                40018f00 f   ui_shared.obj
 0001:00017ff0       _Item_InitControls         40018ff0 f   ui_shared.obj
 0001:00018030       _MenuParse_fullscreen      40019030 f   ui_shared.obj
 0001:00018050       _MenuParse_style           40019050 f   ui_shared.obj
 0001:000180a0       _ItemParse_visible         400190a0 f   ui_shared.obj
 0001:000180a0       _MenuParse_visible         400190a0 f   ui_shared.obj
 0001:000180e0       _MenuParse_onOpen          400190e0 f   ui_shared.obj
 0001:00018100       _MenuParse_onClose         40019100 f   ui_shared.obj
 0001:00018120       _MenuParse_onESC           40019120 f   ui_shared.obj
 0001:00018140       _MenuParse_onEnter         40019140 f   ui_shared.obj
 0001:00018160       _MenuParse_onTimeout       40019160 f   ui_shared.obj
 0001:000181a0       _ItemParse_forecolor       400191a0 f   ui_shared.obj
 0001:000181a0       _MenuParse_forecolor       400191a0 f   ui_shared.obj
 0001:00018200       _ItemParse_bordercolor     40019200 f   ui_shared.obj
 0001:00018200       _MenuParse_bordercolor     40019200 f   ui_shared.obj
 0001:00018260       _MenuParse_focuscolor      40019260 f   ui_shared.obj
 0001:000182c0       _MenuParse_disablecolor    400192c0 f   ui_shared.obj
 0001:00018320       _MenuParse_ownerdraw       40019320 f   ui_shared.obj
 0001:00018340       _MenuParse_popup           40019340 f   ui_shared.obj
 0001:00018360       _MenuParse_outOfBounds     40019360 f   ui_shared.obj
 0001:00018380       _MenuParse_soundLoop       40019380 f   ui_shared.obj
 0001:000183a0       _MenuParse_fadeClamp       400193a0 f   ui_shared.obj
 0001:000183c0       _ItemParse_textalignx      400193c0 f   ui_shared.obj
 0001:000183c0       _MenuParse_fadeAmount      400193c0 f   ui_shared.obj
 0001:000183e0       _MenuParse_fadeCycle       400193e0 f   ui_shared.obj
 0001:000183e0       _ItemParse_align           400193e0 f   ui_shared.obj
 0001:00018400       _MenuParse_itemDef         40019400 f   ui_shared.obj
 0001:000184f0       _MenuParse_execKey         400194f0 f   ui_shared.obj
 0001:00018540       _MenuParse_execKeyInt      40019540 f   ui_shared.obj
 0001:00018590       _MenuParse_drawAlwaysOnTop 40019590 f   ui_shared.obj
 0001:000185b0       _MenuParse_itemHotkeyMode  400195b0 f   ui_shared.obj
 0001:000185d0       _MenuParse_modal           400195d0 f   ui_shared.obj
 0001:000185f0       _Menu_SetupKeywordHash     400195f0 f   ui_shared.obj
 0001:00018640       _Menu_Parse                40019640 f   ui_shared.obj
 0001:00018750       _Menu_New                  40019750 f   ui_shared.obj
 0001:000187a0       _Menu_Count                400197a0 f   ui_shared.obj
 0001:000187b0       _Menu_Get                  400197b0 f   ui_shared.obj
 0001:000187e0       _Menu_Reset                400197e0 f   ui_shared.obj
 0001:000188a0       _Display_CacheAll          400198a0 f   ui_shared.obj
 0001:000189a0       _PC_Rect_Parse             400199a0 f   ui_shared.obj
 0001:00018a00       _BG_RectContainsPoint      40019a00 f   ui_shared.obj
 0001:00018a50       _BG_CursorInRect           40019a50 f   ui_shared.obj
 0001:00018aa0       _BG_PanelButtonsSetup      40019aa0 f   ui_shared.obj
 0001:00018ad0       _C_PanelButtonsSetup       40019ad0 f   ui_shared.obj
 0001:00018b10       _BG_PanelButtonsRender     40019b10 f   ui_shared.obj
 0001:00018b40       _BG_PanelButtonsRender_TextExt 40019b40 f   ui_shared.obj
 0001:00018cc0       _BG_PanelButtonsRender_Text 40019cc0 f   ui_shared.obj
 0001:00018ce0       _BG_PanelButtonsRender_Img 40019ce0 f   ui_shared.obj
 0001:00018dc0       _BG_FitTextToWidth_Ext     40019dc0 f   ui_shared.obj
 0001:00018ea0       _String_Init               40019ea0 f   ui_shared.obj
 0001:00018f00       _Menu_ClearFocus           40019f00 f   ui_shared.obj
 0001:00018f90       _Script_SetMenuItemColor   40019f90 f   ui_shared.obj
 0001:000190d0       _Menu_ShowItemByName       4001a0d0 f   ui_shared.obj
 0001:00019160       _Menus_OpenByName          4001a160 f   ui_shared.obj
 0001:000191c0       _Menus_CloseByName         4001a1c0 f   ui_shared.obj
 0001:00019280       _Menus_CloseAll            4001a280 f   ui_shared.obj
 0001:000192b0       _Script_Show               4001a2b0 f   ui_shared.obj
 0001:000192f0       _Script_Hide               4001a2f0 f   ui_shared.obj
 0001:00019330       _Script_Open               4001a330 f   ui_shared.obj
 0001:00019360       _Script_ConditionalOpen    4001a360 f   ui_shared.obj
 0001:00019440       _Script_ConditionalScript  4001a440 f   ui_shared.obj
 0001:00019d60       _Script_Close              4001ad60 f   ui_shared.obj
 0001:00019d90       _Script_CloseAll           4001ad90 f   ui_shared.obj
 0001:00019da0       _Script_CloseAllOtherMenus 4001ada0 f   ui_shared.obj
 0001:00019df0       _Script_SetFocus           4001adf0 f   ui_shared.obj
 0001:00019e80       _Script_ClearFocus         4001ae80 f   ui_shared.obj
 0001:00019ea0       _Script_SetMenuFocus       4001aea0 f   ui_shared.obj
 0001:00019ef0       _Script_SetEditFocus       4001aef0 f   ui_shared.obj
 0001:00019fc0       _Item_SetFocus             4001afc0 f   ui_shared.obj
 0001:0001a190       _Item_ListBox_HandleKey    4001b190 f   ui_shared.obj
 0001:0001a8c0       _Item_StartCapture         4001b8c0 f   ui_shared.obj
 0001:0001aa30       _Item_HandleKey            4001ba30 f   ui_shared.obj
 0001:0001aba0       _Item_Text_Paint           4001bba0 f   ui_shared.obj
 0001:0001aed0       _Item_TextField_Paint      4001bed0 f   ui_shared.obj
 0001:0001b190       _Item_CheckBox_Paint       4001c190 f   ui_shared.obj
 0001:0001b470       _Item_YesNo_Paint          4001c470 f   ui_shared.obj
 0001:0001b670       _Item_Multi_Paint          4001c670 f   ui_shared.obj
 0001:0001b800       _Item_Slider_Paint         4001c800 f   ui_shared.obj
 0001:0001b9c0       _Item_Bind_Paint           4001c9c0 f   ui_shared.obj
 0001:0001bc10       _Item_OwnerDraw_Paint      4001cc10 f   ui_shared.obj
 0001:0001c030       _Item_Paint                4001d030 f   ui_shared.obj
 0001:0001c4c0       _Menu_HandleMouseMove      4001d4c0 f   ui_shared.obj
 0001:0001c6f0       _Menu_Paint                4001d6f0 f   ui_shared.obj
 0001:0001cbc0       _ItemParse_rect            4001dbc0 f   ui_shared.obj
 0001:0001cbe0       _MenuParse_rect            4001dbe0 f   ui_shared.obj
 0001:0001cc00       _Menu_PaintAll             4001dc00 f   ui_shared.obj
 0001:0001cd70       _Display_MouseMove         4001dd70 f   ui_shared.obj
 0001:0001ce30       _Menu_SetPrevCursorItem    4001de30 f   ui_shared.obj
 0001:0001cf20       _Menu_SetNextCursorItem    4001df20 f   ui_shared.obj
 0001:0001d030       _Menus_HandleOOBClick      4001e030 f   ui_shared.obj
 0001:0001d130       _Item_TextField_HandleKey  4001e130 f   ui_shared.obj
 0001:0001d590       _Menu_HandleKey            4001e590 f   ui_shared.obj
 0001:0001db10       _dllEntry                  4001eb10 f   ui_syscalls.obj
 0001:0001db20       _PASSFLOAT                 4001eb20 f   ui_syscalls.obj
 0001:0001db30       _trap_Print                4001eb30 f   ui_syscalls.obj
 0001:0001db50       _trap_Error                4001eb50 f   ui_syscalls.obj
 0001:0001db70       _trap_Milliseconds         4001eb70 f   ui_syscalls.obj
 0001:0001db80       _trap_Cvar_Register        4001eb80 f   ui_syscalls.obj
 0001:0001dba0       _trap_Cvar_Update          4001eba0 f   ui_syscalls.obj
 0001:0001dbc0       _trap_Cvar_Set             4001ebc0 f   ui_syscalls.obj
 0001:0001dbe0       _trap_Cvar_VariableValue   4001ebe0 f   ui_syscalls.obj
 0001:0001dc00       _trap_Cvar_VariableStringBuffer 4001ec00 f   ui_syscalls.obj
 0001:0001dc20       _trap_Cvar_SetValue        4001ec20 f   ui_syscalls.obj
 0001:0001dc50       _trap_Argv                 4001ec50 f   ui_syscalls.obj
 0001:0001dc70       _trap_Cmd_ExecuteText      4001ec70 f   ui_syscalls.obj
 0001:0001dc90       _trap_AddCommand           4001ec90 f   ui_syscalls.obj
 0001:0001dcb0       _trap_FS_FOpenFile         4001ecb0 f   ui_syscalls.obj
 0001:0001dcd0       _trap_FS_Read              4001ecd0 f   ui_syscalls.obj
 0001:0001dcf0       _trap_FS_Write             4001ecf0 f   ui_syscalls.obj
 0001:0001dd10       _trap_FS_FCloseFile        4001ed10 f   ui_syscalls.obj
 0001:0001dd30       _trap_FS_GetFileList       4001ed30 f   ui_syscalls.obj
 0001:0001dd50       _trap_FS_Delete            4001ed50 f   ui_syscalls.obj
 0001:0001dd70       _trap_R_RegisterModel      4001ed70 f   ui_syscalls.obj
 0001:0001dd90       _trap_R_RegisterShaderNoMip 4001ed90 f   ui_syscalls.obj
 0001:0001ddb0       _trap_R_RegisterFont       4001edb0 f   ui_syscalls.obj
 0001:0001ddd0       _trap_R_ClearScene         4001edd0 f   ui_syscalls.obj
 0001:0001dde0       _trap_R_AddRefEntityToScene 4001ede0 f   ui_syscalls.obj
 0001:0001de00       _trap_R_RenderScene        4001ee00 f   ui_syscalls.obj
 0001:0001de20       _trap_R_SetColor           4001ee20 f   ui_syscalls.obj
 0001:0001de40       _trap_R_Add2dPolys         4001ee40 f   ui_syscalls.obj
 0001:0001de60       _trap_R_DrawStretchPic     4001ee60 f   ui_syscalls.obj
 0001:0001df00       _trap_R_ModelBounds        4001ef00 f   ui_syscalls.obj
 0001:0001df20       _trap_UpdateScreen         4001ef20 f   ui_syscalls.obj
 0001:0001df30       _trap_S_StartLocalSound    4001ef30 f   ui_syscalls.obj
 0001:0001df50       _trap_S_RegisterSound      4001ef50 f   ui_syscalls.obj
 0001:0001df70       _trap_S_FadeAllSound       4001ef70 f   ui_syscalls.obj
 0001:0001dfa0       _trap_Key_KeynumToStringBuf 4001efa0 f   ui_syscalls.obj
 0001:0001dfc0       _trap_Key_GetBindingBuf    4001efc0 f   ui_syscalls.obj
 0001:0001dfe0       _trap_Key_KeysForBinding   4001efe0 f   ui_syscalls.obj
 0001:0001e000       _trap_Key_SetBinding       4001f000 f   ui_syscalls.obj
 0001:0001e020       _trap_Key_IsDown           4001f020 f   ui_syscalls.obj
 0001:0001e040       _trap_Key_GetOverstrikeMode 4001f040 f   ui_syscalls.obj
 0001:0001e050       _trap_Key_SetOverstrikeMode 4001f050 f   ui_syscalls.obj
 0001:0001e070       _trap_Key_ClearStates      4001f070 f   ui_syscalls.obj
 0001:0001e080       _trap_Key_GetCatcher       4001f080 f   ui_syscalls.obj
 0001:0001e090       _trap_Key_SetCatcher       4001f090 f   ui_syscalls.obj
 0001:0001e0b0       _trap_GetClientState       4001f0b0 f   ui_syscalls.obj
 0001:0001e0d0       _trap_GetGlconfig          4001f0d0 f   ui_syscalls.obj
 0001:0001e0f0       _trap_GetConfigString      4001f0f0 f   ui_syscalls.obj
 0001:0001e110       _trap_LAN_UpdateVisiblePings 4001f110 f   ui_syscalls.obj
 0001:0001e130       _trap_LAN_GetServerCount   4001f130 f   ui_syscalls.obj
 0001:0001e150       _trap_LAN_CompareServers   4001f150 f   ui_syscalls.obj
 0001:0001e180       _trap_LAN_GetServerAddressString 4001f180 f   ui_syscalls.obj
 0001:0001e1a0       _trap_LAN_GetServerInfo    4001f1a0 f   ui_syscalls.obj
 0001:0001e1c0       _trap_LAN_AddServer        4001f1c0 f   ui_syscalls.obj
 0001:0001e1e0       _trap_LAN_RemoveServer     4001f1e0 f   ui_syscalls.obj
 0001:0001e200       _trap_LAN_GetServerPing    4001f200 f   ui_syscalls.obj
 0001:0001e220       _trap_LAN_ServerIsVisible  4001f220 f   ui_syscalls.obj
 0001:0001e240       _trap_LAN_ServerStatus     4001f240 f   ui_syscalls.obj
 0001:0001e260       _trap_LAN_ServerIsInFavoriteList 4001f260 f   ui_syscalls.obj
 0001:0001e280       _trap_LAN_SaveCachedServers 4001f280 f   ui_syscalls.obj
 0001:0001e290       _trap_LAN_LoadCachedServers 4001f290 f   ui_syscalls.obj
 0001:0001e2a0       _trap_LAN_MarkServerVisible 4001f2a0 f   ui_syscalls.obj
 0001:0001e2c0       _trap_SetPbClStatus        4001f2c0 f   ui_syscalls.obj
 0001:0001e2e0       _trap_SetPbSvStatus        4001f2e0 f   ui_syscalls.obj
 0001:0001e300       _trap_LAN_ResetPings       4001f300 f   ui_syscalls.obj
 0001:0001e320       _trap_GetCDKey             4001f320 f   ui_syscalls.obj
 0001:0001e340       _trap_SetCDKey             4001f340 f   ui_syscalls.obj
 0001:0001e360       _trap_PC_AddGlobalDefine   4001f360 f   ui_syscalls.obj
 0001:0001e380       _trap_PC_RemoveAllGlobalDefines 4001f380 f   ui_syscalls.obj
 0001:0001e390       _trap_PC_LoadSource        4001f390 f   ui_syscalls.obj
 0001:0001e3b0       _trap_PC_FreeSource        4001f3b0 f   ui_syscalls.obj
 0001:0001e3d0       _trap_PC_ReadToken         4001f3d0 f   ui_syscalls.obj
 0001:0001e3f0       _trap_PC_SourceFileAndLine 4001f3f0 f   ui_syscalls.obj
 0001:0001e410       _trap_S_StopBackgroundTrack 4001f410 f   ui_syscalls.obj
 0001:0001e420       _trap_S_StartBackgroundTrack 4001f420 f   ui_syscalls.obj
 0001:0001e440       _trap_RealTime             4001f440 f   ui_syscalls.obj
 0001:0001e460       _trap_CIN_PlayCinematic    4001f460 f   ui_syscalls.obj
 0001:0001e490       _trap_CIN_StopCinematic    4001f490 f   ui_syscalls.obj
 0001:0001e4b0       _trap_CIN_RunCinematic     4001f4b0 f   ui_syscalls.obj
 0001:0001e4d0       _trap_CIN_DrawCinematic    4001f4d0 f   ui_syscalls.obj
 0001:0001e4f0       _trap_CIN_SetExtents       4001f4f0 f   ui_syscalls.obj
 0001:0001e520       _trap_VerifyCDKey          4001f520 f   ui_syscalls.obj
 0001:0001e540       _trap_TranslateString      4001f540 f   ui_syscalls.obj
 0001:0001e590       _trap_CheckAutoUpdate      4001f590 f   ui_syscalls.obj
 0001:0001e5a0       _trap_GetAutoUpdate        4001f5a0 f   ui_syscalls.obj
 0001:0001e5b0       _trap_openURL              4001f5b0 f   ui_syscalls.obj
 0001:0001e5d0       _trap_GetHunkData          4001f5d0 f   ui_syscalls.obj
 0001:0001e5f0       _memset                    4001f5f0 f   LIBCMT:memset.obj
 0001:0001e670       _strstr                    4001f670 f   LIBCMT:strstr.obj
 0001:0001e6f6       _atol                      4001f6f6 f   LIBCMT:atox.obj
 0001:0001e70c       _atoi                      4001f70c f   LIBCMT:atox.obj
 0001:0001e717       __cfltcvt_init             4001f717 f   LIBCMT:_fpinit_.obj
 0001:0001e777       __fpmath                   4001f777 f   LIBCMT:_fpinit_.obj
 0001:0001e790       __ftol2_sse                4001f790 f   LIBCMT:ftol2.obj
 0001:0001e799       __ftol2_pentium4           4001f799 f   LIBCMT:ftol2.obj
 0001:0001e7ac       __ftol2_sse_excpt          4001f7ac f   LIBCMT:ftol2.obj
 0001:0001e7c6       __ftol2                    4001f7c6 f   LIBCMT:ftol2.obj
 0001:0001e83b       ??0_LocaleUpdate@@QAE@PAUlocaleinfo_struct@@@Z 4001f83b f i LIBCMT:tolower.obj
 0001:0001e8c2       __tolower_l                4001f8c2 f   LIBCMT:tolower.obj
 0001:0001e9d7       _tolower                   4001f9d7 f   LIBCMT:tolower.obj
 0001:0001ea10       __CIsqrt                   4001fa10 f   LIBCMT:_sqrt_.obj
 0001:0001ea24       _sqrt                      4001fa24     LIBCMT:_sqrt_.obj
 0001:0001ead0       _floor                     4001fad0 f   LIBCMT:_floor_pentium4_.obj
 0001:0001eb10       __floor_pentium4           4001fb10 f   LIBCMT:_floor_pentium4_.obj
 0001:0001ec00       _cos                       4001fc00 f   LIBCMT:_cos_.obj
 0001:0001ec40       __CIcos                    4001fc40 f   LIBCMT:_cos_.obj
 0001:0001ec7b       __CIcos_default            4001fc7b f   LIBCMT:_cos_.obj
 0001:0001ec8f       __cos_default              4001fc8f     LIBCMT:_cos_.obj
 0001:0001ed29       __vsnprintf_l              4001fd29 f   LIBCMT:vsnprint.obj
 0001:0001edd5       __vsnprintf                4001fdd5 f   LIBCMT:vsnprint.obj
 0001:0001ee00       _sin                       4001fe00 f   LIBCMT:_sin_.obj
 0001:0001ee40       __CIsin                    4001fe40 f   LIBCMT:_sin_.obj
 0001:0001ee7b       __CIsin_default            4001fe7b f   LIBCMT:_sin_.obj
 0001:0001ee8f       __sin_default              4001fe8f     LIBCMT:_sin_.obj
 0001:0001ef30       _atan                      4001ff30 f   LIBCMT:_atan_.obj
 0001:0001ef70       __CIatan                   4001ff70 f   LIBCMT:_atan_.obj
 0001:0001efab       __CIatan_default           4001ffab f   LIBCMT:_atan_.obj
 0001:0001efbf       __atan_default             4001ffbf     LIBCMT:_atan_.obj
 0001:0001f050       _atan2                     40020050 f   LIBCMT:_87ctriga_.obj
 0001:0001f05a       __CIatan2                  4002005a f   LIBCMT:_87ctriga_.obj
 0001:0001f070       _strncpy                   40020070 f   LIBCMT:strncpy.obj
 0001:0001f194       __vsprintf_l               40020194 f   LIBCMT:vsprintf.obj
 0001:0001f218       _vsprintf                  40020218 f   LIBCMT:vsprintf.obj
 0001:0001f240       _memcpy                    40020240 f   LIBCMT:memcpy.obj
 0001:0001f5b0       __chkstk                   400205b0 f   LIBCMT:chkstk.obj
 0001:0001f5b0       __alloca_probe             400205b0     LIBCMT:chkstk.obj
 0001:0001f5e0       _memmove                   400205e0 f   LIBCMT:memmove.obj
 0001:0001f960       _strchr                    40020960 f   LIBCMT:strchr.obj
 0001:0001f966       ___from_strstr_to_strchr   40020966     LIBCMT:strchr.obj
 0001:0001fa1e       __atof_l                   40020a1e f   LIBCMT:atof.obj
 0001:0001fac9       _atof                      40020ac9 f   LIBCMT:atof.obj
 0001:0001fb70       _qsort                     40020b70 f   LIBCMT:qsort.obj
 0001:0001fdfb       __toupper_l                40020dfb f   LIBCMT:toupper.obj
 0001:0001ff11       _toupper                   40020f11 f   LIBCMT:toupper.obj
 0001:0001ff3d       ___crtCorExitProcess       40020f3d f   LIBCMT:crt0dat.obj
 0001:0001ff68       ___crtExitProcess          40020f68 f   LIBCMT:crt0dat.obj
 0001:0001ff80       __lockexit                 40020f80 f   LIBCMT:crt0dat.obj
 0001:0001ff89       __unlockexit               40020f89 f   LIBCMT:crt0dat.obj
 0001:0001ff92       __init_pointers            40020f92 f   LIBCMT:crt0dat.obj
 0001:0001ffc5       __initterm_e               40020fc5 f   LIBCMT:crt0dat.obj
 0001:0001ffe9       __cinit                    40020fe9 f   LIBCMT:crt0dat.obj
 0001:000201c0       _exit                      400211c0 f   LIBCMT:crt0dat.obj
 0001:000201d6       __exit                     400211d6 f   LIBCMT:crt0dat.obj
 0001:000201ec       __cexit                    400211ec f   LIBCMT:crt0dat.obj
 0001:000201fb       __amsg_exit                400211fb f   LIBCMT:crt0dat.obj
 0001:00020219       __CRT_INIT@12              40021219 f   LIBCMT:dllcrt0.obj
 0001:00020473       __DllMainCRTStartup@12     40021473 f   LIBCMT:dllcrt0.obj
 0001:00020496       __VEC_memzero              40021496 f   LIBCMT:p4_memset.obj
 0001:00020550       ___sse2_available_init     40021550 f   LIBCMT:cpu_disp.obj
 0001:0002078b       _strtol                    4002178b f   LIBCMT:strtol.obj
 0001:000207b6       __encoded_null             400217b6 f   LIBCMT:tidtable.obj
 0001:000207bf       ___crtTlsAlloc@4           400217bf f   LIBCMT:tidtable.obj
 0001:000207c8       ___set_flsgetvalue         400217c8 f   LIBCMT:tidtable.obj
 0001:000207fc       __mtterm                   400217fc f   LIBCMT:tidtable.obj
 0001:00020839       __initptd                  40021839 f   LIBCMT:tidtable.obj
 0001:000208ed       __getptd_noexit            400218ed f   LIBCMT:tidtable.obj
 0001:00020966       __getptd                   40021966 f   LIBCMT:tidtable.obj
 0001:00020980       __freefls@4                40021980 f   LIBCMT:tidtable.obj
 0001:00020aaf       __freeptd                  40021aaf f   LIBCMT:tidtable.obj
 0001:00020b1d       __mtinit                   40021b1d f   LIBCMT:tidtable.obj
 0001:00020c98       __forcdecpt_l              40021c98 f   LIBCMT:cvt.obj
 0001:00020d0c       __cropzeros_l              40021d0c f   LIBCMT:cvt.obj
 0001:00020d8e       __positive                 40021d8e f   LIBCMT:cvt.obj
 0001:00020daa       __fassign_l                40021daa f   LIBCMT:cvt.obj
 0001:00020dec       __fassign                  40021dec f   LIBCMT:cvt.obj
 0001:00020e25       __forcdecpt                40021e25 f   LIBCMT:cvt.obj
 0001:00020e38       __cropzeros                40021e38 f   LIBCMT:cvt.obj
 0001:00020fac       __cftoe_l                  40021fac f   LIBCMT:cvt.obj
 0001:00021073       __cftoe                    40022073 f   LIBCMT:cvt.obj
 0001:00021093       __cftoa_l                  40022093 f   LIBCMT:cvt.obj
 0001:0002150c       __cftof_l                  4002250c f   LIBCMT:cvt.obj
 0001:000215cd       __cftog_l                  400225cd f   LIBCMT:cvt.obj
 0001:000216ba       __cfltcvt_l                400226ba f   LIBCMT:cvt.obj
 0001:00021742       __cfltcvt                  40022742 f   LIBCMT:cvt.obj
 0001:00021765       __initp_misc_cfltcvt_tab   40022765 f   LIBCMT:cmiscdat.obj
 0001:00021788       __setdefaultprecision      40022788 f   LIBCMT:fp8.obj
 0001:000219d3       ___updatetmbcinfo          400229d3 f   LIBCMT:mbctype.obj
 0001:00021af3       __setmbcp_nolock           40022af3 f   LIBCMT:mbctype.obj
 0001:00021cdc       __setmbcp                  40022cdc f   LIBCMT:mbctype.obj
 0001:00021e76       ___initmbctable            40022e76 f   LIBCMT:mbctype.obj
 0001:00021e94       ___addlocaleref            40022e94 f   LIBCMT:localref.obj
 0001:00021f23       ___removelocaleref         40022f23 f   LIBCMT:localref.obj
 0001:00021fbc       ___freetlocinfo            40022fbc f   LIBCMT:localref.obj
 0001:00022107       __updatetlocinfoEx_nolock  40023107 f   LIBCMT:localref.obj
 0001:00022154       ___updatetlocinfo          40023154 f   LIBCMT:localref.obj
 0001:000221cd       __freea                    400231cd f i LIBCMT:a_map.obj
 0001:000223d4       ___crtLCMapStringA         400233d4 f   LIBCMT:a_map.obj
 0001:0002241a       __get_errno_from_oserr     4002341a f   LIBCMT:dosmap.obj
 0001:0002245c       __errno                    4002345c f   LIBCMT:dosmap.obj
 0001:0002246f       ___doserrno                4002346f f   LIBCMT:dosmap.obj
 0001:00022482       __dosmaperr                40023482 f   LIBCMT:dosmap.obj
 0001:000224a5       __isleadbyte_l             400234a5 f i LIBCMT:_wctype.obj
 0001:000224dd       _isleadbyte                400234dd f i LIBCMT:_wctype.obj
 0001:000224f0       __isctype_l                400234f0 f   LIBCMT:isctype.obj
 0001:000225b0       __trandisp1                400235b0 f   LIBCMT:_87disp_.obj
 0001:00022617       __trandisp2                40023617 f   LIBCMT:_87disp_.obj
 0001:000226a3       __rttospopde               400236a3     LIBCMT:_87disp_.obj
 0001:000226a8       __rttospop                 400236a8     LIBCMT:_87disp_.obj
 0001:000226aa       __rtnospop                 400236aa     LIBCMT:_87disp_.obj
 0001:000226ac       __rttosnpop                400236ac     LIBCMT:_87disp_.obj
 0001:000226ad       __rtnospopde               400236ad     LIBCMT:_87disp_.obj
 0001:000226b4       __rtzeropop                400236b4     LIBCMT:_87disp_.obj
 0001:000226b6       __rtzeronpop               400236b6     LIBCMT:_87disp_.obj
 0001:000226bb       __rtonepop                 400236bb     LIBCMT:_87disp_.obj
 0001:000226bd       __rtonenpop                400236bd     LIBCMT:_87disp_.obj
 0001:000226c2       __tosnan1                  400236c2     LIBCMT:_87disp_.obj
 0001:000226ed       __nosnan2                  400236ed     LIBCMT:_87disp_.obj
 0001:000226ef       __tosnan2                  400236ef     LIBCMT:_87disp_.obj
 0001:00022717       __nan2                     40023717     LIBCMT:_87disp_.obj
 0001:00022756       __rtindfpop                40023756     LIBCMT:_87disp_.obj
 0001:00022758       __rtindfnpop               40023758     LIBCMT:_87disp_.obj
 0001:00022769       __rttosnpopde              40023769     LIBCMT:_87disp_.obj
 0001:00022773       __rtchsifneg               40023773     LIBCMT:_87disp_.obj
 0001:00022780       __startTwoArgErrorHandling 40023780 f   LIBCMT:_genexcep_.obj
 0001:00022797       __startOneArgErrorHandling 40023797 f   LIBCMT:_genexcep_.obj
 0001:000227e0       __twoToTOS                 400237e0 f   LIBCMT:_common_.obj
 0001:000227f5       __load_CW                  400237f5 f   LIBCMT:_common_.obj
 0001:0002280c       __convertTOStoQNaN         4002380c f   LIBCMT:_common_.obj
 0001:00022825       __fload_withFB             40023825 f   LIBCMT:_common_.obj
 0001:00022868       __checkTOS_withFB          40023868 f   LIBCMT:_common_.obj
 0001:0002287e       __fast_exit                4002387e f   LIBCMT:_common_.obj
 0001:0002288b       __math_exit                4002388b f   LIBCMT:_common_.obj
 0001:000228b5       __check_overflow_exit      400238b5 f   LIBCMT:_common_.obj
 0001:000228c9       __check_range_exit         400238c9 f   LIBCMT:_common_.obj
 0001:0002296c       ___libm_error_support      4002396c f   LIBCMT:_libm_error_.obj
 0001:00022c38       __sse2_mathfcns_init       40023c38 f   LIBCMT:_mathfcns_.obj
 0001:00022c48       __floor_default            40023c48 f   LIBCMT:_floor_.obj
 0001:00022d20       __CIcos_pentium4           40023d20 f   LIBCMT:_cos_pentium4_.obj
 0001:00022d38       __cos_pentium4             40023d38     LIBCMT:_cos_pentium4_.obj
 0001:00022ecc       __flsbuf                   40023ecc f   LIBCMT:_flsbuf.obj
 0001:000230c5       __output_l                 400240c5 f   LIBCMT:output.obj
 0001:00023ccd       __initp_misc_invarg        40024ccd f   LIBCMT:invarg.obj
 0001:00023cdc       __call_reportfault         40024cdc f   LIBCMT:invarg.obj
 0001:00023e05       __invoke_watson            40024e05 f   LIBCMT:invarg.obj
 0001:00023e2a       __invalid_parameter        40024e2a f   LIBCMT:invarg.obj
 0001:00023e57       __invalid_parameter_noinfo 40024e57 f   LIBCMT:invarg.obj
 0001:00023e70       __CIsin_pentium4           40024e70 f   LIBCMT:_sin_pentium4_.obj
 0001:00023e88       __sin_pentium4             40024e88     LIBCMT:_sin_pentium4_.obj
 0001:00024040       __CIatan_pentium4          40025040 f   LIBCMT:_atan_pentium4_.obj
 0001:00024058       __atan_pentium4            40025058     LIBCMT:_atan_pentium4_.obj
 0001:0002434c       __fFATN2                   4002534c     LIBCMT:_87triga_.obj
 0001:0002439c       __rtpiby2                  4002539c     LIBCMT:_87triga_.obj
 0001:000243e0       __cintrindisp2             400253e0 f   LIBCMT:_87cdisp_.obj
 0001:0002441e       __cintrindisp1             4002541e f   LIBCMT:_87cdisp_.obj
 0001:0002445b       __ctrandisp2               4002545b f   LIBCMT:_87cdisp_.obj
 0001:000245ea       __ctrandisp1               400255ea f   LIBCMT:_87cdisp_.obj
 0001:0002461d       __fload                    4002561d f   LIBCMT:_87cdisp_.obj
 0001:00024659       __VEC_memcpy               40025659 f   LIBCMT:p4_memcpy.obj
 0001:0002475c       __fltin2                   4002575c f   LIBCMT:_cfin_.obj
 0001:00024803       @__security_check_cookie@4 40025803 f   LIBCMT:secchk.obj
 0001:00024812       ___strgtold12_l            40025812 f   LIBCMT:_strgtold_.obj
 0001:00024eee       __mtinitlocks              40025eee f   LIBCMT:mlock.obj
 0001:00024f38       __mtdeletelocks            40025f38 f   LIBCMT:mlock.obj
 0001:00024f8f       __unlock                   40025f8f f   LIBCMT:mlock.obj
 0001:00024fa6       __mtinitlocknum            40025fa6 f   LIBCMT:mlock.obj
 0001:00025068       __lock                     40026068 f   LIBCMT:mlock.obj
 0001:0002509b       ?terminate@@YAXXZ          4002609b f   LIBCMT:hooks.obj
 0001:000250d4       __initp_eh_hooks           400260d4 f   LIBCMT:hooks.obj
 0001:000250e5       __initp_misc_winsig        400260e5 f   LIBCMT:winsig.obj
 0001:0002513a       ___get_sigabrt             4002613a f   LIBCMT:winsig.obj
 0001:00025147       _raise                     40026147 f   LIBCMT:winsig.obj
 0001:000252ea       __initp_misc_rand_s        400262ea f   LIBCMT:rand_s.obj
 0001:000252f9       __initp_misc_purevirt      400262f9 f   LIBCMT:inithelp.obj
 0001:00025308       __initp_heap_handler       40026308 f   LIBCMT:handler.obj
 0001:00025317       __callnewh                 40026317 f   LIBCMT:handler.obj
 0001:000253f5       ___onexitinit              400263f5 f   LIBCMT:onexit.obj
 0001:00025426       __onexit                   40026426 f   LIBCMT:onexit.obj
 0001:00025462       _atexit                    40026462 f   LIBCMT:onexit.obj
 0001:00025479       __RTC_Initialize           40026479 f   LIBCMT:_initsect_.obj
 0001:0002549f       __RTC_Terminate            4002649f f   LIBCMT:_initsect_.obj
 0001:000254d0       __ValidateImageBase        400264d0 f   LIBCMT:pesect.obj
 0001:00025510       __FindPESection            40026510 f   LIBCMT:pesect.obj
 0001:00025560       __IsNonwritableInCurrentImage 40026560 f   LIBCMT:pesect.obj
 0001:00025620       __SEH_prolog4              40026620 f   LIBCMT:sehprolg4.obj
 0001:00025665       __SEH_epilog4              40026665 f   LIBCMT:sehprolg4.obj
 0001:00025680       __except_handler4          40026680 f   LIBCMT:chandler4.obj
 0001:0002580f       __GET_RTERRMSG             4002680f f   LIBCMT:crt0msg.obj
 0001:00025835       __NMSG_WRITE               40026835 f   LIBCMT:crt0msg.obj
 0001:000259e4       __FF_MSGBANNER             400269e4 f   LIBCMT:crt0msg.obj
 0001:00025a1d       _free                      40026a1d f   LIBCMT:free.obj
 0001:00025a57       __malloc_crt               40026a57 f   LIBCMT:crtheap.obj
 0001:00025a9c       __calloc_crt               40026a9c f   LIBCMT:crtheap.obj
 0001:00025ae8       __realloc_crt              40026ae8 f   LIBCMT:crtheap.obj
 0001:00025b36       __ioinit                   40026b36 f   LIBCMT:ioinit.obj
 0001:00025d7b       __ioterm                   40026d7b f   LIBCMT:ioinit.obj
 0001:00025dce       __setenvp                  40026dce f   LIBCMT:stdenvp.obj
 0001:00026044       __setargv                  40027044 f   LIBCMT:stdargv.obj
 0001:000260ff       ___crtGetEnvironmentStringsA 400270ff f   LIBCMT:a_env.obj
 0001:00026196       __heap_init                40027196 f   LIBCMT:heapinit.obj
 0001:000261b4       __heap_term                400271b4 f   LIBCMT:heapinit.obj
 0001:000261c8       __XcptFilter               400271c8 f   LIBCMT:winxfltr.obj
 0001:00026312       ___CppXcptFilter           40027312 f   LIBCMT:winxfltr.obj
 0001:00026332       _DllMain@12                40027332 f   LIBCMT:dllmain.obj
 0001:00026338       ___security_init_cookie    40027338 f   LIBCMT:gs_support.obj
 0001:000263e0       __allmul                   400273e0 f   LIBCMT:llmul.obj
 0001:00026420       __aulldvrm                 40027420 f   LIBCMT:ulldvrm.obj
 0001:000264c0       _strrchr                   400274c0 f   LIBCMT:strrchr.obj
 0001:000264ed       __isdigit_l                400274ed f i LIBCMT:_ctype.obj
 0001:0002653e       _isdigit                   4002753e f i LIBCMT:_ctype.obj
 0001:0002656c       __atodbl_l                 4002756c f   LIBCMT:atodbl.obj
 0001:00026614       __atoflt_l                 40027614 f   LIBCMT:atodbl.obj
 0001:000266c0       _strlen                    400276c0 f   LIBCMT:strlen.obj
 0001:0002674b       _strcpy_s                  4002774b f   LIBCMT:strcpy_s.obj
 0001:000267aa       __fptostr                  400277aa f   LIBCMT:_fptostr.obj
 0001:0002685d       ___dtold                   4002785d f   LIBCMT:_cfout_.obj
 0001:00026910       __fltout2                  40027910 f   LIBCMT:_cfout_.obj
 0001:000269a0       __alldvrm                  400279a0 f   LIBCMT:lldvrm.obj
 0001:00026a80       __aullshr                  40027a80 f   LIBCMT:ullshr.obj
 0001:00026a9f       __fptrap                   40027a9f f   LIBCMT:crt0fp.obj
 0001:00026aa8       __controlfp_s              40027aa8 f   LIBCMT:_contrlfp_.obj
 0001:00026bee       ___crtGetStringTypeA       40027bee f   LIBCMT:a_str.obj
 0001:00026c2e       ___free_lc_time            40027c2e f   LIBCMT:inittime.obj
 0001:00026fa5       ___free_lconv_num          40027fa5 f   LIBCMT:initnum.obj
 0001:0002700e       ___free_lconv_mon          4002800e f   LIBCMT:initmon.obj
 0001:0002710c       _malloc                    4002810c f   LIBCMT:malloc.obj
 0001:000271a0       __alloca_probe_16          400281a0 f   LIBCMT:alloca16.obj
 0001:000271b6       __alloca_probe_8           400281b6     LIBCMT:alloca16.obj
 0001:000271d0       _strcspn                   400281d0 f   LIBCMT:strcspn.obj
 0001:00027220       _strcmp                    40028220 f   LIBCMT:strcmp.obj
 0001:000272b0       _strpbrk                   400282b0 f   LIBCMT:strpbrk.obj
 0001:000272f0       __87except                 400282f0 f   LIBCMT:_87except_.obj
 0001:0002742f       __matherr                  4002842f f   LIBCMT:_matherr_.obj
 0001:00027432       __raise_exc_ex             40028432 f   LIBCMT:_fpexcept_.obj
 0001:0002770e       __raise_exc                4002870e f   LIBCMT:_fpexcept_.obj
 0001:00027731       __handle_exc               40028731 f   LIBCMT:_fpexcept_.obj
 0001:00027915       __set_errno_from_matherr   40028915 f   LIBCMT:_fpexcept_.obj
 0001:00027942       __errcode                  40028942 f   LIBCMT:_fpexcept_.obj
 0001:00027976       __umatherr                 40028976 f   LIBCMT:_fpexcept_.obj
 0001:00027a16       __handle_qnan1             40028a16 f   LIBCMT:_fpexcept_.obj
 0001:00027a6b       __except1                  40028a6b f   LIBCMT:_fpexcept_.obj
 0001:00027b35       __frnd                     40028b35 f   LIBCMT:_frnd_.obj
 0001:00027b49       __set_exp                  40028b49 f   LIBCMT:_util_.obj
 0001:00027b76       __sptype                   40028b76 f   LIBCMT:_util_.obj
 0001:00027bdc       __decomp                   40028bdc f   LIBCMT:_util_.obj
 0001:00027c9f       __statfp                   40028c9f f   LIBCMT:_fpctrl_.obj
 0001:00027caf       __clrfp                    40028caf f   LIBCMT:_fpctrl_.obj
 0001:00027cc0       __ctrlfp                   40028cc0 f   LIBCMT:_fpctrl_.obj
 0001:00027ceb       __set_statfp               40028ceb f   LIBCMT:_fpctrl_.obj
 0001:00027d43       ___set_fpsr_sse2           40028d43 f   LIBCMT:_fpctrl_.obj
 0001:00027db5       __lseeki64_nolock          40028db5 f   LIBCMT:lseeki64.obj
 0001:00027e3a       __lseeki64                 40028e3a f   LIBCMT:lseeki64.obj
 0001:00027f24       __write_nolock             40028f24 f   LIBCMT:write.obj
 0001:00028621       __write                    40029621 f   LIBCMT:write.obj
 0001:000286f5       __getbuf                   400296f5 f   LIBCMT:_getbuf.obj
 0001:0002873e       __isatty                   4002973e f   LIBCMT:isatty.obj
 0001:00028794       ___iob_func                40029794 f   LIBCMT:_file.obj
 0001:0002879a       ___initstdio               4002979a f   LIBCMT:_file.obj
 0001:0002884b       ___endstdio                4002984b f   LIBCMT:_file.obj
 0001:0002886b       __lock_file                4002986b f   LIBCMT:_file.obj
 0001:000288ac       __lock_file2               400298ac f   LIBCMT:_file.obj
 0001:000288de       __unlock_file              400298de f   LIBCMT:_file.obj
 0001:0002891a       __unlock_file2             4002991a f   LIBCMT:_file.obj
 0001:00028949       __fileno                   40029949 f   LIBCMT:fileno.obj
 0001:0002896f       __get_printf_count_output  4002996f f   LIBCMT:printf.obj
 0001:00028985       __wctomb_s_l               40029985 f   LIBCMT:wctomb.obj
 0001:00028ada       _wctomb_s                  40029ada f   LIBCMT:wctomb.obj
 0001:00028af7       __crt_debugger_hook        40029af7 f   LIBCMT:dbghook.obj
 0001:00028aff       __ld12tod                  40029aff f   LIBCMT:_intrncvt_.obj
 0001:00029050       __ld12tof                  4002a050 f   LIBCMT:_intrncvt_.obj
 0001:000295a1       ___report_gsfailure        4002a5a1 f   LIBCMT:gs_report.obj
 0001:000296a7       ___mtold12                 4002a6a7 f   LIBCMT:_mantold_.obj
 0001:0002988b       _abort                     4002a88b f   LIBCMT:abort.obj
 0001:000298be       __msize                    4002a8be f   LIBCMT:msize.obj
 0001:00029900       __local_unwind4            4002a900 f   LIBCMT:exsup4.obj
 0001:000299d6       __seh_longjmp_unwind4@4    4002a9d6 f   LIBCMT:exsup4.obj
 0001:000299f2       @_EH4_CallFilterFunc@8     4002a9f2 f   LIBCMT:exsup4.obj
 0001:00029a09       @_EH4_TransferToHandler@8  4002aa09 f   LIBCMT:exsup4.obj
 0001:00029a22       @_EH4_GlobalUnwind2@8      4002aa22 f   LIBCMT:exsup4.obj
 0001:00029a3b       @_EH4_LocalUnwind@16       4002aa3b f   LIBCMT:exsup4.obj
 0001:00029a52       ___crtMessageBoxW          4002aa52 f   LIBCMT:crtmboxw.obj
 0001:00029bbe       _wcscat_s                  4002abbe f   LIBCMT:wcscat_s.obj
 0001:00029c33       _wcsncpy_s                 4002ac33 f   LIBCMT:wcsncpy_s.obj
 0001:00029d00       _wcslen                    4002ad00 f   LIBCMT:wcslen.obj
 0001:00029d1b       _wcscpy_s                  4002ad1b f   LIBCMT:wcscpy_s.obj
 0001:00029d7e       __set_error_mode           4002ad7e f   LIBCMT:errmode.obj
 0001:00029dbd       __calloc_impl              4002adbd f   LIBCMT:calloc_impl.obj
 0001:00029e3f       _realloc                   4002ae3f f   LIBCMT:realloc.obj
 0001:00029f3f       __ismbblead                4002af3f f   LIBCMT:ismbbyte.obj
 0001:00029f57       _$I10_OUTPUT               4002af57 f   LIBCMT:_x10fout_.obj
 0001:0002a97d       __control87                4002b97d f i LIBCMT:_ieee87_.obj
 0001:0002ac8f       __free_osfhnd              4002bc8f f   LIBCMT:osfinfo.obj
 0001:0002ad15       __get_osfhandle            4002bd15 f   LIBCMT:osfinfo.obj
 0001:0002ad7e       ___lock_fhandle            4002bd7e f   LIBCMT:osfinfo.obj
 0001:0002ae1d       __unlock_fhandle           4002be1d f   LIBCMT:osfinfo.obj
 0001:0002ae44       __putwch_nolock            4002be44 f   LIBCMT:putwch.obj
 0001:0002ae86       __mbtowc_l                 4002be86 f   LIBCMT:mbtowc.obj
 0001:0002af9c       _mbtowc                    4002bf9c f   LIBCMT:mbtowc.obj
 0001:0002afb6       __fcloseall                4002bfb6 f   LIBCMT:closeall.obj
 0001:0002b052       __flush                    4002c052 f   LIBCMT:fflush.obj
 0001:0002b0ba       __fflush_nolock            4002c0ba f   LIBCMT:fflush.obj
 0001:0002b1dc       __flushall                 4002c1dc f   LIBCMT:fflush.obj
 0001:0002b1f0       __global_unwind2           4002c1f0 f   LIBCMT:exsup.obj
 0001:0002b255       __local_unwind2            4002c255 f   LIBCMT:exsup.obj
 0001:0002b2d9       __abnormal_termination     4002c2d9 f   LIBCMT:exsup.obj
 0001:0002b2fc       __NLG_Notify1              4002c2fc f   LIBCMT:exsup.obj
 0001:0002b305       __NLG_Notify               4002c305 f   LIBCMT:exsup.obj
 0001:0002b31c       __NLG_Dispatch2            4002c31c     LIBCMT:exsup.obj
 0001:0002b31c       __NLG_Dispatch             4002c31c     LIBCMT:exsup.obj
 0001:0002b324       __NLG_Call                 4002c324 f   LIBCMT:exsup.obj
 0001:0002b326       __NLG_Return2              4002c326     LIBCMT:exsup.obj
 0001:0002b330       ___ascii_strnicmp          4002c330 f   LIBCMT:_strnicm.obj
 0001:0002b391       ___initconout              4002c391 f   LIBCMT:initcon.obj
 0001:0002b3b0       ___termconout              4002c3b0 f   LIBCMT:initcon.obj
 0001:0002b3c7       __fclose_nolock            4002c3c7 f   LIBCMT:fclose.obj
 0001:0002b434       _fclose                    4002c434 f   LIBCMT:fclose.obj
 0001:0002b4a8       __commit                   4002c4a8 f   LIBCMT:commit.obj
 0001:0002b581       __close_nolock             4002c581 f   LIBCMT:close.obj
 0001:0002b61d       __close                    4002c61d f   LIBCMT:close.obj
 0001:0002b6e1       __freebuf                  4002c6e1 f   LIBCMT:_freebuf.obj
 0001:0002b712       _RtlUnwind@16              4002c712 f   kernel32:KERNEL32.dll
 0002:00000000       __imp__GetProcAddress@8    4002d000     kernel32:KERNEL32.dll
 0002:00000004       __imp__GetModuleHandleW@4  4002d004     kernel32:KERNEL32.dll
 0002:00000008       __imp__ExitProcess@4       4002d008     kernel32:KERNEL32.dll
 0002:0000000c       __imp__DecodePointer@4     4002d00c     kernel32:KERNEL32.dll
 0002:00000010       __imp__GetCurrentThreadId@0 4002d010     kernel32:KERNEL32.dll
 0002:00000014       __imp__GetCommandLineA@0   4002d014     kernel32:KERNEL32.dll
 0002:00000018       __imp__IsProcessorFeaturePresent@4 4002d018     kernel32:KERNEL32.dll
 0002:0000001c       __imp__EncodePointer@4     4002d01c     kernel32:KERNEL32.dll
 0002:00000020       __imp__TlsAlloc@0          4002d020     kernel32:KERNEL32.dll
 0002:00000024       __imp__TlsGetValue@4       4002d024     kernel32:KERNEL32.dll
 0002:00000028       __imp__TlsSetValue@8       4002d028     kernel32:KERNEL32.dll
 0002:0000002c       __imp__TlsFree@4           4002d02c     kernel32:KERNEL32.dll
 0002:00000030       __imp__InterlockedIncrement@4 4002d030     kernel32:KERNEL32.dll
 0002:00000034       __imp__SetLastError@4      4002d034     kernel32:KERNEL32.dll
 0002:00000038       __imp__GetLastError@0      4002d038     kernel32:KERNEL32.dll
 0002:0000003c       __imp__InterlockedDecrement@4 4002d03c     kernel32:KERNEL32.dll
 0002:00000040       __imp__GetCPInfo@8         4002d040     kernel32:KERNEL32.dll
 0002:00000044       __imp__GetACP@0            4002d044     kernel32:KERNEL32.dll
 0002:00000048       __imp__GetOEMCP@0          4002d048     kernel32:KERNEL32.dll
 0002:0000004c       __imp__IsValidCodePage@4   4002d04c     kernel32:KERNEL32.dll
 0002:00000050       __imp__WideCharToMultiByte@32 4002d050     kernel32:KERNEL32.dll
 0002:00000054       __imp__LCMapStringW@24     4002d054     kernel32:KERNEL32.dll
 0002:00000058       __imp__MultiByteToWideChar@24 4002d058     kernel32:KERNEL32.dll
 0002:0000005c       __imp__UnhandledExceptionFilter@4 4002d05c     kernel32:KERNEL32.dll
 0002:00000060       __imp__SetUnhandledExceptionFilter@4 4002d060     kernel32:KERNEL32.dll
 0002:00000064       __imp__IsDebuggerPresent@0 4002d064     kernel32:KERNEL32.dll
 0002:00000068       __imp__TerminateProcess@8  4002d068     kernel32:KERNEL32.dll
 0002:0000006c       __imp__GetCurrentProcess@0 4002d06c     kernel32:KERNEL32.dll
 0002:00000070       __imp__InitializeCriticalSectionAndSpinCount@8 4002d070     kernel32:KERNEL32.dll
 0002:00000074       __imp__DeleteCriticalSection@4 4002d074     kernel32:KERNEL32.dll
 0002:00000078       __imp__LeaveCriticalSection@4 4002d078     kernel32:KERNEL32.dll
 0002:0000007c       __imp__EnterCriticalSection@4 4002d07c     kernel32:KERNEL32.dll
 0002:00000080       __imp__LoadLibraryW@4      4002d080     kernel32:KERNEL32.dll
 0002:00000084       __imp__WriteFile@20        4002d084     kernel32:KERNEL32.dll
 0002:00000088       __imp__GetStdHandle@4      4002d088     kernel32:KERNEL32.dll
 0002:0000008c       __imp__GetModuleFileNameW@12 4002d08c     kernel32:KERNEL32.dll
 0002:00000090       __imp__HeapFree@12         4002d090     kernel32:KERNEL32.dll
 0002:00000094       __imp__Sleep@4             4002d094     kernel32:KERNEL32.dll
 0002:00000098       __imp__SetHandleCount@4    4002d098     kernel32:KERNEL32.dll
 0002:0000009c       __imp__GetFileType@4       4002d09c     kernel32:KERNEL32.dll
 0002:000000a0       __imp__GetStartupInfoW@4   4002d0a0     kernel32:KERNEL32.dll
 0002:000000a4       __imp__GetModuleFileNameA@12 4002d0a4     kernel32:KERNEL32.dll
 0002:000000a8       __imp__FreeEnvironmentStringsW@4 4002d0a8     kernel32:KERNEL32.dll
 0002:000000ac       __imp__GetEnvironmentStringsW@0 4002d0ac     kernel32:KERNEL32.dll
 0002:000000b0       __imp__HeapCreate@12       4002d0b0     kernel32:KERNEL32.dll
 0002:000000b4       __imp__HeapDestroy@4       4002d0b4     kernel32:KERNEL32.dll
 0002:000000b8       __imp__QueryPerformanceCounter@4 4002d0b8     kernel32:KERNEL32.dll
 0002:000000bc       __imp__GetTickCount@0      4002d0bc     kernel32:KERNEL32.dll
 0002:000000c0       __imp__GetCurrentProcessId@0 4002d0c0     kernel32:KERNEL32.dll
 0002:000000c4       __imp__GetSystemTimeAsFileTime@4 4002d0c4     kernel32:KERNEL32.dll
 0002:000000c8       __imp__GetStringTypeW@16   4002d0c8     kernel32:KERNEL32.dll
 0002:000000cc       __imp__HeapAlloc@12        4002d0cc     kernel32:KERNEL32.dll
 0002:000000d0       __imp__RaiseException@16   4002d0d0     kernel32:KERNEL32.dll
 0002:000000d4       __imp__SetFilePointer@16   4002d0d4     kernel32:KERNEL32.dll
 0002:000000d8       __imp__GetConsoleCP@0      4002d0d8     kernel32:KERNEL32.dll
 0002:000000dc       __imp__GetConsoleMode@8    4002d0dc     kernel32:KERNEL32.dll
 0002:000000e0       __imp__HeapSize@12         4002d0e0     kernel32:KERNEL32.dll
 0002:000000e4       __imp__RtlUnwind@16        4002d0e4     kernel32:KERNEL32.dll
 0002:000000e8       __imp__HeapReAlloc@16      4002d0e8     kernel32:KERNEL32.dll
 0002:000000ec       __imp__SetStdHandle@8      4002d0ec     kernel32:KERNEL32.dll
 0002:000000f0       __imp__WriteConsoleW@20    4002d0f0     kernel32:KERNEL32.dll
 0002:000000f4       __imp__CreateFileW@28      4002d0f4     kernel32:KERNEL32.dll
 0002:000000f8       __imp__CloseHandle@4       4002d0f8     kernel32:KERNEL32.dll
 0002:000000fc       __imp__FlushFileBuffers@4  4002d0fc     kernel32:KERNEL32.dll
 0002:00000100       \177KERNEL32_NULL_THUNK_DATA 4002d100     kernel32:KERNEL32.dll
 0002:00000104       ___xc_a                    4002d104     LIBCMT:crt0init.obj
 0002:00000108       ___xc_z                    4002d108     LIBCMT:crt0init.obj
 0002:0000010c       ___xi_a                    4002d10c     LIBCMT:crt0init.obj
 0002:00000124       ___xi_z                    4002d124     LIBCMT:crt0init.obj
 0002:00000128       ___xp_a                    4002d128     LIBCMT:crt0init.obj
 0002:00000134       ___xp_z                    4002d134     LIBCMT:crt0init.obj
 0002:00000138       ___xt_a                    4002d138     LIBCMT:crt0init.obj
 0002:0000013c       ___xt_z                    4002d13c     LIBCMT:crt0init.obj
 0002:00000140       ??_C@_06LLKHDPKL@events?$AA@ 4002d140     bg_animation.obj
 0002:00000148       ??_C@_0N@EHJNOHAA@statechanges?$AA@ 4002d148     bg_animation.obj
 0002:00000158       ??_C@_0BC@LGKLMCNI@canned_animations?$AA@ 4002d158     bg_animation.obj
 0002:0000016c       ??_C@_0L@HNGMIHEN@animations?$AA@ 4002d16c     bg_animation.obj
 0002:00000178       ??_C@_07MMIKLHCA@defines?$AA@ 4002d178     bg_animation.obj
 0002:00000180       ??_C@_07CMODMDGJ@AISTATE?$AA@ 4002d180     bg_animation.obj
 0002:00000188       ??_C@_0M@KPHDKAHE@GEN_BITFLAG?$AA@ 4002d188     bg_animation.obj
 0002:00000194       ??_C@_0O@JKDLABHB@FLAILING_TYPE?$AA@ 4002d194     bg_animation.obj
 0002:000001a4       ??_C@_0N@KMEIFE@HEALTH_LEVEL?$AA@ 4002d1a4     bg_animation.obj
 0002:000001b4       ??_C@_0M@NGLGCLLM@PLAYERCLASS?$AA@ 4002d1b4     bg_animation.obj
 0002:000001c0       ??_C@_08GOFIDABM@CHARGING?$AA@ 4002d1c0     bg_animation.obj
 0002:000001cc       ??_C@_09GCNACFAF@PARACHUTE?$AA@ 4002d1cc     bg_animation.obj
 0002:000001d8       ??_C@_0L@ILMKFMCE@ENEMY_TEAM?$AA@ 4002d1d8     bg_animation.obj
 0002:000001e4       ??_C@_0P@GHDHBNEG@SHORT_REACTION?$AA@ 4002d1e4     bg_animation.obj
 0002:000001f4       ??_C@_06MOMMJHC@FIRING?$AA@ 4002d1f4     bg_animation.obj
 0002:000001fc       ??_C@_07LEOBIMFP@STUNNED?$AA@ 4002d1fc     bg_animation.obj
 0002:00000204       ??_C@_09HGGDFBHO@CROUCHING?$AA@ 4002d204     bg_animation.obj
 0002:00000210       ??_C@_0N@BKJFJGHI@IMPACT_POINT?$AA@ 4002d210     bg_animation.obj
 0002:00000220       ??_C@_07PCDLPMLE@LEANING?$AA@ 4002d220     bg_animation.obj
 0002:00000228       ??_C@_09KIADLDO@UNDERHAND?$AA@ 4002d228     bg_animation.obj
 0002:00000234       ??_C@_08EDCCCEMB@MOVETYPE?$AA@ 4002d234     bg_animation.obj
 0002:00000240       ??_C@_07IHKNNAIJ@MOUNTED?$AA@ 4002d240     bg_animation.obj
 0002:00000248       ??_C@_0L@IFAAMPME@UNDERWATER?$AA@ 4002d248     bg_animation.obj
 0002:00000254       ??_C@_0N@BFJCEKBK@ENEMY_WEAPON?$AA@ 4002d254     bg_animation.obj
 0002:00000264       ??_C@_0P@JIMGNOCO@ENEMY_POSITION?$AA@ 4002d264     bg_animation.obj
 0002:00000274       ??_C@_07HPPHAKD@WEAPONS?$AA@ 4002d274     bg_animation.obj
 0002:0000027c       ??_C@_09FPCBOPNI@COVERTOPS?$AA@ 4002d27c     bg_animation.obj
 0002:00000288       ??_C@_08HPCLEOBG@FIELDOPS?$AA@ 4002d288     bg_animation.obj
 0002:00000294       ??_C@_08KNMKFDEP@ENGINEER?$AA@ 4002d294     bg_animation.obj
 0002:000002a0       ??_C@_05NNIBPFDE@MEDIC?$AA@ 4002d2a0     bg_animation.obj
 0002:000002a8       ??_C@_07DOBOICPH@SOLDIER?$AA@ 4002d2a8     bg_animation.obj
 0002:000002b0       ??_C@_07CECPKGHP@HOLDING?$AA@ 4002d2b0     bg_animation.obj
 0002:000002b8       ??_C@_07JBDFIAPG@ZOOMING?$AA@ 4002d2b8     bg_animation.obj
 0002:000002c0       ??_C@_06KLJKJFEK@HCRASH?$AA@ 4002d2c0     bg_animation.obj
 0002:000002c8       ??_C@_06JMHLHCNJ@VCRASH?$AA@ 4002d2c8     bg_animation.obj
 0002:000002d0       ??_C@_05FFMHFFBB@INAIR?$AA@ 4002d2d0     bg_animation.obj
 0002:000002d8       ??_C@_01EKENIIDA@3?$AA@    4002d2d8     bg_animation.obj
 0002:000002dc       ??_C@_01FDFGLJHB@2?$AA@    4002d2dc     bg_animation.obj
 0002:000002e0       ??_C@_01HIHLOKLC@1?$AA@    4002d2e0     bg_animation.obj
 0002:000002e4       ??_C@_07GNLJHKAP@NEUTRAL?$AA@ 4002d2e4     bg_animation.obj
 0002:000002ec       ??_C@_06LFMMNBFA@SPARE4?$AA@ 4002d2ec     bg_animation.obj
 0002:000002f4       ??_C@_06PKINEHJH@SPARE3?$AA@ 4002d2f4     bg_animation.obj
 0002:000002fc       ??_C@_06ODJGHGNG@SPARE2?$AA@ 4002d2fc     bg_animation.obj
 0002:00000304       ??_C@_06MILLCFBF@SPARE1?$AA@ 4002d304     bg_animation.obj
 0002:0000030c       ??_C@_07GKFEMEDF@MONSTER?$AA@ 4002d30c     bg_animation.obj
 0002:00000314       ??_C@_06GEKNHHBI@ALLIES?$AA@ 4002d314     bg_animation.obj
 0002:0000031c       ??_C@_04LNCGIOLI@NAZI?$AA@ 4002d31c     bg_animation.obj
 0002:00000324       ??_C@_09HNOAOLFL@KNEE_LEFT?$AA@ 4002d324     bg_animation.obj
 0002:00000330       ??_C@_0L@HDLPEDFM@KNEE_RIGHT?$AA@ 4002d330     bg_animation.obj
 0002:0000033c       ??_C@_0O@GNKADMCK@SHOULDER_LEFT?$AA@ 4002d33c     bg_animation.obj
 0002:0000034c       ??_C@_0P@FEKNECCB@SHOULDER_RIGHT?$AA@ 4002d34c     bg_animation.obj
 0002:0000035c       ??_C@_05MMHFGEIM@GROIN?$AA@ 4002d35c     bg_animation.obj
 0002:00000364       ??_C@_03GMNIDEGM@GUT?$AA@  4002d364     bg_animation.obj
 0002:00000368       ??_C@_05LDJFJFKA@CHEST?$AA@ 4002d368     bg_animation.obj
 0002:00000370       ??_C@_04BINJNOJD@HEAD?$AA@ 4002d370     bg_animation.obj
 0002:00000378       ??_C@_04FBGPONKD@MG42?$AA@ 4002d378     bg_animation.obj
 0002:00000380       ??_C@_04KCNEHMIH@LEFT?$AA@ 4002d380     bg_animation.obj
 0002:00000388       ??_C@_05PMAFOJDE@RIGHT?$AA@ 4002d388     bg_animation.obj
 0002:00000390       ??_C@_07EEENPCFP@INFRONT?$AA@ 4002d390     bg_animation.obj
 0002:00000398       ??_C@_06IOBMPBPK@BEHIND?$AA@ 4002d398     bg_animation.obj
 0002:000003a0       ??_C@_04ILIMAIMB@BOTH?$AA@ 4002d3a0     bg_animation.obj
 0002:000003a8       ??_C@_05HLJONPCP@TORSO?$AA@ 4002d3a8     bg_animation.obj
 0002:000003b0       ??_C@_04OMFHIAHH@LEGS?$AA@ 4002d3b0     bg_animation.obj
 0002:000003b8       ??_C@_0BB@HABODNHA@FIREWEAPON3PRONE?$AA@ 4002d3b8     bg_animation.obj
 0002:000003cc       ??_C@_0M@CHEKCHEF@FIREWEAPON3?$AA@ 4002d3cc     bg_animation.obj
 0002:000003d8       ??_C@_05GPAALKEH@RAISE?$AA@ 4002d3d8     bg_animation.obj
 0002:000003e0       ??_C@_0BD@OOFDCPAE@RELOADPRONE_SG_END?$AA@ 4002d3e0     bg_animation.obj
 0002:000003f4       ??_C@_0BE@EMBCAJH@RELOADPRONE_SG_LOOP?$AA@ 4002d3f4     bg_animation.obj
 0002:00000408       ??_C@_0BF@KGGMGMIN@RELOADPRONE_SG_BEGIN?$AA@ 4002d408     bg_animation.obj
 0002:00000420       ??_C@_0O@LOKCHADH@RELOAD_SG_END?$AA@ 4002d420     bg_animation.obj
 0002:00000430       ??_C@_0P@LLEBLANO@RELOAD_SG_LOOP?$AA@ 4002d430     bg_animation.obj
 0002:00000440       ??_C@_0BA@KJNDBFCJ@RELOAD_SG_BEGIN?$AA@ 4002d440     bg_animation.obj
 0002:00000450       ??_C@_0BC@IHKJANIM@DEATH_FROM_BEHIND?$AA@ 4002d450     bg_animation.obj
 0002:00000464       ??_C@_06DDMBHNJG@SALUTE?$AA@ 4002d464     bg_animation.obj
 0002:0000046c       ??_C@_07GKKCHFFA@NOPOWER?$AA@ 4002d46c     bg_animation.obj
 0002:00000474       ??_C@_0M@FJILDHPC@RELOADPRONE?$AA@ 4002d474     bg_animation.obj
 0002:00000480       ??_C@_0BB@BNBDJHJF@RAISEWEAPONPRONE?$AA@ 4002d480     bg_animation.obj
 0002:00000494       ??_C@_0BB@NGGJDGME@FIREWEAPON2PRONE?$AA@ 4002d494     bg_animation.obj
 0002:000004a8       ??_C@_0BA@MGJKFIDA@FIREWEAPONPRONE?$AA@ 4002d4a8     bg_animation.obj
 0002:000004b8       ??_C@_0BL@CEMEHHOJ@UNDO_ALT_WEAPON_MODE_PRONE?$AA@ 4002d4b8     bg_animation.obj
 0002:000004d4       ??_C@_0BJ@IKEGMMLP@DO_ALT_WEAPON_MODE_PRONE?$AA@ 4002d4d4     bg_animation.obj
 0002:000004f0       ??_C@_0BF@LHJBOFNN@UNDO_ALT_WEAPON_MODE?$AA@ 4002d4f0     bg_animation.obj
 0002:00000508       ??_C@_0BD@DCLLNKHA@DO_ALT_WEAPON_MODE?$AA@ 4002d508     bg_animation.obj
 0002:0000051c       ??_C@_0BA@ILLJBFHJ@PRONE_TO_CROUCH?$AA@ 4002d51c     bg_animation.obj
 0002:0000052c       ??_C@_04JHINAIJO@DIVE?$AA@ 4002d52c     bg_animation.obj
 0002:00000534       ??_C@_06DNDMIHFO@REVIVE?$AA@ 4002d534     bg_animation.obj
 0002:0000053c       ??_C@_04JBLDNDFK@KICK?$AA@ 4002d53c     bg_animation.obj
 0002:00000544       ??_C@_06DCHFNDBF@RELOAD?$AA@ 4002d544     bg_animation.obj
 0002:0000054c       ??_C@_0O@IIAGBLJB@CLIMBDISMOUNT?$AA@ 4002d54c     bg_animation.obj
 0002:0000055c       ??_C@_0L@HNAMMBMD@CLIMBMOUNT?$AA@ 4002d55c     bg_animation.obj
 0002:00000568       ??_C@_0M@JOEDMLH@RAISEWEAPON?$AA@ 4002d568     bg_animation.obj
 0002:00000574       ??_C@_0L@BJEANHNA@DROPWEAPON?$AA@ 4002d574     bg_animation.obj
 0002:00000580       ??_C@_04GJGHKIDJ@LAND?$AA@ 4002d580     bg_animation.obj
 0002:00000588       ??_C@_06NFFGMPMI@JUMPBK?$AA@ 4002d588     bg_animation.obj
 0002:00000590       ??_C@_04BFLEPEFN@JUMP?$AA@ 4002d590     bg_animation.obj
 0002:00000598       ??_C@_0M@DOFBBGAE@FIREWEAPON2?$AA@ 4002d598     bg_animation.obj
 0002:000005a4       ??_C@_0L@PHLGIOGH@FIREWEAPON?$AA@ 4002d5a4     bg_animation.obj
 0002:000005b0       ??_C@_05DKFKLNCG@DEATH?$AA@ 4002d5b0     bg_animation.obj
 0002:000005b8       ??_C@_04DDNHCMLF@PAIN?$AA@ 4002d5b8     bg_animation.obj
 0002:000005c0       ??_C@_04NNCJDDJC@DEAD?$AA@ 4002d5c0     bg_animation.obj
 0002:000005c8       ??_C@_0L@LIBNAPII@RADIOPRONE?$AA@ 4002d5c8     bg_animation.obj
 0002:000005d4       ??_C@_07JHKOJMIG@RADIOCR?$AA@ 4002d5d4     bg_animation.obj
 0002:000005dc       ??_C@_05HGDEKMLG@RADIO?$AA@ 4002d5dc     bg_animation.obj
 0002:000005e4       ??_C@_0O@KEEMELMC@RESUSCITATION?$AA@ 4002d5e4     bg_animation.obj
 0002:000005f4       ??_C@_08LOEELIOA@FLAILING?$AA@ 4002d5f4     bg_animation.obj
 0002:00000600       ??_C@_09OPIFKDCJ@IDLEPRONE?$AA@ 4002d600     bg_animation.obj
 0002:0000060c       ??_C@_07KOCFBCDA@PRONEBK?$AA@ 4002d60c     bg_animation.obj
 0002:00000614       ??_C@_05DEBNJJOB@PRONE?$AA@ 4002d614     bg_animation.obj
 0002:0000061c       ??_C@_06NFCGMGGG@FALLEN?$AA@ 4002d61c     bg_animation.obj
 0002:00000624       ??_C@_09GJMNFBHN@CLIMBDOWN?$AA@ 4002d624     bg_animation.obj
 0002:00000630       ??_C@_07NHIBBMHA@CLIMBUP?$AA@ 4002d630     bg_animation.obj
 0002:00000638       ??_C@_08DBJPOBGO@TURNLEFT?$AA@ 4002d638     bg_animation.obj
 0002:00000644       ??_C@_09CFEAPIHF@TURNRIGHT?$AA@ 4002d644     bg_animation.obj
 0002:00000650       ??_C@_0L@JPAPNHHO@STRAFELEFT?$AA@ 4002d650     bg_animation.obj
 0002:0000065c       ??_C@_0M@DIFJHICH@STRAFERIGHT?$AA@ 4002d65c     bg_animation.obj
 0002:00000668       ??_C@_06DNCLJOFM@SWIMBK?$AA@ 4002d668     bg_animation.obj
 0002:00000670       ??_C@_04CKCIANOF@SWIM?$AA@ 4002d670     bg_animation.obj
 0002:00000678       ??_C@_05OENAFHHF@RUNBK?$AA@ 4002d678     bg_animation.obj
 0002:00000680       ??_C@_03LLDCGJBK@RUN?$AA@  4002d680     bg_animation.obj
 0002:00000684       ??_C@_08BCACMKOP@WALKCRBK?$AA@ 4002d684     bg_animation.obj
 0002:00000690       ??_C@_06GLKCEIEK@WALKCR?$AA@ 4002d690     bg_animation.obj
 0002:00000698       ??_C@_06PBGAILGF@WALKBK?$AA@ 4002d698     bg_animation.obj
 0002:000006a0       ??_C@_04PKELMGAL@WALK?$AA@ 4002d6a0     bg_animation.obj
 0002:000006a8       ??_C@_06OMFBEJFJ@IDLECR?$AA@ 4002d6a8     bg_animation.obj
 0002:000006b0       ??_C@_04IMMGDCFE@IDLE?$AA@ 4002d6b0     bg_animation.obj
 0002:000006b8       ??_C@_0N@EDMDHGIH@?$CK?$CK?5UNUSED?5?$CK?$CK?$AA@ 4002d6b8     bg_animation.obj
 0002:000006c8       ??_C@_06NHIPIEDF@COMBAT?$AA@ 4002d6c8     bg_animation.obj
 0002:000006d0       ??_C@_05KBPPIFM@ALERT?$AA@ 4002d6d0     bg_animation.obj
 0002:000006d8       ??_C@_05NBJHHBHJ@QUERY?$AA@ 4002d6d8     bg_animation.obj
 0002:000006e0       ??_C@_07GKBJNHHK@RELAXED?$AA@ 4002d6e0     bg_animation.obj
 0002:000006e8       ??_C@_02DKCKIIND@?$CFs?$AA@ 4002d6e8     bg_animation.obj
 0002:000006ec       ??_C@_01CLKCMJKC@?5?$AA@   4002d6ec     bg_animation.obj
 0002:000006f0       ??_C@_04CGFJFPFD@none?$AA@ 4002d6f0     bg_animation.obj
 0002:000006f8       ??_C@_01CELHOKLL@?$HN?$AA@ 4002d6f8     bg_animation.obj
 0002:000006fc       ??_C@_01HCONENDN@?$HL?$AA@ 4002d6fc     bg_animation.obj
 0002:00000700       __real@00000000            4002d700     bg_animation.obj
 0002:00000704       ??_C@_0BK@OKFEFFGN@?$FO1ERROR?3?5?$CFs?0?5line?5?$CFd?3?5?$CFs?6?$AA@ 4002d704     bg_animgroup.obj
 0002:00000720       __real@408f400000000000    4002d720     bg_animgroup.obj
 0002:00000728       ??_C@_0EF@ONHLMGCC@?$FO1WARNING?3?5BG_LoadCampaignSave?3?5@ 4002d728     bg_campaign.obj
 0002:00000770       ??_C@_0DC@BKHMNABP@?$FO1ERROR?3?5BG_LoadCampaignSave?3?5no@ 4002d770     bg_campaign.obj
 0002:000007a4       ??_C@_0BJ@MEABGLAC@ui?1assets?1mp_spy_red?4tga?$AA@ 4002d7a4     bg_classes.obj
 0002:000007c0       ??_C@_0CF@LADOJIJE@characters?1temperate?1axis?1cvops?4@ 4002d7c0     bg_classes.obj
 0002:000007e8       ??_C@_0BK@JLOKNMIC@ui?1assets?1mp_ammo_red?4tga?$AA@ 4002d7e8     bg_classes.obj
 0002:00000804       ??_C@_0CI@EJJKLOOH@characters?1temperate?1axis?1fieldo@ 4002d804     bg_classes.obj
 0002:0000082c       ??_C@_0BM@EEHPCACN@ui?1assets?1mp_wrench_red?4tga?$AA@ 4002d82c     bg_classes.obj
 0002:00000848       ??_C@_0CI@MFMEIBBF@characters?1temperate?1axis?1engine@ 4002d848     bg_classes.obj
 0002:00000870       ??_C@_0BM@PMKFMPBC@ui?1assets?1mp_health_red?4tga?$AA@ 4002d870     bg_classes.obj
 0002:0000088c       ??_C@_0CF@KIKOKBGK@characters?1temperate?1axis?1medic?4@ 4002d88c     bg_classes.obj
 0002:000008b4       ??_C@_0BL@PHEMDMKB@ui?1assets?1mp_arrow_red?4tga?$AA@ 4002d8b4     bg_classes.obj
 0002:000008d0       ??_C@_0BJ@HPDKILFC@ui?1assets?1mp_gun_red?4tga?$AA@ 4002d8d0     bg_classes.obj
 0002:000008ec       ??_C@_0CH@DNCBOENF@characters?1temperate?1axis?1soldie@ 4002d8ec     bg_classes.obj
 0002:00000914       ??_C@_0BK@LBBHFNIH@ui?1assets?1mp_spy_blue?4tga?$AA@ 4002d914     bg_classes.obj
 0002:00000930       ??_C@_0CH@DLEALHFC@characters?1temperate?1allied?1cvop@ 4002d930     bg_classes.obj
 0002:00000958       ??_C@_0BL@FMPADFBA@ui?1assets?1mp_ammo_blue?4tga?$AA@ 4002d958     bg_classes.obj
 0002:00000974       ??_C@_0CK@HJBJDAMI@characters?1temperate?1allied?1fiel@ 4002d974     bg_classes.obj
 0002:000009a0       ??_C@_0BN@BKEGBOJF@ui?1assets?1mp_wrench_blue?4tga?$AA@ 4002d9a0     bg_classes.obj
 0002:000009c0       ??_C@_0CK@PFEHAPDK@characters?1temperate?1allied?1engi@ 4002d9c0     bg_classes.obj
 0002:000009ec       ??_C@_0BN@KMJIOJEH@ui?1assets?1mp_health_blue?4tga?$AA@ 4002d9ec     bg_classes.obj
 0002:00000a0c       ??_C@_0CH@CDNAIOKM@characters?1temperate?1allied?1medi@ 4002da0c     bg_classes.obj
 0002:00000a34       ??_C@_0BM@POPLOCIC@ui?1assets?1mp_arrow_blue?4tga?$AA@ 4002da34     bg_classes.obj
 0002:00000a50       ??_C@_0BK@NKMHDHJD@ui?1assets?1mp_gun_blue?4tga?$AA@ 4002da50     bg_classes.obj
 0002:00000a6c       ??_C@_0CJ@LFACCDK@characters?1temperate?1allied?1sold@ 4002da6c     bg_classes.obj
 0002:00000a98       ??_C@_0L@FJJNNBFP@Covert?5Ops?$AA@ 4002da98     bg_classes.obj
 0002:00000aa4       ??_C@_05EBJGJMAL@brown?$AA@ 4002daa4     bg_misc.obj
 0002:00000aac       ??_C@_05BIMBDNDC@black?$AA@ 4002daac     bg_misc.obj
 0002:00000ab4       ??_C@_06CFJMLPNA@dkgrey?$AA@ 4002dab4     bg_misc.obj
 0002:00000abc       ??_C@_06EBFCEING@mdgrey?$AA@ 4002dabc     bg_misc.obj
 0002:00000ac4       ??_C@_06OEPDEBPJ@ltgrey?$AA@ 4002dac4     bg_misc.obj
 0002:00000acc       ??_C@_06MDCFBJCH@mdblue?$AA@ 4002dacc     bg_misc.obj
 0002:00000ad4       ??_C@_08PBNGCPKP@mdorange?$AA@ 4002dad4     bg_misc.obj
 0002:00000ae0       ??_C@_08MPHFJJCJ@mdyellow?$AA@ 4002dae0     bg_misc.obj
 0002:00000aec       ??_C@_06GBFJEFFN@mdcyan?$AA@ 4002daec     bg_misc.obj
 0002:00000af4       ??_C@_07GILEFCFG@dkgreen?$AA@ 4002daf4     bg_misc.obj
 0002:00000afc       ??_C@_07IBLDDJJE@mdgreen?$AA@ 4002dafc     bg_misc.obj
 0002:00000b04       ??_C@_05BIFOFMCK@mdred?$AA@ 4002db04     bg_misc.obj
 0002:00000b0c       ??_C@_06HDDOCMMN@orange?$AA@ 4002db0c     bg_misc.obj
 0002:00000b14       ??_C@_04EDBDANFH@cyan?$AA@ 4002db14     bg_misc.obj
 0002:00000b1c       ??_C@_07EMDGAPCI@magenta?$AA@ 4002db1c     bg_misc.obj
 0002:00000b24       ??_C@_06ENJNJKEL@yellow?$AA@ 4002db24     bg_misc.obj
 0002:00000b2c       ??_C@_04OBGPFBCN@blue?$AA@ 4002db2c     bg_misc.obj
 0002:00000b34       ??_C@_05GBEEJKMC@green?$AA@ 4002db34     bg_misc.obj
 0002:00000b3c       ??_C@_03FAAAOPJM@red?$AA@  4002db3c     bg_misc.obj
 0002:00000b40       ??_C@_05PMAELIEO@white?$AA@ 4002db40     bg_misc.obj
 0002:00000b48       ??_C@_04PIJKLOJC@JOHN?$AA@ 4002db48     bg_misc.obj
 0002:00000b50       ??_C@_09LPNOPLMG@Foot?5Kick?$AA@ 4002db50     bg_misc.obj
 0002:00000b5c       ??_C@_04IIAILPMN@FOOT?$AA@ 4002db5c     bg_misc.obj
 0002:00000b64       ??_C@_06ONLJKEMD@Poison?$AA@ 4002db64     bg_misc.obj
 0002:00000b6c       ??_C@_04CMGEDHJK@POIS?$AA@ 4002db6c     bg_misc.obj
 0002:00000b74       ??_C@_04BNJHALAE@VENM?$AA@ 4002db74     bg_misc.obj
 0002:00000b7c       ??_C@_04MMOJLDFH@BAZ?5?$AA@ 4002db7c     bg_misc.obj
 0002:00000b84       ??_C@_04MCPKOCOP@BAR?5?$AA@ 4002db84     bg_misc.obj
 0002:00000b8c       ??_C@_06DCLEAJKA@StG?544?$AA@ 4002db8c     bg_misc.obj
 0002:00000b94       ??_C@_04MKPLCFAD@MP44?$AA@ 4002db94     bg_misc.obj
 0002:00000b9c       ??_C@_0M@OPPJBMIL@Browning?5MG?$AA@ 4002db9c     bg_misc.obj
 0002:00000ba8       ??_C@_04LPNGLNOK@BRNG?$AA@ 4002dba8     bg_misc.obj
 0002:00000bb0       ??_C@_04LNNPJPIG@SHOT?$AA@ 4002dbb0     bg_misc.obj
 0002:00000bb8       ??_C@_04JDKPDOCF@K?943?$AA@ 4002dbb8     bg_misc.obj
 0002:00000bc0       ??_C@_04PBGECLLG@GARN?$AA@ 4002dbc0     bg_misc.obj
 0002:00000bc8       ??_C@_09NEGJIGCF@MG?942?5Gun?$AA@ 4002dbc8     bg_misc.obj
 0002:00000bd4       ??_C@_04MJKNOOLM@LNMN?$AA@ 4002dbd4     bg_misc.obj
 0002:00000bdc       ??_C@_09HGGAMOMN@G?4Launchr?$AA@ 4002dbdc     bg_misc.obj
 0002:00000be8       ??_C@_04KFHAFNLN@GRLN?$AA@ 4002dbe8     bg_misc.obj
 0002:00000bf0       ??_C@_07FLFCCDCE@Satchel?$AA@ 4002dbf0     bg_misc.obj
 0002:00000bf8       ??_C@_04EIHNNDJI@STCH?$AA@ 4002dbf8     bg_misc.obj
 0002:00000c00       ??_C@_04DNIGNOED@ARTY?$AA@ 4002dc00     bg_misc.obj
 0002:00000c08       ??_C@_09KHLPGPGB@Airstrike?$AA@ 4002dc08     bg_misc.obj
 0002:00000c14       ??_C@_04INGHLGIL@ARST?$AA@ 4002dc14     bg_misc.obj
 0002:00000c1c       ??_C@_08FNEIIMLN@Dynamite?$AA@ 4002dc1c     bg_misc.obj
 0002:00000c28       ??_C@_04LBMNGIMN@DYNA?$AA@ 4002dc28     bg_misc.obj
 0002:00000c30       ??_C@_04BLICOKIJ@MRTR?$AA@ 4002dc30     bg_misc.obj
 0002:00000c38       ??_C@_04FMBLGBFJ@GRND?$AA@ 4002dc38     bg_misc.obj
 0002:00000c40       ??_C@_09FEKCIACN@F?4Thrower?$AA@ 4002dc40     bg_misc.obj
 0002:00000c4c       ??_C@_04LCDJEDB@FLAM?$AA@  4002dc4c     bg_misc.obj
 0002:00000c54       ??_C@_06PDHLIOKC@Panzer?$AA@ 4002dc54     bg_misc.obj
 0002:00000c5c       ??_C@_04JDKDHMJH@PNZR?$AA@ 4002dc5c     bg_misc.obj
 0002:00000c64       ??_C@_05OBKFFNKK@FG?942?$AA@ 4002dc64     bg_misc.obj
 0002:00000c6c       ??_C@_04CGLPNMLC@FG42?$AA@ 4002dc6c     bg_misc.obj
 0002:00000c74       ??_C@_04BKKKAIKM@STEN?$AA@ 4002dc74     bg_misc.obj
 0002:00000c7c       ??_C@_04GABKMBCO@TMPS?$AA@ 4002dc7c     bg_misc.obj
 0002:00000c84       ??_C@_05GLJEIEHJ@MP?940?$AA@ 4002dc84     bg_misc.obj
 0002:00000c8c       ??_C@_04ECKOIOOE@COLT?$AA@ 4002dc8c     bg_misc.obj
 0002:00000c94       ??_C@_04KFFFOGKJ@LUGR?$AA@ 4002dc94     bg_misc.obj
 0002:00000c9c       ??_C@_04LEFNBAHI@KNIF?$AA@ 4002dc9c     bg_misc.obj
 0002:00000ca4       ??_C@_0BG@BFOKKGJA@vote_allow_maprestart?$AA@ 4002dca4     bg_misc.obj
 0002:00000cbc       ??_C@_0BA@IONFABE@vote_allow_poll?$AA@ 4002dcbc     bg_misc.obj
 0002:00000ccc       ??_C@_0BI@DHIOBPN@vote_allow_nextcampaign?$AA@ 4002dccc     bg_misc.obj
 0002:00000ce4       ??_C@_0BL@KHEHEHLP@vote_allow_restartcampaign?$AA@ 4002dce4     bg_misc.obj
 0002:00000d00       ??_C@_0BF@CCONGFFD@vote_allow_surrender?$AA@ 4002dd00     bg_misc.obj
 0002:00000d18       ??_C@_0BC@OODKGFIE@vote_allow_muting?$AA@ 4002dd18     bg_misc.obj
 0002:00000d2c       ??_C@_0BJ@NHFEAGDG@vote_allow_balancedteams?$AA@ 4002dd2c     bg_misc.obj
 0002:00000d48       ??_C@_0BD@FMHFOJHO@vote_allow_antilag?$AA@ 4002dd48     bg_misc.obj
 0002:00000d5c       ??_C@_0BI@NLJBAGJA@vote_allow_warmupdamage?$AA@ 4002dd5c     bg_misc.obj
 0002:00000d74       ??_C@_0BF@DKEANCDI@vote_allow_timelimit?$AA@ 4002dd74     bg_misc.obj
 0002:00000d8c       ??_C@_0BI@PFABBADB@vote_allow_friendlyfire?$AA@ 4002dd8c     bg_misc.obj
 0002:00000da4       ??_C@_0BF@PGDMBKNA@vote_allow_swapteams?$AA@ 4002dda4     bg_misc.obj
 0002:00000dbc       ??_C@_0CE@CJDEKLPI@vote_allow_shuffleteamsxp_norest@ 4002ddbc     bg_misc.obj
 0002:00000de0       ??_C@_0BK@OALPDKPA@vote_allow_shuffleteamsxp?$AA@ 4002dde0     bg_misc.obj
 0002:00000dfc       ??_C@_0BD@KCFBCPCP@vote_allow_referee?$AA@ 4002ddfc     bg_misc.obj
 0002:00000e10       ??_C@_0P@ELFLBPBG@vote_allow_pub?$AA@ 4002de10     bg_misc.obj
 0002:00000e20       ??_C@_0BD@NFNPNPJD@vote_allow_nextmap?$AA@ 4002de20     bg_misc.obj
 0002:00000e34       ??_C@_0BF@NAOJJNDM@vote_allow_mutespecs?$AA@ 4002de34     bg_misc.obj
 0002:00000e4c       ??_C@_0BG@OMGFOAJP@vote_allow_matchreset?$AA@ 4002de4c     bg_misc.obj
 0002:00000e64       ??_C@_0P@IKPDOLCL@vote_allow_map?$AA@ 4002de64     bg_misc.obj
 0002:00000e74       ??_C@_0BA@HOKLHIKB@vote_allow_kick?$AA@ 4002de74     bg_misc.obj
 0002:00000e84       ??_C@_0BE@FMIBNCLG@vote_allow_gametype?$AA@ 4002de84     bg_misc.obj
 0002:00000e98       ??_C@_0BA@MIBIIKCM@vote_allow_comp?$AA@ 4002de98     bg_misc.obj
 0002:00000ea8       ??_C@_07CKBMEGKL@Foxtrot?$AA@ 4002dea8     bg_misc.obj
 0002:00000eb0       ??_C@_04CEPMGKMG@Echo?$AA@ 4002deb0     bg_misc.obj
 0002:00000eb8       ??_C@_05NFMIDMMK@Delta?$AA@ 4002deb8     bg_misc.obj
 0002:00000ec0       ??_C@_07OLFAKPLM@Charlie?$AA@ 4002dec0     bg_misc.obj
 0002:00000ec8       ??_C@_05LODMLFHI@Bravo?$AA@ 4002dec8     bg_misc.obj
 0002:00000ed0       ??_C@_05IHOGHNDL@Alpha?$AA@ 4002ded0     bg_misc.obj
 0002:00000ed8       ??_C@_03HCJBLCDO@GoA?$AA@  4002ded8     bg_misc.obj
 0002:00000edc       ??_C@_03OKKLIIDB@GLt?$AA@  4002dedc     bg_misc.obj
 0002:00000ee0       ??_C@_03DPCINNNJ@GMj?$AA@  4002dee0     bg_misc.obj
 0002:00000ee4       ??_C@_03GBANGNDJ@BGn?$AA@  4002dee4     bg_misc.obj
 0002:00000ee8       ??_C@_03NMBLBFLB@Cnl?$AA@  4002dee8     bg_misc.obj
 0002:00000eec       ??_C@_03IHNFBLCM@LtC?$AA@  4002deec     bg_misc.obj
 0002:00000ef0       ??_C@_03GBMCICDJ@Maj?$AA@  4002def0     bg_misc.obj
 0002:00000ef4       ??_C@_03EILIADJC@Cpt?$AA@  4002def4     bg_misc.obj
 0002:00000ef8       ??_C@_03FCBHOPFE@FLt?$AA@  4002def8     bg_misc.obj
 0002:00000efc       ??_C@_03DFNAEIPJ@SLt?$AA@  4002defc     bg_misc.obj
 0002:00000f00       ??_C@_03OAFDBNBB@SMj?$AA@  4002df00     bg_misc.obj
 0002:00000f04       ??_C@_03PDIDMNIK@MSg?$AA@  4002df04     bg_misc.obj
 0002:00000f08       ??_C@_03KIEAGNBL@SFC?$AA@  4002df08     bg_misc.obj
 0002:00000f0c       ??_C@_03EDEFONCG@SSg?$AA@  4002df0c     bg_misc.obj
 0002:00000f10       ??_C@_03BMIOBPI@Sgt?$AA@   4002df10     bg_misc.obj
 0002:00000f14       ??_C@_03MKKDJLML@Cpl?$AA@  4002df14     bg_misc.obj
 0002:00000f18       ??_C@_03LKPFMCPF@PFC?$AA@  4002df18     bg_misc.obj
 0002:00000f1c       ??_C@_03OJJIHFB@Pvt?$AA@   4002df1c     bg_misc.obj
 0002:00000f20       ??_C@_03PPEJFBBE@Fdm?$AA@  4002df20     bg_misc.obj
 0002:00000f24       ??_C@_03GNBKAPIF@Gen?$AA@  4002df24     bg_misc.obj
 0002:00000f28       ??_C@_03ODLJNOCI@LtG?$AA@  4002df28     bg_misc.obj
 0002:00000f2c       ??_C@_03HGFJLDJ@Gmj?$AA@   4002df2c     bg_misc.obj
 0002:00000f30       ??_C@_03FJEACLNJ@Bgn?$AA@  4002df30     bg_misc.obj
 0002:00000f34       ??_C@_03FCINFNPD@Obs?$AA@  4002df34     bg_misc.obj
 0002:00000f38       ??_C@_03JPNHFDGN@Obl?$AA@  4002df38     bg_misc.obj
 0002:00000f3c       ??_C@_03OPIMPFIB@Mjr?$AA@  4002df3c     bg_misc.obj
 0002:00000f40       ??_C@_03JPLJIEJD@Hpt?$AA@  4002df40     bg_misc.obj
 0002:00000f44       ??_C@_03BHFCOGDO@Olt?$AA@  4002df44     bg_misc.obj
 0002:00000f48       ??_C@_03KHPPEBMD@Ltn?$AA@  4002df48     bg_misc.obj
 0002:00000f4c       ??_C@_03HINMHCKA@Osf?$AA@  4002df4c     bg_misc.obj
 0002:00000f50       ??_C@_03CLCHNIAM@Sfw?$AA@  4002df50     bg_misc.obj
 0002:00000f54       ??_C@_03KMDPAIJC@Hfw?$AA@  4002df54     bg_misc.obj
 0002:00000f58       ??_C@_03DBOIDACL@Ofw?$AA@  4002df58     bg_misc.obj
 0002:00000f5c       ??_C@_03GGLBFAPC@Fwb?$AA@  4002df5c     bg_misc.obj
 0002:00000f60       ??_C@_03IJCLOMIB@Gfr?$AA@  4002df60     bg_misc.obj
 0002:00000f64       ??_C@_03JLOEDJHI@Otz?$AA@  4002df64     bg_misc.obj
 0002:00000f68       ??_C@_03IBCLNBFP@Stz?$AA@  4002df68     bg_misc.obj
 0002:00000f6c       ??_C@_0BE@HJKGCJPJ@General?5of?5the?5Army?$AA@ 4002df6c     bg_misc.obj
 0002:00000f80       ??_C@_0BD@NBFGKOJI@Lieutenant?5General?$AA@ 4002df80     bg_misc.obj
 0002:00000f94       ??_C@_0O@KCPHOANC@Major?5General?$AA@ 4002df94     bg_misc.obj
 0002:00000fa4       ??_C@_0BC@EJAMAKDN@Brigadier?5General?$AA@ 4002dfa4     bg_misc.obj
 0002:00000fb8       ??_C@_07HIMIFLHJ@Colonel?$AA@ 4002dfb8     bg_misc.obj
 0002:00000fc0       ??_C@_0BD@OLNCAGHN@Lieutenant?5Colonel?$AA@ 4002dfc0     bg_misc.obj
 0002:00000fd4       ??_C@_07CIJMMPOH@Captain?$AA@ 4002dfd4     bg_misc.obj
 0002:00000fdc       ??_C@_0BB@JNIIPJGA@First?5Lieutenant?$AA@ 4002dfdc     bg_misc.obj
 0002:00000ff0       ??_C@_0BC@BJHNOCHG@Second?5Lieutenant?$AA@ 4002dff0     bg_misc.obj
 0002:00001004       ??_C@_0P@EIPJLBOK@Sergeant?5Major?$AA@ 4002e004     bg_misc.obj
 0002:00001014       ??_C@_0BA@BMJEPCHL@Master?5Sergeant?$AA@ 4002e014     bg_misc.obj
 0002:00001024       ??_C@_0BF@KHKABHOI@Sergeant?5First?5Class?$AA@ 4002e024     bg_misc.obj
 0002:0000103c       ??_C@_0P@MBLNMEJK@Staff?5Sergeant?$AA@ 4002e03c     bg_misc.obj
 0002:0000104c       ??_C@_08HPHGPEFO@Sergeant?$AA@ 4002e04c     bg_misc.obj
 0002:00001058       ??_C@_08NNPOKHHA@Corporal?$AA@ 4002e058     bg_misc.obj
 0002:00001064       ??_C@_0BC@IMKFBNMP@Private?51st?5Class?$AA@ 4002e064     bg_misc.obj
 0002:00001078       ??_C@_07CFINJGKH@Private?$AA@ 4002e078     bg_misc.obj
 0002:00001080       ??_C@_0O@DJHPBGIM@Feldmarschall?$AA@ 4002e080     bg_misc.obj
 0002:00001090       ??_C@_07ECEMPDJM@General?$AA@ 4002e090     bg_misc.obj
 0002:00001098       ??_C@_0BA@NHCNCPGC@Generalleutnant?$AA@ 4002e098     bg_misc.obj
 0002:000010a8       ??_C@_0N@CBMLOIAM@Generalmajor?$AA@ 4002e0a8     bg_misc.obj
 0002:000010b8       ??_C@_0P@OKLJIMGI@Brigadegeneral?$AA@ 4002e0b8     bg_misc.obj
 0002:000010c8       ??_C@_06BIOMHBJB@Oberst?$AA@ 4002e0c8     bg_misc.obj
 0002:000010d0       ??_C@_0P@DIBOAHOM@Oberstleutnant?$AA@ 4002e0d0     bg_misc.obj
 0002:000010e0       ??_C@_05FDLAJJBN@Major?$AA@ 4002e0e0     bg_misc.obj
 0002:000010e8       ??_C@_09BJGEMGKL@Hauptmann?$AA@ 4002e0e8     bg_misc.obj
 0002:000010f4       ??_C@_0N@NNBNAPAN@Oberleutnant?$AA@ 4002e0f4     bg_misc.obj
 0002:00001104       ??_C@_08DLDKAGFE@Leutnant?$AA@ 4002e104     bg_misc.obj
 0002:00001110       ??_C@_0BD@OBOCDBBK@Oberstabsfeldwebel?$AA@ 4002e110     bg_misc.obj
 0002:00001124       ??_C@_0P@FHPJDBMB@Stabsfeldwebel?$AA@ 4002e124     bg_misc.obj
 0002:00001134       ??_C@_0P@JCNIPANN@Hauptfeldwebel?$AA@ 4002e134     bg_misc.obj
 0002:00001144       ??_C@_0O@CCEHOAHC@Oberfeldwebel?$AA@ 4002e144     bg_misc.obj
 0002:00001154       ??_C@_09DABGCOCL@Feldwebel?$AA@ 4002e154     bg_misc.obj
 0002:00001160       ??_C@_09GAMHIJCE@Gefreiter?$AA@ 4002e160     bg_misc.obj
 0002:0000116c       ??_C@_0M@MPFLHNKD@Oberschutze?$AA@ 4002e16c     bg_misc.obj
 0002:00001178       ??_C@_07ILAOCFOM@Schutze?$AA@ 4002e178     bg_misc.obj
 0002:00001180       ??_C@_0BM@IOBMNPPG@axis_hq_promo_feldmarschall?$AA@ 4002e180     bg_misc.obj
 0002:0000119c       ??_C@_0BG@CCKHFHD@axis_hq_promo_general?$AA@ 4002e19c     bg_misc.obj
 0002:000011b4       ??_C@_0CB@FFBKJAK@axis_hq_promo_general_lieutenant@ 4002e1b4     bg_misc.obj
 0002:000011d8       ??_C@_0BO@NEINGNBL@axis_hq_promo_general_brigade?$AA@ 4002e1d8     bg_misc.obj
 0002:000011f8       ??_C@_0BM@LPDDNAMN@axis_hq_promo_general_major?$AA@ 4002e1f8     bg_misc.obj
 0002:00001214       ??_C@_0BG@DIKONNJG@axis_hq_promo_colonel?$AA@ 4002e214     bg_misc.obj
 0002:0000122c       ??_C@_0BP@DDAIMHOJ@axis_hq_promo_colonel_leutnant?$AA@ 4002e22c     bg_misc.obj
 0002:0000124c       ??_C@_0BE@LIONHKGL@axis_hq_promo_major?$AA@ 4002e24c     bg_misc.obj
 0002:00001260       ??_C@_0BG@GIPKEJAI@axis_hq_promo_captain?$AA@ 4002e260     bg_misc.obj
 0002:00001278       ??_C@_0BO@ENKGKBCB@axis_hq_promo_lieutenant_ober?$AA@ 4002e278     bg_misc.obj
 0002:00001298       ??_C@_0BJ@BALGLEKA@axis_hq_promo_lieutenant?$AA@ 4002e298     bg_misc.obj
 0002:000012b4       ??_C@_0CB@FCBGCEMB@axis_hq_promo_sergeant_oberstabs@ 4002e2b4     bg_misc.obj
 0002:000012d8       ??_C@_0BN@LCAMLBPP@axis_hq_promo_sergeant_stabs?$AA@ 4002e2d8     bg_misc.obj
 0002:000012f8       ??_C@_0BN@PMIFHKEE@axis_hq_promo_sergeant_haupt?$AA@ 4002e2f8     bg_misc.obj
 0002:00001318       ??_C@_0BM@OFBPDPHC@axis_hq_promo_sergeant_ober?$AA@ 4002e318     bg_misc.obj
 0002:00001334       ??_C@_0BH@EPIDGNDB@axis_hq_promo_sergeant?$AA@ 4002e334     bg_misc.obj
 0002:0000134c       ??_C@_0BH@ONALDOBP@axis_hq_promo_corporal?$AA@ 4002e34c     bg_misc.obj
 0002:00001364       ??_C@_0BG@GFOLBAEI@axis_hq_promo_private?$AA@ 4002e364     bg_misc.obj
 0002:0000137c       ??_C@_0BP@CEIKGCDA@allies_hq_promo_general_ofarmy?$AA@ 4002e37c     bg_misc.obj
 0002:0000139c       ??_C@_0BI@KCOFOFBP@allies_hq_promo_general?$AA@ 4002e39c     bg_misc.obj
 0002:000013b4       ??_C@_0CD@FDAHAOAJ@allies_hq_promo_general_lieutena@ 4002e3b4     bg_misc.obj
 0002:000013d8       ??_C@_0CC@GGJFIPMA@allies_hq_promo_general_brigadie@ 4002e3d8     bg_misc.obj
 0002:000013fc       ??_C@_0BO@OGFFJLMM@allies_hq_promo_general_major?$AA@ 4002e3fc     bg_misc.obj
 0002:0000141c       ??_C@_0BI@JIGBENPK@allies_hq_promo_colonel?$AA@ 4002e41c     bg_misc.obj
 0002:00001434       ??_C@_0CD@JAFOFFDP@allies_hq_promo_colonel_lieutena@ 4002e434     bg_misc.obj
 0002:00001458       ??_C@_0BG@HAMCCEND@allies_hq_promo_major?$AA@ 4002e458     bg_misc.obj
 0002:00001470       ??_C@_0BI@MIDFNJGE@allies_hq_promo_captain?$AA@ 4002e470     bg_misc.obj
 0002:00001488       ??_C@_0BL@CLOBNDHP@allies_hq_promo_lieutenant?$AA@ 4002e488     bg_misc.obj
 0002:000014a4       ??_C@_0CC@BLLNBPGH@allies_hq_promo_lieutenant_secon@ 4002e4a4     bg_misc.obj
 0002:000014c8       ??_C@_0BP@JCEMLJCI@allies_hq_promo_sergeant_major?$AA@ 4002e4c8     bg_misc.obj
 0002:000014e8       ??_C@_0CA@NLKPGPKP@allies_hq_promo_sergeant_master?$AA@ 4002e4e8     bg_misc.obj
 0002:00001508       ??_C@_0BM@GPIEALI@allies_hq_promo_sergeant_fc?$AA@ 4002e508     bg_misc.obj
 0002:00001524       ??_C@_0BP@PFOOKJOK@allies_hq_promo_sergeant_staff?$AA@ 4002e524     bg_misc.obj
 0002:00001544       ??_C@_0BJ@LCHIPNC@allies_hq_promo_sergeant?$AA@ 4002e544     bg_misc.obj
 0002:00001560       ??_C@_0BJ@KJKPNMPM@allies_hq_promo_corporal?$AA@ 4002e560     bg_misc.obj
 0002:0000157c       ??_C@_0BI@MFCEIACE@allies_hq_promo_private?$AA@ 4002e57c     bg_misc.obj
 0002:00001594       ??_C@_09MDBFHCAB@Blue?5Flag?$AA@ 4002e594     bg_misc.obj
 0002:000015a0       ??_C@_0BC@NLKCOFAB@team_CTF_blueflag?$AA@ 4002e5a0     bg_misc.obj
 0002:000015b4       ??_C@_09BFBOLFMF@Objective?$AA@ 4002e5b4     bg_misc.obj
 0002:000015c0       ??_C@_0BB@JNMMCIHG@team_CTF_redflag?$AA@ 4002e5c0     bg_misc.obj
 0002:000015d4       ??_C@_0N@BCPMGCMF@Johnson?5Clip?$AA@ 4002e5d4     bg_misc.obj
 0002:000015e4       ??_C@_0N@LMFLNMAH@ammo_johnson?$AA@ 4002e5e4     bg_misc.obj
 0002:000015f4       ??_C@_0BM@FEICAMDO@models?1ammo?1panzerfaust?4md3?$AA@ 4002e5f4     bg_misc.obj
 0002:00001610       ??_C@_0BB@HPGOOBBD@ammo_panzerfaust?$AA@ 4002e610     bg_misc.obj
 0002:00001624       ??_C@_0P@KDLJFGAP@Bazooka?5Rocket?$AA@ 4002e624     bg_misc.obj
 0002:00001634       ??_C@_0BI@PPLLOMGH@models?1ammo?1bazooka?4md3?$AA@ 4002e634     bg_misc.obj
 0002:0000164c       ??_C@_0N@NGKBGKPL@ammo_bazooka?$AA@ 4002e64c     bg_misc.obj
 0002:0000165c       ??_C@_0N@MEPFBIJM@Mortar?5Shell?$AA@ 4002e65c     bg_misc.obj
 0002:0000166c       ??_C@_0BH@MBKBNNIG@models?1ammo?1mortar?4md3?$AA@ 4002e66c     bg_misc.obj
 0002:00001684       ??_C@_0M@KHMIEMLK@ammo_mortar?$AA@ 4002e684     bg_misc.obj
 0002:00001690       ??_C@_0BA@GOCMNNCC@Venom?5Ammo?5Belt?$AA@ 4002e690     bg_misc.obj
 0002:000016a0       ??_C@_0L@JEMJMKLH@ammo_venom?$AA@ 4002e6a0     bg_misc.obj
 0002:000016ac       ??_C@_0L@BIFLFAKA@Kar43?5Clip?$AA@ 4002e6ac     bg_misc.obj
 0002:000016b8       ??_C@_0L@GLDDGOAG@ammo_kar98?$AA@ 4002e6b8     bg_misc.obj
 0002:000016c4       ??_C@_08NMALHCIO@K43?5Clip?$AA@ 4002e6c4     bg_misc.obj
 0002:000016d0       ??_C@_0BE@OEMBEPAF@models?1ammo?1k43?4md3?$AA@ 4002e6d0     bg_misc.obj
 0002:000016e4       ??_C@_08ILKOFLBC@ammo_k43?$AA@ 4002e6e4     bg_misc.obj
 0002:000016f0       ??_C@_09KBKNEHDB@Sten?5Clip?$AA@ 4002e6f0     bg_misc.obj
 0002:000016fc       ??_C@_0BF@POJFPBLD@models?1ammo?1sten?4md3?$AA@ 4002e6fc     bg_misc.obj
 0002:00001714       ??_C@_09KLPJEPEG@ammo_sten?$AA@ 4002e714     bg_misc.obj
 0002:00001720       ??_C@_09FDDLGJHN@MP34?5Clip?$AA@ 4002e720     bg_misc.obj
 0002:0000172c       ??_C@_0BF@PDMNJBLG@models?1ammo?1mp34?4md3?$AA@ 4002e72c     bg_misc.obj
 0002:00001744       ??_C@_09NDCOBGCO@ammo_mp34?$AA@ 4002e744     bg_misc.obj
 0002:00001750       ??_C@_09KGPIBBB@FG42?5Clip?$AA@ 4002e750     bg_misc.obj
 0002:0000175c       ??_C@_0BF@BEBIOKMK@models?1ammo?1fg42?4md3?$AA@ 4002e75c     bg_misc.obj
 0002:00001774       ??_C@_09DKCFPJBK@ammo_fg42?$AA@ 4002e774     bg_misc.obj
 0002:00001780       ??_C@_08LJNJBMHA@BAR?5Clip?$AA@ 4002e780     bg_misc.obj
 0002:0000178c       ??_C@_0BE@EOGHELPH@models?1ammo?1bar?4md3?$AA@ 4002e78c     bg_misc.obj
 0002:000017a0       ??_C@_08HFLDIGIH@ammo_bar?$AA@ 4002e7a0     bg_misc.obj
 0002:000017ac       ??_C@_0L@OOBJAGDC@Stg44?5Clip?$AA@ 4002e7ac     bg_misc.obj
 0002:000017b8       ??_C@_0BG@MKJINHKI@models?1ammo?1stg44?4md3?$AA@ 4002e7b8     bg_misc.obj
 0002:000017d0       ??_C@_0L@OPBMINPA@ammo_stg44?$AA@ 4002e7d0     bg_misc.obj
 0002:000017dc       ??_C@_0P@LOIGJEFL@Pack?5of?5Shells?$AA@ 4002e7dc     bg_misc.obj
 0002:000017ec       ??_C@_0BL@KLCDMAII@models?1ammo?1winchester?4md3?$AA@ 4002e7ec     bg_misc.obj
 0002:00001808       ??_C@_0N@ODJHJBHM@ammo_shotgun?$AA@ 4002e808     bg_misc.obj
 0002:00001818       ??_C@_0BB@BJCCABDG@Browning?5Ammobox?$AA@ 4002e818     bg_misc.obj
 0002:0000182c       ??_C@_0O@LEGHNEMP@ammo_browning?$AA@ 4002e82c     bg_misc.obj
 0002:0000183c       ??_C@_0P@EKFOAMDO@MG42?5Ammo?5Belt?$AA@ 4002e83c     bg_misc.obj
 0002:0000184c       ??_C@_0BJ@LJBBLCJB@models?1ammo?1ammoBelt?4md3?$AA@ 4002e84c     bg_misc.obj
 0002:00001868       ??_C@_09ENPFMIAL@ammo_mg42?$AA@ 4002e868     bg_misc.obj
 0002:00001874       ??_C@_0M@FDIBNCGH@Garand?5Clip?$AA@ 4002e874     bg_misc.obj
 0002:00001880       ??_C@_0N@EJAEHEIK@ammo_carbine?$AA@ 4002e880     bg_misc.obj
 0002:00001890       ??_C@_0BD@PCGHCLIM@Garand?5Sniper?5Clip?$AA@ 4002e890     bg_misc.obj
 0002:000018a4       ??_C@_0BH@CKFLBLJB@models?1ammo?1garand?4md3?$AA@ 4002e8a4     bg_misc.obj
 0002:000018bc       ??_C@_0M@EJLBCHMD@ammo_garand?$AA@ 4002e8bc     bg_misc.obj
 0002:000018c8       ??_C@_07JNNBFIJM@syringe?$AA@ 4002e8c8     bg_misc.obj
 0002:000018d0       ??_C@_0N@IEFIKFCP@ammo_syringe?$AA@ 4002e8d0     bg_misc.obj
 0002:000018e0       ??_C@_09HEHHMCNO@Colt?5Clip?$AA@ 4002e8e0     bg_misc.obj
 0002:000018ec       ??_C@_0BF@EEFBPKJB@models?1ammo?1colt?4md3?$AA@ 4002e8ec     bg_misc.obj
 0002:00001904       ??_C@_09PDPNMJAO@ammo_colt?$AA@ 4002e904     bg_misc.obj
 0002:00001910       ??_C@_0O@GGLFFGAJ@smoke?5grenade?$AA@ 4002e910     bg_misc.obj
 0002:00001920       ??_C@_0BD@OGPDMOHE@ammo_smoke_grenade?$AA@ 4002e920     bg_misc.obj
 0002:00001934       ??_C@_0L@ICICOOBK@Luger?5Clip?$AA@ 4002e934     bg_misc.obj
 0002:00001940       ??_C@_0BG@FHOFBCPM@models?1ammo?1luger?4md3?$AA@ 4002e940     bg_misc.obj
 0002:00001958       ??_C@_0L@OLKBLIAK@ammo_luger?$AA@ 4002e958     bg_misc.obj
 0002:00001964       ??_C@_0P@PLCJINDF@satchel?5charge?$AA@ 4002e964     bg_misc.obj
 0002:00001974       ??_C@_0BE@KHCPJLAF@ammo_satchel_charge?$AA@ 4002e974     bg_misc.obj
 0002:00001988       ??_C@_08IKEDDBIN@landmine?$AA@ 4002e988     bg_misc.obj
 0002:00001994       ??_C@_0O@NIDCFKEG@ammo_landmine?$AA@ 4002e994     bg_misc.obj
 0002:000019a4       ??_C@_0BD@HNMJIHCO@airstrike?5canister?$AA@ 4002e9a4     bg_misc.obj
 0002:000019b8       ??_C@_0P@OEAGAGOC@ammo_airstrike?$AA@ 4002e9b8     bg_misc.obj
 0002:000019c8       ??_C@_08CGINOLOA@disguise?$AA@ 4002e9c8     bg_misc.obj
 0002:000019d4       ??_C@_0O@HEPMIACL@ammo_disguise?$AA@ 4002e9d4     bg_misc.obj
 0002:000019e4       ??_C@_08NPLJAOBO@dynamite?$AA@ 4002e9e4     bg_misc.obj
 0002:000019f0       ??_C@_0O@INMIGFNF@ammo_dynamite?$AA@ 4002e9f0     bg_misc.obj
 0002:00001a00       ??_C@_09KNLBEEHH@MP40?5Clip?$AA@ 4002ea00     bg_misc.obj
 0002:00001a0c       ??_C@_0BF@KNPLONCO@models?1ammo?1mp40?4md3?$AA@ 4002ea0c     bg_misc.obj
 0002:00001a24       ??_C@_09LCANMFKP@ammo_mp40?$AA@ 4002ea24     bg_misc.obj
 0002:00001a30       ??_C@_0O@GJIGPKKB@Thompson?5Clip?$AA@ 4002ea30     bg_misc.obj
 0002:00001a40       ??_C@_0BJ@PNLFFCCM@models?1ammo?1thompson?4md3?$AA@ 4002ea40     bg_misc.obj
 0002:00001a5c       ??_C@_0BH@DPAADLFH@sound?1misc?1am_pkup?4wav?$AA@ 4002ea5c     bg_misc.obj
 0002:00001a74       ??_C@_0O@BEPPKMEM@ammo_thompson?$AA@ 4002ea74     bg_misc.obj
 0002:00001a84       ??_C@_07LJACAEOJ@Dog?5Tag?$AA@ 4002ea84     bg_misc.obj
 0002:00001a8c       ??_C@_0CG@EHNDIEDE@models?1multiplayer?1dogtags?1dogta@ 4002ea8c     bg_misc.obj
 0002:00001ab4       ??_C@_0P@BBCFBOAJ@weapon_dogtags?$AA@ 4002eab4     bg_misc.obj
 0002:00001ac4       ??_C@_05INBJFEEM@Venom?$AA@ 4002eac4     bg_misc.obj
 0002:00001acc       ??_C@_0BC@MCLFPOGK@icons?1iconw_venom?$AA@ 4002eacc     bg_misc.obj
 0002:00001ae0       ??_C@_0CC@DOIOBJAI@models?1weapons2?1venom?1v_venom?4md@ 4002eae0     bg_misc.obj
 0002:00001b04       ??_C@_0CD@MCCBKGGI@models?1weapons2?1venom?1pu_venom?4m@ 4002eb04     bg_misc.obj
 0002:00001b28       ??_C@_0N@LHEAHOFN@weapon_venom?$AA@ 4002eb28     bg_misc.obj
 0002:00001b38       ??_C@_04MPLEDDIG@MP34?$AA@ 4002eb38     bg_misc.obj
 0002:00001b40       ??_C@_0CA@DPLDKGKF@models?1weapons2?1mp34?1v_mp34?4md3?$AA@ 4002eb40     bg_misc.obj
 0002:00001b60       ??_C@_0CC@JJPLOKNN@models?1weapons2?1mp34?1mp34_3rd?4md@ 4002eb60     bg_misc.obj
 0002:00001b84       ??_C@_0M@IDPNEDNJ@weapon_mp34?$AA@ 4002eb84     bg_misc.obj
 0002:00001b90       ??_C@_07DGFOPFBO@Bazooka?$AA@ 4002eb90     bg_misc.obj
 0002:00001b98       ??_C@_0CK@MLNENNLB@models?1weapons2?1panzerfaust?1v_ba@ 4002eb98     bg_misc.obj
 0002:00001bc4       ??_C@_0CM@KGFIEPBF@models?1weapons2?1panzerfaust?1bazo@ 4002ebc4     bg_misc.obj
 0002:00001bf0       ??_C@_0P@LODMCFIB@weapon_bazooka?$AA@ 4002ebf0     bg_misc.obj
 0002:00001c00       ??_C@_0O@FHHLJPCJ@Johnson?5Scope?$AA@ 4002ec00     bg_misc.obj
 0002:00001c10       ??_C@_0BF@JLPDOJEM@weapon_Johnson_Scope?$AA@ 4002ec10     bg_misc.obj
 0002:00001c28       ??_C@_07FMKEEDOC@Johnson?$AA@ 4002ec28     bg_misc.obj
 0002:00001c30       ??_C@_0BG@JHEHDEGP@icons?1iconw_johnson_1?$AA@ 4002ec30     bg_misc.obj
 0002:00001c48       ??_C@_0CE@PGOJIGJO@models?1weapons2?1johnson?1johnson?4@ 4002ec48     bg_misc.obj
 0002:00001c6c       ??_C@_0P@CNLAPBCL@weapon_Johnson?$AA@ 4002ec6c     bg_misc.obj
 0002:00001c7c       ??_C@_03BGHDGIHE@BAR?$AA@  4002ec7c     bg_misc.obj
 0002:00001c80       ??_C@_0BP@DPKGONBI@models?1weapons2?1bar?1bar3rd?4md3?$AA@ 4002ec80     bg_misc.obj
 0002:00001ca0       ??_C@_0L@KOGMIAIL@weapon_BAR?$AA@ 4002eca0     bg_misc.obj
 0002:00001cac       ??_C@_09GIPKKGAO@BAR?5Bipod?$AA@ 4002ecac     bg_misc.obj
 0002:00001cb8       ??_C@_0BC@IHNIAHMI@icons?1iconw_bar_1?$AA@ 4002ecb8     bg_misc.obj
 0002:00001ccc       ??_C@_0BO@MNLFBAPA@models?1weapons2?1bar?1v_bar?4md3?$AA@ 4002eccc     bg_misc.obj
 0002:00001cec       ??_C@_0CF@CJPFKDM@models?1weapons2?1bar?1bar3rd_bipod@ 4002ecec     bg_misc.obj
 0002:00001d14       ??_C@_0P@OFMNGCKP@weapon_BAR_set?$AA@ 4002ed14     bg_misc.obj
 0002:00001d24       ??_C@_05FGPOLMDF@StG44?$AA@ 4002ed24     bg_misc.obj
 0002:00001d2c       ??_C@_0BE@DDCKIGJI@icons?1iconw_stg44_1?$AA@ 4002ed2c     bg_misc.obj
 0002:00001d40       ??_C@_0CB@ECJMKPOI@models?1weapons2?1StG44?1v_mp44?4md3@ 4002ed40     bg_misc.obj
 0002:00001d64       ??_C@_0BP@CAHBPCIA@models?1weapons2?1StG44?1mp44?4md3?$AA@ 4002ed64     bg_misc.obj
 0002:00001d84       ??_C@_0N@GLALJDBC@weapon_StG44?$AA@ 4002ed84     bg_misc.obj
 0002:00001d94       ??_C@_0BA@PIIENDJA@Mobile?5Browning?$AA@ 4002ed94     bg_misc.obj
 0002:00001da4       ??_C@_0BH@OEPOHPDM@weapon_mobile_browning?$AA@ 4002eda4     bg_misc.obj
 0002:00001dbc       ??_C@_0BG@DKPFBFCL@Mobile?5Browning?5Bipod?$AA@ 4002edbc     bg_misc.obj
 0002:00001dd4       ??_C@_0BH@NDEHLIOM@icons?1iconw_browning_1?$AA@ 4002edd4     bg_misc.obj
 0002:00001dec       ??_C@_0CK@GDGFFID@models?1weapons2?1browning?1v_brown@ 4002edec     bg_misc.obj
 0002:00001e18       ??_C@_0CM@HKOGNKMA@models?1weapons2?1browning?1brown30@ 4002ee18     bg_misc.obj
 0002:00001e44       ??_C@_0BL@OIOGAHH@weapon_mobile_browning_set?$AA@ 4002ee44     bg_misc.obj
 0002:00001e60       ??_C@_06LLGHBMJN@Ka?9Bar?$AA@ 4002ee60     bg_misc.obj
 0002:00001e68       ??_C@_0CK@IEBHMPIP@models?1multiplayer?1knife_kbar?1v_@ 4002ee68     bg_misc.obj
 0002:00001e94       ??_C@_0CI@GBDAPBJN@models?1multiplayer?1knife_kbar?1kn@ 4002ee94     bg_misc.obj
 0002:00001ebc       ??_C@_0BD@FHDEJFDP@weapon_knife_kabar?$AA@ 4002eebc     bg_misc.obj
 0002:00001ed0       ??_C@_07DGIAOJJ@Shotgun?$AA@ 4002eed0     bg_misc.obj
 0002:00001ed8       ??_C@_0BL@GKIMENNF@icons?1iconw_shotgun_1_wide?$AA@ 4002eed8     bg_misc.obj
 0002:00001ef4       ??_C@_0CM@FBIDENAC@models?1weapons2?1winchester?1v_win@ 4002eef4     bg_misc.obj
 0002:00001f20       ??_C@_0CO@FIBEEMLF@models?1weapons2?1winchester?1winch@ 4002ef20     bg_misc.obj
 0002:00001f50       ??_C@_0P@ILAKNOAG@weapon_shotgun?$AA@ 4002ef50     bg_misc.obj
 0002:00001f60       ??_C@_05NLIPEJCP@BLANK?$AA@ 4002ef60     bg_misc.obj
 0002:00001f68       ??_C@_0N@KGCBOGJK@weapon_dummy?$AA@ 4002ef68     bg_misc.obj
 0002:00001f78       ??_C@_0L@ILFOJDGJ@sp5?5pistol?$AA@ 4002ef78     bg_misc.obj
 0002:00001f84       ??_C@_0BH@NFOOGGLB@icons?1iconw_silencer_1?$AA@ 4002ef84     bg_misc.obj
 0002:00001f9c       ??_C@_0CJ@PJFJNNPK@models?1weapons2?1silencer?1pu_sile@ 4002ef9c     bg_misc.obj
 0002:00001fc8       ??_C@_0CI@MKOIFLDA@models?1weapons2?1silencer?1v_silen@ 4002efc8     bg_misc.obj
 0002:00001ff0       ??_C@_0CG@CGPGGACN@models?1weapons2?1silencer?1silence@ 4002eff0     bg_misc.obj
 0002:00002018       ??_C@_0BA@LFBOPKHB@weapon_silencer?$AA@ 4002f018     bg_misc.obj
 0002:00002028       ??_C@_0BC@KGGIDFDB@Mobile?5MG42?5Bipod?$AA@ 4002f028     bg_misc.obj
 0002:0000203c       ??_C@_0BH@LPAECBIO@weapon_mobile_mg42_set?$AA@ 4002f03c     bg_misc.obj
 0002:00002054       ??_C@_0M@PNMMDIAD@Mobile?5MG42?$AA@ 4002f054     bg_misc.obj
 0002:00002060       ??_C@_0BD@CPMCGCNO@icons?1iconw_mg42_1?$AA@ 4002f060     bg_misc.obj
 0002:00002074       ??_C@_0CD@HEBMOGN@models?1multiplayer?1mg42?1v_mg42?4m@ 4002f074     bg_misc.obj
 0002:00002098       ??_C@_0CF@OCGIPJGL@models?1multiplayer?1mg42?1mg42_3rd@ 4002f098     bg_misc.obj
 0002:000020c0       ??_C@_0BD@LKEJMBNI@weapon_mobile_mg42?$AA@ 4002f0c0     bg_misc.obj
 0002:000020d4       ??_C@_0L@NHPGFDDA@Smoke?5Bomb?$AA@ 4002f0d4     bg_misc.obj
 0002:000020e0       ??_C@_0CN@DGNMGPJI@models?1multiplayer?1smokebomb?1v_s@ 4002f0e0     bg_misc.obj
 0002:00002110       ??_C@_0CL@HDONIDIH@models?1multiplayer?1smokebomb?1smo@ 4002f110     bg_misc.obj
 0002:0000213c       ??_C@_0BB@NMEAKGJN@weapon_smokebomb?$AA@ 4002f13c     bg_misc.obj
 0002:00002150       ??_C@_0BJ@HJKDBKOJ@Satchel?5Charge?5Detonator?$AA@ 4002f150     bg_misc.obj
 0002:0000216c       ??_C@_0BE@JAHNMEBI@icons?1iconw_radio_1?$AA@ 4002f16c     bg_misc.obj
 0002:00002180       ??_C@_0CF@MBEIHOMH@models?1multiplayer?1satchel?1radio@ 4002f180     bg_misc.obj
 0002:000021a8       ??_C@_0BI@HPCONGBI@weapon_satchelDetonator?$AA@ 4002f1a8     bg_misc.obj
 0002:000021c0       ??_C@_0P@LMFBIKDH@Satchel?5Charge?$AA@ 4002f1c0     bg_misc.obj
 0002:000021d0       ??_C@_0BG@EHFFCCAJ@icons?1iconw_satchel_1?$AA@ 4002f1d0     bg_misc.obj
 0002:000021e8       ??_C@_0CJ@KIJCLGLG@models?1multiplayer?1satchel?1v_sat@ 4002f1e8     bg_misc.obj
 0002:00002214       ??_C@_0CH@BPJCFOGJ@models?1multiplayer?1satchel?1satch@ 4002f214     bg_misc.obj
 0002:0000223c       ??_C@_0P@NDDAPDLL@weapon_satchel?$AA@ 4002f23c     bg_misc.obj
 0002:0000224c       ??_C@_08ILCLDCO@Landmine?$AA@ 4002f24c     bg_misc.obj
 0002:00002258       ??_C@_0BH@DDAGFJJM@icons?1iconw_landmine_1?$AA@ 4002f258     bg_misc.obj
 0002:00002270       ??_C@_0CL@CNGCMFFG@models?1multiplayer?1landmine?1v_la@ 4002f270     bg_misc.obj
 0002:0000229c       ??_C@_0CJ@DNFPCDBG@models?1multiplayer?1landmine?1land@ 4002f29c     bg_misc.obj
 0002:000022c8       ??_C@_0BA@GIIKFPCL@weapon_landmine?$AA@ 4002f2c8     bg_misc.obj
 0002:000022d8       ??_C@_0BF@NCDFOIGH@Mounted?5Granatwerfer?$AA@ 4002f2d8     bg_misc.obj
 0002:000022f0       ??_C@_0BD@ICLJMJCJ@weapon_mortar2_set?$AA@ 4002f2f0     bg_misc.obj
 0002:00002304       ??_C@_0N@HKMODPNA@Granatwerfer?$AA@ 4002f304     bg_misc.obj
 0002:00002314       ??_C@_0P@KOPOIJNF@weapon_mortar2?$AA@ 4002f314     bg_misc.obj
 0002:00002324       ??_C@_0P@MMMJHFLN@Mounted?5Mortar?$AA@ 4002f324     bg_misc.obj
 0002:00002334       ??_C@_0BC@CGGBACNL@weapon_mortar_set?$AA@ 4002f334     bg_misc.obj
 0002:00002348       ??_C@_06INLOLHLA@Mortar?$AA@ 4002f348     bg_misc.obj
 0002:00002350       ??_C@_0BF@KHDFOKKL@icons?1iconw_mortar_1?$AA@ 4002f350     bg_misc.obj
 0002:00002368       ??_C@_0CH@GPOCMLDJ@models?1multiplayer?1mortar?1v_mort@ 4002f368     bg_misc.obj
 0002:00002390       ??_C@_0CJ@KFBPFJHI@models?1multiplayer?1mortar?1mortar@ 4002f390     bg_misc.obj
 0002:000023bc       ??_C@_0O@OHDEMOGI@weapon_mortar?$AA@ 4002f3bc     bg_misc.obj
 0002:000023cc       ??_C@_0L@NGNNBKAH@FG42?5Scope?$AA@ 4002f3cc     bg_misc.obj
 0002:000023d8       ??_C@_0BB@IFLIELIJ@weapon_fg42scope?$AA@ 4002f3d8     bg_misc.obj
 0002:000023ec       ??_C@_0BF@NEOIPKLD@FG42?5Paratroop?5Rifle?$AA@ 4002f3ec     bg_misc.obj
 0002:00002404       ??_C@_0M@NNHMELIL@icons?1ammo5?$AA@ 4002f404     bg_misc.obj
 0002:00002410       ??_C@_0BD@CNMFDGCE@icons?1iconw_fg42_1?$AA@ 4002f410     bg_misc.obj
 0002:00002424       ??_C@_0CB@JHNGGBL@models?1weapons2?1fg42?1pu_fg42?4md3@ 4002f424     bg_misc.obj
 0002:00002448       ??_C@_0CA@JIPGBDCM@models?1weapons2?1fg42?1v_fg42?4md3?$AA@ 4002f448     bg_misc.obj
 0002:00002468       ??_C@_0BO@DPAGMCPJ@models?1weapons2?1fg42?1fg42?4md3?$AA@ 4002f468     bg_misc.obj
 0002:00002488       ??_C@_0M@GKPGKMON@weapon_fg42?$AA@ 4002f488     bg_misc.obj
 0002:00002494       ??_C@_0BA@BDCBJLMI@M1?5Garand?5Scope?$AA@ 4002f494     bg_misc.obj
 0002:000024a4       ??_C@_0BI@EGHKLNHO@weapon_garandRifleScope?$AA@ 4002f4a4     bg_misc.obj
 0002:000024bc       ??_C@_06GDMHNMMJ@Garand?$AA@ 4002f4bc     bg_misc.obj
 0002:000024c4       ??_C@_0BD@BMNLELGG@weapon_garandRifle?$AA@ 4002f4c4     bg_misc.obj
 0002:000024d8       ??_C@_09LGFJFBBG@M1?5Garand?$AA@ 4002f4d8     bg_misc.obj
 0002:000024e4       ??_C@_0BG@NOMJHDMG@weapon_M1CarbineRifle?$AA@ 4002f4e4     bg_misc.obj
 0002:000024fc       ??_C@_06LHCCBDPK@GPG40A?$AA@ 4002f4fc     bg_misc.obj
 0002:00002504       ??_C@_0BI@LDODFNDJ@icons?1iconw_m1_garand_1?$AA@ 4002f504     bg_misc.obj
 0002:0000251c       ??_C@_0CN@JHAAHIHP@models?1multiplayer?1m1_garand?1v_m@ 4002f51c     bg_misc.obj
 0002:0000254c       ??_C@_0CP@GBEAIANM@models?1multiplayer?1m1_garand?1m1_@ 4002f54c     bg_misc.obj
 0002:0000257c       ??_C@_0BE@GEGCCGLD@weapon_gpg40_allied?$AA@ 4002f57c     bg_misc.obj
 0002:00002590       ??_C@_05JOJELAHI@GPG40?$AA@ 4002f590     bg_misc.obj
 0002:00002598       ??_C@_0N@MFDOBKFD@weapon_gpg40?$AA@ 4002f598     bg_misc.obj
 0002:000025a8       ??_C@_03EFKHNHKD@K43?$AA@  4002f5a8     bg_misc.obj
 0002:000025ac       ??_C@_0BE@EIMPPHEO@icons?1iconw_kar98_1?$AA@ 4002f5ac     bg_misc.obj
 0002:000025c0       ??_C@_0BC@MGMKHEFB@weapon_kar98Rifle?$AA@ 4002f5c0     bg_misc.obj
 0002:000025d4       ??_C@_0BA@PEIEBNAM@K43?5Rifle?5Scope?$AA@ 4002f5d4     bg_misc.obj
 0002:000025e4       ??_C@_0BD@KLCHMOMN@weapon_kar43_scope?$AA@ 4002f5e4     bg_misc.obj
 0002:000025f8       ??_C@_09FPGDCOLL@K43?5Rifle?$AA@ 4002f5f8     bg_misc.obj
 0002:00002604       ??_C@_0M@ILCGOMAN@icons?1ammo3?$AA@ 4002f604     bg_misc.obj
 0002:00002610       ??_C@_0BF@JPJNFAGP@icons?1iconw_mauser_1?$AA@ 4002f610     bg_misc.obj
 0002:00002628       ??_C@_0CM@FCENNCEI@models?1multiplayer?1mauser?1mauser@ 4002f628     bg_misc.obj
 0002:00002654       ??_C@_0CF@BDODAJEP@models?1multiplayer?1kar98?1v_kar98@ 4002f654     bg_misc.obj
 0002:0000267c       ??_C@_0CH@POCOCE@models?1multiplayer?1kar98?1kar98_3@ 4002f67c     bg_misc.obj
 0002:000026a4       ??_C@_0N@KDJGJAHE@weapon_kar43?$AA@ 4002f6a4     bg_misc.obj
 0002:000026b4       ??_C@_0L@MHEKHPIN@Binoculars?$AA@ 4002f6b4     bg_misc.obj
 0002:000026c0       ??_C@_0BC@BDIBEFKD@weapon_binoculars?$AA@ 4002f6c0     bg_misc.obj
 0002:000026d4       ??_C@_0P@JMIGMAIG@Huge?5Ammo?5Pack?$AA@ 4002f6d4     bg_misc.obj
 0002:000026e4       ??_C@_0BC@PCBEOHOO@weapon_magicammo3?$AA@ 4002f6e4     bg_misc.obj
 0002:000026f8       ??_C@_0P@MKLFHJBO@Mega?5Ammo?5Pack?$AA@ 4002f6f8     bg_misc.obj
 0002:00002708       ??_C@_0CH@IJHLDMOA@models?1multiplayer?1binocs?1v_bino@ 4002f708     bg_misc.obj
 0002:00002730       ??_C@_0BC@OLAPNGKP@weapon_magicammo2?$AA@ 4002f730     bg_misc.obj
 0002:00002744       ??_C@_09IGIMIJAM@Ammo?5Pack?$AA@ 4002f744     bg_misc.obj
 0002:00002750       ??_C@_0BH@HEFMBIGH@icons?1iconw_ammopack_1?$AA@ 4002f750     bg_misc.obj
 0002:00002768       ??_C@_0DA@BNKGGEGK@models?1multiplayer?1ammopack?1ammo@ 4002f768     bg_misc.obj
 0002:00002798       ??_C@_0CL@GLBHEPKK@models?1multiplayer?1ammopack?1v_am@ 4002f798     bg_misc.obj
 0002:000027c4       ??_C@_0CJ@NEHCKBJG@models?1multiplayer?1ammopack?1ammo@ 4002f7c4     bg_misc.obj
 0002:000027f0       ??_C@_0BB@MJDHMBEF@weapon_magicammo?$AA@ 4002f7f0     bg_misc.obj
 0002:00002804       ??_C@_0BD@HGCEKHJD@Adrenaline?5Syringe?$AA@ 4002f804     bg_misc.obj
 0002:00002818       ??_C@_0BI@IHBCJDIP@weapon_medic_adrenaline?$AA@ 4002f818     bg_misc.obj
 0002:00002830       ??_C@_0P@NGMHGOIF@Poison?5Syringe?$AA@ 4002f830     bg_misc.obj
 0002:00002840       ??_C@_0BF@CHJJOBEH@icons?1iconw_poison_1?$AA@ 4002f840     bg_misc.obj
 0002:00002858       ??_C@_0BG@MAAKKANE@weapon_poison_syringe?$AA@ 4002f858     bg_misc.obj
 0002:00002870       ??_C@_07GEKHDKMK@Syringe?$AA@ 4002f870     bg_misc.obj
 0002:00002878       ??_C@_0BF@EAONHALE@weapon_medic_syringe?$AA@ 4002f878     bg_misc.obj
 0002:00002890       ??_C@_09DOIKKMF@Artillery?$AA@ 4002f890     bg_misc.obj
 0002:0000289c       ??_C@_0BG@ODMDGLFO@icons?1iconw_syringe_1?$AA@ 4002f89c     bg_misc.obj
 0002:000028b4       ??_C@_0CJ@MCHDJPCA@models?1multiplayer?1syringe?1v_syr@ 4002f8b4     bg_misc.obj
 0002:000028e0       ??_C@_0CH@JGJKKKDO@models?1multiplayer?1syringe?1syrin@ 4002f8e0     bg_misc.obj
 0002:00002908       ??_C@_0M@NMAGMMFO@weapon_arty?$AA@ 4002f908     bg_misc.obj
 0002:00002914       ??_C@_07ONMEKKNJ@Special?$AA@ 4002f914     bg_misc.obj
 0002:0000291c       ??_C@_0BF@EGJKNLFD@icons?1iconw_pliers_1?$AA@ 4002f91c     bg_misc.obj
 0002:00002934       ??_C@_0CH@CCAPEGPE@models?1multiplayer?1pliers?1v_plie@ 4002f934     bg_misc.obj
 0002:0000295c       ??_C@_0CF@KHODGCJJ@models?1multiplayer?1pliers?1pliers@ 4002f95c     bg_misc.obj
 0002:00002984       ??_C@_0BF@HGNENFHI@weapon_class_special?$AA@ 4002f984     bg_misc.obj
 0002:0000299c       ??_C@_0N@LDKIPHF@Flamethrower?$AA@ 4002f99c     bg_misc.obj
 0002:000029ac       ??_C@_0N@KCPILIMM@icons?1ammo10?$AA@ 4002f9ac     bg_misc.obj
 0002:000029bc       ??_C@_0BL@DKJBHHMJ@icons?1iconw_flamethrower_1?$AA@ 4002f9bc     bg_misc.obj
 0002:000029d8       ??_C@_0DB@MEFGGOBE@models?1weapons2?1flamethrower?1pu_@ 4002f9d8     bg_misc.obj
 0002:00002a0c       ??_C@_0DA@OLBDONLO@models?1weapons2?1flamethrower?1v_f@ 4002fa0c     bg_misc.obj
 0002:00002a3c       ??_C@_0CO@NOBDPJNE@models?1weapons2?1flamethrower?1fla@ 4002fa3c     bg_misc.obj
 0002:00002a6c       ??_C@_0BE@MGDBILCA@weapon_flamethrower?$AA@ 4002fa6c     bg_misc.obj
 0002:00002a80       ??_C@_0BA@EJJBCBOH@Dynamite?5Weapon?$AA@ 4002fa80     bg_misc.obj
 0002:00002a90       ??_C@_0M@HBMJAEIH@icons?1ammo9?$AA@ 4002fa90     bg_misc.obj
 0002:00002a9c       ??_C@_0BH@NPAMPIIC@icons?1iconw_dynamite_1?$AA@ 4002fa9c     bg_misc.obj
 0002:00002ab4       ??_C@_0CI@HOBCNAON@models?1weapons2?1dynamite?1v_dynam@ 4002fab4     bg_misc.obj
 0002:00002adc       ??_C@_0CN@CCNMCHIK@models?1multiplayer?1dynamite?1dyna@ 4002fadc     bg_misc.obj
 0002:00002b0c       ??_C@_0BA@DNHAGALI@weapon_dynamite?$AA@ 4002fb0c     bg_misc.obj
 0002:00002b1c       ??_C@_09MPJALICA@medicheal?$AA@ 4002fb1c     bg_misc.obj
 0002:00002b28       ??_C@_0BG@BEHMBCJB@icons?1iconw_medheal_1?$AA@ 4002fb28     bg_misc.obj
 0002:00002b40       ??_C@_0CJ@KMLLGJEP@models?1multiplayer?1medpack?1v_med@ 4002fb40     bg_misc.obj
 0002:00002b6c       ??_C@_0CH@HJGJPBFB@models?1multiplayer?1medpack?1medpa@ 4002fb6c     bg_misc.obj
 0002:00002b94       ??_C@_0BC@MGOLNGIC@weapon_medic_heal?$AA@ 4002fb94     bg_misc.obj
 0002:00002ba8       ??_C@_0L@BJKNNJNH@smokeTrail?$AA@ 4002fba8     bg_misc.obj
 0002:00002bb4       ??_C@_0BC@EMFGGJBI@weapon_smoketrail?$AA@ 4002fbb4     bg_misc.obj
 0002:00002bc8       ??_C@_0N@EPMNKMAI@smokeGrenade?$AA@ 4002fbc8     bg_misc.obj
 0002:00002bd8       ??_C@_0BL@MFPPHILJ@icons?1iconw_smokegrenade_1?$AA@ 4002fbd8     bg_misc.obj
 0002:00002bf4       ??_C@_0DD@NPJGCFLG@models?1multiplayer?1smokegrenade?1@ 4002fbf4     bg_misc.obj
 0002:00002c28       ??_C@_0DB@IBDPDLGI@models?1multiplayer?1smokegrenade?1@ 4002fc28     bg_misc.obj
 0002:00002c5c       ??_C@_0BE@MOMMPDAI@weapon_grenadesmoke?$AA@ 4002fc5c     bg_misc.obj
 0002:00002c70       ??_C@_09EBEMMGPP@Pineapple?$AA@ 4002fc70     bg_misc.obj
 0002:00002c7c       ??_C@_0BG@BHAOAJFD@icons?1icona_pineapple?$AA@ 4002fc7c     bg_misc.obj
 0002:00002c94       ??_C@_0BI@NHIHLINI@icons?1iconw_pineapple_1?$AA@ 4002fc94     bg_misc.obj
 0002:00002cac       ??_C@_0CI@NAFKGHJD@models?1weapons2?1grenade?1v_pineap@ 4002fcac     bg_misc.obj
 0002:00002cd4       ??_C@_0CG@NEBNAIOM@models?1weapons2?1grenade?1pineappl@ 4002fcd4     bg_misc.obj
 0002:00002cfc       ??_C@_0BI@BDNAKMLM@weapon_grenadepineapple?$AA@ 4002fcfc     bg_misc.obj
 0002:00002d14       ??_C@_07GIIHBBNN@Grenade?$AA@ 4002fd14     bg_misc.obj
 0002:00002d1c       ??_C@_0BE@LHOKGGAM@icons?1icona_grenade?$AA@ 4002fd1c     bg_misc.obj
 0002:00002d30       ??_C@_0BG@EKPMBKKI@icons?1iconw_grenade_1?$AA@ 4002fd30     bg_misc.obj
 0002:00002d48       ??_C@_0CG@HPDANMDK@models?1weapons2?1grenade?1v_grenad@ 4002fd48     bg_misc.obj
 0002:00002d70       ??_C@_0CE@DPFMPDPO@models?1weapons2?1grenade?1grenade?4@ 4002fd70     bg_misc.obj
 0002:00002d94       ??_C@_0BH@DGCCJPLM@weapon_grenadelauncher?$AA@ 4002fd94     bg_misc.obj
 0002:00002dac       ??_C@_0M@FLKOLANO@Panzerfaust?$AA@ 4002fdac     bg_misc.obj
 0002:00002db8       ??_C@_0M@PGFBBIEI@icons?1ammo6?$AA@ 4002fdb8     bg_misc.obj
 0002:00002dc4       ??_C@_0BK@BNNIJHHA@icons?1iconw_panzerfaust_1?$AA@ 4002fdc4     bg_misc.obj
 0002:00002de0       ??_C@_0CF@INJNBKLK@models?1weapons2?1panzerfaust?1v_pf@ 4002fde0     bg_misc.obj
 0002:00002e08       ??_C@_0CD@KLGINFIC@models?1weapons2?1panzerfaust?1pf?4m@ 4002fe08     bg_misc.obj
 0002:00002e2c       ??_C@_0BD@IHKMHGCL@weapon_panzerfaust?$AA@ 4002fe2c     bg_misc.obj
 0002:00002e40       ??_C@_05BPFOPNCG@Knife?$AA@ 4002fe40     bg_misc.obj
 0002:00002e48       ??_C@_0BE@FELCPKJK@icons?1iconw_knife_1?$AA@ 4002fe48     bg_misc.obj
 0002:00002e5c       ??_C@_0CF@CCDIOFP@models?1multiplayer?1knife?1v_knife@ 4002fe5c     bg_misc.obj
 0002:00002e84       ??_C@_0CD@EKBJCGJD@models?1multiplayer?1knife?1knife?4m@ 4002fe84     bg_misc.obj
 0002:00002ea8       ??_C@_0N@CFAHNHDH@weapon_knife?$AA@ 4002fea8     bg_misc.obj
 0002:00002eb8       ??_C@_0BF@JGCLIJOB@Silenced?5Akimbo?5Colt?$AA@ 4002feb8     bg_misc.obj
 0002:00002ed0       ??_C@_0BK@LILPLFOO@weapon_akimbosilencedcolt?$AA@ 4002fed0     bg_misc.obj
 0002:00002eec       ??_C@_0M@ECNDEPLM@Akimbo?5Colt?$AA@ 4002feec     bg_misc.obj
 0002:00002ef8       ??_C@_0CO@LNDDIOPH@models?1weapons2?1akimbo_colt?1v_ak@ 4002fef8     bg_misc.obj
 0002:00002f28       ??_C@_0BC@JHJOELDN@weapon_akimbocolt?$AA@ 4002ff28     bg_misc.obj
 0002:00002f3c       ??_C@_04EPFFEDJI@Colt?$AA@ 4002ff3c     bg_misc.obj
 0002:00002f44       ??_C@_0CA@HEFFIJDL@models?1weapons2?1colt?1v_colt?4md3?$AA@ 4002ff44     bg_misc.obj
 0002:00002f64       ??_C@_0M@KDCOJMPJ@weapon_colt?$AA@ 4002ff64     bg_misc.obj
 0002:00002f70       ??_C@_04BHFBMFNA@Sten?$AA@ 4002ff70     bg_misc.obj
 0002:00002f78       ??_C@_0BD@BJMJKDBJ@icons?1iconw_sten_1?$AA@ 4002ff78     bg_misc.obj
 0002:00002f8c       ??_C@_0CA@JCCOLKIK@models?1weapons2?1sten?1v_sten?4md3?$AA@ 4002ff8c     bg_misc.obj
 0002:00002fac       ??_C@_0BO@OLCNBIBF@models?1weapons2?1sten?1sten?4md3?$AA@ 4002ffac     bg_misc.obj
 0002:00002fcc       ??_C@_0M@PLCKBKLB@weapon_sten?$AA@ 4002ffcc     bg_misc.obj
 0002:00002fd8       ??_C@_0O@MMIFKCPM@Silenced?5Colt?$AA@ 4002ffd8     bg_misc.obj
 0002:00002fe8       ??_C@_0DD@BKIOEAL@models?1multiplayer?1silencedcolt?1@ 4002ffe8     bg_misc.obj
 0002:0000301c       ??_C@_0BO@LFGFJAPM@models?1weapons2?1colt?1colt?4md3?$AA@ 4003001c     bg_misc.obj
 0002:0000303c       ??_C@_0BE@GGFMMMNL@weapon_silencedcolt?$AA@ 4003003c     bg_misc.obj
 0002:00003050       ??_C@_05PCHBCGPB@Luger?$AA@ 40030050     bg_misc.obj
 0002:00003058       ??_C@_0CC@EKFIEFML@models?1weapons2?1luger?1v_luger?4md@ 40030058     bg_misc.obj
 0002:0000307c       ??_C@_0N@MICIAMOA@weapon_luger?$AA@ 4003007c     bg_misc.obj
 0002:0000308c       ??_C@_0BG@NLHBJBKD@Silenced?5Akimbo?5Luger?$AA@ 4003008c     bg_misc.obj
 0002:000030a4       ??_C@_0BL@ELOABIAO@weapon_akimbosilencedluger?$AA@ 400300a4     bg_misc.obj
 0002:000030c0       ??_C@_0N@MOHPEECM@Akimbo?5Luger?$AA@ 400300c0     bg_misc.obj
 0002:000030d0       ??_C@_0BD@CFLCBIAF@icons?1iconw_colt_1?$AA@ 400300d0     bg_misc.obj
 0002:000030e4       ??_C@_0DA@JAPIIIBB@models?1weapons2?1akimbo_luger?1v_a@ 400300e4     bg_misc.obj
 0002:00003114       ??_C@_0CA@JCGGEPBC@models?1weapons2?1luger?1luger?4md3?$AA@ 40030114     bg_misc.obj
 0002:00003134       ??_C@_0BD@FEBFLKJO@weapon_akimboluger?$AA@ 40030134     bg_misc.obj
 0002:00003148       ??_C@_08MEHPEFCE@Thompson?$AA@ 40030148     bg_misc.obj
 0002:00003154       ??_C@_0BH@JNDHCKPC@icons?1iconw_thompson_1?$AA@ 40030154     bg_misc.obj
 0002:0000316c       ??_C@_0CI@KCIHJEOK@models?1weapons2?1thompson?1v_thomp@ 4003016c     bg_misc.obj
 0002:00003194       ??_C@_0CG@LDIIPHD@models?1weapons2?1thompson?1thompso@ 40030194     bg_misc.obj
 0002:000031bc       ??_C@_0BA@KEEHKJCB@weapon_thompson?$AA@ 400301bc     bg_misc.obj
 0002:000031cc       ??_C@_04KOJHOAAH@MP40?$AA@ 400301cc     bg_misc.obj
 0002:000031d4       ??_C@_0M@JCDNNNEM@icons?1ammo2?$AA@ 400301d4     bg_misc.obj
 0002:000031e0       ??_C@_0BD@JLBIJIHG@icons?1iconw_mp40_1?$AA@ 400301e0     bg_misc.obj
 0002:000031f4       ??_C@_0CA@MEPBBKGL@models?1weapons2?1mp40?1v_mp40?4md3?$AA@ 400301f4     bg_misc.obj
 0002:00003214       ??_C@_0BO@FIMFOHLD@models?1weapons2?1mp40?1mp40?4md3?$AA@ 40030214     bg_misc.obj
 0002:00003234       ??_C@_0BG@BBKFHONL@sound?1misc?1w_pkup?4wav?$AA@ 40030234     bg_misc.obj
 0002:0000324c       ??_C@_0M@OCNOJAFI@weapon_mp40?$AA@ 4003024c     bg_misc.obj
 0002:00003258       ??_C@_0BB@ONKJGELP@item_health_wall?$AA@ 40030258     bg_misc.obj
 0002:0000326c       ??_C@_09DJPFKDBO@Cold?5Meal?$AA@ 4003026c     bg_misc.obj
 0002:00003278       ??_C@_0CF@PNLILMOB@models?1powerups?1health?1health_b1@ 40030278     bg_misc.obj
 0002:000032a0       ??_C@_0CF@HLCMMOEP@models?1powerups?1health?1health_b2@ 400302a0     bg_misc.obj
 0002:000032c8       ??_C@_0CF@LAHABNOK@models?1powerups?1health?1health_b3@ 400302c8     bg_misc.obj
 0002:000032f0       ??_C@_0BM@MFEDMPAO@sound?1items?1cold_pickup?4wav?$AA@ 400302f0     bg_misc.obj
 0002:0000330c       ??_C@_0BJ@PIFLNDBE@item_health_breadandmeat?$AA@ 4003030c     bg_misc.obj
 0002:00003328       ??_C@_08EGDKBHCC@Hot?5Meal?$AA@ 40030328     bg_misc.obj
 0002:00003334       ??_C@_0CF@PJLGBFBF@models?1powerups?1health?1health_t1@ 40030334     bg_misc.obj
 0002:0000335c       ??_C@_0CF@HPCCGHLL@models?1powerups?1health?1health_t2@ 4003035c     bg_misc.obj
 0002:00003384       ??_C@_0CF@LEHOLEBO@models?1powerups?1health?1health_t3@ 40030384     bg_misc.obj
 0002:000033ac       ??_C@_0BL@NGOPHJBM@sound?1items?1hot_pickup?4wav?$AA@ 400303ac     bg_misc.obj
 0002:000033c8       ??_C@_0BD@HCMLHKKB@item_health_turkey?$AA@ 400303c8     bg_misc.obj
 0002:000033dc       ??_C@_0N@OPDFKAFG@Small?5Health?$AA@ 400303dc     bg_misc.obj
 0002:000033ec       ??_C@_0BJ@OLHMCLBI@sound?1items?1n_health?4wav?$AA@ 400303ec     bg_misc.obj
 0002:00003408       ??_C@_0BC@DOHAFEBI@item_health_small?$AA@ 40030408     bg_misc.obj
 0002:0000341c       ??_C@_0BC@JGDLKFIO@item_health_large?$AA@ 4003041c     bg_misc.obj
 0002:00003430       ??_C@_0L@ECDAPFKD@Med?5Health?$AA@ 40030430     bg_misc.obj
 0002:0000343c       ??_C@_0CO@LAKDKKND@models?1multiplayer?1medpack?1medpa@ 4003043c     bg_misc.obj
 0002:0000346c       ??_C@_0M@KCNAKNNL@item_health?$AA@ 4003046c     bg_misc.obj
 0002:00003478       ??_C@_06GGDALCBD@Health?$AA@ 40030478     bg_misc.obj
 0002:00003480       ??_C@_0BN@FIAHAEDN@sound?1misc?1health_pickup?4wav?$AA@ 40030480     bg_misc.obj
 0002:000034a0       ??_C@_0BE@LEDEOIPH@item_health_cabinet?$AA@ 400304a0     bg_misc.obj
 0002:000034b4       ??_C@_0BK@JLBLEBFC@Allied?5Covert?5Ops?5Uniform?$AA@ 400304b4     bg_misc.obj
 0002:000034d0       ??_C@_0CN@LBNDOIJE@models?1powerups?1uniforms?1alliedC@ 400304d0     bg_misc.obj
 0002:00003500       ??_C@_0BM@EEJJLNCC@item_alliedCovertOpsUniform?$AA@ 40030500     bg_misc.obj
 0002:0000351c       ??_C@_0BJ@NFABKMOF@Allied?5Field?5Ops?5Uniform?$AA@ 4003051c     bg_misc.obj
 0002:00003538       ??_C@_0CM@DCAJJBKO@models?1powerups?1uniforms?1alliedF@ 40030538     bg_misc.obj
 0002:00003564       ??_C@_0BL@INOJHLCB@item_alliedFieldOpsUniform?$AA@ 40030564     bg_misc.obj
 0002:00003580       ??_C@_0BI@BMADAEND@Allied?5Engineer?5Uniform?$AA@ 40030580     bg_misc.obj
 0002:00003598       ??_C@_0CM@EGDMPCKG@models?1powerups?1uniforms?1alliedE@ 40030598     bg_misc.obj
 0002:000035c4       ??_C@_0BO@JBBJKGEN@item_alliedEngineerOpsUniform?$AA@ 400305c4     bg_misc.obj
 0002:000035e4       ??_C@_0BF@BJFHFDAO@Allied?5Medic?5Uniform?$AA@ 400305e4     bg_misc.obj
 0002:000035fc       ??_C@_0CJ@NAHOMBK@models?1powerups?1uniforms?1alliedM@ 400305fc     bg_misc.obj
 0002:00003628       ??_C@_0BI@OCKLKIHI@item_alliedMedicUniform?$AA@ 40030628     bg_misc.obj
 0002:00003640       ??_C@_0BH@MAFMNJFJ@Allied?5Soldier?5Uniform?$AA@ 40030640     bg_misc.obj
 0002:00003658       ??_C@_0CL@FLOHCLPK@models?1powerups?1uniforms?1alliedS@ 40030658     bg_misc.obj
 0002:00003684       ??_C@_0BK@MPFCGFCB@item_alliedSoldierUniform?$AA@ 40030684     bg_misc.obj
 0002:000036a0       ??_C@_0BI@PBFMIMAN@Axis?5Covert?5Ops?5Uniform?$AA@ 400306a0     bg_misc.obj
 0002:000036b8       ??_C@_0CL@ICNMCKJB@models?1powerups?1uniforms?1axisCov@ 400306b8     bg_misc.obj
 0002:000036e4       ??_C@_0BK@CDMAJJFM@item_axisCovertOpsUniform?$AA@ 400306e4     bg_misc.obj
 0002:00003700       ??_C@_0BH@CCOMABPE@Axis?5Field?5Ops?5Uniform?$AA@ 40030700     bg_misc.obj
 0002:00003718       ??_C@_0CK@DONGHBMD@models?1powerups?1uniforms?1axisFie@ 40030718     bg_misc.obj
 0002:00003744       ??_C@_0BJ@JIHMJLK@item_axisFieldOpsUniform?$AA@ 40030744     bg_misc.obj
 0002:00003760       ??_C@_0BG@JDPJEIEH@Axis?5Engineer?5Uniform?$AA@ 40030760     bg_misc.obj
 0002:00003778       ??_C@_0CK@EKODBCML@models?1powerups?1uniforms?1axisEng@ 40030778     bg_misc.obj
 0002:000037a4       ??_C@_0BM@BMKGHBLN@item_axisEngineerOpsUniform?$AA@ 400307a4     bg_misc.obj
 0002:000037c0       ??_C@_0BD@ELMKPOBL@Axis?5Medic?5Uniform?$AA@ 400307c0     bg_misc.obj
 0002:000037d4       ??_C@_0CH@PIMLAFAA@models?1powerups?1uniforms?1axisMed@ 400307d4     bg_misc.obj
 0002:000037fc       ??_C@_0BG@LILANAPF@item_axisMedicUniform?$AA@ 400307fc     bg_misc.obj
 0002:00003814       ??_C@_0BF@FPIOLCIF@Axis?5Soldier?5Uniform?$AA@ 40030814     bg_misc.obj
 0002:0000382c       ??_C@_0CJ@DCBMHODB@models?1powerups?1uniforms?1axisSol@ 4003082c     bg_misc.obj
 0002:00003858       ??_C@_0CC@KKABMBOC@sound?1pickup?1powerups?1uniform?4wa@ 40030858     bg_misc.obj
 0002:0000387c       ??_C@_0BI@BPKBCADC@item_axisSoldierUniform?$AA@ 4003087c     bg_misc.obj
 0002:00003894       ??_C@_06NNIPIFNN@Helmet?$AA@ 40030894     bg_misc.obj
 0002:0000389c       ??_C@_0BL@PFNLJADM@models?1powerups?1helmet?4md3?$AA@ 4003089c     bg_misc.obj
 0002:000038b8       ??_C@_0M@BJGPJKBF@item_helmet?$AA@ 400308b8     bg_misc.obj
 0002:000038c4       ??_C@_0N@PIKINLFA@Helmet?5Armor?$AA@ 400308c4     bg_misc.obj
 0002:000038d4       ??_C@_0CO@CHELONAH@models?1players?1temperate?1axis?1he@ 400308d4     bg_misc.obj
 0002:00003904       ??_C@_0CB@POMDMHPD@sound?1pickup?1powerups?1helmet?4wav@ 40030904     bg_misc.obj
 0002:00003928       ??_C@_0BC@FJLOBKFI@item_helmetshield?$AA@ 40030928     bg_misc.obj
 0002:0000393c       ??_C@_0M@MPGADHA@Flak?5Jacket?$AA@ 4003093c     bg_misc.obj
 0002:00003948       ??_C@_0BP@COBNKP@models?1powerups?1flakjacket?4md3?$AA@ 40030948     bg_misc.obj
 0002:00003968       ??_C@_0CF@GINMNNA@sound?1pickup?1powerups?1flakjacket@ 40030968     bg_misc.obj
 0002:00003990       ??_C@_0BA@NFBKLJME@item_flakJacket?$AA@ 40030990     bg_misc.obj
 0002:000039a0       ??_C@_0L@EFOCNJPA@Adrenaline?$AA@ 400309a0     bg_misc.obj
 0002:000039ac       ??_C@_0BP@KPECCLGD@models?1powerups?1adrenaline?4md3?$AA@ 400309ac     bg_misc.obj
 0002:000039cb       ??_C@_00CNPNBAHC@?$AA@     400309cb     bg_misc.obj
 0002:000039cc       ??_C@_0BA@CDBGAOBB@item_adrenaline?$AA@ 400309cc     bg_misc.obj
 0002:000039dc       ??_C@_0BB@PIPBMGBP@WP_JOHNSON_SCOPE?$AA@ 400309dc     bg_misc.obj
 0002:000039f0       ??_C@_0M@CMGPLEPH@WP_FOOTKICK?$AA@ 400309f0     bg_misc.obj
 0002:000039fc       ??_C@_0BC@JLHAGBOA@WP_POISON_SYRINGE?$AA@ 400309fc     bg_misc.obj
 0002:00003a10       ??_C@_08IAGAEFBO@WP_VENOM?$AA@ 40030a10     bg_misc.obj
 0002:00003a1c       ??_C@_0P@JONEJALH@WP_MORTAR2_SET?$AA@ 40030a1c     bg_misc.obj
 0002:00003a2c       ??_C@_0L@PMOMANPH@WP_MORTAR2?$AA@ 40030a2c     bg_misc.obj
 0002:00003a38       ??_C@_07ONFKLCLI@WP_MP34?$AA@ 40030a38     bg_misc.obj
 0002:00003a40       ??_C@_0L@HJKKIFAB@WP_BAZOOKA?$AA@ 40030a40     bg_misc.obj
 0002:00003a4c       ??_C@_0L@BDFADDPN@WP_JOHNSON?$AA@ 40030a4c     bg_misc.obj
 0002:00003a58       ??_C@_08FGHMGABL@WP_STG44?$AA@ 40030a58     bg_misc.obj
 0002:00003a64       ??_C@_0L@NCPNLDNH@WP_BAR_SET?$AA@ 40030a64     bg_misc.obj
 0002:00003a70       ??_C@_06PKOEOPMC@WP_BAR?$AA@ 40030a70     bg_misc.obj
 0002:00003a78       ??_C@_0BH@JOKAFGAB@WP_MOBILE_BROWNING_SET?$AA@ 40030a78     bg_misc.obj
 0002:00003a90       ??_C@_0BD@FAJFNFOK@WP_MOBILE_BROWNING?$AA@ 40030a90     bg_misc.obj
 0002:00003aa4       ??_C@_0P@ECIJNPAP@WP_KNIFE_KABAR?$AA@ 40030aa4     bg_misc.obj
 0002:00003ab4       ??_C@_0L@EMJMHOIG@WP_SHOTGUN?$AA@ 40030ab4     bg_misc.obj
 0002:00003ac0       ??_C@_0BD@CLPJIPG@WP_MOBILE_MG42_SET?$AA@ 40030ac0     bg_misc.obj
 0002:00003ad4       ??_C@_0BI@PPAOCEIH@WP_AKIMBO_SILENCEDLUGER?$AA@ 40030ad4     bg_misc.obj
 0002:00003aec       ??_C@_0BH@GGFDCLNK@WP_AKIMBO_SILENCEDCOLT?$AA@ 40030aec     bg_misc.obj
 0002:00003b04       ??_C@_0BE@ODDPPPEJ@WP_MEDIC_ADRENALINE?$AA@ 40030b04     bg_misc.obj
 0002:00003b18       ??_C@_0O@LMAFHBHM@WP_MORTAR_SET?$AA@ 40030b18     bg_misc.obj
 0002:00003b28       ??_C@_0N@PDOPIODE@WP_FG42SCOPE?$AA@ 40030b28     bg_misc.obj
 0002:00003b38       ??_C@_0N@CPJLNOKI@WP_K43_SCOPE?$AA@ 40030b38     bg_misc.obj
 0002:00003b48       ??_C@_0BA@DKOGHDHC@WP_GARAND_SCOPE?$AA@ 40030b48     bg_misc.obj
 0002:00003b58       ??_C@_0BB@INCHPCIE@WP_SILENCED_COLT?$AA@ 40030b58     bg_misc.obj
 0002:00003b6c       ??_C@_05BMIOAIIL@WP_M7?$AA@ 40030b6c     bg_misc.obj
 0002:00003b74       ??_C@_08FPNHEDFC@WP_GPG40?$AA@ 40030b74     bg_misc.obj
 0002:00003b80       ??_C@_0BA@JLHLBHAD@WP_AKIMBO_LUGER?$AA@ 40030b80     bg_misc.obj
 0002:00003b90       ??_C@_0P@HIMIGPMD@WP_AKIMBO_COLT?$AA@ 40030b90     bg_misc.obj
 0002:00003ba0       ??_C@_09JNFCNKNL@WP_MORTAR?$AA@ 40030ba0     bg_misc.obj
 0002:00003bac       ??_C@_0O@KMCJPCGD@WP_DUMMY_MG42?$AA@ 40030bac     bg_misc.obj
 0002:00003bbc       ??_C@_07EFBFNIM@WP_FG42?$AA@ 40030bbc     bg_misc.obj
 0002:00003bc4       ??_C@_06KJDAFABF@WP_K43?$AA@ 40030bc4     bg_misc.obj
 0002:00003bcc       ??_C@_0P@MKCMNFAA@WP_MOBILE_MG42?$AA@ 40030bcc     bg_misc.obj
 0002:00003bdc       ??_C@_0O@GEIBKAJL@WP_SMOKE_BOMB?$AA@ 40030bdc     bg_misc.obj
 0002:00003bec       ??_C@_0P@KNOEGAFA@WP_SATCHEL_DET?$AA@ 40030bec     bg_misc.obj
 0002:00003bfc       ??_C@_0L@BEKGFDDL@WP_SATCHEL?$AA@ 40030bfc     bg_misc.obj
 0002:00003c08       ??_C@_0M@BAHBGOAJ@WP_LANDMINE?$AA@ 40030c08     bg_misc.obj
 0002:00003c14       ??_C@_09HDCLLBKC@WP_GARAND?$AA@ 40030c14     bg_misc.obj
 0002:00003c20       ??_C@_0L@OGAPJLHA@WP_CARBINE?$AA@ 40030c20     bg_misc.obj
 0002:00003c2c       ??_C@_08NCFDIDON@WP_KAR98?$AA@ 40030c2c     bg_misc.obj
 0002:00003c38       ??_C@_0BA@OJEFLKAF@WP_SMOKE_MARKER?$AA@ 40030c38     bg_misc.obj
 0002:00003c48       ??_C@_09OFCBOPHK@WP_PLIERS?$AA@ 40030c48     bg_misc.obj
 0002:00003c54       ??_C@_0O@EICEBJAA@WP_BINOCULARS?$AA@ 40030c54     bg_misc.obj
 0002:00003c64       ??_C@_09IDFKCKGI@WP_MEDKIT?$AA@ 40030c64     bg_misc.obj
 0002:00003c70       ??_C@_0BB@LKDHNLJO@VERYBIGEXPLOSION?$AA@ 40030c70     bg_misc.obj
 0002:00003c84       ??_C@_0O@BHPDDFLL@WP_SMOKETRAIL?$AA@ 40030c84     bg_misc.obj
 0002:00003c94       ??_C@_0M@EFILFBJK@WP_DYNAMITE?$AA@ 40030c94     bg_misc.obj
 0002:00003ca0       ??_C@_0M@MNOFMLFD@WP_SILENCER?$AA@ 40030ca0     bg_misc.obj
 0002:00003cac       ??_C@_07BPGIFPHN@WP_ARTY?$AA@ 40030cac     bg_misc.obj
 0002:00003cb4       ??_C@_07BIHNDFJM@WP_AMMO?$AA@ 40030cb4     bg_misc.obj
 0002:00003cbc       ??_C@_0BB@KEGLJJDG@WP_MEDIC_SYRINGE?$AA@ 40030cbc     bg_misc.obj
 0002:00003cd0       ??_C@_07DIEEIJJC@WP_STEN?$AA@ 40030cd0     bg_misc.obj
 0002:00003cd8       ??_C@_0BF@NGEEJMKJ@WP_GRENADE_PINEAPPLE?$AA@ 40030cd8     bg_misc.obj
 0002:00003cf0       ??_C@_0M@NMLMJIAD@WP_THOMPSON?$AA@ 40030cf0     bg_misc.obj
 0002:00003cfc       ??_C@_07GAEAAPNK@WP_COLT?$AA@ 40030cfc     bg_misc.obj
 0002:00003d04       ??_C@_0BA@IMAPEADC@WP_FLAMETHROWER?$AA@ 40030d04     bg_misc.obj
 0002:00003d14       ??_C@_0P@FNKMAFIH@WP_PANZERFAUST?$AA@ 40030d14     bg_misc.obj
 0002:00003d24       ??_C@_0BE@CDEHBEMM@WP_GRENADE_LAUNCHER?$AA@ 40030d24     bg_misc.obj
 0002:00003d38       ??_C@_07IMHJGBDJ@WP_MP40?$AA@ 40030d38     bg_misc.obj
 0002:00003d40       ??_C@_08PPAIDHKD@WP_LUGER?$AA@ 40030d40     bg_misc.obj
 0002:00003d4c       ??_C@_08BCCHOMHE@WP_KNIFE?$AA@ 40030d4c     bg_misc.obj
 0002:00003d58       ??_C@_07MIINDMBF@WP_NONE?$AA@ 40030d58     bg_misc.obj
 0002:00003d60       ??_C@_0N@BEBPLGNB@Silver?5Snake?$AA@ 40030d60     bg_misc.obj
 0002:00003d70       ??_C@_0BC@KBMCGIGN@Bombardment?5Medal?$AA@ 40030d70     bg_misc.obj
 0002:00003d84       ??_C@_0P@EHPIKLII@Infantry?5Medal?$AA@ 40030d84     bg_misc.obj
 0002:00003d94       ??_C@_0O@BNDNDGAH@Signals?5Medal?$AA@ 40030d94     bg_misc.obj
 0002:00003da4       ??_C@_0N@FMKLPOOF@Silver?5Cross?$AA@ 40030da4     bg_misc.obj
 0002:00003db4       ??_C@_0L@IADBKBPE@Steel?5Star?$AA@ 40030db4     bg_misc.obj
 0002:00003dc0       ??_C@_0BM@LPOLMAOL@Distinguished?5Service?5Medal?$AA@ 40030dc0     bg_misc.obj
 0002:00003ddc       ??_C@_0O@PLLMBMHD@Heavy?5Weapons?$AA@ 40030ddc     bg_misc.obj
 0002:00003dec       ??_C@_0O@JOOJOLAO@Light?5Weapons?$AA@ 40030dec     bg_misc.obj
 0002:00003dfc       ??_C@_07KKOMKDFM@Signals?$AA@ 40030dfc     bg_misc.obj
 0002:00003e04       ??_C@_09HIKJIKEN@First?5Aid?$AA@ 40030e04     bg_misc.obj
 0002:00003e10       ??_C@_0M@EKMDDPG@Engineering?$AA@ 40030e10     bg_misc.obj
 0002:00003e1c       ??_C@_0N@IMBJBHCF@Battle?5Sense?$AA@ 40030e1c     bg_misc.obj
 0002:00003e2c       ??_C@_0CC@GDKEPGKC@?$FO7?$CIHQ?$CJ?3?5?$FO3Construction?5destroyed@ 40030e2c     bg_misc.obj
 0002:00003e50       ??_C@_0BE@OLHGJFCP@_hq_const_destroyed?$AA@ 40030e50     bg_misc.obj
 0002:00003e64       ??_C@_0O@OEPNPBKL@SYS_Destroyed?$AA@ 40030e64     bg_misc.obj
 0002:00003e74       ??_C@_0BP@KCAAGEOC@?$FO7?$CIHQ?$CJ?3?5?$FO3Construction?5failed?$CB?$AA@ 40030e74     bg_misc.obj
 0002:00003e94       ??_C@_0BB@GIBEEHMJ@_hq_const_failed?$AA@ 40030e94     bg_misc.obj
 0002:00003ea8       ??_C@_0BE@DLELADJK@SYS_ConstructFailed?$AA@ 40030ea8     bg_misc.obj
 0002:00003ebc       ??_C@_0CB@IHHOFHJ@?$FO7?$CIHQ?$CJ?3?5?$FO3Construction?5complete?$CB@ 40030ebc     bg_misc.obj
 0002:00003ee0       ??_C@_0BE@IAPMKAFF@_hq_const_completed?$AA@ 40030ee0     bg_misc.obj
 0002:00003ef4       ??_C@_0BG@DDDPODJF@SYS_ConstructComplete?$AA@ 40030ef4     bg_misc.obj
 0002:00003f0c       ??_C@_0BP@CPINNCFB@?$FO7?$CIHQ?$CJ?3?5?$FO3Objective?5destroyed?$CB?$AA@ 40030f0c     bg_misc.obj
 0002:00003f2c       ??_C@_0BI@NPAEGJPI@_hq_objective_destroyed?$AA@ 40030f2c     bg_misc.obj
 0002:00003f44       ??_C@_0BB@IHEEODDC@SYS_ObjDestroyed?$AA@ 40030f44     bg_misc.obj
 0002:00003f58       ??_C@_0BK@EDHFPABB@?$FO7?$CIHQ?$CJ?3?5?$FO3Objective?5lost?$CB?$AA@ 40030f58     bg_misc.obj
 0002:00003f74       ??_C@_0BD@DIBPGFGF@_hq_objective_lost?$AA@ 40030f74     bg_misc.obj
 0002:00003f88       ??_C@_0M@JFKNHIHG@SYS_ObjLost?$AA@ 40030f88     bg_misc.obj
 0002:00003f94       ??_C@_0BO@IMAONBCP@?$FO7?$CIHQ?$CJ?3?5?$FO3Objective?5captured?$CB?$AA@ 40030f94     bg_misc.obj
 0002:00003fb4       ??_C@_0BH@ODOONPEE@_hq_objective_captured?$AA@ 40030fb4     bg_misc.obj
 0002:00003fcc       ??_C@_0BA@MLCIAEHJ@SYS_ObjCaptured?$AA@ 40030fcc     bg_misc.obj
 0002:00003fdc       ??_C@_0CG@GMCCKHHI@?$FO7?$CIHQ?$CJ?3?5?$FO3We?8ve?5lost?5most?5of?5our@ 40030fdc     bg_misc.obj
 0002:00004004       ??_C@_0N@DBNNFKKL@_hq_men_down?$AA@ 40031004     bg_misc.obj
 0002:00004014       ??_C@_0M@OOKBKFF@SYS_MenDown?$AA@ 40031014     bg_misc.obj
 0002:00004020       ??_C@_0CB@FJDLLGND@?$FO7?$CIHQ?$CJ?3?5?$FO3We?5need?5an?5Covert?5Ops?$CB@ 40031020     bg_misc.obj
 0002:00004044       ??_C@_0BD@GKEBFFOC@_hq_need_covertops?$AA@ 40031044     bg_misc.obj
 0002:00004058       ??_C@_0BC@KDKFDOBD@SYS_NeedCovertOps?$AA@ 40031058     bg_misc.obj
 0002:0000406c       ??_C@_0CA@JIFJAHEJ@?$FO7?$CIHQ?$CJ?3?5?$FO3We?5need?5an?5Field?5Ops?$CB?$AA@ 4003106c     bg_misc.obj
 0002:0000408c       ??_C@_0BC@JBFHKOPG@_hq_need_fieldops?$AA@ 4003108c     bg_misc.obj
 0002:000040a0       ??_C@_0BB@EBFBJPGF@SYS_NeedFieldops?$AA@ 400310a0     bg_misc.obj
 0002:000040b4       ??_C@_0BP@CNALELLB@?$FO7?$CIHQ?$CJ?3?5?$FO3We?5need?5an?5Engineer?$CB?$AA@ 400310b4     bg_misc.obj
 0002:000040d4       ??_C@_0BC@EDLGLDKP@_hq_need_engineer?$AA@ 400310d4     bg_misc.obj
 0002:000040e8       ??_C@_0BB@JDLAICDM@SYS_NeedEngineer?$AA@ 400310e8     bg_misc.obj
 0002:000040fc       ??_C@_0BL@NGMOELIL@?$FO7?$CIHQ?$CJ?3?5?$FO3We?5need?5a?5Medic?$CB?$AA@ 400310fc     bg_misc.obj
 0002:00004118       ??_C@_0P@JOLKOHAM@_hq_need_medic?$AA@ 40031118     bg_misc.obj
 0002:00004128       ??_C@_0O@HFGBIIDI@SYS_NeedMedic?$AA@ 40031128     bg_misc.obj
 0002:00004138       _voteToggles               40031138     bg_misc.obj
 0002:000041f0       _aReinfSeeds               400311f0     bg_misc.obj
 0002:00004210       _aWeaponInfo               40031210     bg_misc.obj
 0002:00004378       __real@3ff0000000000000    40031378     bg_misc.obj
 0002:00004380       __real@3fe0000000000000    40031380     bg_misc.obj
 0002:00004388       __real@4010000000000000    40031388     bg_misc.obj
 0002:00004390       __real@4030000000000000    40031390     bg_misc.obj
 0002:00004398       __real@400921fb60000000    40031398     bg_misc.obj
 0002:000043a0       __real@3e99999a            400313a0     bg_misc.obj
 0002:000043a4       ??_C@_05PLKILNHI@White?$AA@ 400313a4     bg_misc.obj
 0002:000043b0       __real@406fe00000000000    400313b0     bg_misc.obj
 0002:000043b8       __real@4049000000000000    400313b8     bg_misc.obj
 0002:000043c0       __real@401c000000000000    400313c0     bg_misc.obj
 0002:000043c8       __real@bf800000            400313c8     bg_misc.obj
 0002:000043d0       __real@0000000000000000    400313d0     bg_misc.obj
 0002:000043d8       __real@405e000000000000    400313d8     bg_misc.obj
 0002:000043e0       ??_C@_0BN@CKJPOGNB@expected?5float?5but?5found?5?$CFs?6?$AA@ 400313e0     bg_misc.obj
 0002:00004400       ??_C@_0BP@FLADEANJ@expected?5integer?5but?5found?5?$CFs?6?$AA@ 40031400     bg_misc.obj
 0002:00004420       __real@4020000000000000    40031420     q_math.obj
 0002:00004428       __real@4066800000000000    40031428     q_math.obj
 0002:00004430       ??_C@_0BJ@OLBOPICM@Q_strncpyz?3?5destsize?5?$DM?51?$AA@ 40031430     q_shared.obj
 0002:0000444c       ??_C@_0BF@BJHHBLMD@Q_strncpyz?3?5NULL?5src?$AA@ 4003144c     q_shared.obj
 0002:00004464       ??_C@_0BN@EFOOAHFL@Q_strcat?3?5already?5overflowed?$AA@ 40031464     q_shared.obj
 0002:00004484       ??_C@_0CK@KHOBLOFO@Com_sprintf?3?5overflow?5of?5?$CFi?5byte@ 40031484     q_shared.obj
 0002:000044b0       ??_C@_0CN@PKGLJABL@Attempted?5to?5overrun?5string?5in?5c@ 400314b0     q_shared.obj
 0002:000044e0       ??_C@_0DA@LIKJOKD@Info_ValueForKey?3?5oversize?5infos@ 400314e0     q_shared.obj
 0002:00004510       ??_C@_0O@HNELLPEM@listcampaigns?$AA@ 40031510     ui_atoms.obj
 0002:00004520       ??_C@_08NFIAKLAJ@campaign?$AA@ 40031520     ui_atoms.obj
 0002:0000452c       ??_C@_0M@GCJEHMGM@iamacheater?$AA@ 4003152c     ui_atoms.obj
 0002:00004538       ??_C@_08HOPFIAK@ui_cdkey?$AA@ 40031538     ui_atoms.obj
 0002:00004544       ??_C@_0O@DJEGGJPO@ui_teamOrders?$AA@ 40031544     ui_atoms.obj
 0002:00004554       ??_C@_08OEBEDBJL@ui_cache?$AA@ 40031554     ui_atoms.obj
 0002:00004560       ??_C@_08FNKAODFI@postgame?$AA@ 40031560     ui_atoms.obj
 0002:0000456c       ??_C@_07OKJIHONL@ui_load?$AA@ 4003156c     ui_atoms.obj
 0002:00004574       ??_C@_09NFKMFHHN@ui_report?$AA@ 40031574     ui_atoms.obj
 0002:00004580       ??_C@_07IANFCHLD@ui_test?$AA@ 40031580     ui_atoms.obj
 0002:00004588       __real@3ff5555560000000    40031588     ui_atoms.obj
 0002:00004590       __real@3faaaaab            40031590     ui_atoms.obj
 0002:00004594       ??_C@_09DNECJBKD@developer?$AA@ 40031594     ui_atoms.obj
 0002:000045a0       ??_C@_02DPKJAMEF@?$CFd?$AA@ 400315a0     ui_gameinfo.obj
 0002:000045a4       ??_C@_0CF@HOPIBHEP@?$FO1unexpected?5end?5of?5file?5inside?3@ 400315a4     ui_gameinfo.obj
 0002:000045cc       ??_C@_0O@FEFCNDNP@mapposition_y?$AA@ 400315cc     ui_gameinfo.obj
 0002:000045dc       ??_C@_0O@ENEJOCJO@mapposition_x?$AA@ 400315dc     ui_gameinfo.obj
 0002:000045ec       ??_C@_06MGLIHIAA@wolfsw?$AA@ 400315ec     ui_gameinfo.obj
 0002:000045f4       ??_C@_06JPEBGALN@wolfmp?$AA@ 400315f4     ui_gameinfo.obj
 0002:000045fc       ??_C@_07BNBPPDCC@wolflms?$AA@ 400315fc     ui_gameinfo.obj
 0002:00004604       ??_C@_06IJPJOOMH@wolfsp?$AA@ 40031604     ui_gameinfo.obj
 0002:0000460c       ??_C@_04GPMDFGEJ@type?$AA@ 4003160c     ui_gameinfo.obj
 0002:00004614       ??_C@_0BC@LDNONPB@alliedrespawntime?$AA@ 40031614     ui_gameinfo.obj
 0002:00004628       ??_C@_0BA@HJKLBPFG@axisrespawntime?$AA@ 40031628     ui_gameinfo.obj
 0002:00004638       ??_C@_09KPHKOKCC@timelimit?$AA@ 40031638     ui_gameinfo.obj
 0002:00004644       ??_C@_0M@MNBCHEID@lmsbriefing?$AA@ 40031644     ui_gameinfo.obj
 0002:00004650       ??_C@_08PLKIGCGP@briefing?$AA@ 40031650     ui_gameinfo.obj
 0002:0000465c       ??_C@_08JJAPLNHH@longname?$AA@ 4003165c     ui_gameinfo.obj
 0002:00004668       ??_C@_03HBNNNHNM@map?$AA@  40031668     ui_gameinfo.obj
 0002:0000466c       ??_C@_0CE@JLCOIDNB@?$FO1unexpected?5token?5?8?$CFs?8?5inside?3?5@ 4003166c     ui_gameinfo.obj
 0002:00004690       ??_C@_0BG@BJEIGKLP@?$FO1file?5not?5found?3?5?$CFs?6?$AA@ 40031690     ui_gameinfo.obj
 0002:000046a8       ??_C@_08IDJEBFOJ@scripts?1?$AA@ 400316a8     ui_gameinfo.obj
 0002:000046b4       ??_C@_07OMEBBDEO@scripts?$AA@ 400316b4     ui_gameinfo.obj
 0002:000046bc       ??_C@_06IPPMLGON@?4arena?$AA@ 400316bc     ui_gameinfo.obj
 0002:000046c8       __real@4084500000000000    400316c8     ui_gameinfo.obj
 0002:000046d0       ??_C@_05CIBCEEFB@maptc?$AA@ 400316d0     ui_gameinfo.obj
 0002:000046d8       ??_C@_04ILAGGJBN@maps?$AA@ 400316d8     ui_gameinfo.obj
 0002:000046e0       ??_C@_04CJGEDOF@next?$AA@  400316e0     ui_gameinfo.obj
 0002:000046e8       ??_C@_07GLCKIJBG@initial?$AA@ 400316e8     ui_gameinfo.obj
 0002:000046f0       ??_C@_05NGOMGBBD@image?$AA@ 400316f0     ui_gameinfo.obj
 0002:000046f8       ??_C@_0M@PPJNHBMP@description?$AA@ 400316f8     ui_gameinfo.obj
 0002:00004704       ??_C@_04MEMAJGDJ@name?$AA@ 40031704     ui_gameinfo.obj
 0002:0000470c       ??_C@_09PJCCCILH@shortname?$AA@ 4003170c     ui_gameinfo.obj
 0002:00004718       ??_C@_07KMNEBLH@mapname?$AA@ 40031718     ui_gameinfo.obj
 0002:00004720       ??_C@_0BJ@HNFLCNPE@profiles?1?$CFs?1campaign?4dat?$AA@ 40031720     ui_gameinfo.obj
 0002:0000473c       ??_C@_0DM@NJMCIEAK@?$FO3WARNING?3?5not?5anough?5memory?5in?5@ 4003173c     ui_gameinfo.obj
 0002:00004778       ??_C@_09IBJHOELC@?4campaign?$AA@ 40031778     ui_gameinfo.obj
 0002:00004784       ??_C@_0BI@GHKLPAPG@gfx?1loading?1progressbar?$AA@ 40031784     ui_loadpanel.obj
 0002:0000479c       ??_C@_0BN@OPKLDFMH@gfx?1loading?1progressbar_back?$AA@ 4003179c     ui_loadpanel.obj
 0002:000047bc       ??_C@_0BG@NIFIFLJN@gfx?1loading?1camp_side?$AA@ 400317bc     ui_loadpanel.obj
 0002:000047d4       ??_C@_0BF@PINDHEDO@gfx?1loading?1camp_map?$AA@ 400317d4     ui_loadpanel.obj
 0002:000047ec       ??_C@_06JLKJHNDD@courbd?$AA@ 400317ec     ui_loadpanel.obj
 0002:000047f4       ??_C@_06MLHBGBIG@ariblk?$AA@ 400317f4     ui_loadpanel.obj
 0002:000047fc       ??_C@_01GBGANLPD@0?$AA@    400317fc     ui_loadpanel.obj
 0002:00004800       ??_C@_0O@EKHMPCNK@ui_connecting?$AA@ 40031800     ui_loadpanel.obj
 0002:00004810       ??_C@_0BA@MIMGFFNE@cl_downloadName?$AA@ 40031810     ui_loadpanel.obj
 0002:00004820       ??_C@_0M@BNDKNOFH@?$CFs?1?$CFs?$CI?$CFd?$CF?$CF?$CJ?$AA@ 40031820     ui_loadpanel.obj
 0002:00004830       __real@4059000000000000    40031830     ui_loadpanel.obj
 0002:00004838       ??_C@_0BB@FAHDFBEE@cl_downloadCount?$AA@ 40031838     ui_loadpanel.obj
 0002:0000484c       ??_C@_0BA@IMGLJLPN@cl_downloadSize?$AA@ 4003184c     ui_loadpanel.obj
 0002:0000485c       ??_C@_0O@ONMGCNLF@CONNECTING?4?4?4?$AA@ 4003185c     ui_loadpanel.obj
 0002:0000486c       ??_C@_0P@HCNLJNLE@DOWNLOADING?4?4?4?$AA@ 4003186c     ui_loadpanel.obj
 0002:0000487c       ??_C@_0BD@GKDIMPAA@?$CFs?6?6?5estimating?4?4?4?$AA@ 4003187c     ui_loadpanel.obj
 0002:00004890       ??_C@_0O@DCCAONIG@?$CFs?6?6?5?$CFs?$CI?$CFs?1s?$CJ?$AA@ 40031890     ui_loadpanel.obj
 0002:000048a0       ??_C@_09KPPELEEE@?$CFs?5?$CI?$CFd?$CF?$CF?$CJ?$AA@ 400318a0     ui_loadpanel.obj
 0002:000048ac       ??_C@_0BA@CHCCPCBI@cl_downloadTime?$AA@ 400318ac     ui_loadpanel.obj
 0002:000048bc       ??_C@_0DB@EFMFGPIF@Invalid?5ET?5version?3?5?$CFs?6Install?52@ 400318bc     ui_loadpanel.obj
 0002:000048f0       __real@43e88000            400318f0     ui_loadpanel.obj
 0002:000048f4       __real@43b30000            400318f4     ui_loadpanel.obj
 0002:000048f8       __real@3e4ccccd            400318f8     ui_loadpanel.obj
 0002:000048fc       __real@431b0000            400318fc     ui_loadpanel.obj
 0002:00004900       __real@4028000000000000    40031900     ui_loadpanel.obj
 0002:00004908       ??_C@_0CJ@BGIOOIKK@Connecting?5to?3?6?5?$CFs?$FO?$CK?6?6?5Needed?5pa@ 40031908     ui_loadpanel.obj
 0002:00004934       ??_C@_0BB@OFJMCGDE@com_missingFiles?$AA@ 40031934     ui_loadpanel.obj
 0002:00004948       ??_C@_06BOJKDMDN@?6?6?$CFs?$FO?$CK?$AA@ 40031948     ui_loadpanel.obj
 0002:00004950       ??_C@_0O@GLDOKMJM@ui_dl_running?$AA@ 40031950     ui_loadpanel.obj
 0002:00004960       ??_C@_0BG@PBGJCCMP@Awaiting?5gamestate?4?4?4?$AA@ 40031960     ui_loadpanel.obj
 0002:00004978       ??_C@_0BI@OIGNBFGC@Awaiting?5challenge?4?4?4?$CFi?$AA@ 40031978     ui_loadpanel.obj
 0002:00004990       ??_C@_0BJ@EMLKBDFN@Awaiting?5connection?4?4?4?$CFi?$AA@ 40031990     ui_loadpanel.obj
 0002:000049ac       ??_C@_0BJ@PHPEPFDA@Connecting?5to?3?6?5?$CFs?$FO?$CK?6?6?$CFs?$AA@ 400319ac     ui_loadpanel.obj
 0002:000049c8       ??_C@_04GJFDDCGE@motd?$AA@ 400319c8     ui_loadpanel.obj
 0002:000049d0       ??_C@_04JGNINAH@2?456?$AA@ 400319d0     ui_loadpanel.obj
 0002:000049d8       ??_C@_04CCEANOME@2?455?$AA@ 400319d8     ui_loadpanel.obj
 0002:000049e0       ??_C@_07CPCPJPKL@version?$AA@ 400319e0     ui_loadpanel.obj
 0002:000049e8       ??_C@_0BF@GPIPIGKE@g_mapScriptDirectory?$AA@ 400319e8     ui_main.obj
 0002:00004a00       ??_C@_0BA@GKEHHCAM@ui_autoredirect?$AA@ 40031a00     ui_main.obj
 0002:00004a10       ??_C@_0P@HEIAJDMI@cg_shoveSounds?$AA@ 40031a10     ui_main.obj
 0002:00004a20       ??_C@_05MIGMCC@5?4159?$AA@ 40031a20     ui_main.obj
 0002:00004a28       ??_C@_0P@BDEMPHFM@cg_automapZoom?$AA@ 40031a28     ui_main.obj
 0002:00004a38       ??_C@_0BA@DBKGAGEA@cg_FTAutoSelect?$AA@ 40031a38     ui_main.obj
 0002:00004a48       ??_C@_0BB@PINCLILE@cg_drawAuraIcons?$AA@ 40031a48     ui_main.obj
 0002:00004a5c       ??_C@_0BC@PBLMMGKF@cg_weapAltReloads?$AA@ 40031a5c     ui_main.obj
 0002:00004a70       ??_C@_0N@CAKMEAJJ@cg_rtcwShake?$AA@ 40031a70     ui_main.obj
 0002:00004a80       ??_C@_0O@LOADGIFB@cg_altHQVoice?$AA@ 40031a80     ui_main.obj
 0002:00004a90       ??_C@_0BF@PHGDNAHK@cg_weaponBounceSound?$AA@ 40031a90     ui_main.obj
 0002:00004aa8       ??_C@_0BC@LHOCPMMJ@cg_fixedFTeamSize?$AA@ 40031aa8     ui_main.obj
 0002:00004abc       ??_C@_0N@OOBFJIKL@cg_locations?$AA@ 40031abc     ui_main.obj
 0002:00004acc       ??_C@_0BG@JLJMNBAA@cg_optimizePrediction?$AA@ 40031acc     ui_main.obj
 0002:00004ae4       ??_C@_0N@CNJNHNMF@cg_speedunit?$AA@ 40031ae4     ui_main.obj
 0002:00004af4       ??_C@_0N@PAPIJNKI@cg_drawspeed?$AA@ 40031af4     ui_main.obj
 0002:00004b04       ??_C@_0P@HDEGBFFO@cg_drawTracers?$AA@ 40031b04     ui_main.obj
 0002:00004b14       ??_C@_0BD@PEPNIPCN@cg_drawMuzzleFlash?$AA@ 40031b14     ui_main.obj
 0002:00004b28       ??_C@_0P@IFBEIBPL@hud_drawAltHUD?$AA@ 40031b28     ui_main.obj
 0002:00004b38       ??_C@_0BB@LJIMHNMF@hud_drawPowerups?$AA@ 40031b38     ui_main.obj
 0002:00004b4c       ??_C@_0O@MKKGOPJG@hud_rankAlpha?$AA@ 40031b4c     ui_main.obj
 0002:00004b5c       ??_C@_03JCAGBGHO@408?$AA@  40031b5c     ui_main.obj
 0002:00004b60       ??_C@_09PDPHNCFD@hud_rankY?$AA@ 40031b60     ui_main.obj
 0002:00004b6c       ??_C@_03FOPFGEPB@112?$AA@  40031b6c     ui_main.obj
 0002:00004b70       ??_C@_09OKOMODBC@hud_rankX?$AA@ 40031b70     ui_main.obj
 0002:00004b7c       ??_C@_0BC@MKNGLOIE@hud_skillBarAlpha?$AA@ 40031b7c     ui_main.obj
 0002:00004b90       ??_C@_03BMCHPHP@388?$AA@   40031b90     ui_main.obj
 0002:00004b94       ??_C@_0O@FEGABEIL@hud_skillBarY?$AA@ 40031b94     ui_main.obj
 0002:00004ba4       ??_C@_02JIPGJIFG@44?$AA@   40031ba4     ui_main.obj
 0002:00004ba8       ??_C@_0O@ENHLCFMK@hud_skillBarX?$AA@ 40031ba8     ui_main.obj
 0002:00004bb8       ??_C@_02DCIIBFLB@18?$AA@   40031bb8     ui_main.obj
 0002:00004bbc       ??_C@_0BA@BBDHICGF@hud_powerupSize?$AA@ 40031bbc     ui_main.obj
 0002:00004bcc       ??_C@_03KNHHDAHD@384?$AA@  40031bcc     ui_main.obj
 0002:00004bd0       ??_C@_0BA@PCFFGOBD@cg_markDistance?$AA@ 40031bd0     ui_main.obj
 0002:00004be0       ??_C@_0BA@EHGBMFDP@cg_drawObjIcons?$AA@ 40031be0     ui_main.obj
 0002:00004bf0       ??_C@_0P@KINLCFAH@cg_drawHUDHead?$AA@ 40031bf0     ui_main.obj
 0002:00004c00       ??_C@_0N@MOPICEAL@cg_goatSound?$AA@ 40031c00     ui_main.obj
 0002:00004c10       ??_C@_0N@KEEMKHHK@cg_hitSounds?$AA@ 40031c10     ui_main.obj
 0002:00004c20       ??_C@_03LNMAPFD@0?48?$AA@  40031c20     ui_main.obj
 0002:00004c24       ??_C@_0M@OLAFPHKG@cg_HUDAlpha?$AA@ 40031c24     ui_main.obj
 0002:00004c30       ??_C@_09HLDLCPGP@?45?5?5?45?5?45?$AA@ 40031c30     ui_main.obj
 0002:00004c3c       ??_C@_0BC@OJOEKOGB@cg_HUDBorderColor?$AA@ 40031c3c     ui_main.obj
 0002:00004c50       ??_C@_0L@IBEMOEDH@?416?5?42?5?417?$AA@ 40031c50     ui_main.obj
 0002:00004c5c       ??_C@_0BG@LJKGJBIN@cg_HUDBackgroundColor?$AA@ 40031c5c     ui_main.obj
 0002:00004c74       ??_C@_0BF@IBNNPION@cg_graphicObituaries?$AA@ 40031c74     ui_main.obj
 0002:00004c8c       ??_C@_0BD@NDLLNIMA@cg_drawTimeSeconds?$AA@ 40031c8c     ui_main.obj
 0002:00004ca0       ??_C@_0M@ONDCPDGI@cg_drawTime?$AA@ 40031ca0     ui_main.obj
 0002:00004cac       ??_C@_0M@CIMCIJHD@cg_drawPing?$AA@ 40031cac     ui_main.obj
 0002:00004cb8       ??_C@_0BB@JKFBMCBK@cg_drawKillSpree?$AA@ 40031cb8     ui_main.obj
 0002:00004ccc       ??_C@_0BD@JEPOPGCM@cg_impactparticles?$AA@ 40031ccc     ui_main.obj
 0002:00004ce0       ??_C@_0BC@LKIIHCOB@cg_trailparticles?$AA@ 40031ce0     ui_main.obj
 0002:00004cf4       ??_C@_0BC@HMDPFJML@cg_smokeparticles?$AA@ 40031cf4     ui_main.obj
 0002:00004d08       ??_C@_0BA@LBKCGOOB@ui_showtooltips?$AA@ 40031d08     ui_main.obj
 0002:00004d18       ??_C@_0BF@GAPFNOAB@g_currentCampaignMap?$AA@ 40031d18     ui_main.obj
 0002:00004d30       ??_C@_0BC@OFBJJPJA@g_currentCampaign?$AA@ 40031d30     ui_main.obj
 0002:00004d44       ??_C@_0O@HPCNNAOC@g_oldCampaign?$AA@ 40031d44     ui_main.obj
 0002:00004d54       ??_C@_0BE@HPGFAKLO@cl_bypassMouseInput?$AA@ 40031d54     ui_main.obj
 0002:00004d68       ??_C@_0BG@ECMGKMAL@ui_profile_mousePitch?$AA@ 40031d68     ui_main.obj
 0002:00004d80       ??_C@_0P@BABGFA@ui_sensitivity?$AA@ 40031d80     ui_main.obj
 0002:00004d90       ??_C@_0O@KBIHLOLA@ui_handedness?$AA@ 40031d90     ui_main.obj
 0002:00004da0       ??_C@_07NGGBHANB@ui_rate?$AA@ 40031da0     ui_main.obj
 0002:00004da8       ??_C@_0L@OEPKFCFI@ui_r_gamma?$AA@ 40031da8     ui_main.obj
 0002:00004db4       ??_C@_0BC@HBMMFOKG@ui_r_customHeight?$AA@ 40031db4     ui_main.obj
 0002:00004dc8       ??_C@_0BB@PBMJACNK@ui_r_customWidth?$AA@ 40031dc8     ui_main.obj
 0002:00004ddc       ??_C@_09KDEPNMFH@ui_r_mode?$AA@ 40031ddc     ui_main.obj
 0002:00004de8       ??_C@_0N@IMMGIHND@vote_percent?$AA@ 40031de8     ui_main.obj
 0002:00004df8       ??_C@_0L@GMNHJFJI@vote_limit?$AA@ 40031df8     ui_main.obj
 0002:00004e04       ??_C@_0BA@NPJBHIAP@team_nocontrols?$AA@ 40031e04     ui_main.obj
 0002:00004e14       ??_C@_0BA@BJOFAMJI@team_maxplayers?$AA@ 40031e14     ui_main.obj
 0002:00004e24       ??_C@_0BA@DHLCMHAL@team_maxPanzers?$AA@ 40031e24     ui_main.obj
 0002:00004e34       ??_C@_0N@JBPLANAD@server_motd5?$AA@ 40031e34     ui_main.obj
 0002:00004e44       ??_C@_0N@IIOADMEC@server_motd4?$AA@ 40031e44     ui_main.obj
 0002:00004e54       ??_C@_0N@MHKBKKIF@server_motd3?$AA@ 40031e54     ui_main.obj
 0002:00004e64       ??_C@_0N@NOLKJLME@server_motd2?$AA@ 40031e64     ui_main.obj
 0002:00004e74       ??_C@_0N@PFJHMIAH@server_motd1?$AA@ 40031e74     ui_main.obj
 0002:00004e84       ??_C@_0BL@HGFAMMDE@?5?$FONEnemy?5Territory?5?$FO7MOTD?5?$AA@ 40031e84     ui_main.obj
 0002:00004ea0       ??_C@_0N@OMIMPJEG@server_motd0?$AA@ 40031ea0     ui_main.obj
 0002:00004eb0       ??_C@_0BC@OPKPBHOJ@server_autoconfig?$AA@ 40031eb0     ui_main.obj
 0002:00004ec4       ??_C@_0BD@KOFBKBOP@match_warmupDamage?$AA@ 40031ec4     ui_main.obj
 0002:00004ed8       ??_C@_03GDBCDNPM@180?$AA@  40031ed8     ui_main.obj
 0002:00004edc       ??_C@_0BE@JCPEJALB@match_timeoutlength?$AA@ 40031edc     ui_main.obj
 0002:00004ef0       ??_C@_0BD@FGFIICMD@match_timeoutcount?$AA@ 40031ef0     ui_main.obj
 0002:00004f04       ??_C@_0BD@BNJPCACD@match_readypercent?$AA@ 40031f04     ui_main.obj
 0002:00004f18       ??_C@_0BA@EMOGOAK@match_mutespecs?$AA@ 40031f18     ui_main.obj
 0002:00004f28       ??_C@_0BB@MEBOJPC@match_minplayers?$AA@ 40031f28     ui_main.obj
 0002:00004f3c       ??_C@_0P@OKPACBIB@match_latejoin?$AA@ 40031f3c     ui_main.obj
 0002:00004f4c       ??_C@_0BG@IHLEGKDD@g_spectatorInactivity?$AA@ 40031f4c     ui_main.obj
 0002:00004f64       ??_C@_0L@KOGBCPKN@sv_maxRate?$AA@ 40031f64     ui_main.obj
 0002:00004f70       ??_C@_0BD@CLGJCDLA@g_teamForceBalance?$AA@ 40031f70     ui_main.obj
 0002:00004f84       ??_C@_0BA@MDLCADNC@refereePassword?$AA@ 40031f84     ui_main.obj
 0002:00004f94       ??_C@_0L@CDIAELGC@g_maxLives?$AA@ 40031f94     ui_main.obj
 0002:00004fa0       ??_C@_0N@JGEKALLI@g_inactivity?$AA@ 40031fa0     ui_main.obj
 0002:00004fb0       ??_C@_0L@LPENDGCI@g_doWarmup?$AA@ 40031fb0     ui_main.obj
 0002:00004fbc       ??_C@_01DHDKHMHF@6?$AA@    40031fbc     ui_main.obj
 0002:00004fc0       ??_C@_0BB@KACLAGKJ@g_complaintlimit?$AA@ 40031fc0     ui_main.obj
 0002:00004fd4       ??_C@_0BD@CINOEDMN@g_ipcomplaintlimit?$AA@ 40031fd4     ui_main.obj
 0002:00004fe8       ??_C@_0BD@LIMLEDHE@g_altStopwatchMode?$AA@ 40031fe8     ui_main.obj
 0002:00004ffc       ??_C@_02DEEDNHFK@48?$AA@   40031ffc     ui_main.obj
 0002:00005000       ??_C@_0BB@NJOFJDCL@cg_crosshairSize?$AA@ 40032000     ui_main.obj
 0002:00005014       ??_C@_0BF@LDMIEFP@cg_crosshairAlphaAlt?$AA@ 40032014     ui_main.obj
 0002:0000502c       ??_C@_0M@JJPLCLDP@ui_blackout?$AA@ 4003202c     ui_main.obj
 0002:00005038       ??_C@_0BM@PPDDBFCJ@ui_currentCampaignCompleted?$AA@ 40032038     ui_main.obj
 0002:00005054       ??_C@_0BB@CPIONADF@ui_campaignIndex?$AA@ 40032054     ui_main.obj
 0002:00005068       ??_C@_0BG@IPJJHEOD@ui_currentNetCampaign?$AA@ 40032068     ui_main.obj
 0002:00005080       ??_C@_0BD@HGDKHLH@ui_currentCampaign?$AA@ 40032080     ui_main.obj
 0002:00005094       ??_C@_0L@LMAKGLGA@ui_profile?$AA@ 40032094     ui_main.obj
 0002:000050a0       ??_C@_0BC@NPLDMBLO@cl_defaultProfile?$AA@ 400320a0     ui_main.obj
 0002:000050b4       ??_C@_0L@BMGAKOKM@cl_profile?$AA@ 400320b4     ui_main.obj
 0002:000050c0       ??_C@_03GNABGMEE@100?$AA@  400320c0     ui_main.obj
 0002:000050c4       ??_C@_0BJ@PGLCGFGE@g_heavyWeaponRestriction?$AA@ 400320c4     ui_main.obj
 0002:000050e0       ??_C@_0BF@LHHNFGIA@g_lms_followTeamOnly?$AA@ 400320e0     ui_main.obj
 0002:000050f8       ??_C@_0BB@JGPDHGPH@g_lms_matchlimit?$AA@ 400320f8     ui_main.obj
 0002:0000510c       ??_C@_0BB@POOKBNKP@g_lms_roundlimit?$AA@ 4003210c     ui_main.obj
 0002:00005120       ??_C@_08HAMOJLDA@g_warmup?$AA@ 40032120     ui_main.obj
 0002:0000512c       ??_C@_09FDKFNPJN@g_antilag?$AA@ 4003212c     ui_main.obj
 0002:00005138       ??_C@_0L@GHAPAPFD@g_password?$AA@ 40032138     ui_main.obj
 0002:00005144       ??_C@_0BB@LKEKHBGJ@cg_wolfparticles?$AA@ 40032144     ui_main.obj
 0002:00005158       ??_C@_04MNFIFLPL@1536?$AA@ 40032158     ui_main.obj
 0002:00005160       ??_C@_0BB@BEEFGIOF@cg_coronafardist?$AA@ 40032160     ui_main.obj
 0002:00005174       ??_C@_0BF@DBHOIAGK@cg_crosshairColorAlt?$AA@ 40032174     ui_main.obj
 0002:0000518c       ??_C@_0BC@DBBIBJOC@cg_crosshairAlpha?$AA@ 4003218c     ui_main.obj
 0002:000051a0       ??_C@_0BC@EFBPHNAJ@cg_crosshairColor?$AA@ 400321a0     ui_main.obj
 0002:000051b4       ??_C@_0BG@PFLNOEEN@cg_drawCrosshairNames?$AA@ 400321b4     ui_main.obj
 0002:000051cc       ??_C@_0BC@PKLCFMJN@cg_crosshairPulse?$AA@ 400321cc     ui_main.obj
 0002:000051e0       ??_C@_0P@NOKIHKHC@cg_cursorHints?$AA@ 400321e0     ui_main.obj
 0002:000051f0       ??_C@_0BJ@ICGIDCKE@cg_drawReinforcementTime?$AA@ 400321f0     ui_main.obj
 0002:0000520c       ??_C@_0P@NNBDAACL@cg_drawCompass?$AA@ 4003220c     ui_main.obj
 0002:0000521c       ??_C@_0L@MLBFCMPB@cg_drawGun?$AA@ 4003221c     ui_main.obj
 0002:00005228       ??_C@_0BF@PABLOBKE@cg_useScreenshotJPEG?$AA@ 40032228     ui_main.obj
 0002:00005240       ??_C@_0BG@IJCJILME@cg_printObjectiveInfo?$AA@ 40032240     ui_main.obj
 0002:00005258       ??_C@_0N@OBEOAHHJ@cg_announcer?$AA@ 40032258     ui_main.obj
 0002:00005268       ??_C@_0BC@BEAEEJKP@cg_complaintPopUp?$AA@ 40032268     ui_main.obj
 0002:0000527c       ??_C@_04BMLKGOAG@6000?$AA@ 4003227c     ui_main.obj
 0002:00005284       ??_C@_0BD@OMABEGA@cg_voicespritetime?$AA@ 40032284     ui_main.obj
 0002:00005298       ??_C@_0BC@MFLJBIJL@cg_zoomstepsniper?$AA@ 40032298     ui_main.obj
 0002:000052ac       ??_C@_0BF@BFCCHDM@cg_zoomDefaultSniper?$AA@ 400322ac     ui_main.obj
 0002:000052c4       ??_C@_0BD@OBNAPDNG@cg_useWeapsForZoom?$AA@ 400322c4     ui_main.obj
 0002:000052d8       ??_C@_0BE@NNMCMDBG@cg_noAmmoAutoSwitch?$AA@ 400322d8     ui_main.obj
 0002:000052ec       ??_C@_0O@FNFJAGIB@cg_autoReload?$AA@ 400322ec     ui_main.obj
 0002:000052fc       ??_C@_03HLLJOCDO@1?40?$AA@ 400322fc     ui_main.obj
 0002:00005300       ??_C@_0O@CINGLONP@cg_bloodFlash?$AA@ 40032300     ui_main.obj
 0002:00005310       ??_C@_0N@BGFOBDOL@cg_showblood?$AA@ 40032310     ui_main.obj
 0002:00005320       ??_C@_0BC@FJGPJIBC@cg_drawRoundTimer?$AA@ 40032320     ui_main.obj
 0002:00005334       ??_C@_0L@KEEMJOEG@g_gameType?$AA@ 40032334     ui_main.obj
 0002:00005340       ??_C@_0P@MNFGNPMI@ui_isSpectator?$AA@ 40032340     ui_main.obj
 0002:00005350       ??_C@_0N@EPNLCIAN@ui_objective?$AA@ 40032350     ui_main.obj
 0002:00005360       ??_C@_0N@IOBAIAK@ui_limboMode?$AA@ 40032360     ui_main.obj
 0002:00005370       ??_C@_0O@DOIHGIPE@ui_prevWeapon?$AA@ 40032370     ui_main.obj
 0002:00005380       ??_C@_0N@DCHDKCEA@ui_prevClass?$AA@ 40032380     ui_main.obj
 0002:00005390       ??_C@_0M@BJELLIGN@ui_prevTeam?$AA@ 40032390     ui_main.obj
 0002:0000539c       ??_C@_06CBHGHHLI@ui_cmd?$AA@ 4003239c     ui_main.obj
 0002:000053a4       ??_C@_0BC@IDCHCNPL@ui_limboObjective?$AA@ 400323a4     ui_main.obj
 0002:000053b8       ??_C@_0BE@CICDBKDM@ui_limboPrevOptions?$AA@ 400323b8     ui_main.obj
 0002:000053cc       ??_C@_0BA@CCMIPCLC@ui_limboOptions?$AA@ 400323cc     ui_main.obj
 0002:000053dc       ??_C@_09DALNGLCP@headModel?$AA@ 400323dc     ui_main.obj
 0002:000053e8       ??_C@_0L@KHOJDC@ui_Q3Model?$AA@ 400323e8     ui_main.obj
 0002:000053f4       ??_C@_04CBNKEHLG@7000?$AA@ 400323f4     ui_main.obj
 0002:000053fc       ??_C@_0BH@CNJFJKJI@ui_serverStatusTimeOut?$AA@ 400323fc     ui_main.obj
 0002:00005414       ??_C@_0BB@OLFHJHLF@ui_browserNQonly?$AA@ 40032414     ui_main.obj
 0002:00005428       ??_C@_0BL@LLKLMKKC@ui_browserShowTeamBalanced?$AA@ 40032428     ui_main.obj
 0002:00005444       ??_C@_0CA@LLINFHAK@ui_browserShowWeaponsRestricted?$AA@ 40032444     ui_main.obj
 0002:00005464       ??_C@_0BG@DLPILKCK@ui_browserShowAntilag?$AA@ 40032464     ui_main.obj
 0002:0000547c       ??_C@_0BJ@HGIGEHON@ui_browserShowPunkBuster?$AA@ 4003247c     ui_main.obj
 0002:00005498       ??_C@_0BH@HBEBDFBO@ui_browserShowMaxlives?$AA@ 40032498     ui_main.obj
 0002:000054b0       ??_C@_0BL@ODLKIDMB@ui_browserShowFriendlyFire?$AA@ 400324b0     ui_main.obj
 0002:000054cc       ??_C@_0CA@CGDELIMJ@ui_browserShowPasswordProtected?$AA@ 400324cc     ui_main.obj
 0002:000054ec       ??_C@_0BK@FPLNOLCB@ui_browserShowEmptyOrFull?$AA@ 400324ec     ui_main.obj
 0002:00005508       ??_C@_0BC@OHDOHLCL@ui_browserSortKey?$AA@ 40032508     ui_main.obj
 0002:0000551c       ??_C@_0BD@POMFLHHE@ui_browserGameType?$AA@ 4003251c     ui_main.obj
 0002:00005530       ??_C@_0BB@KIFEKFLJ@ui_browserMaster?$AA@ 40032530     ui_main.obj
 0002:00005544       ??_C@_0BB@GFAHJNNM@ui_currentNetMap?$AA@ 40032544     ui_main.obj
 0002:00005558       ??_C@_0O@IGABJOOG@ui_currentMap?$AA@ 40032558     ui_main.obj
 0002:00005568       ??_C@_0M@BFKLKEBI@ui_mapIndex?$AA@ 40032568     ui_main.obj
 0002:00005574       ??_C@_0BB@LJCNJKCE@cg_clipboardName?$AA@ 40032574     ui_main.obj
 0002:00005588       ??_C@_0P@EMDAIJBA@ui_netGametype?$AA@ 40032588     ui_main.obj
 0002:00005598       ??_C@_02PGHGPEOM@?91?$AA@  40032598     ui_main.obj
 0002:0000559c       ??_C@_0BA@DLIBAHLB@ui_joinGametype?$AA@ 4003259c     ui_main.obj
 0002:000055ac       ??_C@_0M@JLEABLCD@ui_gametype?$AA@ 400325ac     ui_main.obj
 0002:000055b8       ??_C@_0N@LILIABJH@ui?1menus?4txt?$AA@ 400325b8     ui_main.obj
 0002:000055c8       ??_C@_0N@DGOMJILH@ui_menuFiles?$AA@ 400325c8     ui_main.obj
 0002:000055d8       ??_C@_0N@LBKNMFEF@ui_netSource?$AA@ 400325d8     ui_main.obj
 0002:000055e8       ??_C@_0BG@ICIOFDPB@cg_selectedPlayerName?$AA@ 400325e8     ui_main.obj
 0002:00005600       ??_C@_0BC@HCNILCAE@cg_selectedPlayer?$AA@ 40032600     ui_main.obj
 0002:00005614       ??_C@_0BA@LAMCFMKH@ui_cdkeychecked?$AA@ 40032614     ui_main.obj
 0002:00005624       ??_C@_0N@MHIHNKN@ui_dedicated?$AA@ 40032624     ui_main.obj
 0002:00005634       ??_C@_09FACAEBHB@ui_master?$AA@ 40032634     ui_main.obj
 0002:00005640       ??_C@_0BH@CHMOFPCJ@ui_userAxisRespawnTime?$AA@ 40032640     ui_main.obj
 0002:00005658       ??_C@_0BJ@OGPCCIF@ui_userAlliedRespawnTime?$AA@ 40032658     ui_main.obj
 0002:00005674       ??_C@_0BB@BMJCMOEO@ui_userTimeLimit?$AA@ 40032674     ui_main.obj
 0002:00005688       ??_C@_0P@IEOFAMLI@g_friendlyFire?$AA@ 40032688     ui_main.obj
 0002:00005698       ??_C@_01FAMBOPH@4?$AA@     40032698     ui_main.obj
 0002:0000569c       ??_C@_0M@DPICECA@ui_glCustom?$AA@ 4003269c     ui_main.obj
 0002:000056a8       ??_C@_09GCIEGDDN@fraglimit?$AA@ 400326a8     ui_main.obj
 0002:000056b4       ??_C@_08FCFPNNHF@protocol?$AA@ 400326b4     ui_main.obj
 0002:000056c0       ??_C@_03NBOPHIOC@Map?$AA@  400326c0     ui_main.obj
 0002:000056c4       ??_C@_09OINJJDAC@Game?5type?$AA@ 400326c4     ui_main.obj
 0002:000056d0       ??_C@_0L@GFINLBEC@g_gametype?$AA@ 400326d0     ui_main.obj
 0002:000056dc       ??_C@_09EDNKFDHC@Game?5name?$AA@ 400326dc     ui_main.obj
 0002:000056e8       ??_C@_08HCPAIKAO@gamename?$AA@ 400326e8     ui_main.obj
 0002:000056f4       ??_C@_07EODJIPPN@Address?$AA@ 400326f4     ui_main.obj
 0002:000056fc       ??_C@_04FABLJDN@Name?$AA@  400326fc     ui_main.obj
 0002:00005704       ??_C@_0M@NHCIKFPA@sv_hostname?$AA@ 40032704     ui_main.obj
 0002:00005710       ??_C@_01BMBHCPLG@5?$AA@    40032710     ui_main.obj
 0002:00005714       ??_C@_02PKFBJPLJ@10?$AA@   40032714     ui_main.obj
 0002:00005718       ??_C@_02IHCGGLPM@15?$AA@   40032718     ui_main.obj
 0002:0000571c       ??_C@_02PIBHCBOA@20?$AA@   4003271c     ui_main.obj
 0002:00005720       ??_C@_02IFGANFKF@25?$AA@   40032720     ui_main.obj
 0002:00005724       ??_C@_02PJNFELNH@30?$AA@   40032724     ui_main.obj
 0002:00005728       ??_C@_02IEKCLPJC@35?$AA@   40032728     ui_main.obj
 0002:0000572c       ??_C@_02PMJKFNFC@40?$AA@   4003272c     ui_main.obj
 0002:00005730       ??_C@_02IBONKJBH@45?$AA@   40032730     ui_main.obj
 0002:00005734       ??_C@_02PNFIDHGF@50?$AA@   40032734     ui_main.obj
 0002:00005738       ??_C@_02IACPMDCA@55?$AA@   40032738     ui_main.obj
 0002:0000573c       ??_C@_02PPBOIJDM@60?$AA@   4003273c     ui_main.obj
 0002:00005740       ??_C@_02ICGJHNHJ@65?$AA@   40032740     ui_main.obj
 0002:00005744       ??_C@_02PONMODAL@70?$AA@   40032744     ui_main.obj
 0002:00005748       ??_C@_02IDKLBHEO@75?$AA@   40032748     ui_main.obj
 0002:0000574c       ??_C@_02PFIAKEDG@80?$AA@   4003274c     ui_main.obj
 0002:00005750       ??_C@_02IIPHFAHD@85?$AA@   40032750     ui_main.obj
 0002:00005754       ??_C@_02PEECMOAB@90?$AA@   40032754     ui_main.obj
 0002:00005758       ??_C@_02IJDFDKEE@95?$AA@   40032758     ui_main.obj
 0002:0000575c       ??_C@_04OHJIHAFH@None?$AA@ 4003275c     ui_main.obj
 0002:00005764       ??_C@_03CGHJMOLI@IPX?$AA@  40032764     ui_main.obj
 0002:00005768       ??_C@_03OPEAKHDL@UDP?$AA@  40032768     ui_main.obj
 0002:0000576c       ??_C@_03BBKEAIF@?$DP?$DP?$DP?$AA@ 4003276c     ui_main.obj
 0002:00005770       ??_C@_03HFJGAJFE@All?$AA@  40032770     ui_main.obj
 0002:00005774       ??_C@_03MKABNOCG@Dec?$AA@  40032774     ui_main.obj
 0002:00005778       ??_C@_03JPJOFNIA@Nov?$AA@  40032778     ui_main.obj
 0002:0000577c       ??_C@_03BMAOKBAD@Oct?$AA@  4003277c     ui_main.obj
 0002:00005780       ??_C@_03GGCAPAJC@Sep?$AA@  40032780     ui_main.obj
 0002:00005784       ??_C@_03IFJFEIGA@Aug?$AA@  40032784     ui_main.obj
 0002:00005788       ??_C@_03LBGABGKK@Jul?$AA@  40032788     ui_main.obj
 0002:0000578c       ??_C@_03IDFGHECI@Jun?$AA@  4003278c     ui_main.obj
 0002:00005790       ??_C@_03CNMDKL@May?$AA@    40032790     ui_main.obj
 0002:00005794       ??_C@_03LEOLGMJP@Apr?$AA@  40032794     ui_main.obj
 0002:00005798       ??_C@_03ODNJBKGA@Mar?$AA@  40032798     ui_main.obj
 0002:0000579c       ??_C@_03HJBDCHOM@Feb?$AA@  4003279c     ui_main.obj
 0002:000057a0       ??_C@_03JIHJHPIE@Jan?$AA@  400327a0     ui_main.obj
 0002:000057b0       ??_C@_0BH@DIFAAFML@gfx?12d?1crosshair?$CFc_alt?$AA@ 400327b0     ui_main.obj
 0002:000057c8       ??_C@_0BD@PPPBDMEH@gfx?12d?1crosshair?$CFc?$AA@ 400327c8     ui_main.obj
 0002:000057dc       ??_C@_0BH@MIGPLLIF@ui?1assets?1check_no?4tga?$AA@ 400327dc     ui_main.obj
 0002:000057f4       ??_C@_0BI@HIGLDKMK@ui?1assets?1check_not?4tga?$AA@ 400327f4     ui_main.obj
 0002:0000580c       ??_C@_0BE@BNAELKMA@ui?1assets?1check?4tga?$AA@ 4003280c     ui_main.obj
 0002:00005820       ??_C@_0BL@BKEMOAEL@ui?1assets?1sliderbutt_1?4tga?$AA@ 40032820     ui_main.obj
 0002:0000583c       ??_C@_0BG@JHGOBLH@ui?1assets?1slider2?4tga?$AA@ 4003283c     ui_main.obj
 0002:00005854       ??_C@_0BO@POOFAODB@ui?1assets?1scrollbar_thumb?4tga?$AA@ 40032854     ui_main.obj
 0002:00005874       ??_C@_0CE@LPPDECNG@ui?1assets?1scrollbar_arrow_right?4@ 40032874     ui_main.obj
 0002:00005898       ??_C@_0CD@GGHBFGAG@ui?1assets?1scrollbar_arrow_left?4t@ 40032898     ui_main.obj
 0002:000058bc       ??_C@_0CD@DMKJOOMK@ui?1assets?1scrollbar_arrow_up_a?4t@ 400328bc     ui_main.obj
 0002:000058e0       ??_C@_0CE@NANBDJEF@ui?1assets?1scrollbar_arrow_dwn_a?4@ 400328e0     ui_main.obj
 0002:00005904       ??_C@_0BI@KPCDEFNA@ui?1assets?1scrollbar?4tga?$AA@ 40032904     ui_main.obj
 0002:0000591c       ??_C@_0BC@GAPGDHHF@menu?1art?1fx_white?$AA@ 4003291c     ui_main.obj
 0002:00005930       ??_C@_0BB@LIJKJPJD@menu?1art?1fx_cyan?$AA@ 40032930     ui_main.obj
 0002:00005944       ??_C@_0BB@BKOGMDOJ@menu?1art?1fx_blue?$AA@ 40032944     ui_main.obj
 0002:00005958       ??_C@_0BB@ECKDFOKE@menu?1art?1fx_teal?$AA@ 40032958     ui_main.obj
 0002:0000596c       ??_C@_0BA@IJJPLEBB@menu?1art?1fx_grn?$AA@ 4003296c     ui_main.obj
 0002:0000597c       ??_C@_0BA@BCAGEDMK@menu?1art?1fx_yel?$AA@ 4003297c     ui_main.obj
 0002:0000598c       ??_C@_0BA@NNOEOMD@menu?1art?1fx_red?$AA@ 4003298c     ui_main.obj
 0002:0000599c       ??_C@_0BB@OMABGHIG@menu?1art?1fx_base?$AA@ 4003299c     ui_main.obj
 0002:000059b0       ??_C@_0BL@LDKEDAHM@ui?1assets?1gradientbar2?4tga?$AA@ 400329b0     ui_main.obj
 0002:000059d0       __real@4014000000000000    400329d0     ui_main.obj
 0002:000059d8       __real@407e000000000000    400329d8     ui_main.obj
 0002:000059e0       ??_C@_0DE@OMBLJJMC@?$FO1menu?5file?5too?5large?3?5?$CFs?5is?5?$CFi?0@ 400329e0     ui_main.obj
 0002:00005a14       ??_C@_0CK@ECPONHFG@?$FO1menu?5file?5not?5found?3?5?$CFs?0?5using@ 40032a14     ui_main.obj
 0002:00005a40       ??_C@_0M@JPJLLJDB@shadowColor?$AA@ 40032a40     ui_main.obj
 0002:00005a4c       ??_C@_07PGMDMGII@shadowY?$AA@ 40032a4c     ui_main.obj
 0002:00005a54       ??_C@_07OPNIPHMJ@shadowX?$AA@ 40032a54     ui_main.obj
 0002:00005a5c       ??_C@_0L@JDDHILPC@fadeAmount?$AA@ 40032a5c     ui_main.obj
 0002:00005a68       ??_C@_09LGBLEGN@fadeCycle?$AA@ 40032a68     ui_main.obj
 0002:00005a74       ??_C@_09DPBPOIDH@fadeClamp?$AA@ 40032a74     ui_main.obj
 0002:00005a80       ??_C@_06CHDIMBDP@cursor?$AA@ 40032a80     ui_main.obj
 0002:00005a88       ??_C@_0O@JDBLIAHI@menuBuzzSound?$AA@ 40032a88     ui_main.obj
 0002:00005a98       ??_C@_0P@IGAMHAPB@itemFocusSound?$AA@ 40032a98     ui_main.obj
 0002:00005aa8       ??_C@_0O@CCIDDBMD@menuExitSound?$AA@ 40032aa8     ui_main.obj
 0002:00005ab8       ??_C@_0P@HOFNPEDB@menuEnterSound?$AA@ 40032ab8     ui_main.obj
 0002:00005ac8       ??_C@_0M@KMLBJNNP@gradientbar?$AA@ 40032ac8     ui_main.obj
 0002:00005ad4       ??_C@_04EFPADHIC@font?$AA@ 40032ad4     ui_main.obj
 0002:00005adc       ??_C@_07MCIOFCJF@menudef?$AA@ 40032adc     ui_main.obj
 0002:00005ae4       ??_C@_0P@JJKHBDCP@assetGlobalDef?$AA@ 40032ae4     ui_main.obj
 0002:00005af4       ??_C@_0BH@CKFEPHAB@Parsing?5menu?5file?3?5?$CFs?6?$AA@ 40032af4     ui_main.obj
 0002:00005b0c       ??_C@_0CG@GMHEABBC@UI?5menu?5load?5time?5?$DN?5?$CFd?5milli?5sec@ 40032b0c     ui_main.obj
 0002:00005b34       ??_C@_08GJJFPOLP@loadmenu?$AA@ 40032b34     ui_main.obj
 0002:00005b40       ??_C@_0EF@JNLNEOJG@?$FO1default?5menu?5file?5not?5found?3?5u@ 40032b40     ui_main.obj
 0002:00005b88       ??_C@_0CK@EJKAPAFF@?$FO3menu?5file?5not?5found?3?5?$CFs?0?5using@ 40032b88     ui_main.obj
 0002:00005bb4       ??_C@_03CLAIDPBF@FUI?$AA@  40032bb4     ui_main.obj
 0002:00005bb8       __real@40a00000            40032bb8     ui_main.obj
 0002:00005bbc       __real@42c80000            40032bbc     ui_main.obj
 0002:00005bc0       ??_C@_08HBHLIHAM@handicap?$AA@ 40032bc0     ui_main.obj
 0002:00005bcc       ??_C@_0M@MLHGGMAA@ui_teamName?$AA@ 40032bcc     ui_main.obj
 0002:00005bd8       ??_C@_07PGAOKCOL@?$CFs_name?$AA@ 40032bd8     ui_main.obj
 0002:00005be0       ??_C@_08KHGKHFFO@?$CFs_metal?$AA@ 40032be0     ui_main.obj
 0002:00005bec       ??_C@_06LIMIHEAN@?$CFs?4roq?$AA@ 40032bec     ui_main.obj
 0002:00005bf4       ??_C@_06DJHOIPC@?$CFs?3?5?$CFs?$AA@ 40032bf4     ui_main.obj
 0002:00005bfc       ??_C@_03PADCEAKC@Red?$AA@  40032bfc     ui_main.obj
 0002:00005c00       ??_C@_04CAKOHOCJ@Blue?$AA@ 40032c00     ui_main.obj
 0002:00005c08       ??_C@_0L@GHKHHDJL@ui_redTeam?$AA@ 40032c08     ui_main.obj
 0002:00005c14       ??_C@_0M@BANABNHI@ui_blueTeam?$AA@ 40032c14     ui_main.obj
 0002:00005c20       __real@41800000            40032c20     ui_main.obj
 0002:00005c24       __real@41400000            40032c24     ui_main.obj
 0002:00005c28       __real@43000000            40032c28     ui_main.obj
 0002:00005c2c       __real@41000000            40032c2c     ui_main.obj
 0002:00005c30       ??_C@_0O@OBEFLHGN@levelshots?1?$CFs?$AA@ 40032c30     ui_main.obj
 0002:00005c40       ??_C@_0BG@LHBJPEBO@levelshots?1unknownmap?$AA@ 40032c40     ui_main.obj
 0002:00005c58       __real@4008000000000000    40032c58     ui_main.obj
 0002:00005c60       ??_C@_0BI@FLGCMJKE@gfx?1loading?1pin_neutral?$AA@ 40032c60     ui_main.obj
 0002:00005c78       __real@4018000000000000    40032c78     ui_main.obj
 0002:00005c80       __real@4024000000000000    40032c80     ui_main.obj
 0002:00005c88       __real@3ecccccd            40032c88     ui_main.obj
 0002:00005c90       __real@3f50000000000000    40032c90     ui_main.obj
 0002:00005c98       ??_C@_0BD@MDBFELH@?$FO1No?5text?5supplied?$AA@ 40032c98     ui_main.obj
 0002:00005cac       ??_C@_07NBCGADJA@Unknown?$AA@ 40032cac     ui_main.obj
 0002:00005cb4       ??_C@_0CN@CBGJEELI@No?5information?5is?5available?5for?5@ 40032cb4     ui_main.obj
 0002:00005ce4       ??_C@_0BJ@COICBODJ@gfx?12d?1friendlycross?4tga?$AA@ 40032ce4     ui_main.obj
 0002:00005d00       ??_C@_0BF@JEBEIH@levelshots?1?$CFs_cc?4tga?$AA@ 40032d00     ui_main.obj
 0002:00005d18       ??_C@_0O@DPNBHJD@?$CFs?5Objectives?$AA@ 40032d18     ui_main.obj
 0002:00005d28       ??_C@_0L@PLGJDBHA@Filter?3?5?$CFs?$AA@ 40032d28     ui_main.obj
 0002:00005d34       ??_C@_0BA@FLODEJIK@ui_opponentName?$AA@ 40032d34     ui_main.obj
 0002:00005d44       ??_C@_0BI@DIFBAOHB@ui_lastServerRefresh_?$CFi?$AA@ 40032d44     ui_main.obj
 0002:00005d5c       ??_C@_0DJ@HEMOEHJI@Press?5ENTER?5or?5CLICK?5to?5change?0?5@ 40032d5c     ui_main.obj
 0002:00005d98       ??_C@_0CO@PDMPNIP@Waiting?5for?5new?5key?4?4?4?5Press?5ESC@ 40032d98     ui_main.obj
 0002:00005dc8       ??_C@_0N@BOLNHJIJ@ui_redteam?$CFi?$AA@ 40032dc8     ui_main.obj
 0002:00005dd8       ??_C@_05OHCDHBAC@Human?$AA@ 40032dd8     ui_main.obj
 0002:00005de0       ??_C@_06DELKPIEN@?$CFi?4?5?$CFs?$AA@ 40032de0     ui_main.obj
 0002:00005de8       ??_C@_06EFCDMIMC@Closed?$AA@ 40032de8     ui_main.obj
 0002:00005df0       ??_C@_0O@MBOEOCIO@ui_blueteam?$CFi?$AA@ 40032df0     ui_main.obj
 0002:00005e00       __real@4058000000000000    40032e00     ui_main.obj
 0002:00005e08       __real@41c00000            40032e08     ui_main.obj
 0002:00005e0c       __real@42c00000            40032e0c     ui_main.obj
 0002:00005e10       ??_C@_03GCDGINBO@ref?$AA@  40032e10     ui_main.obj
 0002:00005e14       ??_C@_02BCPJPDCN@mu?$AA@   40032e14     ui_main.obj
 0002:00005e18       ??_C@_01EFFIKLCJ@n?$AA@    40032e18     ui_main.obj
 0002:00005e1c       ??_C@_0O@OCOCOONB@sv_maxclients?$AA@ 40032e1c     ui_main.obj
 0002:00005e2c       ??_C@_01PFHFFBPC@t?$AA@    40032e2c     ui_main.obj
 0002:00005e30       ??_C@_02JKAOMCMK@tl?$AA@   40032e30     ui_main.obj
 0002:00005e34       ??_C@_0BB@EGNBCDIB@Refresh?5Time?3?5?$CFs?$AA@ 40032e34     ui_main.obj
 0002:00005e48       ??_C@_0CI@JAHNDAMF@Waiting?5for?5response?5from?5Master@ 40032e48     ui_main.obj
 0002:00005e70       ??_C@_0CM@EICHKKCG@Getting?5info?5for?5?$CFd?5servers?5?$CIESC@ 40032e70     ui_main.obj
 0002:00005ea0       __real@3fe999999999999a    40032ea0     ui_main.obj
 0002:00005ea8       __real@4000000000000000    40032ea8     ui_main.obj
 0002:00005eb0       ??_C@_0P@JFFABJOF@ui_campaignmap?$AA@ 40032eb0     ui_main.obj
 0002:00005ec0       ??_C@_0O@JEEKIFAP@sv_killserver?$AA@ 40032ec0     ui_main.obj
 0002:00005ed0       ??_C@_02IKAHHCAI@?$CFi?$AA@ 40032ed0     ui_main.obj
 0002:00005ed4       ??_C@_05PEENBMOG@color?$AA@ 40032ed4     ui_main.obj
 0002:00005edc       ??_C@_0BB@KBADOJHA@cg_drawCrosshair?$AA@ 40032edc     ui_main.obj
 0002:00005ef0       ??_C@_08LFOMOGKF@Everyone?$AA@ 40032ef0     ui_main.obj
 0002:00005efc       ??_C@_08GEJGLEOK@$modlist?$AA@ 40032efc     ui_main.obj
 0002:00005f08       ??_C@_0BI@MNFHNHFM@profiles?1?$CFs?1profile?4dat?$AA@ 40032f08     ui_main.obj
 0002:00005f20       ??_C@_02DJGKEECL@?4?4?$AA@ 40032f20     ui_main.obj
 0002:00005f24       ??_C@_01LFCBOECM@?4?$AA@   40032f24     ui_main.obj
 0002:00005f28       ??_C@_08LKPBAFL@profiles?$AA@ 40032f28     ui_main.obj
 0002:00005f34       ??_C@_01KMDKNFGN@?1?$AA@   40032f34     ui_main.obj
 0002:00005f38       ??_C@_0CD@MAMOCFJH@Unable?5to?5delete?5savegame?3?5?$CFs?4sv@ 40032f38     ui_main.obj
 0002:00005f5c       ??_C@_0BK@GGKACKIE@Deleted?5savegame?3?5?$CFs?4svg?6?$AA@ 40032f5c     ui_main.obj
 0002:00005f78       ??_C@_0BD@GODINKKF@save?1images?1?$CFs?4tga?$AA@ 40032f78     ui_main.obj
 0002:00005f8c       ??_C@_0M@OGNJHMGD@save?1?$CFs?4svg?$AA@ 40032f8c     ui_main.obj
 0002:00005f98       ??_C@_04EEGGHPHH@?4svg?$AA@ 40032f98     ui_main.obj
 0002:00005fa0       ??_C@_07LKPDDKMO@current?$AA@ 40032fa0     ui_main.obj
 0002:00005fa8       ??_C@_04EMMDIJJL@save?$AA@ 40032fa8     ui_main.obj
 0002:00005fb0       ??_C@_03NNPBMGBD@svg?$AA@  40032fb0     ui_main.obj
 0002:00005fb4       ??_C@_04PDLFDFDK@?4roq?$AA@ 40032fb4     ui_main.obj
 0002:00005fbc       ??_C@_05BPFJLLEL@video?$AA@ 40032fbc     ui_main.obj
 0002:00005fc4       ??_C@_03GKCCIMFO@roq?$AA@  40032fc4     ui_main.obj
 0002:00005fc8       ??_C@_06KDKPKJKM@?4dm_?$CFd?$AA@ 40032fc8     ui_main.obj
 0002:00005fd0       ??_C@_05CFPGCNL@demos?$AA@ 40032fd0     ui_main.obj
 0002:00005fd8       ??_C@_05BAIDJFLA@dm_?$CFd?$AA@ 40032fd8     ui_main.obj
 0002:00005fe0       ??_C@_07JIEGLHEC@m_pitch?$AA@ 40032fe0     ui_main.obj
 0002:00005fe8       __real@bcb43958            40032fe8     ui_main.obj
 0002:00005fec       __real@3cb43958            40032fec     ui_main.obj
 0002:00005ff0       ??_C@_0O@OGIMAHGE@ui_mousePitch?$AA@ 40032ff0     ui_main.obj
 0002:00006000       ??_C@_0BM@PJIIEAMB@exec?5preset_fastest_ui?4cfg?6?$AA@ 40033000     ui_main.obj
 0002:0000601c       ??_C@_0BJ@JHPAFGKP@exec?5preset_fast_ui?4cfg?6?$AA@ 4003301c     ui_main.obj
 0002:00006038       ??_C@_0BL@GDBOMEBD@exec?5preset_normal_ui?4cfg?6?$AA@ 40033038     ui_main.obj
 0002:00006054       ??_C@_0BJ@EIKHPKMO@exec?5preset_high_ui?4cfg?6?$AA@ 40033054     ui_main.obj
 0002:00006070       __real@40800000            40033070     ui_main.obj
 0002:00006074       ??_C@_0BC@ONOLCHFM@ui_r_subdivisions?$AA@ 40033074     ui_main.obj
 0002:00006088       __real@41a00000            40033088     ui_main.obj
 0002:0000608c       ??_C@_0N@NHLOABKB@ui_r_lodbias?$AA@ 4003308c     ui_main.obj
 0002:0000609c       ??_C@_0O@HILFODLB@r_stencilbits?$AA@ 4003309c     ui_main.obj
 0002:000060ac       ??_C@_0M@MLADPBHK@r_depthbits?$AA@ 400330ac     ui_main.obj
 0002:000060b8       ??_C@_0M@FAHBKNDA@r_colorbits?$AA@ 400330b8     ui_main.obj
 0002:000060c4       ??_C@_0L@MNKNEHAB@ui_GetName?$AA@ 400330c4     ui_main.obj
 0002:000060d0       __real@40af400000000000    400330d0     ui_main.obj
 0002:000060d8       ??_C@_0BA@HBCBINHO@ui_cl_packetdup?$AA@ 400330d8     ui_main.obj
 0002:000060e8       ??_C@_0BB@OGCEFBDM@ui_cl_maxpackets?$AA@ 400330e8     ui_main.obj
 0002:000060fc       __real@459c4000            400330fc     ui_main.obj
 0002:00006100       ??_C@_0L@HKMNPIPK@ui_setRate?$AA@ 40033100     ui_main.obj
 0002:0000610c       ??_C@_07KBEHLNKJ@ui_Name?$AA@ 4003310c     ui_main.obj
 0002:00006114       ??_C@_0L@DFFMHINA@ui_SetName?$AA@ 40033114     ui_main.obj
 0002:00006120       ??_C@_02HENDIIHA@nq?$AA@   40033120     ui_main.obj
 0002:00006124       ??_C@_04MJNAPEEI@game?$AA@ 40033124     ui_main.obj
 0002:0000612c       ??_C@_08NJPDEKHO@gametype?$AA@ 4003312c     ui_main.obj
 0002:00006138       ??_C@_0O@GHEELMFH@balancedteams?$AA@ 40033138     ui_main.obj
 0002:00006148       ??_C@_0N@CPHNBGJJ@weaprestrict?$AA@ 40033148     ui_main.obj
 0002:00006158       ??_C@_0L@CNOGMKDC@punkbuster?$AA@ 40033158     ui_main.obj
 0002:00006164       ??_C@_08JIFCLFGI@maxlives?$AA@ 40033164     ui_main.obj
 0002:00006170       ??_C@_0N@PEOCHMEP@friendlyFire?$AA@ 40033170     ui_main.obj
 0002:00006180       ??_C@_08HHFKLNCD@needpass?$AA@ 40033180     ui_main.obj
 0002:0000618c       ??_C@_07HKJFGNHJ@clients?$AA@ 4003318c     ui_main.obj
 0002:00006194       ??_C@_0BO@OAMFPIEA@Enemy?5Territory?5?9?5Version?3?5?$CFs?$AA@ 40033194     ui_main.obj
 0002:000061b4       ??_C@_07EPDKLILH@ET?52?460?$AA@ 400331b4     ui_main.obj
 0002:000061bc       ??_C@_0O@GJFLJONJ@cl_motdString?$AA@ 400331bc     ui_main.obj
 0002:000061cc       ??_C@_04OONEELOO@ping?$AA@ 400331cc     ui_main.obj
 0002:000061d4       ??_C@_05DBKDOICH@score?$AA@ 400331d4     ui_main.obj
 0002:000061dc       ??_C@_03IHCLBPIC@num?$AA@  400331dc     ui_main.obj
 0002:000061e0       ??_C@_06NCMFGEOB@modURL?$AA@ 400331e0     ui_main.obj
 0002:000061e8       ??_C@_07EHDHHEJN@mod_url?$AA@ 400331e8     ui_main.obj
 0002:000061f0       ??_C@_09GCDODGAE@serverURL?$AA@ 400331f0     ui_main.obj
 0002:000061fc       ??_C@_03BMGHOINI@url?$AA@  400331fc     ui_main.obj
 0002:00006200       ??_C@_09MAIFELKA@ui_modURL?$AA@ 40033200     ui_main.obj
 0002:0000620c       ??_C@_06IGFMNMMC@ui_URL?$AA@ 4003320c     ui_main.obj
 0002:00006214       ??_C@_0L@PBPOBIBJ@popupError?$AA@ 40033214     ui_main.obj
 0002:00006220       ??_C@_0BD@GBCNCNPJ@serverinfo_popmenu?$AA@ 40033220     ui_main.obj
 0002:00006234       __real@41200000            40033234     ui_main.obj
 0002:00006238       __real@41100000            40033238     ui_main.obj
 0002:00006240       __real@402c000000000000    40033240     ui_main.obj
 0002:00006248       __real@402a000000000000    40033248     ui_main.obj
 0002:00006250       __real@40000000            40033250     ui_main.obj
 0002:00006258       __real@403c000000000000    40033258     ui_main.obj
 0002:00006260       __real@403d000000000000    40033260     ui_main.obj
 0002:00006268       __real@403b000000000000    40033268     ui_main.obj
 0002:00006270       __real@403a000000000000    40033270     ui_main.obj
 0002:00006278       __real@402e000000000000    40033278     ui_main.obj
 0002:00006280       ??_C@_0N@PCJDMMAH@?$CIDefault?$CJ?5?$CFs?$AA@ 40033280     ui_main.obj
 0002:00006290       ??_C@_04OJJGBHGO@?$FO7?$CFs?$AA@ 40033290     ui_main.obj
 0002:00006298       ??_C@_0P@IHMFJLFB@?$FO7?$CIDefault?$CJ?5?$CFs?$AA@ 40033298     ui_main.obj
 0002:000062a8       ??_C@_06JMPEOPOC@?$FO2?5?$CF3i?$AA@ 400332a8     ui_main.obj
 0002:000062b0       ??_C@_06FHKIDMEH@?$FO3?5?$CF3i?$AA@ 400332b0     ui_main.obj
 0002:000062b8       ??_C@_06BKGAJNEM@?$FO1?5?$CF3i?$AA@ 400332b8     ui_main.obj
 0002:000062c0       ??_C@_04PNOCPDMN@?5?$CF3i?$AA@ 400332c0     ui_main.obj
 0002:000062c8       ??_C@_0L@JIHLHLLE@serverload?$AA@ 400332c8     ui_main.obj
 0002:000062d4       ??_C@_03KHICJKCI@?4?4?4?$AA@ 400332d4     ui_main.obj
 0002:000062d8       ??_C@_05GFOLEBJA@?$CFs?1?$CFs?$AA@ 400332d8     ui_main.obj
 0002:000062e0       ??_C@_07HAOKNHOC@?$CFs?5?$FL?$CFs?$FN?$AA@ 400332e0     ui_main.obj
 0002:000062e8       ??_C@_08EHKIGBEA@hostname?$AA@ 400332e8     ui_main.obj
 0002:000062f4       ??_C@_07EAJPOACB@nettype?$AA@ 400332f4     ui_main.obj
 0002:000062fc       ??_C@_04HLBMEOMD@addr?$AA@ 400332fc     ui_main.obj
 0002:00006304       ??_C@_0DI@LKMOFJJE@Pixelformat?3?5color?$CI?$CFd?9bits?$CJ?5Z?$CI?$CFd@ 40033304     ui_main.obj
 0002:0000633c       ??_C@_0BA@GPJOGJCN@Version?3?5?$CFs?3?5?$CFs?$AA@ 4003333c     ui_main.obj
 0002:0000634c       ??_C@_0L@LJJOFDNG@Vendor?3?5?$CFs?$AA@ 4003334c     ui_main.obj
 0002:00006358       ??_C@_09DHBBGOBJ@headmodel?$AA@ 40033358     ui_main.obj
 0002:00006364       ??_C@_05NCCFOPHA@model?$AA@ 40033364     ui_main.obj
 0002:0000636c       ??_C@_0P@JMIBMNM@team_headmodel?$AA@ 4003336c     ui_main.obj
 0002:0000637c       ??_C@_03CLKAMBIH@?$CK?$CFs?$AA@ 4003337c     ui_main.obj
 0002:00006380       ??_C@_0L@KEDOKIKJ@team_model?$AA@ 40033380     ui_main.obj
 0002:0000638c       ??_C@_05MAECCALN@james?$AA@ 4003338c     ui_main.obj
 0002:00006394       ??_C@_05JNLGBJJE@janet?$AA@ 40033394     ui_main.obj
 0002:0000639c       ??_C@_0CI@IFAKKCDN@Too?5many?5game?5types?0?5last?5one?5re@ 4003339c     ui_main.obj
 0002:000063c4       ??_C@_0CM@LGCBCNPC@Too?5many?5net?5game?5types?0?5last?5on@ 400333c4     ui_main.obj
 0002:000063f0       ??_C@_09LDHGIFEE@gametypes?$AA@ 400333f0     ui_main.obj
 0002:000063fc       ??_C@_09DIABHAFB@cl_paused?$AA@ 400333fc     ui_main.obj
 0002:00006408       ??_C@_0BD@COMAJKBD@ingame_messagemode?$AA@ 40033408     ui_main.obj
 0002:0000641c       ??_C@_0BE@MBDOBFKH@wm_autoupdate_modal?$AA@ 4003341c     ui_main.obj
 0002:00006430       ??_C@_0N@MPJFIBM@tapoutmsglms?$AA@ 40033430     ui_main.obj
 0002:00006440       ??_C@_09JLJLFENK@tapoutmsg?$AA@ 40033440     ui_main.obj
 0002:0000644c       ??_C@_0BF@OFGOIIE@wm_ftquickmessageAlt?$AA@ 4003344c     ui_main.obj
 0002:00006464       ??_C@_0BC@GHJFOCLI@wm_ftquickmessage?$AA@ 40033464     ui_main.obj
 0002:00006478       ??_C@_0M@NCDOEMEL@wm_classAlt?$AA@ 40033478     ui_main.obj
 0002:00006484       ??_C@_08BANKOCJL@wm_class?$AA@ 40033484     ui_main.obj
 0002:00006490       ??_C@_0BD@EPONAFC@wm_quickmessageAlt?$AA@ 40033490     ui_main.obj
 0002:000064a4       ??_C@_0BA@JNKMANGJ@wm_quickmessage?$AA@ 400334a4     ui_main.obj
 0002:000064b4       ??_C@_0M@HKKIKBMP@ingame_main?$AA@ 400334b4     ui_main.obj
 0002:000064c0       ??_C@_05FABHBFHO@badcd?$AA@ 400334c0     ui_main.obj
 0002:000064c8       ??_C@_06EPLFMKGD@needcd?$AA@ 400334c8     ui_main.obj
 0002:000064d0       ??_C@_04KADBPNCB@team?$AA@ 400334d0     ui_main.obj
 0002:000064d8       ??_C@_0BE@OIIKCNOB@popupError_pbenable?$AA@ 400334d8     ui_main.obj
 0002:000064ec       ??_C@_09PFKFKDEL@?$CFs?6?6?$CFs?6?$CFs?$AA@ 400334ec     ui_main.obj
 0002:000064f8       ??_C@_0CB@DPCKLMNJ@The?5following?5packs?5are?5missing?3@ 400334f8     ui_main.obj
 0002:0000651c       ??_C@_0BE@EIFEMEGE@com_errorDiagnoseIP?$AA@ 4003351c     ui_main.obj
 0002:00006530       ??_C@_0BA@PLLCMKHJ@must?5be?5Enabled?$AA@ 40033530     ui_main.obj
 0002:00006540       ??_C@_0M@LNGHCJI@connect?5?$CFs?6?$AA@ 40033540     ui_main.obj
 0002:0000654c       ??_C@_0BE@NOBAFHED@popupServerRedirect?$AA@ 4003354c     ui_main.obj
 0002:00006560       ??_C@_0CB@FMPBGFFG@Server?5is?5full?0?5redirect?5to?3?5?$CFs?6@ 40033560     ui_main.obj
 0002:00006584       ??_C@_05GCKAINPN@ET?3?1?1?$AA@ 40033584     ui_main.obj
 0002:0000658c       ??_C@_0O@PAKIFNFG@popupPassword?$AA@ 4003358c     ui_main.obj
 0002:0000659c       ??_C@_0BB@GKDCDICO@Invalid?5password?$AA@ 4003359c     ui_main.obj
 0002:000065b0       ??_C@_01ICJEACDI@?$DL?$AA@ 400335b0     ui_main.obj
 0002:000065b4       ??_C@_0BB@GDGLAKGE@com_errorMessage?$AA@ 400335b4     ui_main.obj
 0002:000065c8       ??_C@_0M@DJDKNCBH@main_opener?$AA@ 400335c8     ui_main.obj
 0002:000065d4       ??_C@_0BA@GACGJEGF@backgroundmusic?$AA@ 400335d4     ui_main.obj
 0002:000065e4       ??_C@_08FFCBIDLK@?$CFd?5bytes?$AA@ 400335e4     ui_main.obj
 0002:000065f0       ??_C@_05GLFMPLMM@?$CFd?5KB?$AA@ 400335f0     ui_main.obj
 0002:000065f8       ??_C@_08HFAPJAAB@?4?$CF02d?5MB?$AA@ 400335f8     ui_main.obj
 0002:00006604       ??_C@_08HIJIBFNH@?4?$CF02d?5GB?$AA@ 40033604     ui_main.obj
 0002:00006610       ??_C@_06NEPEGKCP@?$CFd?5sec?$AA@ 40033610     ui_main.obj
 0002:00006618       ??_C@_0O@NMPKHNPG@?$CFd?5min?5?$CFd?5sec?$AA@ 40033618     ui_main.obj
 0002:00006628       ??_C@_0N@KMBELJJB@?$CFd?5hr?5?$CFd?5min?$AA@ 40033628     ui_main.obj
 0002:00006638       ??_C@_0BA@PJMLIFEA@gfx?12d?1backtile?$AA@ 40033638     ui_main.obj
 0002:00006648       ??_C@_0DP@BNBIBIBK@?$CFd?5servers?5not?5listed?5?$CIfiltered?5@ 40033648     ui_main.obj
 0002:00006688       ??_C@_0CP@JCONBAAO@?$CFd?5servers?5listed?5in?5browser?5wit@ 40033688     ui_main.obj
 0002:000066b8       ??_C@_0BF@OIDAJKAK@globalservers?5?$CFd?5?$CFd?6?$AA@ 400336b8     ui_main.obj
 0002:000066d0       ??_C@_0O@GPLHFEBB@localservers?6?$AA@ 400336d0     ui_main.obj
 0002:000066e0       ??_C@_0BD@CLDHMPOO@?$CFs?9?$CFi?0?5?$CFi?5at?5?$CFs?3?$CFs?$AA@ 400336e0     ui_main.obj
 0002:000066f4       ??_C@_03KECJIMKH@0?$CFi?$AA@ 400336f4     ui_main.obj
 0002:000066f8       ??_C@_0BK@NNHONPLH@Can?8t?5find?5campaign?5?8?$CFs?8?6?$AA@ 400336f8     ui_main.obj
 0002:00006714       ??_C@_07NKFJBOH@map?5?$CFs?6?$AA@ 40033714     ui_main.obj
 0002:0000671c       ??_C@_0BJ@GOKGFAFP@Corrupted?5campaign?5?8?$CFs?8?6?$AA@ 4003371c     ui_main.obj
 0002:00006738       ??_C@_0BF@BACPAICC@No?5campaigns?5found?4?6?$AA@ 40033738     ui_main.obj
 0002:00006750       ??_C@_04MDKIEGGJ@?5?$CFs?6?$AA@ 40033750     ui_main.obj
 0002:00006758       ??_C@_0BF@LCOGHNOH@?$CFi?5campaigns?5found?3?6?$AA@ 40033758     ui_main.obj
 0002:00006770       ??_C@_0P@OPFJLCMG@cg_thirdPerson?$AA@ 40033770     ui_main.obj
 0002:00006780       ??_C@_0N@DDAKDDIF@gameinfo?4txt?$AA@ 40033780     ui_main.obj
 0002:00006790       ??_C@_0M@FKIBDECH@ui_gameType?$AA@ 40033790     ui_main.obj
 0002:0000679c       __real@41600000            4003379c     ui_main.obj
 0002:000067a0       ??_C@_0CB@BINAGLPM@?$CFd?5server?$CFs?5found?5with?5player?5?$CFs@ 400337a0     ui_main.obj
 0002:000067c4       ??_C@_01LKDEMHDF@s?$AA@    400337c4     ui_main.obj
 0002:000067c8       ??_C@_0BB@LOIEJCIF@no?5servers?5found?$AA@ 400337c8     ui_main.obj
 0002:000067dc       ??_C@_0BD@CEHDDMNK@searching?5?$CFd?1?$CFd?4?4?4?$AA@ 400337dc     ui_main.obj
 0002:000067f0       ??_C@_0BA@ENIDMEN@searching?5?$CFd?4?4?4?$AA@ 400337f0     ui_main.obj
 0002:00006800       ??_C@_0BK@NLNALACG@cl_serverStatusResendTime?$AA@ 40033800     ui_main.obj
 0002:0000681c       ??_C@_0O@GPABEMKP@ui_findPlayer?$AA@ 4003381c     ui_main.obj
 0002:0000682c       __real@42000000            4003382c     ui_main.obj
 0002:00006830       __real@c1200000            40033830     ui_main.obj
 0002:00006834       __real@44228000            40033834     ui_main.obj
 0002:00006838       __real@43f50000            40033838     ui_main.obj
 0002:0000683c       ??_C@_0CB@CHNFBGPF@?$FO3WARNING?3?5unknown?5UI?5script?5?$CFs?6@ 4003383c     ui_main.obj
 0002:00006860       ??_C@_0BA@DBBECHEO@defaultControls?$AA@ 40033860     ui_main.obj
 0002:00006870       ??_C@_0BC@JABJCBDB@profileCvarsReset?$AA@ 40033870     ui_main.obj
 0002:00006884       ??_C@_0BH@FOCJAGLM@exec?5default_left?4cfg?6?$AA@ 40033884     ui_main.obj
 0002:0000689c       ??_C@_0BC@BFJBKDNK@profileCvarsApply?$AA@ 4003389c     ui_main.obj
 0002:000068b0       ??_C@_0BA@JFKJMMGM@profileCvarsGet?$AA@ 400338b0     ui_main.obj
 0002:000068c0       ??_C@_0CA@HDBHHLOD@cg_fov?590?400?5?$DL?5cg_fovy?573?474?5?$DL?5?$AA@ 400338c0     ui_main.obj
 0002:000068e0       ??_C@_03BAAJCDMO@800?$AA@  400338e0     ui_main.obj
 0002:000068e4       ??_C@_03KILFEEKL@900?$AA@  400338e4     ui_main.obj
 0002:000068e8       ??_C@_04CGPBINJN@1440?$AA@ 400338e8     ui_main.obj
 0002:000068f0       ??_C@_04KIFBHAPN@1050?$AA@ 400338f0     ui_main.obj
 0002:000068f8       ??_C@_04IFOCLMHC@1680?$AA@ 400338f8     ui_main.obj
 0002:00006900       ??_C@_04EJDHKJN@1200?$AA@  40033900     ui_main.obj
 0002:00006908       ??_C@_0CB@FFLFIOLP@cg_fov?5100?439?5?$DL?5cg_fovy?573?474?5?$DL?5@ 40033908     ui_main.obj
 0002:0000692c       ??_C@_03ELOOOHPG@720?$AA@  4003392c     ui_main.obj
 0002:00006930       ??_C@_04KIACLCF@1280?$AA@  40033930     ui_main.obj
 0002:00006938       ??_C@_03IEDOMFCC@768?$AA@  40033938     ui_main.obj
 0002:0000693c       ??_C@_04OOPIMGMM@1366?$AA@ 4003393c     ui_main.obj
 0002:00006944       ??_C@_04KAIJODKO@1080?$AA@ 40033944     ui_main.obj
 0002:0000694c       ??_C@_04NABGCJPC@1920?$AA@ 4003394c     ui_main.obj
 0002:00006954       ??_C@_03FEMMMNMO@480?$AA@  40033954     ui_main.obj
 0002:00006958       ??_C@_03EAJIEGKD@856?$AA@  40033958     ui_main.obj
 0002:0000695c       ??_C@_0CB@LOLFDHAB@cg_fov?5106?426?5?$DL?5cg_fovy?573?474?5?$DL?5@ 4003395c     ui_main.obj
 0002:00006980       ??_C@_0CA@MDMALPLC@cg_fov?5?$CF3?42f?5?$DL?5cg_fovy?573?474?5?$DL?5?$AA@ 40033980     ui_main.obj
 0002:000069a0       __real@40526f5c20000000    400339a0     ui_main.obj
 0002:000069a8       ??_C@_0BB@GHCJIELO@systemCvarsApply?$AA@ 400339a8     ui_main.obj
 0002:000069bc       ??_C@_0BB@OCKBAGFF@systemCvarsReset?$AA@ 400339bc     ui_main.obj
 0002:000069d0       ??_C@_0BB@GBAJKCAL@ui_r_texturemode?$AA@ 400339d0     ui_main.obj
 0002:000069e4       ??_C@_0BE@BMHJODHH@ui_r_detailtextures?$AA@ 400339e4     ui_main.obj
 0002:000069f8       ??_C@_08PBDNBDJG@ui_s_khz?$AA@ 400339f8     ui_main.obj
 0002:00006a04       ??_C@_0M@FGHIKFOA@ui_m_filter?$AA@ 40033a04     ui_main.obj
 0002:00006a10       ??_C@_0BF@MIJAJHLC@ui_r_allowextensions?$AA@ 40033a10     ui_main.obj
 0002:00006a28       ??_C@_0BC@ONFJMMMN@ui_r_dynamiclight?$AA@ 40033a28     ui_main.obj
 0002:00006a3c       ??_C@_0M@FFDENBHL@ui_r_finish?$AA@ 40033a3c     ui_main.obj
 0002:00006a48       ??_C@_0BN@GCJBLFGF@ui_r_ext_compressed_textures?$AA@ 40033a48     ui_main.obj
 0002:00006a68       ??_C@_0P@FOKPMCPI@ui_r_depthbits?$AA@ 40033a68     ui_main.obj
 0002:00006a78       ??_C@_0BB@MGIMHMKB@ui_r_texturebits?$AA@ 40033a78     ui_main.obj
 0002:00006a8c       ??_C@_0M@LFGCJFJG@ui_r_picmip?$AA@ 40033a8c     ui_main.obj
 0002:00006a98       ??_C@_0BA@JLJFGCCN@ui_r_fullscreen?$AA@ 40033a98     ui_main.obj
 0002:00006aa8       ??_C@_0P@MFNNJOLC@ui_r_colorbits?$AA@ 40033aa8     ui_main.obj
 0002:00006ab8       ??_C@_02NJPGOMH@?$CFf?$AA@ 40033ab8     ui_main.obj
 0002:00006abc       ??_C@_0O@NHGMKMHI@r_texturemode?$AA@ 40033abc     ui_main.obj
 0002:00006acc       ??_C@_0BB@OJJFINJB@r_detailtextures?$AA@ 40033acc     ui_main.obj
 0002:00006ae0       ??_C@_05GPLACMP@s_khz?$AA@ 40033ae0     ui_main.obj
 0002:00006ae8       ??_C@_08BEMLPELN@m_filter?$AA@ 40033ae8     ui_main.obj
 0002:00006af4       ??_C@_0BC@IBAMDMJB@r_allowextensions?$AA@ 40033af4     ui_main.obj
 0002:00006b08       ??_C@_0P@CEODIJEF@r_dynamiclight?$AA@ 40033b08     ui_main.obj
 0002:00006b18       ??_C@_08BHIHIACG@r_finish?$AA@ 40033b18     ui_main.obj
 0002:00006b24       ??_C@_0BK@GPIDLLEE@r_ext_compressed_textures?$AA@ 40033b24     ui_main.obj
 0002:00006b40       ??_C@_0O@HAOJHCNC@r_texturebits?$AA@ 40033b40     ui_main.obj
 0002:00006b50       ??_C@_08PHNBMEML@r_picmip?$AA@ 40033b50     ui_main.obj
 0002:00006b5c       ??_C@_0P@CEFBGCNE@r_subdivisions?$AA@ 40033b5c     ui_main.obj
 0002:00006b6c       ??_C@_09MCCGJPLJ@r_lodbias?$AA@ 40033b6c     ui_main.obj
 0002:00006b78       ??_C@_0N@JILGCMBC@r_fullscreen?$AA@ 40033b78     ui_main.obj
 0002:00006b88       ??_C@_0M@JFLMCFNC@sensitivity?$AA@ 40033b88     ui_main.obj
 0002:00006b94       ??_C@_0N@HCACMDEB@cl_packetdup?$AA@ 40033b94     ui_main.obj
 0002:00006ba4       ??_C@_0O@FAEBFPEP@cl_maxpackets?$AA@ 40033ba4     ui_main.obj
 0002:00006bb4       ??_C@_04HCCHHEEF@rate?$AA@ 40033bb4     ui_main.obj
 0002:00006bbc       ??_C@_07OFDDGDHB@r_gamma?$AA@ 40033bbc     ui_main.obj
 0002:00006bc4       ??_C@_0P@LIHGBLCO@r_customHeight?$AA@ 40033bc4     ui_main.obj
 0002:00006bd4       ??_C@_0O@EHKMAMKJ@r_customWidth?$AA@ 40033bd4     ui_main.obj
 0002:00006be4       ??_C@_0P@FCJBMFP@systemCvarsGet?$AA@ 40033be4     ui_main.obj
 0002:00006bf4       ??_C@_0L@JBPKCNCJ@vidConfirm?$AA@ 40033bf4     ui_main.obj
 0002:00006c00       ??_C@_08EGEDGJOC@vidReset?$AA@ 40033c00     ui_main.obj
 0002:00006c0c       ??_C@_09BOIBCPC@r_oldMode?$AA@ 40033c0c     ui_main.obj
 0002:00006c18       ??_C@_06LBAPPDBG@r_mode?$AA@ 40033c18     ui_main.obj
 0002:00006c20       ??_C@_07MJHGFCIG@vidSave?$AA@ 40033c20     ui_main.obj
 0002:00006c28       ??_C@_0P@HACFFJBI@updateGameType?$AA@ 40033c28     ui_main.obj
 0002:00006c38       ??_C@_08IBICOFKM@redirect?$AA@ 40033c38     ui_main.obj
 0002:00006c44       ??_C@_0L@FBPMLECH@reconnect?6?$AA@ 40033c44     ui_main.obj
 0002:00006c50       ??_C@_09MCGBPECP@reconnect?$AA@ 40033c50     ui_main.obj
 0002:00006c5c       ??_C@_0N@OEBGBMKC@cg_ui_novote?$AA@ 40033c5c     ui_main.obj
 0002:00006c6c       ??_C@_0BA@JEMBFLOI@cg_ui_voteFlags?$AA@ 40033c6c     ui_main.obj
 0002:00006c7c       ??_C@_0BA@PHPNPMOK@clientCheckVote?$AA@ 40033c7c     ui_main.obj
 0002:00006c8c       ??_C@_0BB@LKCFDHLC@validate_openURL?$AA@ 40033c8c     ui_main.obj
 0002:00006ca0       ??_C@_0M@DAFMINPO@ui_finalURL?$AA@ 40033ca0     ui_main.obj
 0002:00006cac       ??_C@_0O@MNLMMFBI@openServerURL?$AA@ 40033cac     ui_main.obj
 0002:00006cbc       ??_C@_0L@NGDKCOL@openModURL?$AA@ 40033cbc     ui_main.obj
 0002:00006cc8       ??_C@_0BI@OHKGJHDE@toggleWeaponRestriction?$AA@ 40033cc8     ui_main.obj
 0002:00006ce0       ??_C@_0P@DIPGDDOO@toggleMaxLives?$AA@ 40033ce0     ui_main.obj
 0002:00006cf0       ??_C@_0BK@NLJFJGGL@ui_heavyWeaponRestriction?$AA@ 40033cf0     ui_main.obj
 0002:00006d0c       ??_C@_0M@NKOBOEDF@ui_maxlives?$AA@ 40033d0c     ui_main.obj
 0002:00006d18       ??_C@_0L@CECMEOFE@g_maxlives?$AA@ 40033d18     ui_main.obj
 0002:00006d24       ??_C@_0BF@CDGKDACB@initHostGameFeatures?$AA@ 40033d24     ui_main.obj
 0002:00006d3c       ??_C@_0BB@JKHFKDGG@togglePbSvStatus?$AA@ 40033d3c     ui_main.obj
 0002:00006d50       ??_C@_0BM@OAENEHIG@profiles?1?$CFs?1servercache?4dat?$AA@ 40033d50     ui_main.obj
 0002:00006d6c       ??_C@_0P@NNHNPLN@profiles?1?$CFs?1?$CFs?$AA@ 40033d6c     ui_main.obj
 0002:00006d7c       ??_C@_0N@JFLPIDNL@etconfig?4cfg?$AA@ 40033d7c     ui_main.obj
 0002:00006d8c       ??_C@_0O@IKCFDNNB@renameProfile?$AA@ 40033d8c     ui_main.obj
 0002:00006d9c       ??_C@_0BE@NCDNMBCO@ui_profile_renameto?$AA@ 40033d9c     ui_main.obj
 0002:00006db0       ??_C@_0BC@NFIKOELD@renameProfileInit?$AA@ 40033db0     ui_main.obj
 0002:00006dc4       ??_C@_0M@KOIHHMCE@profiles?1?$CFs?$AA@ 40033dc4     ui_main.obj
 0002:00006dd0       ??_C@_0O@JDAMANDE@deleteProfile?$AA@ 40033dd0     ui_main.obj
 0002:00006de0       ??_C@_0BM@BHBFNCH@profiles?1defaultprofile?4dat?$AA@ 40033de0     ui_main.obj
 0002:00006dfc       ??_C@_0BC@FFIHHHCF@setDefaultProfile?$AA@ 40033dfc     ui_main.obj
 0002:00006e10       ??_C@_0N@LADFOAFI@applyProfile?$AA@ 40033e10     ui_main.obj
 0002:00006e20       ??_C@_0BI@FGPNFEHN@profiles?1?$CFs?1profile?4pid?$AA@ 40033e20     ui_main.obj
 0002:00006e38       ??_C@_08ECDLNMDK@clearPID?$AA@ 40033e38     ui_main.obj
 0002:00006e44       ??_C@_04OEDFLLKD@?$CC?$CFs?$CC?$AA@ 40033e44     ui_main.obj
 0002:00006e4c       ??_C@_0O@BCMFEOGF@createProfile?$AA@ 40033e4c     ui_main.obj
 0002:00006e5c       ??_C@_0N@OHPKLNPK@loadProfiles?$AA@ 40033e5c     ui_main.obj
 0002:00006e6c       ??_C@_0M@NONJPLHD@spmap?5?$CC?$CFs?$CC?6?$AA@ 40033e6c     ui_main.obj
 0002:00006e78       ??_C@_0N@LCKGMBCB@playCampaign?$AA@ 40033e78     ui_main.obj
 0002:00006e88       ??_C@_0O@LLGBHKLC@setupCampaign?$AA@ 40033e88     ui_main.obj
 0002:00006e98       ??_C@_0BC@IJDNGBLF@loadCachedServers?$AA@ 40033e98     ui_main.obj
 0002:00006eac       ??_C@_0P@NPFJPIEL@unignore?5?$CC?$CFs?$CC?6?$AA@ 40033eac     ui_main.obj
 0002:00006ebc       ??_C@_0P@OFOAHONP@unIgnorePlayer?$AA@ 40033ebc     ui_main.obj
 0002:00006ecc       ??_C@_0N@HFGDADKA@ignore?5?$CC?$CFs?$CC?6?$AA@ 40033ecc     ui_main.obj
 0002:00006edc       ??_C@_0N@PMKEMOMB@ignorePlayer?$AA@ 40033edc     ui_main.obj
 0002:00006eec       ??_C@_0BB@LMDHIIEO@ref?5warmup?5?$CC?$CFs?$CC?6?$AA@ 40033eec     ui_main.obj
 0002:00006f00       ??_C@_09KNOPHCKG@ui_warmup?$AA@ 40033f00     ui_main.obj
 0002:00006f0c       ??_C@_09PMDIOLAB@refWarmup?$AA@ 40033f0c     ui_main.obj
 0002:00006f18       ??_C@_0BE@GIOGJLOM@ref?5warn?5?$CC?$CFs?$CC?5?$CC?$CFs?$CC?6?$AA@ 40033f18     ui_main.obj
 0002:00006f2c       ??_C@_0O@DDOKPLGP@ui_warnreason?$AA@ 40033f2c     ui_main.obj
 0002:00006f3c       ??_C@_0L@BGJAOJJA@refWarning?$AA@ 40033f3c     ui_main.obj
 0002:00006f48       ??_C@_0BC@ENCNJNMH@rcon?5unmute?5?$CC?$CFs?$CC?6?$AA@ 40033f48     ui_main.obj
 0002:00006f5c       ??_C@_0L@LKLONNKM@rconUnMute?$AA@ 40033f5c     ui_main.obj
 0002:00006f68       ??_C@_0BA@KEJMNKMF@rcon?5mute?5?$CC?$CFs?$CC?6?$AA@ 40033f68     ui_main.obj
 0002:00006f78       ??_C@_08GBDHGGEE@rconMute?$AA@ 40033f78     ui_main.obj
 0002:00006f84       ??_C@_0BJ@ENNDDEOH@rcon?5removeReferee?5?$CC?$CFs?$CC?6?$AA@ 40033f84     ui_main.obj
 0002:00006fa0       ??_C@_0BC@PHFIFBDE@rconRemoveReferee?$AA@ 40033fa0     ui_main.obj
 0002:00006fb4       ??_C@_0BH@KLDLIJOC@rcon?5makeReferee?5?$CC?$CFs?$CC?6?$AA@ 40033fb4     ui_main.obj
 0002:00006fcc       ??_C@_0BA@OAKKFJEM@rconMakeReferee?$AA@ 40033fcc     ui_main.obj
 0002:00006fdc       ??_C@_0BC@IHCADEAD@ref?5referee?5?$CC?$CFs?$CC?6?$AA@ 40033fdc     ui_main.obj
 0002:00006ff0       ??_C@_0P@PGKJMKNF@refMakeReferee?$AA@ 40033ff0     ui_main.obj
 0002:00007000       ??_C@_0BE@NLGALBPD@ref?5unreferee?5?$CC?$CFs?$CC?6?$AA@ 40034000     ui_main.obj
 0002:00007014       ??_C@_0N@DPHNFNFG@refUnReferee?$AA@ 40034014     ui_main.obj
 0002:00007024       ??_C@_0BB@JGDDODJI@ref?5remove?5?$CC?$CFs?$CC?6?$AA@ 40034024     ui_main.obj
 0002:00007038       ??_C@_0M@EHHFIOBN@refMakeSpec?$AA@ 40034038     ui_main.obj
 0002:00007044       ??_C@_0BE@PHDEOACD@ref?5putallies?5?$CC?$CFs?$CC?6?$AA@ 40034044     ui_main.obj
 0002:00007058       ??_C@_0O@FMBJOPDE@refMakeAllied?$AA@ 40034058     ui_main.obj
 0002:00007068       ??_C@_0BC@MJHBANOE@ref?5putaxis?5?$CC?$CFs?$CC?6?$AA@ 40034068     ui_main.obj
 0002:0000707c       ??_C@_0M@NLDJIJCF@refMakeAxis?$AA@ 4003407c     ui_main.obj
 0002:00007088       ??_C@_0BB@IEKIHIGJ@ref?5unmute?5?$CC?$CFs?$CC?6?$AA@ 40034088     ui_main.obj
 0002:0000709c       ??_C@_09BKFKJEPJ@refUnMute?$AA@ 4003409c     ui_main.obj
 0002:000070a8       ??_C@_0P@LCJPEJFM@ref?5mute?5?$CC?$CFs?$CC?6?$AA@ 400340a8     ui_main.obj
 0002:000070b8       ??_C@_07MEHLKKEG@refMute?$AA@ 400340b8     ui_main.obj
 0002:000070c0       ??_C@_0P@HHAJLJPN@rcon?5ban?5?$CC?$CFs?$CC?6?$AA@ 400340c0     ui_main.obj
 0002:000070d0       ??_C@_07JCCAODCI@rconBan?$AA@ 400340d0     ui_main.obj
 0002:000070d8       ??_C@_0P@LKJDNPPD@ref?5kick?5?$CC?$CFs?$CC?6?$AA@ 400340d8     ui_main.obj
 0002:000070e8       ??_C@_07NGBOCPLK@refKick?$AA@ 400340e8     ui_main.obj
 0002:000070f0       ??_C@_0BA@KMJAEMGK@rcon?5kick?5?$CC?$CFs?$CC?6?$AA@ 400340f0     ui_main.obj
 0002:00007100       ??_C@_08HDFCODLI@rconKick?$AA@ 40034100     ui_main.obj
 0002:0000710c       ??_C@_0M@KEKIFLGE@ref?5map?5?$CFs?6?$AA@ 4003410c     ui_main.obj
 0002:00007118       ??_C@_0BB@HMBFNED@ref?5campaign?5?$CFs?6?$AA@ 40034118     ui_main.obj
 0002:0000712c       ??_C@_06FIHLKFIG@refMap?$AA@ 4003412c     ui_main.obj
 0002:00007134       ??_C@_0N@GMGEKLKF@rcon?5map?5?$CFs?6?$AA@ 40034134     ui_main.obj
 0002:00007144       ??_C@_07BOACMMKB@rconMap?$AA@ 40034144     ui_main.obj
 0002:0000714c       ??_C@_0BE@IMCKAOPL@rcon?5g_gametype?5?$CFi?6?$AA@ 4003414c     ui_main.obj
 0002:00007160       ??_C@_08OHALCGNC@rconGame?$AA@ 40034160     ui_main.obj
 0002:0000716c       ??_C@_0O@NFIEBFHK@setPbClStatus?$AA@ 4003416c     ui_main.obj
 0002:0000717c       ??_C@_08FLMDAALG@?$CLscores?6?$AA@ 4003417c     ui_main.obj
 0002:00007188       ??_C@_0P@KKFKMCGH@showSpecScores?$AA@ 40034188     ui_main.obj
 0002:00007198       ??_C@_0BD@NNOLHPDE@startSingleplayer?6?$AA@ 40034198     ui_main.obj
 0002:000071ac       ??_C@_0BC@GNGBEHB@startSingleplayer?$AA@ 400341ac     ui_main.obj
 0002:000071c0       ??_C@_06HDLLMMEJ@update?$AA@ 400341c0     ui_main.obj
 0002:000071c8       ??_C@_08EBELHFHN@glCustom?$AA@ 400341c8     ui_main.obj
 0002:000071d4       ??_C@_0M@JLOCKKJD@voiceOrders?$AA@ 400341d4     ui_main.obj
 0002:000071e0       ??_C@_0BA@CIKCJHJJ@voiceOrdersTeam?$AA@ 400341e0     ui_main.obj
 0002:000071f0       ??_C@_01EEMJAFIK@?6?$AA@   400341f0     ui_main.obj
 0002:000071f4       ??_C@_06GKKKPAPA@orders?$AA@ 400341f4     ui_main.obj
 0002:000071fc       ??_C@_0BF@LOGHOGEE@createFavoriteIngame?$AA@ 400341fc     ui_main.obj
 0002:00007214       ??_C@_0BD@IEIPHBLJ@ui_favoriteAddress?$AA@ 40034214     ui_main.obj
 0002:00007228       ??_C@_0BA@LFABJOCG@ui_favoriteName?$AA@ 40034228     ui_main.obj
 0002:00007238       ??_C@_0P@OAONNFHL@createFavorite?$AA@ 40034238     ui_main.obj
 0002:00007248       ??_C@_0P@PMAAHNFK@deleteFavorite?$AA@ 40034248     ui_main.obj
 0002:00007258       ??_C@_0BK@FHDFKECC@Added?5favorite?5server?5?$CFs?6?$AA@ 40034258     ui_main.obj
 0002:00007274       ??_C@_0BE@GHLACGPA@Favorite?5list?5full?6?$AA@ 40034274     ui_main.obj
 0002:00007288       ??_C@_0BK@MJOGKENH@Favorite?5already?5in?5list?6?$AA@ 40034288     ui_main.obj
 0002:000072a4       ??_C@_0M@EGEBIODJ@addFavorite?$AA@ 400342a4     ui_main.obj
 0002:000072b0       ??_C@_0BI@HLELIIOI@callteamvote?5leader?5?$CFs?6?$AA@ 400342b0     ui_main.obj
 0002:000072c8       ??_C@_0L@PNGBIKK@voteLeader?$AA@ 400342c8     ui_main.obj
 0002:000072d4       ??_C@_0BA@OPEAAOMM@voteInitToggles?$AA@ 400342d4     ui_main.obj
 0002:000072e4       ??_C@_0BF@ICHIGHAN@ref?5warmupdamage?5?$CFd?6?$AA@ 400342e4     ui_main.obj
 0002:000072fc       ??_C@_0BA@NJNPJDNJ@refWarmupDamage?$AA@ 400342fc     ui_main.obj
 0002:0000730c       ??_C@_0BC@MCCNBKOI@ref?5timelimit?5?$CFf?6?$AA@ 4003430c     ui_main.obj
 0002:00007320       ??_C@_0N@NOOBEJKK@refTimelimit?$AA@ 40034320     ui_main.obj
 0002:00007330       ??_C@_0BK@EDJOBJHG@callvote?5warmupdamage?5?$CFd?6?$AA@ 40034330     ui_main.obj
 0002:0000734c       ??_C@_0BE@KEHCCDBH@ui_voteWarmupDamage?$AA@ 4003434c     ui_main.obj
 0002:00007360       ??_C@_0BB@FBJOENPB@voteWarmupDamage?$AA@ 40034360     ui_main.obj
 0002:00007374       ??_C@_0BH@NKJAHPLI@callvote?5timelimit?5?$CFf?6?$AA@ 40034374     ui_main.obj
 0002:0000738c       ??_C@_0BB@FJJCIBFJ@ui_voteTimelimit?$AA@ 4003438c     ui_main.obj
 0002:000073a0       ??_C@_0O@OPPHIPCK@voteTimelimit?$AA@ 400343a0     ui_main.obj
 0002:000073b0       ??_C@_0BB@EFBMDPEJ@ref?5gametype?5?$CFi?6?$AA@ 400343b0     ui_main.obj
 0002:000073c4       ??_C@_07ECEHOKNA@refGame?$AA@ 400343c4     ui_main.obj
 0002:000073cc       ??_C@_0BG@EPDOBIJO@callvote?5gametype?5?$CFi?6?$AA@ 400343cc     ui_main.obj
 0002:000073e4       ??_C@_0BA@EJHPEFKP@ui_voteGameType?$AA@ 400343e4     ui_main.obj
 0002:000073f4       ??_C@_08OCFGFKGG@voteGame?$AA@ 400343f4     ui_main.obj
 0002:00007400       ??_C@_0BJ@FMADGBMN@callvote?5unreferee?5?$CC?$CFs?$CC?6?$AA@ 40034400     ui_main.obj
 0002:0000741c       ??_C@_0O@OGLJLNG@voteUnReferee?$AA@ 4003441c     ui_main.obj
 0002:0000742c       ??_C@_0BH@JPJNFBFD@callvote?5referee?5?$CC?$CFs?$CC?6?$AA@ 4003442c     ui_main.obj
 0002:00007444       ??_C@_0M@LDHFODMO@voteReferee?$AA@ 40034444     ui_main.obj
 0002:00007450       ??_C@_0BG@IOIKFPLO@callvote?5unmute?5?$CC?$CFs?$CC?6?$AA@ 40034450     ui_main.obj
 0002:00007468       ??_C@_0L@GDKEIOFK@voteUnMute?$AA@ 40034468     ui_main.obj
 0002:00007474       ??_C@_0BE@DJHJHOOK@callvote?5mute?5?$CC?$CFs?$CC?6?$AA@ 40034474     ui_main.obj
 0002:00007488       ??_C@_08GEGKBKPA@voteMute?$AA@ 40034488     ui_main.obj
 0002:00007494       ??_C@_0BE@GEMABNEF@callvote?5poll?5?$CC?$CFs?$CC?6?$AA@ 40034494     ui_main.obj
 0002:000074a8       ??_C@_07IPIJBNAD@ui_poll?$AA@ 400344a8     ui_main.obj
 0002:000074b0       ??_C@_08EJLHLJ@votePoll?$AA@ 400344b0     ui_main.obj
 0002:000074bc       ??_C@_0BE@DBHFOIEF@callvote?5kick?5?$CC?$CFs?$CC?6?$AA@ 400344bc     ui_main.obj
 0002:000074d0       ??_C@_08HGAPJPAM@voteKick?$AA@ 400344d0     ui_main.obj
 0002:000074dc       ??_C@_0BB@MMOGBGK@callvote?5map?5?$CFs?6?$AA@ 400344dc     ui_main.obj
 0002:000074f0       ??_C@_0BG@NODHKJE@callvote?5campaign?5?$CFs?6?$AA@ 400344f0     ui_main.obj
 0002:00007508       ??_C@_07EDCJGLGG@voteMap?$AA@ 40034508     ui_main.obj
 0002:00007510       ??_C@_0M@CMDMBGBD@closeingame?$AA@ 40034510     ui_main.obj
 0002:0000751c       ??_C@_0O@NIAKDABK@SkirmishStart?$AA@ 4003451c     ui_main.obj
 0002:0000752c       ??_C@_0N@ENKJLKKO@nextSkirmish?$AA@ 4003452c     ui_main.obj
 0002:0000753c       ??_C@_0P@LAPAHBEC@ServerSortDown?$AA@ 4003453c     ui_main.obj
 0002:0000754c       ??_C@_0L@GJDENEEM@ServerSort?$AA@ 4003454c     ui_main.obj
 0002:00007558       ??_C@_0M@MNJNCGPD@disconnect?6?$AA@ 40034558     ui_main.obj
 0002:00007564       ??_C@_0L@MPAGGMDN@sv_running?$AA@ 40034564     ui_main.obj
 0002:00007570       ??_C@_05KMBJHHBA@Leave?$AA@ 40034570     ui_main.obj
 0002:00007578       ??_C@_0M@ELCNGBBL@setup_menu2?$AA@ 40034578     ui_main.obj
 0002:00007584       ??_C@_08BJJAFCGA@Controls?$AA@ 40034584     ui_main.obj
 0002:00007590       ??_C@_04KNNLNNGO@quit?$AA@ 40034590     ui_main.obj
 0002:00007598       ??_C@_04GMBKPCGK@Quit?$AA@ 40034598     ui_main.obj
 0002:000075a0       ??_C@_0BG@HCFHGGBJ@FoundPlayerJoinServer?$AA@ 400345a0     ui_main.obj
 0002:000075b8       ??_C@_0BG@LGLFPJCC@ui_connectToIPAddress?$AA@ 400345b8     ui_main.obj
 0002:000075d0       ??_C@_0BB@FNDHEOEN@JoinDirectServer?$AA@ 400345d0     ui_main.obj
 0002:000075e4       ??_C@_02LBFBOHNP@0?5?$AA@  400345e4     ui_main.obj
 0002:000075e8       ??_C@_0L@GBIFOGGA@JoinServer?$AA@ 400345e8     ui_main.obj
 0002:000075f4       ??_C@_0L@PKOEMDLA@FindPlayer?$AA@ 400345f4     ui_main.obj
 0002:00007600       ??_C@_0BI@NGEOLCDJ@FoundPlayerServerStatus?$AA@ 40034600     ui_main.obj
 0002:00007618       ??_C@_0L@OJMFMOP@serverinfo?$AA@ 40034618     ui_main.obj
 0002:00007624       ??_C@_0BH@CDEAODOE@error_popmenu_diagnose?$AA@ 40034624     ui_main.obj
 0002:0000763c       ??_C@_0BG@NIMDMFJJ@ServerStatus_diagnose?$AA@ 4003463c     ui_main.obj
 0002:00007654       ??_C@_0BD@CBGJBHLH@InGameServerStatus?$AA@ 40034654     ui_main.obj
 0002:00007668       ??_C@_0DF@JDBHHAHA@Can?8t?5show?5Server?5Info?5?$CInot?5foun@ 40034668     ui_main.obj
 0002:000076a0       ??_C@_0BB@KCAOEMCL@ui_serverBrowser?$AA@ 400346a0     ui_main.obj
 0002:000076b4       ??_C@_0N@MFALOAHE@ServerStatus?$AA@ 400346b4     ui_main.obj
 0002:000076c4       ??_C@_0P@IGAPPBJC@ctr_serverinfo?$AA@ 400346c4     ui_main.obj
 0002:000076d4       ??_C@_09IPAEKDAI@localhost?$AA@ 400346d4     ui_main.obj
 0002:000076e0       ??_C@_0P@FOBIABGN@ingame_options?$AA@ 400346e0     ui_main.obj
 0002:000076f0       ??_C@_0BD@FCKAALNB@check_ServerStatus?$AA@ 400346f0     ui_main.obj
 0002:00007704       ??_C@_0N@MIKCKLPA@UpdateFilter?$AA@ 40034704     ui_main.obj
 0002:00007714       ??_C@_0M@DFCCPELD@StopRefresh?$AA@ 40034714     ui_main.obj
 0002:00007720       ??_C@_04GHJNJNPO@main?$AA@ 40034720     ui_main.obj
 0002:00007728       ??_C@_0L@CIKEFACL@joinserver?$AA@ 40034728     ui_main.obj
 0002:00007734       ??_C@_09NNPOKNDJ@closeJoin?$AA@ 40034734     ui_main.obj
 0002:00007740       ??_C@_0P@JBKMAJI@demos?1?$CFs?4dm_?$CFd?$AA@ 40034740     ui_main.obj
 0002:00007750       ??_C@_0L@CCBIAEIA@deleteDemo?$AA@ 40034750     ui_main.obj
 0002:0000775c       ??_C@_0L@NDAIPINK@demo?5?$CC?$CFs?$CC?6?$AA@ 4003475c     ui_main.obj
 0002:00007768       ??_C@_07CJBJDCI@RunDemo?$AA@ 40034768     ui_main.obj
 0002:00007770       ??_C@_0N@PGDAKNHB@vid_restart?$DL?$AA@ 40034770     ui_main.obj
 0002:00007780       ??_C@_07FMAMAFJE@fs_game?$AA@ 40034780     ui_main.obj
 0002:00007788       ??_C@_06IAFACPBP@RunMod?$AA@ 40034788     ui_main.obj
 0002:00007790       ??_C@_0BE@GDKNLHFF@cinematic?5?$CFs?4roq?52?6?$AA@ 40034790     ui_main.obj
 0002:000077a4       ??_C@_09IMKGDMFP@playMovie?$AA@ 400347a4     ui_main.obj
 0002:000077b0       ??_C@_08BONFJBCM@LoadMods?$AA@ 400347b0     ui_main.obj
 0002:000077bc       ??_C@_0M@CNAFDBFP@DelSavegame?$AA@ 400347bc     ui_main.obj
 0002:000077c8       ??_C@_0N@JHFGPNL@savegame?5?$CFs?6?$AA@ 400347c8     ui_main.obj
 0002:000077d8       ??_C@_0M@KJKGGCGL@ui_savegame?$AA@ 400347d8     ui_main.obj
 0002:000077e4       ??_C@_08GJOELBJF@Savegame?$AA@ 400347e4     ui_main.obj
 0002:000077f0       ??_C@_0N@BLDMHFFM@loadgame?5?$CFs?6?$AA@ 400347f0     ui_main.obj
 0002:00007800       ??_C@_08GGDCFPOC@Loadgame?$AA@ 40034800     ui_main.obj
 0002:0000780c       ??_C@_0O@KALGBBKC@LoadSaveGames?$AA@ 4003480c     ui_main.obj
 0002:0000781c       ??_C@_0L@NBLDIGEO@LoadMovies?$AA@ 4003481c     ui_main.obj
 0002:00007828       ??_C@_09DDFPMPLA@LoadDemos?$AA@ 40034828     ui_main.obj
 0002:00007834       ??_C@_0L@NICFMMGO@demo?5?$CFs_?$CFi?$AA@ 40034834     ui_main.obj
 0002:00007840       ??_C@_09MDJDNIJB@RunSPDemo?$AA@ 40034840     ui_main.obj
 0002:0000784c       ??_C@_0O@IEJIOIFM@RefreshFilter?$AA@ 4003484c     ui_main.obj
 0002:0000785c       ??_C@_0P@NGKMMKLC@RefreshServers?$AA@ 4003485c     ui_main.obj
 0002:0000786c       ??_C@_0M@ECEPFMDA@resetScores?$AA@ 4003486c     ui_main.obj
 0002:00007878       ??_C@_0N@EDJNMDIG@loadGameInfo?$AA@ 40034878     ui_main.obj
 0002:00007888       ??_C@_0L@KEOECIBG@clearError?$AA@ 40034888     ui_main.obj
 0002:00007894       ??_C@_0N@HHDEHNGC@loadControls?$AA@ 40034894     ui_main.obj
 0002:000078a4       ??_C@_0N@GFHNGHOF@saveControls?$AA@ 400348a4     ui_main.obj
 0002:000078b4       ??_C@_0N@NHHNMPCP@updateNetMap?$AA@ 400348b4     ui_main.obj
 0002:000078c4       ??_C@_0L@JCFJAPJP@loadArenas?$AA@ 400348c4     ui_main.obj
 0002:000078d0       ??_C@_0CE@CAINCGAI@CD?5key?5does?5not?5appear?5to?5be?5val@ 400348d0     ui_main.obj
 0002:000078f4       ??_C@_0O@OHLIJICA@ui_cdkeyvalid?$AA@ 400348f4     ui_main.obj
 0002:00007904       ??_C@_0BM@NLHBAMLA@CD?5key?5appears?5to?5be?5valid?4?$AA@ 40034904     ui_main.obj
 0002:00007920       ??_C@_0O@EGKCCOIK@cdkeychecksum?$AA@ 40034920     ui_main.obj
 0002:00007930       ??_C@_05PACJEJFD@cdkey?$AA@ 40034930     ui_main.obj
 0002:00007938       ??_C@_0M@NLJNOLGD@verifyCDKey?$AA@ 40034938     ui_main.obj
 0002:00007944       ??_C@_06EJLINKPA@cdkey4?$AA@ 40034944     ui_main.obj
 0002:0000794c       ??_C@_06GPJEMDH@cdkey3?$AA@ 4003494c     ui_main.obj
 0002:00007954       ??_C@_06BPOCHNHG@cdkey2?$AA@ 40034954     ui_main.obj
 0002:0000795c       ??_C@_06DEMPCOLF@cdkey1?$AA@ 4003495c     ui_main.obj
 0002:00007964       ??_C@_08HJJDMPNI@getCDKey?$AA@ 40034964     ui_main.obj
 0002:00007970       ??_C@_0N@DAGNKKMD@vid_restart?6?$AA@ 40034970     ui_main.obj
 0002:00007980       ??_C@_0BD@GPGDMCJF@com_recommendedSet?$AA@ 40034980     ui_main.obj
 0002:00007994       ??_C@_0BA@DOMILBID@com_introPlayed?$AA@ 40034994     ui_main.obj
 0002:000079a4       ??_C@_0BA@IPKEMBKK@setRecommended?6?$AA@ 400349a4     ui_main.obj
 0002:000079b4       ??_C@_0BD@GONIGDLJ@exec?5language?4cfg?6?$AA@ 400349b4     ui_main.obj
 0002:000079c8       ??_C@_0BC@FDOILEKD@exec?5default?4cfg?6?$AA@ 400349c8     ui_main.obj
 0002:000079dc       ??_C@_0O@FOFBEHAC@cvar_restart?6?$AA@ 400349dc     ui_main.obj
 0002:000079ec       ??_C@_0O@JMPPEAEI@resetDefaults?$AA@ 400349ec     ui_main.obj
 0002:000079fc       ??_C@_0P@OJCJEALH@selectcampaign?$AA@ 400349fc     ui_main.obj
 0002:00007a0c       ??_C@_08NJICDBID@skirmish?$AA@ 40034a0c     ui_main.obj
 0002:00007a18       ??_C@_0N@DKFPEKGB@updateSPMenu?$AA@ 40034a18     ui_main.obj
 0002:00007a28       ??_C@_0BI@CLHDKAHK@g_userAlliedRespawnTime?$AA@ 40034a28     ui_main.obj
 0002:00007a40       ??_C@_0BG@KLIHGOKO@g_userAxisRespawnTime?$AA@ 40034a40     ui_main.obj
 0002:00007a58       ??_C@_0BA@IOPCKFME@g_userTimelimit?$AA@ 40034a58     ui_main.obj
 0002:00007a68       ??_C@_0BB@BLDOMLHI@ui_userTimelimit?$AA@ 40034a68     ui_main.obj
 0002:00007a7c       ??_C@_09OGEBNCBM@g_spSkill?$AA@ 40034a7c     ui_main.obj
 0002:00007a88       ??_C@_0BG@IEGGLJFO@wait?5?$DL?5wait?5?$DL?5map?5?$CFs?6?$AA@ 40034a88     ui_main.obj
 0002:00007aa0       ??_C@_09BJOAODLF@dedicated?$AA@ 40034aa0     ui_main.obj
 0002:00007aac       ??_C@_0BG@JDIGCOKJ@ui_singlePlayerActive?$AA@ 40034aac     ui_main.obj
 0002:00007ac4       ??_C@_0BD@DAALNFKF@hostGamePopupError?$AA@ 40034ac4     ui_main.obj
 0002:00007ad8       ??_C@_0HN@CEMCJHCN@You?5must?5either?5disable?5PunkBust@ 40034ad8     ui_main.obj
 0002:00007b58       ??_C@_0O@LNMAAODD@cl_punkbuster?$AA@ 40034b58     ui_main.obj
 0002:00007b68       ??_C@_0O@FFCKPCKD@sv_punkbuster?$AA@ 40034b68     ui_main.obj
 0002:00007b78       ??_C@_0M@JNAJLIPJ@StartServer?$AA@ 40034b78     ui_main.obj
 0002:00007b84       ??_C@_02NFLNFON@NO?$AA@    40034b84     ui_main.obj
 0002:00007b88       ??_C@_03CCLAEDDF@Yes?$AA@  40034b88     ui_main.obj
 0002:00007b8c       ??_C@_0O@DCFOJKGE@s_musicvolume?$AA@ 40034b8c     ui_main.obj
 0002:00007b9c       ??_C@_03LOHCHBBO@0?45?$AA@ 40034b9c     ui_main.obj
 0002:00007ba0       ??_C@_08HCGCKAMG@s_volume?$AA@ 40034ba0     ui_main.obj
 0002:00007bac       ??_C@_0BF@DKLLPEHA@ui_TeamArenaFirstRun?$AA@ 40034bac     ui_main.obj
 0002:00007bc4       ??_C@_0BJ@GPAMOLGD@ui?1assets?1fadecircle?4tga?$AA@ 40034bc4     ui_main.obj
 0002:00007be0       ??_C@_0BK@FDNCAOHL@ui?1assets?1fadetoblack?4tga?$AA@ 40034be0     ui_main.obj
 0002:00007bfc       ??_C@_0BJ@DJIIHFH@ui?1assets?1blingbling?4tga?$AA@ 40034bfc     ui_main.obj
 0002:00007c18       ??_C@_0BJ@PBKNICAB@gfx?1loading?1camp_map?4tga?$AA@ 40034c18     ui_main.obj
 0002:00007c34       ??_C@_0BI@OJJAPKFI@ui?1assets?1filter_nq?4tga?$AA@ 40034c34     ui_main.obj
 0002:00007c4c       ??_C@_0BN@DPMIGOHD@ui?1assets?1filter_balance?4tga?$AA@ 40034c4c     ui_main.obj
 0002:00007c6c       ??_C@_0BN@MMHNJMBO@ui?1assets?1filter_antilag?4tga?$AA@ 40034c6c     ui_main.obj
 0002:00007c8c       ??_C@_0BK@PNBALDGF@ui?1assets?1filter_weap?4tga?$AA@ 40034c8c     ui_main.obj
 0002:00007ca8       ??_C@_0BI@FLDDGNPO@ui?1assets?1filter_pb?4tga?$AA@ 40034ca8     ui_main.obj
 0002:00007cc0       ??_C@_0BL@LPLDJFFC@ui?1assets?1filter_lives?4tga?$AA@ 40034cc0     ui_main.obj
 0002:00007cdc       ??_C@_0BI@MEKMIGBM@ui?1assets?1filter_ff?4tga?$AA@ 40034cdc     ui_main.obj
 0002:00007cf4       ??_C@_0BK@GLOOCPBP@ui?1assets?1filter_pass?4tga?$AA@ 40034cf4     ui_main.obj
 0002:00007d10       __real@3ff5555555555555    40034d10     ui_main.obj
 0002:00007d18       __real@3f5999999999999a    40034d18     ui_main.obj
 0002:00007d20       __real@3f61111111111111    40034d20     ui_main.obj
 0002:00007d28       ??_C@_04OGGDJOBK@NQUI?$AA@ 40034d28     ui_main.obj
 0002:00007d30       ??_C@_0P@EHPKKHPK@itemHotkeyMode?$AA@ 40034d30     ui_shared.obj
 0002:00007d40       ??_C@_05NFCMEHKM@modal?$AA@ 40034d40     ui_shared.obj
 0002:00007d48       ??_C@_0M@LEIOAIA@alwaysontop?$AA@ 40034d48     ui_shared.obj
 0002:00007d54       ??_C@_0L@BNAEKCAN@execKeyInt?$AA@ 40034d54     ui_shared.obj
 0002:00007d60       ??_C@_05EIEHMANA@popup?$AA@ 40034d60     ui_shared.obj
 0002:00007d68       ??_C@_07BNAIEIKL@itemDef?$AA@ 40034d68     ui_shared.obj
 0002:00007d70       ??_C@_09LMHPKFJB@soundLoop?$AA@ 40034d70     ui_shared.obj
 0002:00007d7c       ??_C@_0BB@FOHPFLED@outOfBoundsClick?$AA@ 40034d7c     ui_shared.obj
 0002:00007d90       ??_C@_0N@EEPADJLO@disablecolor?$AA@ 40034d90     ui_shared.obj
 0002:00007da0       ??_C@_0L@OKFLOHAM@focuscolor?$AA@ 40034da0     ui_shared.obj
 0002:00007dac       ??_C@_0L@NBMNMLHL@borderSize?$AA@ 40034dac     ui_shared.obj
 0002:00007db8       ??_C@_05IIPJAONP@onESC?$AA@ 40034db8     ui_shared.obj
 0002:00007dc0       ??_C@_09PIOOHDON@onTimeout?$AA@ 40034dc0     ui_shared.obj
 0002:00007dcc       ??_C@_07LAOJOJAJ@onClose?$AA@ 40034dcc     ui_shared.obj
 0002:00007dd4       ??_C@_06CJGNFCEB@onOpen?$AA@ 40034dd4     ui_shared.obj
 0002:00007ddc       ??_C@_0L@GIACNHMO@fullscreen?$AA@ 40034ddc     ui_shared.obj
 0002:00007de8       ??_C@_07ICKFFHJA@bitflag?$AA@ 40034de8     ui_shared.obj
 0002:00007df0       ??_C@_07FJHHECNJ@wrapped?$AA@ 40034df0     ui_shared.obj
 0002:00007df8       ??_C@_08BGHADAON@voteFlag?$AA@ 40034df8     ui_shared.obj
 0002:00007e04       ??_C@_07DPDAEJMK@visible?$AA@ 40034e04     ui_shared.obj
 0002:00007e0c       ??_C@_0O@ILKOLHGF@tooltipaligny?$AA@ 40034e0c     ui_shared.obj
 0002:00007e1c       ??_C@_0O@JCLFIGCE@tooltipalignx?$AA@ 40034e1c     ui_shared.obj
 0002:00007e2c       ??_C@_07OGDNBKKB@tooltip?$AA@ 40034e2c     ui_shared.obj
 0002:00007e34       ??_C@_09FMCFHDEN@textstyle?$AA@ 40034e34     ui_shared.obj
 0002:00007e40       ??_C@_09BLEIEHKP@textscale?$AA@ 40034e40     ui_shared.obj
 0002:00007e4c       ??_C@_08BPKLDJKM@textfont?$AA@ 40034e4c     ui_shared.obj
 0002:00007e58       ??_C@_08GKJNJBAO@textfile?$AA@ 40034e58     ui_shared.obj
 0002:00007e64       ??_C@_0L@FCLMCIJC@textaligny?$AA@ 40034e64     ui_shared.obj
 0002:00007e70       ??_C@_0L@ELKHBJND@textalignx?$AA@ 40034e70     ui_shared.obj
 0002:00007e7c       ??_C@_09PNBDGNCL@textalign?$AA@ 40034e7c     ui_shared.obj
 0002:00007e88       ??_C@_04CIMGMMMG@text?$AA@ 40034e88     ui_shared.obj
 0002:00007e90       ??_C@_05IAKJCFIM@style?$AA@ 40034e90     ui_shared.obj
 0002:00007e98       ??_C@_07BELCMIIP@special?$AA@ 40034e98     ui_shared.obj
 0002:00007ea0       ??_C@_08LNBEMJIA@showCvar?$AA@ 40034ea0     ui_shared.obj
 0002:00007eac       ??_C@_0P@BCBEJNDD@settingEnabled?$AA@ 40034eac     ui_shared.obj
 0002:00007ebc       ??_C@_0BA@BGMCKCOH@settingDisabled?$AA@ 40034ebc     ui_shared.obj
 0002:00007ecc       ??_C@_04LHPFHFPH@rect?$AA@ 40034ecc     ui_shared.obj
 0002:00007ed4       ??_C@_0O@DACAJCLK@ownerdrawFlag?$AA@ 40034ed4     ui_shared.obj
 0002:00007ee4       ??_C@_09HGLBOMNF@ownerdraw?$AA@ 40034ee4     ui_shared.obj
 0002:00007ef0       ??_C@_0N@LGJOCBPD@outlinecolor?$AA@ 40034ef0     ui_shared.obj
 0002:00007f00       ??_C@_06NHCMNMEH@origin?$AA@ 40034f00     ui_shared.obj
 0002:00007f08       ??_C@_07PFEHHELH@onFocus?$AA@ 40034f08     ui_shared.obj
 0002:00007f10       ??_C@_0O@FDEIBLKE@notselectable?$AA@ 40034f10     ui_shared.obj
 0002:00007f20       ??_C@_08HOAALKBK@noToggle?$AA@ 40034f20     ui_shared.obj
 0002:00007f2c       ??_C@_0O@GFPABKKP@mouseExitText?$AA@ 40034f2c     ui_shared.obj
 0002:00007f3c       ??_C@_09OIHCIOIA@mouseExit?$AA@ 40034f3c     ui_shared.obj
 0002:00007f48       ??_C@_0P@BCEPHLNB@mouseEnterText?$AA@ 40034f48     ui_shared.obj
 0002:00007f58       ??_C@_0L@KAGOMOPN@mouseEnter?$AA@ 40034f58     ui_shared.obj
 0002:00007f64       ??_C@_0P@NOKHMHPD@model_rotation?$AA@ 40034f64     ui_shared.obj
 0002:00007f74       ??_C@_0N@LHLPLFLG@model_origin?$AA@ 40034f74     ui_shared.obj
 0002:00007f84       ??_C@_0L@NMCIJLPA@model_fovy?$AA@ 40034f84     ui_shared.obj
 0002:00007f90       ??_C@_0L@MFDDKKLB@model_fovx?$AA@ 40034f90     ui_shared.obj
 0002:00007f9c       ??_C@_0P@DLMIHLMC@model_animplay?$AA@ 40034f9c     ui_shared.obj
 0002:00007fac       ??_C@_0M@HHMGANAM@model_angle?$AA@ 40034fac     ui_shared.obj
 0002:00007fb8       ??_C@_0O@HPCOAMJM@maxPaintChars?$AA@ 40034fb8     ui_shared.obj
 0002:00007fc8       ??_C@_08IHGPPBOI@maxChars?$AA@ 40034fc8     ui_shared.obj
 0002:00007fd4       ??_C@_0L@LMAJDKOE@leaveFocus?$AA@ 40034fd4     ui_shared.obj
 0002:00007fe0       ??_C@_0BB@EIBMEDHI@horizontalscroll?$AA@ 40034fe0     ui_shared.obj
 0002:00007ff4       ??_C@_08BDDCOCNI@hideCvar?$AA@ 40034ff4     ui_shared.obj
 0002:00008000       ??_C@_05MGJOOGAJ@group?$AA@ 40035000     ui_shared.obj
 0002:00008008       ??_C@_09MONNBKNO@forecolor?$AA@ 40035008     ui_shared.obj
 0002:00008014       ??_C@_0L@NOGKCHFE@focusSound?$AA@ 40035014     ui_shared.obj
 0002:00008020       ??_C@_06GEEPENGB@feeder?$AA@ 40035020     ui_shared.obj
 0002:00008028       ??_C@_07KHAOJHDJ@execKey?$AA@ 40035028     ui_shared.obj
 0002:00008030       ??_C@_0L@LCDHKNEJ@enableCvar?$AA@ 40035030     ui_shared.obj
 0002:0000803c       ??_C@_0N@MILKKPGL@elementwidth?$AA@ 4003503c     ui_shared.obj
 0002:0000804c       ??_C@_0M@HBNIAHKL@elementtype?$AA@ 4003504c     ui_shared.obj
 0002:00008058       ??_C@_0O@MNJDKOBB@elementheight?$AA@ 40035058     ui_shared.obj
 0002:00008068       ??_C@_07IGEANCLO@onEnter?$AA@ 40035068     ui_shared.obj
 0002:00008070       ??_C@_05CFDAGMJN@onEsc?$AA@ 40035070     ui_shared.obj
 0002:00008078       ??_C@_0M@IHJKFHF@doubleclick?$AA@ 40035078     ui_shared.obj
 0002:00008084       ??_C@_0M@FBHLBFCC@disableCvar?$AA@ 40035084     ui_shared.obj
 0002:00008090       ??_C@_0M@OIJJAIPM@textasfloat?$AA@ 40035090     ui_shared.obj
 0002:0000809c       ??_C@_09KAFPKMCM@textasint?$AA@ 4003509c     ui_shared.obj
 0002:000080a8       ??_C@_0L@GFEIECKE@decoration?$AA@ 400350a8     ui_shared.obj
 0002:000080b4       ??_C@_08KBIDCBHN@cvarTest?$AA@ 400350b4     ui_shared.obj
 0002:000080c0       ??_C@_0BC@IJHOLNF@cvarListUndefined?$AA@ 400350c0     ui_shared.obj
 0002:000080d4       ??_C@_0M@GOKMFACI@cvarStrList?$AA@ 400350d4     ui_shared.obj
 0002:000080e0       ??_C@_0O@IKNDJMDK@cvarFloatList?$AA@ 400350e0     ui_shared.obj
 0002:000080f0       ??_C@_09CGGKHKAP@cvarFloat?$AA@ 400350f0     ui_shared.obj
 0002:000080fc       ??_C@_04PNAHEAFM@cvar?$AA@ 400350fc     ui_shared.obj
 0002:00008104       ??_C@_0M@NAMPODJM@contextmenu?$AA@ 40035104     ui_shared.obj
 0002:00008110       ??_C@_07HIFEPIJN@columns?$AA@ 40035110     ui_shared.obj
 0002:00008118       ??_C@_09DHDJHDLH@cinematic?$AA@ 40035118     ui_shared.obj
 0002:00008124       ??_C@_0L@BAAMOEHP@bordersize?$AA@ 40035124     ui_shared.obj
 0002:00008130       ??_C@_0M@CJNAABJD@bordercolor?$AA@ 40035130     ui_shared.obj
 0002:0000813c       ??_C@_06ODFLABIG@border?$AA@ 4003513c     ui_shared.obj
 0002:00008144       ??_C@_0L@EGCKCJDC@background?$AA@ 40035144     ui_shared.obj
 0002:00008150       ??_C@_09OPNKCLNO@backcolor?$AA@ 40035150     ui_shared.obj
 0002:0000815c       ??_C@_0M@HHKOOJO@autowrapped?$AA@ 4003515c     ui_shared.obj
 0002:00008168       ??_C@_0N@HLFJAKEA@asset_shader?$AA@ 40035168     ui_shared.obj
 0002:00008178       ??_C@_0M@DKAIGAGN@asset_model?$AA@ 40035178     ui_shared.obj
 0002:00008184       ??_C@_05CBJPDLOK@align?$AA@ 40035184     ui_shared.obj
 0002:0000818c       ??_C@_0BB@NGONGLOH@addColorRangeRel?$AA@ 4003518c     ui_shared.obj
 0002:000081a0       ??_C@_0O@BGFKBLBI@addColorRange?$AA@ 400351a0     ui_shared.obj
 0002:000081b0       ??_C@_06DDLLCOJG@action?$AA@ 400351b0     ui_shared.obj
 0002:000081b8       ??_C@_06MPKMECK@accept?$AA@ 400351b8     ui_shared.obj
 0002:000081c0       ??_C@_08EHILFAKG@dropclip?$AA@ 400351c0     ui_shared.obj
 0002:000081cc       ??_C@_0L@KPCNGFPA@dropweapon?$AA@ 400351cc     ui_shared.obj
 0002:000081d8       ??_C@_0P@NGPDLPMB@selectbuddy?5?92?$AA@ 400351d8     ui_shared.obj
 0002:000081e8       ??_C@_0O@GPNAOAHJ@selectbuddy?55?$AA@ 400351e8     ui_shared.obj
 0002:000081f8       ??_C@_0O@HGMLNBDI@selectbuddy?54?$AA@ 400351f8     ui_shared.obj
 0002:00008208       ??_C@_0O@DJIKEHPP@selectbuddy?53?$AA@ 40035208     ui_shared.obj
 0002:00008218       ??_C@_0O@CAJBHGLO@selectbuddy?52?$AA@ 40035218     ui_shared.obj
 0002:00008228       ??_C@_0O@LLMCFHN@selectbuddy?51?$AA@ 40035228     ui_shared.obj
 0002:00008238       ??_C@_0O@BCKHBEDM@selectbuddy?50?$AA@ 40035238     ui_shared.obj
 0002:00008248       ??_C@_0P@PNNOOMAC@selectbuddy?5?91?$AA@ 40035248     ui_shared.obj
 0002:00008258       ??_C@_0BB@IDOPKHPD@mp_fireteamadmin?$AA@ 40035258     ui_shared.obj
 0002:0000826c       ??_C@_0L@LGIGPHNL@autoRecord?$AA@ 4003526c     ui_shared.obj
 0002:00008278       ??_C@_0P@CFKIOMCJ@autoscreenshot?$AA@ 40035278     ui_shared.obj
 0002:00008288       ??_C@_08LJDKJCJK@notready?$AA@ 40035288     ui_shared.obj
 0002:00008294       ??_C@_05GLLMDLIO@ready?$AA@ 40035294     ui_shared.obj
 0002:0000829c       ??_C@_07EMGDANBL@vote?5no?$AA@ 4003529c     ui_shared.obj
 0002:000082a4       ??_C@_08EOGCGKCE@vote?5yes?$AA@ 400352a4     ui_shared.obj
 0002:000082b0       ??_C@_0P@LMOOPNHB@mp_fireteammsg?$AA@ 400352b0     ui_shared.obj
 0002:000082c0       ??_C@_0BA@DHFEGEJI@mp_quickmessage?$AA@ 400352c0     ui_shared.obj
 0002:000082d0       ??_C@_0N@NFNJCLFL@messagemode4?$AA@ 400352d0     ui_shared.obj
 0002:000082e0       ??_C@_0N@JKJILNJM@messagemode3?$AA@ 400352e0     ui_shared.obj
 0002:000082f0       ??_C@_0N@IDIDIMNN@messagemode2?$AA@ 400352f0     ui_shared.obj
 0002:00008300       ??_C@_0M@JINOELJH@messagemode?$AA@ 40035300     ui_shared.obj
 0002:0000830c       ??_C@_07DIJPGOKN@zoomout?$AA@ 4003530c     ui_shared.obj
 0002:00008314       ??_C@_06LNHPGLKP@zoomin?$AA@ 40035314     ui_shared.obj
 0002:0000831c       ??_C@_09MIFHBA@mapzoomin?$AA@ 4003531c     ui_shared.obj
 0002:00008328       ??_C@_0L@GDPMHHIM@mapzoomout?$AA@ 40035328     ui_shared.obj
 0002:00008334       ??_C@_0L@GILFCCIB@mvactivate?$AA@ 40035334     ui_shared.obj
 0002:00008340       ??_C@_0O@BEIPDODJ@openlimbomenu?$AA@ 40035340     ui_shared.obj
 0002:00008350       ??_C@_0L@HBDHBCHM@togglemenu?$AA@ 40035350     ui_shared.obj
 0002:0000835c       ??_C@_0O@JJBKLGLG@toggleconsole?$AA@ 4003535c     ui_shared.obj
 0002:0000836c       ??_C@_09PDHPNBEE@?$CLtopshots?$AA@ 4003536c     ui_shared.obj
 0002:00008378       ??_C@_06PKLNAOFI@?$CLstats?$AA@ 40035378     ui_shared.obj
 0002:00008380       ??_C@_07PNHLECKB@?$CLscores?$AA@ 40035380     ui_shared.obj
 0002:00008388       ??_C@_07GKAMHDNA@?$CLreload?$AA@ 40035388     ui_shared.obj
 0002:00008390       ??_C@_0L@PFPLBJPJ@?$CLmapexpand?$AA@ 40035390     ui_shared.obj
 0002:0000839c       ??_C@_05GAKJCNGF@?$CLzoom?$AA@ 4003539c     ui_shared.obj
 0002:000083a4       ??_C@_09DHBCCNNM@?$CLactivate?$AA@ 400353a4     ui_shared.obj
 0002:000083b0       ??_C@_06JIDIHCBO@?$CLspeed?$AA@ 400353b0     ui_shared.obj
 0002:000083b8       ??_C@_07CEEFMIBP@?$CLsprint?$AA@ 400353b8     ui_shared.obj
 0002:000083c0       ??_C@_0N@IFDIBLGC@weaponbank?59?$AA@ 400353c0     ui_shared.obj
 0002:000083d0       ??_C@_0N@JMCDCKCD@weaponbank?58?$AA@ 400353d0     ui_shared.obj
 0002:000083e0       ??_C@_0N@BLLLDGOM@weaponbank?57?$AA@ 400353e0     ui_shared.obj
 0002:000083f0       ??_C@_0N@CKAAHKN@weaponbank?56?$AA@ 400353f0     ui_shared.obj
 0002:00008400       ??_C@_0N@CJINFEGO@weaponbank?55?$AA@ 40035400     ui_shared.obj
 0002:00008410       ??_C@_0N@DAJGGFCP@weaponbank?54?$AA@ 40035410     ui_shared.obj
 0002:00008420       ??_C@_0N@HPNHPDOI@weaponbank?53?$AA@ 40035420     ui_shared.obj
 0002:00008430       ??_C@_0N@GGMMMCKJ@weaponbank?52?$AA@ 40035430     ui_shared.obj
 0002:00008440       ??_C@_0N@ENOBJBGK@weaponbank?51?$AA@ 40035440     ui_shared.obj
 0002:00008450       ??_C@_0O@HCGMFPCE@weaponbank?510?$AA@ 40035450     ui_shared.obj
 0002:00008460       ??_C@_08IJHOKAF@weapnext?$AA@ 40035460     ui_shared.obj
 0002:0000846c       ??_C@_08DMEBPOGB@weapprev?$AA@ 4003546c     ui_shared.obj
 0002:00008478       ??_C@_08KJLEJKEF@?$CLattack2?$AA@ 40035478     ui_shared.obj
 0002:00008484       ??_C@_07MAODEHGM@?$CLattack?$AA@ 40035484     ui_shared.obj
 0002:0000848c       ??_C@_06BOJPGNBE@?$CLprone?$AA@ 4003548c     ui_shared.obj
 0002:00008494       ??_C@_09MBJIAMKH@?$CLleanleft?$AA@ 40035494     ui_shared.obj
 0002:000084a0       ??_C@_0L@FCIMKBCO@?$CLleanright?$AA@ 400354a0     ui_shared.obj
 0002:000084ac       ??_C@_09HNJJMOJG@?$CLmovedown?$AA@ 400354ac     ui_shared.obj
 0002:000084b8       ??_C@_07CKGNAPCP@?$CLmoveup?$AA@ 400354b8     ui_shared.obj
 0002:000084c0       ??_C@_0L@FMBJCMEG@?$CLmoveright?$AA@ 400354c0     ui_shared.obj
 0002:000084cc       ??_C@_09IPJNFGKP@?$CLmoveleft?$AA@ 400354cc     ui_shared.obj
 0002:000084d8       ??_C@_05IPKGNIPH@?$CLback?$AA@ 400354d8     ui_shared.obj
 0002:000084e0       ??_C@_08KKEOHAPB@?$CLforward?$AA@ 400354e0     ui_shared.obj
 0002:000084ec       ??_C@_05BBAEEBBH@abort?$AA@ 400354ec     ui_shared.obj
 0002:000084f4       ??_C@_0N@BKPIBBDE@setEditFocus?$AA@ 400354f4     ui_shared.obj
 0002:00008504       ??_C@_0P@IBJMDJHM@execwolfconfig?$AA@ 40035504     ui_shared.obj
 0002:00008514       ??_C@_0N@PKBHEBMI@setmenufocus?$AA@ 40035514     ui_shared.obj
 0002:00008524       ??_C@_0O@MHFCLLDF@getautoupdate?$AA@ 40035524     ui_shared.obj
 0002:00008534       ??_C@_0BA@FIGLFAEL@checkautoupdate?$AA@ 40035534     ui_shared.obj
 0002:00008544       ??_C@_0M@NJCMCKNA@addlistitem?$AA@ 40035544     ui_shared.obj
 0002:00008550       ??_C@_05KJPHCDKJ@orbit?$AA@ 40035550     ui_shared.obj
 0002:00008558       ??_C@_0L@NDOCJLDE@playlooped?$AA@ 40035558     ui_shared.obj
 0002:00008564       ??_C@_04GBHMDDO@play?$AA@  40035564     ui_shared.obj
 0002:0000856c       ??_C@_07KDPGGAGN@execnow?$AA@ 4003556c     ui_shared.obj
 0002:00008574       ??_C@_04MGEIEJAD@exec?$AA@ 40035574     ui_shared.obj
 0002:0000857c       ??_C@_08HBEMCALL@copycvar?$AA@ 4003557c     ui_shared.obj
 0002:00008588       ??_C@_0O@BCMNOI@togglecvarbit?$AA@ 40035588     ui_shared.obj
 0002:00008598       ??_C@_09KLAIFHLA@clearcvar?$AA@ 40035598     ui_shared.obj
 0002:000085a4       ??_C@_07DFOFNCMO@setcvar?$AA@ 400355a4     ui_shared.obj
 0002:000085ac       ??_C@_0L@KGLELNDP@transition?$AA@ 400355ac     ui_shared.obj
 0002:000085b8       ??_C@_0O@DDHOJBLA@setplayerhead?$AA@ 400355b8     ui_shared.obj
 0002:000085c8       ??_C@_0P@COHLPKKB@setplayermodel?$AA@ 400355c8     ui_shared.obj
 0002:000085d8       ??_C@_0L@FNKDCLKA@clearfocus?$AA@ 400355d8     ui_shared.obj
 0002:000085e4       ??_C@_08OKIAJKBO@setfocus?$AA@ 400355e4     ui_shared.obj
 0002:000085f0       ??_C@_0N@KMLJLNON@setteamcolor?$AA@ 400355f0     ui_shared.obj
 0002:00008600       ??_C@_0BB@OAEMNPFA@setmenuitemcolor?$AA@ 40035600     ui_shared.obj
 0002:00008614       ??_C@_0N@EBBIOPHN@setitemcolor?$AA@ 40035614     ui_shared.obj
 0002:00008624       ??_C@_0O@FOIIKEEB@setbackground?$AA@ 40035624     ui_shared.obj
 0002:00008634       ??_C@_08FBOLLCAN@setasset?$AA@ 40035634     ui_shared.obj
 0002:00008640       ??_C@_08JHFFJMNE@showpage?$AA@ 40035640     ui_shared.obj
 0002:0000864c       ??_C@_09DEBOPNMH@clipboard?$AA@ 4003564c     ui_shared.obj
 0002:00008658       ??_C@_0BD@NMAMMAAO@closeallothermenus?$AA@ 40035658     ui_shared.obj
 0002:0000866c       ??_C@_08FBNJNOBD@closeall?$AA@ 4003566c     ui_shared.obj
 0002:00008678       ??_C@_05LBOHBHFK@close?$AA@ 40035678     ui_shared.obj
 0002:00008680       ??_C@_0BC@FFFCDEPN@conditionalscript?$AA@ 40035680     ui_shared.obj
 0002:00008694       ??_C@_0BA@JLPGECPM@conditionalopen?$AA@ 40035694     ui_shared.obj
 0002:000086a4       ??_C@_0M@EGJEAEHJ@fadeoutmenu?$AA@ 400356a4     ui_shared.obj
 0002:000086b0       ??_C@_0L@NKDDLLBJ@fadeinmenu?$AA@ 400356b0     ui_shared.obj
 0002:000086bc       ??_C@_04PMOCAHAA@open?$AA@ 400356bc     ui_shared.obj
 0002:000086c4       ??_C@_08OKIEAMBM@setcolor?$AA@ 400356c4     ui_shared.obj
 0002:000086d0       ??_C@_04IBOFHAPJ@hide?$AA@ 400356d0     ui_shared.obj
 0002:000086d8       ??_C@_04FKMICODN@show?$AA@ 400356d8     ui_shared.obj
 0002:000086e0       ??_C@_07BJADIKJG@fadeout?$AA@ 400356e0     ui_shared.obj
 0002:000086e8       ??_C@_06JFGPOFJL@fadein?$AA@ 400356e8     ui_shared.obj
 0002:000086f8       __real@3fe8000000000000    400356f8     ui_shared.obj
 0002:00008700       __real@4084000000000000    40035700     ui_shared.obj
 0002:00008708       __real@3f400000            40035708     ui_shared.obj
 0002:0000870c       __real@3f666666            4003570c     ui_shared.obj
 0002:00008710       __real@40400000            40035710     ui_shared.obj
 0002:00008718       __real@4083d80000000000    40035718     ui_shared.obj
 0002:00008720       __real@4022000000000000    40035720     ui_shared.obj
 0002:00008728       ??_C@_0CD@LBKPCJLM@UI_Alloc?3?5Failure?4?5Out?5of?5memory@ 40035728     ui_shared.obj
 0002:0000874c       ??_C@_0DG@OMGKABNP@Memory?5Pool?5is?5?$CF?41f?$CF?$CF?5full?0?5?$CFi?5b@ 4003574c     ui_shared.obj
 0002:00008788       __real@3e90000000000000    40035788     ui_shared.obj
 0002:00008790       ??_C@_0DG@MABFDHIF@String?5Pool?5is?5?$CF?41f?$CF?$CF?5full?0?5?$CFi?5b@ 40035790     ui_shared.obj
 0002:000087c8       __real@4118000000000000    400357c8     ui_shared.obj
 0002:000087d0       ??_C@_0BC@DKLFONDB@?9?9?9?9?9?9?9?9?9?9?9?9?9?9?9?9?6?$AA@ 400357d0     ui_shared.obj
 0002:000087e4       ??_C@_0BJ@GAPDFKFM@Memory?1String?5Pool?5Info?6?$AA@ 400357e4     ui_shared.obj
 0002:00008800       __real@3f000000            40035800     ui_shared.obj
 0002:00008804       ??_C@_07HIABCEHG@nq_logo?$AA@ 40035804     ui_shared.obj
 0002:0000880c       ??_C@_07HHFDBHIH@et_logo?$AA@ 4003580c     ui_shared.obj
 0002:00008814       ??_C@_07EHCCJOAG@id_logo?$AA@ 40035814     ui_shared.obj
 0002:0000881c       ??_C@_09JGKMJGMJ@atvi_logo?$AA@ 4003581c     ui_shared.obj
 0002:00008828       __real@44200000            40035828     ui_shared.obj
 0002:0000882c       __real@43f00000            4003582c     ui_shared.obj
 0002:00008830       ??_C@_01NBENCBCI@?$CK?$AA@ 40035830     ui_shared.obj
 0002:00008834       ??_C@_05LKKGNBCL@?$CFs?5?$DL?5?$AA@ 40035834     ui_shared.obj
 0002:0000883c       ??_C@_07JKMGABMM@com_pid?$AA@ 4003583c     ui_shared.obj
 0002:00008844       ??_C@_0CG@GNPMJMIO@Script_WriteProfile?3?5Can?8t?5write@ 40035844     ui_shared.obj
 0002:0000886c       ??_C@_08NNCMPFKC@exec?5?$CFs?6?$AA@ 4003586c     ui_shared.obj
 0002:00008878       ??_C@_0DD@EJGBNGNL@?$FO3WARNING?3?5couldn?8t?5write?5profil@ 40035878     ui_shared.obj
 0002:000088b0       ??_C@_0EC@PKMOAFGL@?$FO3WARNING?3?5profile?4pid?5found?5for@ 400358b0     ui_shared.obj
 0002:000088f4       ??_C@_0O@IKFJJNBJ@Delete?5?$CFs?5?$CFd?6?$AA@ 400358f4     ui_shared.obj
 0002:00008904       ??_C@_0BG@EJDHPPBA@profiles?1?$CFs?1backup_?$CFs?$AA@ 40035904     ui_shared.obj
 0002:00008920       __real@4040000000000000    40035920     ui_shared.obj
 0002:00008928       ??_C@_06IFGIOHDE@Custom?$AA@ 40035928     ui_shared.obj
 0002:00008930       ??_C@_0N@PABJFGMA@None?5Defined?$AA@ 40035930     ui_shared.obj
 0002:00008940       __real@42cc0000            40035940     ui_shared.obj
 0002:00008944       ??_C@_0M@LMHCNBPD@in_restart?6?$AA@ 40035944     ui_shared.obj
 0002:00008950       ??_C@_04LIFAFMCE@?$FL?$CFs?$FN?$AA@ 40035950     ui_shared.obj
 0002:00008958       ??_C@_04FJKIFICP@?5or?5?$AA@ 40035958     ui_shared.obj
 0002:00008960       __real@3fd126e978d4fdf4    40035960     ui_shared.obj
 0002:00008968       __real@bfe0000000000000    40035968     ui_shared.obj
 0002:00008970       ??_C@_0BK@FLAIOFFC@MAX_MODAL_MENUS?5exceeded?6?$AA@ 40035970     ui_shared.obj
 0002:0000898c       __real@3f0ccccd            4003598c     ui_shared.obj
 0002:00008990       ??_C@_0BO@GKGLOPGG@end?5of?5file?5inside?5menu?5item?6?$AA@ 40035990     ui_shared.obj
 0002:000089b0       ??_C@_0ED@EJHMBLGN@both?5addColorRange?5and?5addColorR@ 400359b0     ui_shared.obj
 0002:000089f4       ??_C@_0CE@OIGKMGKE@couldn?8t?5parse?5menu?5item?5keyword@ 400359f4     ui_shared.obj
 0002:00008a18       ??_C@_0BN@JHFMAPJL@unknown?5menu?5item?5keyword?5?$CFs?$AA@ 40035a18     ui_shared.obj
 0002:00008a38       ??_C@_0BP@HJCDHJDP@couldn?8t?5parse?5menu?5keyword?5?$CFs?$AA@ 40035a38     ui_shared.obj
 0002:00008a58       ??_C@_0BJ@MPIMCBOA@end?5of?5file?5inside?5menu?6?$AA@ 40035a58     ui_shared.obj
 0002:00008a74       ??_C@_0BI@PALCAEGK@unknown?5menu?5keyword?5?$CFs?$AA@ 40035a74     ui_shared.obj
 0002:00008a8c       __real@3f4ccccd            40035a8c     ui_shared.obj
 0002:00008a90       ??_C@_0EE@CBEPHLCH@?$FO3WARNING?3?5tried?5closing?5a?5modal@ 40035a90     ui_shared.obj
 0002:00008ad4       ??_C@_0O@DKNGICKJ@ROldModeCheck?$AA@ 40035ad4     ui_shared.obj
 0002:00008ae4       ??_C@_0BE@IJDKLDBD@ValidReplaySelected?$AA@ 40035ae4     ui_shared.obj
 0002:00008af8       ??_C@_0M@FNLNKGDK@serversort_?$AA@ 40035af8     ui_shared.obj
 0002:00008b04       ??_C@_0BF@JHKFGNEG@vidrestartIsRequired?$AA@ 40035b04     ui_shared.obj
 0002:00008b1c       ??_C@_0BF@EPIALJJC@ReadyToCreateProfile?$AA@ 40035b1c     ui_shared.obj
 0002:00008b34       ??_C@_0BO@IELJGOMJ@UIProfileAlreadyExists_Rename?$AA@ 40035b34     ui_shared.obj
 0002:00008b54       ??_C@_0BH@JGHBFCBG@UIProfileAlreadyExists?$AA@ 40035b54     ui_shared.obj
 0002:00008b6c       ??_C@_0BD@DLLNMEGL@UIProfileValidName?$AA@ 40035b6c     ui_shared.obj
 0002:00008b80       ??_C@_0BJ@OGBOMNBM@UIProfileIsActiveProfile?$AA@ 40035b80     ui_shared.obj
 0002:00008ba0       __real@4034000000000000    40035ba0     ui_shared.obj
 0002:00008ba8       __real@4039000000000000    40035ba8     ui_shared.obj
 0002:00008bb0       ??_C@_06GKHDGJNB@?$FO1?$CFd?$FO?$CK?$AA@ 40035bb0     ui_shared.obj
 0002:00008bb8       ??_C@_04GEFJINEE@?$CF?42f?$AA@ 40035bb8     ui_shared.obj
 0002:00008bc0       ??_C@_02JINPPBEP@No?$AA@   40035bc0     ui_shared.obj
 0002:00008bc4       ??_C@_05DJCKAPIL@FIXME?$AA@ 40035bc4     ui_shared.obj
 0002:00008bd0       __real@3fd3333340000000    40035bd0     ui_shared.obj
 0002:00008bd8       __real@3faaceea00000000    40035bd8     ui_shared.obj
 0002:00008be0       __real@c059000000000000    40035be0     ui_shared.obj
 0002:00008be8       __real@4044000000000000    40035be8     ui_shared.obj
 0002:00008bf0       ??_C@_0N@FFBFPIKO@mouse?3?5?$CFi?5?$CFi?$AA@ 40035bf0     ui_shared.obj
 0002:00008c00       ??_C@_09EEMLMMJE@fps?3?5?$CF?42f?$AA@ 40035c00     ui_shared.obj
 0002:00008c0c       ??_C@_0M@FHKEBODE@screenshot?6?$AA@ 40035c0c     ui_shared.obj
 0002:00008c18       __FPinit                   40035c18     LIBCMT:_fpinit_.obj
 0002:00008c70       ??_C@_0P@MIGLKIOC@CorExitProcess?$AA@ 40035c70     LIBCMT:crt0dat.obj
 0002:00008c80       ??_C@_1BI@BGOHAHKC@?$AAm?$AAs?$AAc?$AAo?$AAr?$AAe?$AAe?$AA?4?$AAd?$AAl?$AAl?$AA?$AA@ 40035c80     LIBCMT:crt0dat.obj
 0002:00008c98       __pDefaultRawDllMain       40035c98     LIBCMT:dllcrt0.obj
 0002:00008c98       __pRawDllMain              40035c98     LIBCMT:dllcrt0.obj
 0002:00008c9c       ??_C@_1BK@DBDEIDLH@?$AAK?$AAE?$AAR?$AAN?$AAE?$AAL?$AA3?$AA2?$AA?4?$AAD?$AAL?$AAL?$AA?$AA@ 40035c9c     LIBCMT:tidtable.obj
 0002:00008cb8       ??_C@_07PEJMOBNF@FlsFree?$AA@ 40035cb8     LIBCMT:tidtable.obj
 0002:00008cc0       ??_C@_0M@JCPCPOEF@FlsSetValue?$AA@ 40035cc0     LIBCMT:tidtable.obj
 0002:00008ccc       ??_C@_0M@GDNOONDI@FlsGetValue?$AA@ 40035ccc     LIBCMT:tidtable.obj
 0002:00008cd8       ??_C@_08KNHFBNJ@FlsAlloc?$AA@ 40035cd8     LIBCMT:tidtable.obj
 0002:00008ce4       ??_C@_05KLBDPFGC@e?$CL000?$AA@ 40035ce4     LIBCMT:cvt.obj
 0002:00008cec       ??_C@_1BC@GDGBMEMK@?$AAH?$AAH?$AA?3?$AAm?$AAm?$AA?3?$AAs?$AAs?$AA?$AA@ 40035cec     LIBCMT:nlsdata2.obj
 0002:00008d00       ??_C@_1CI@KNAKOEBC@?$AAd?$AAd?$AAd?$AAd?$AA?0?$AA?5?$AAM?$AAM?$AAM?$AAM?$AA?5?$AAd?$AAd?$AA?0?$AA?5?$AAy?$AAy?$AAy?$AAy?$AA?$AA@ 40035d00     LIBCMT:nlsdata2.obj
 0002:00008d28       ??_C@_1BC@IEBCMHCM@?$AAM?$AAM?$AA?1?$AAd?$AAd?$AA?1?$AAy?$AAy?$AA?$AA@ 40035d28     LIBCMT:nlsdata2.obj
 0002:00008d3c       ??_C@_15CLMNNGEL@?$AAP?$AAM?$AA?$AA@ 40035d3c     LIBCMT:nlsdata2.obj
 0002:00008d44       ??_C@_15ODEHAHHF@?$AAA?$AAM?$AA?$AA@ 40035d44     LIBCMT:nlsdata2.obj
 0002:00008d4c       ??_C@_1BC@FEMKIFH@?$AAD?$AAe?$AAc?$AAe?$AAm?$AAb?$AAe?$AAr?$AA?$AA@ 40035d4c     LIBCMT:nlsdata2.obj
 0002:00008d60       ??_C@_1BC@BGLIFPF@?$AAN?$AAo?$AAv?$AAe?$AAm?$AAb?$AAe?$AAr?$AA?$AA@ 40035d60     LIBCMT:nlsdata2.obj
 0002:00008d74       ??_C@_1BA@EPANDLNG@?$AAO?$AAc?$AAt?$AAo?$AAb?$AAe?$AAr?$AA?$AA@ 40035d74     LIBCMT:nlsdata2.obj
 0002:00008d84       ??_C@_1BE@DKAAMBJL@?$AAS?$AAe?$AAp?$AAt?$AAe?$AAm?$AAb?$AAe?$AAr?$AA?$AA@ 40035d84     LIBCMT:nlsdata2.obj
 0002:00008d98       ??_C@_1O@PAHLKOAC@?$AAA?$AAu?$AAg?$AAu?$AAs?$AAt?$AA?$AA@ 40035d98     LIBCMT:nlsdata2.obj
 0002:00008da8       ??_C@_19BIFMLPCD@?$AAJ?$AAu?$AAl?$AAy?$AA?$AA@ 40035da8     LIBCMT:nlsdata2.obj
 0002:00008db4       ??_C@_19EPFLPGAP@?$AAJ?$AAu?$AAn?$AAe?$AA?$AA@ 40035db4     LIBCMT:nlsdata2.obj
 0002:00008dc0       ??_C@_1M@GJNLMHFD@?$AAA?$AAp?$AAr?$AAi?$AAl?$AA?$AA@ 40035dc0     LIBCMT:nlsdata2.obj
 0002:00008dcc       ??_C@_1M@IKEENEDF@?$AAM?$AAa?$AAr?$AAc?$AAh?$AA?$AA@ 40035dcc     LIBCMT:nlsdata2.obj
 0002:00008dd8       ??_C@_1BC@JGDDFFAM@?$AAF?$AAe?$AAb?$AAr?$AAu?$AAa?$AAr?$AAy?$AA?$AA@ 40035dd8     LIBCMT:nlsdata2.obj
 0002:00008dec       ??_C@_1BA@EFMEIEBA@?$AAJ?$AAa?$AAn?$AAu?$AAa?$AAr?$AAy?$AA?$AA@ 40035dec     LIBCMT:nlsdata2.obj
 0002:00008dfc       ??_C@_17EGKACKIF@?$AAD?$AAe?$AAc?$AA?$AA@ 40035dfc     LIBCMT:nlsdata2.obj
 0002:00008e04       ??_C@_17BBDMLCIG@?$AAN?$AAo?$AAv?$AA?$AA@ 40035e04     LIBCMT:nlsdata2.obj
 0002:00008e0c       ??_C@_17FNLKOI@?$AAO?$AAc?$AAt?$AA?$AA@ 40035e0c     LIBCMT:nlsdata2.obj
 0002:00008e14       ??_C@_17HCHCOKMG@?$AAS?$AAe?$AAp?$AA?$AA@ 40035e14     LIBCMT:nlsdata2.obj
 0002:00008e1c       ??_C@_17ICPELBCN@?$AAA?$AAu?$AAg?$AA?$AA@ 40035e1c     LIBCMT:nlsdata2.obj
 0002:00008e24       ??_C@_17IJPCKHK@?$AAJ?$AAu?$AAl?$AA?$AA@ 40035e24     LIBCMT:nlsdata2.obj
 0002:00008e2c       ??_C@_17KCJGOCPB@?$AAJ?$AAu?$AAn?$AA?$AA@ 40035e2c     LIBCMT:nlsdata2.obj
 0002:00008e34       ??_C@_17PNNKMEED@?$AAM?$AAa?$AAy?$AA?$AA@ 40035e34     LIBCMT:nlsdata2.obj
 0002:00008e3c       ??_C@_17LFPOIHDD@?$AAA?$AAp?$AAr?$AA?$AA@ 40035e3c     LIBCMT:nlsdata2.obj
 0002:00008e44       ??_C@_17CKNLEDEC@?$AAM?$AAa?$AAr?$AA?$AA@ 40035e44     LIBCMT:nlsdata2.obj
 0002:00008e4c       ??_C@_17LMDJEKJN@?$AAF?$AAe?$AAb?$AA?$AA@ 40035e4c     LIBCMT:nlsdata2.obj
 0002:00008e54       ??_C@_17DKNBKCHM@?$AAJ?$AAa?$AAn?$AA?$AA@ 40035e54     LIBCMT:nlsdata2.obj
 0002:00008e5c       ??_C@_1BC@ENMNNPAJ@?$AAS?$AAa?$AAt?$AAu?$AAr?$AAd?$AAa?$AAy?$AA?$AA@ 40035e5c     LIBCMT:nlsdata2.obj
 0002:00008e70       ??_C@_1O@PDICJHAG@?$AAF?$AAr?$AAi?$AAd?$AAa?$AAy?$AA?$AA@ 40035e70     LIBCMT:nlsdata2.obj
 0002:00008e80       ??_C@_1BC@HHMNLIHE@?$AAT?$AAh?$AAu?$AAr?$AAs?$AAd?$AAa?$AAy?$AA?$AA@ 40035e80     LIBCMT:nlsdata2.obj
 0002:00008e94       ??_C@_1BE@EBOGMDOH@?$AAW?$AAe?$AAd?$AAn?$AAe?$AAs?$AAd?$AAa?$AAy?$AA?$AA@ 40035e94     LIBCMT:nlsdata2.obj
 0002:00008ea8       ??_C@_1BA@ENFBFFEK@?$AAT?$AAu?$AAe?$AAs?$AAd?$AAa?$AAy?$AA?$AA@ 40035ea8     LIBCMT:nlsdata2.obj
 0002:00008eb8       ??_C@_1O@MMNBFLIA@?$AAM?$AAo?$AAn?$AAd?$AAa?$AAy?$AA?$AA@ 40035eb8     LIBCMT:nlsdata2.obj
 0002:00008ec8       ??_C@_1O@IHNHDHPB@?$AAS?$AAu?$AAn?$AAd?$AAa?$AAy?$AA?$AA@ 40035ec8     LIBCMT:nlsdata2.obj
 0002:00008ed8       ??_C@_17GGIBDPIH@?$AAS?$AAa?$AAt?$AA?$AA@ 40035ed8     LIBCMT:nlsdata2.obj
 0002:00008ee0       ??_C@_17HFOLPPLP@?$AAF?$AAr?$AAi?$AA?$AA@ 40035ee0     LIBCMT:nlsdata2.obj
 0002:00008ee8       ??_C@_17PDPHAADD@?$AAT?$AAh?$AAu?$AA?$AA@ 40035ee8     LIBCMT:nlsdata2.obj
 0002:00008ef0       ??_C@_17CJEDCEPE@?$AAW?$AAe?$AAd?$AA?$AA@ 40035ef0     LIBCMT:nlsdata2.obj
 0002:00008ef8       ??_C@_17BMKGEGOJ@?$AAT?$AAu?$AAe?$AA?$AA@ 40035ef8     LIBCMT:nlsdata2.obj
 0002:00008f00       ??_C@_17KBOMKBF@?$AAM?$AAo?$AAn?$AA?$AA@ 40035f00     LIBCMT:nlsdata2.obj
 0002:00008f08       ??_C@_17MBGCMIPB@?$AAS?$AAu?$AAn?$AA?$AA@ 40035f08     LIBCMT:nlsdata2.obj
 0002:00008f10       ??_C@_08JCCMCCIL@HH?3mm?3ss?$AA@ 40035f10     LIBCMT:nlsdata2.obj
 0002:00008f1c       ??_C@_0BE@CKGJFCPC@dddd?0?5MMMM?5dd?0?5yyyy?$AA@ 40035f1c     LIBCMT:nlsdata2.obj
 0002:00008f30       ??_C@_08BPBNCDIB@MM?1dd?1yy?$AA@ 40035f30     LIBCMT:nlsdata2.obj
 0002:00008f3c       ??_C@_02CJNFDJBF@PM?$AA@   40035f3c     LIBCMT:nlsdata2.obj
 0002:00008f40       ??_C@_02DEDBPAFC@AM?$AA@   40035f40     LIBCMT:nlsdata2.obj
 0002:00008f44       ??_C@_08EDHMEBNP@December?$AA@ 40035f44     LIBCMT:nlsdata2.obj
 0002:00008f50       ??_C@_08HCHEGEOA@November?$AA@ 40035f50     LIBCMT:nlsdata2.obj
 0002:00008f5c       ??_C@_07JJNFCEND@October?$AA@ 40035f5c     LIBCMT:nlsdata2.obj
 0002:00008f64       ??_C@_09BHHEALKD@September?$AA@ 40035f64     LIBCMT:nlsdata2.obj
 0002:00008f70       ??_C@_06LBBHFDDG@August?$AA@ 40035f70     LIBCMT:nlsdata2.obj
 0002:00008f78       ??_C@_04MIEPOIFP@July?$AA@ 40035f78     LIBCMT:nlsdata2.obj
 0002:00008f80       ??_C@_04CNLMGBGM@June?$AA@ 40035f80     LIBCMT:nlsdata2.obj
 0002:00008f88       ??_C@_05DMJDNLEJ@April?$AA@ 40035f88     LIBCMT:nlsdata2.obj
 0002:00008f90       ??_C@_05HPCKOFNC@March?$AA@ 40035f90     LIBCMT:nlsdata2.obj
 0002:00008f98       ??_C@_08GNJGEPFN@February?$AA@ 40035f98     LIBCMT:nlsdata2.obj
 0002:00008fa4       ??_C@_07CGJPFGJA@January?$AA@ 40035fa4     LIBCMT:nlsdata2.obj
 0002:00008fac       ??_C@_08INBOOONO@Saturday?$AA@ 40035fac     LIBCMT:nlsdata2.obj
 0002:00008fb8       ??_C@_06JECMNKMI@Friday?$AA@ 40035fb8     LIBCMT:nlsdata2.obj
 0002:00008fc0       ??_C@_08HACCIKIA@Thursday?$AA@ 40035fc0     LIBCMT:nlsdata2.obj
 0002:00008fcc       ??_C@_09DLIGFAKA@Wednesday?$AA@ 40035fcc     LIBCMT:nlsdata2.obj
 0002:00008fd8       ??_C@_07BAAGCFCM@Tuesday?$AA@ 40035fd8     LIBCMT:nlsdata2.obj
 0002:00008fe0       ??_C@_06JLEDEDGH@Monday?$AA@ 40035fe0     LIBCMT:nlsdata2.obj
 0002:00008fe8       ??_C@_06OOPIFAJ@Sunday?$AA@ 40035fe8     LIBCMT:nlsdata2.obj
 0002:00008ff0       ??_C@_03FEFJNEK@Sat?$AA@   40035ff0     LIBCMT:nlsdata2.obj
 0002:00008ff4       ??_C@_03IDIOELNC@Fri?$AA@  40035ff4     LIBCMT:nlsdata2.obj
 0002:00008ff8       ??_C@_03IOFIKPDN@Thu?$AA@  40035ff8     LIBCMT:nlsdata2.obj
 0002:00008ffc       ??_C@_03MHOMLAJA@Wed?$AA@  40035ffc     LIBCMT:nlsdata2.obj
 0002:00009000       ??_C@_03NAGEINEP@Tue?$AA@  40036000     LIBCMT:nlsdata2.obj
 0002:00009004       ??_C@_03PDAGKDH@Mon?$AA@   40036004     LIBCMT:nlsdata2.obj
 0002:00009008       ??_C@_03KOEHGMDN@Sun?$AA@  40036008     LIBCMT:nlsdata2.obj
 0002:00009090       __indefinite               40036090     LIBCMT:_87disp_.obj
 0002:0000909a       __piby2                    4003609a     LIBCMT:_87disp_.obj
 0002:000090c8       __DEFAULT_CW_in_mem        400360c8     LIBCMT:_common_.obj
 0002:000090ca       __pi_by_2_to_61            400360ca     LIBCMT:_common_.obj
 0002:00009170       ??_C@_03IIINPABG@tan?$AA@  40036170     LIBCMT:_libm_error_.obj
 0002:00009174       ??_C@_03LALBNOCG@cos?$AA@  40036174     LIBCMT:_libm_error_.obj
 0002:00009178       ??_C@_03BLEJJJBH@sin?$AA@  40036178     LIBCMT:_libm_error_.obj
 0002:0000917c       ??_C@_04EHEDPDJG@modf?$AA@ 4003617c     LIBCMT:_libm_error_.obj
 0002:00009184       ??_C@_05PBJFFIGL@floor?$AA@ 40036184     LIBCMT:_libm_error_.obj
 0002:0000918c       ??_C@_04GFPJNGEK@ceil?$AA@ 4003618c     LIBCMT:_libm_error_.obj
 0002:00009194       ??_C@_04MLLJIGOK@atan?$AA@ 40036194     LIBCMT:_libm_error_.obj
 0002:0000919c       ??_C@_05EOHGHCHD@exp10?$AA@ 4003619c     LIBCMT:_libm_error_.obj
 0002:000091a4       ??_C@_04PDIFKINK@acos?$AA@ 400361a4     LIBCMT:_libm_error_.obj
 0002:000091ac       ??_C@_04FIHNOPOL@asin?$AA@ 400361ac     LIBCMT:_libm_error_.obj
 0002:000091b4       ??_C@_03MGHMBJCF@log?$AA@  400361b4     LIBCMT:_libm_error_.obj
 0002:000091b8       ??_C@_05HGHHAHAP@log10?$AA@ 400361b8     LIBCMT:_libm_error_.obj
 0002:000091c0       ??_C@_03KHJOGHMM@exp?$AA@  400361c0     LIBCMT:_libm_error_.obj
 0002:000091c4       ??_C@_03JGHBODFD@pow?$AA@  400361c4     LIBCMT:_libm_error_.obj
 0002:00009a80       ??_C@_1O@CEDCILHN@?$AA?$CI?$AAn?$AAu?$AAl?$AAl?$AA?$CJ?$AA?$AA@ 40036a80     LIBCMT:output.obj
 0002:00009a90       ??_C@_06OJHGLDPL@?$CInull?$CJ?$AA@ 40036a90     LIBCMT:output.obj
 0002:00009a98       ___lookuptable             40036a98     LIBCMT:output.obj
 0002:0000a4f0       __OP_ATAN2jmptab           400374f0     LIBCMT:_87triga_.obj
 0002:0000a570       ??_C@_1BO@BKOMIGKJ@?$AAr?$AAu?$AAn?$AAt?$AAi?$AAm?$AAe?$AA?5?$AAe?$AAr?$AAr?$AAo?$AAr?$AA?5?$AA?$AA@ 40037570     LIBCMT:crt0msg.obj
 0002:0000a590       ??_C@_15JNBOKNOG@?$AA?$AN?$AA?6?$AA?$AA@ 40037590     LIBCMT:crt0msg.obj
 0002:0000a598       ??_C@_1BM@JBBEPPHI@?$AAT?$AAL?$AAO?$AAS?$AAS?$AA?5?$AAe?$AAr?$AAr?$AAo?$AAr?$AA?$AN?$AA?6?$AA?$AA@ 40037598     LIBCMT:crt0msg.obj
 0002:0000a5b4       ??_C@_1BK@KMOMNAAI@?$AAS?$AAI?$AAN?$AAG?$AA?5?$AAe?$AAr?$AAr?$AAo?$AAr?$AA?$AN?$AA?6?$AA?$AA@ 400375b4     LIBCMT:crt0msg.obj
 0002:0000a5d0       ??_C@_1BO@BFCDCGC@?$AAD?$AAO?$AAM?$AAA?$AAI?$AAN?$AA?5?$AAe?$AAr?$AAr?$AAo?$AAr?$AA?$AN?$AA?6?$AA?$AA@ 400375d0     LIBCMT:crt0msg.obj
 0002:0000a5f0       ??_C@_1BOO@KGEDBGAJ@?$AAR?$AA6?$AA0?$AA3?$AA3?$AA?$AN?$AA?6?$AA?9?$AA?5?$AAA?$AAt?$AAt?$AAe?$AAm?$AAp?$AAt?$AA?5?$AAt?$AAo?$AA?5?$AAu?$AAs?$AAe?$AA?5?$AAM?$AAS?$AAI?$AAL?$AA?5?$AAc?$AAo?$AAd@ 400375f0     LIBCMT:crt0msg.obj
 0002:0000a7e0       ??_C@_1GG@GOPILAJP@?$AAR?$AA6?$AA0?$AA3?$AA2?$AA?$AN?$AA?6?$AA?9?$AA?5?$AAn?$AAo?$AAt?$AA?5?$AAe?$AAn?$AAo?$AAu?$AAg?$AAh?$AA?5?$AAs?$AAp?$AAa?$AAc?$AAe?$AA?5?$AAf?$AAo?$AAr?$AA?5?$AAl?$AAo@ 400377e0     LIBCMT:crt0msg.obj
 0002:0000a848       ??_C@_1MG@ENCOOIDF@?$AAR?$AA6?$AA0?$AA3?$AA1?$AA?$AN?$AA?6?$AA?9?$AA?5?$AAA?$AAt?$AAt?$AAe?$AAm?$AAp?$AAt?$AA?5?$AAt?$AAo?$AA?5?$AAi?$AAn?$AAi?$AAt?$AAi?$AAa?$AAl?$AAi?$AAz?$AAe?$AA?5?$AAt@ 40037848     LIBCMT:crt0msg.obj
 0002:0000a910       ??_C@_1DO@BMFCDCD@?$AAR?$AA6?$AA0?$AA3?$AA0?$AA?$AN?$AA?6?$AA?9?$AA?5?$AAC?$AAR?$AAT?$AA?5?$AAn?$AAo?$AAt?$AA?5?$AAi?$AAn?$AAi?$AAt?$AAi?$AAa?$AAl?$AAi?$AAz?$AAe?$AAd?$AA?$AN?$AA?6?$AA?$AA@ 40037910     LIBCMT:crt0msg.obj
 0002:0000a950       ??_C@_1EK@HHFLMAOL@?$AAR?$AA6?$AA0?$AA2?$AA8?$AA?$AN?$AA?6?$AA?9?$AA?5?$AAu?$AAn?$AAa?$AAb?$AAl?$AAe?$AA?5?$AAt?$AAo?$AA?5?$AAi?$AAn?$AAi?$AAt?$AAi?$AAa?$AAl?$AAi?$AAz?$AAe?$AA?5?$AAh?$AAe@ 40037950     LIBCMT:crt0msg.obj
 0002:0000a9a0       ??_C@_1GK@MFGOKLAG@?$AAR?$AA6?$AA0?$AA2?$AA7?$AA?$AN?$AA?6?$AA?9?$AA?5?$AAn?$AAo?$AAt?$AA?5?$AAe?$AAn?$AAo?$AAu?$AAg?$AAh?$AA?5?$AAs?$AAp?$AAa?$AAc?$AAe?$AA?5?$AAf?$AAo?$AAr?$AA?5?$AAl?$AAo@ 400379a0     LIBCMT:crt0msg.obj
 0002:0000aa10       ??_C@_1GK@MCAAGJMO@?$AAR?$AA6?$AA0?$AA2?$AA6?$AA?$AN?$AA?6?$AA?9?$AA?5?$AAn?$AAo?$AAt?$AA?5?$AAe?$AAn?$AAo?$AAu?$AAg?$AAh?$AA?5?$AAs?$AAp?$AAa?$AAc?$AAe?$AA?5?$AAf?$AAo?$AAr?$AA?5?$AAs?$AAt@ 40037a10     LIBCMT:crt0msg.obj
 0002:0000aa80       ??_C@_1EM@MAADIHMB@?$AAR?$AA6?$AA0?$AA2?$AA5?$AA?$AN?$AA?6?$AA?9?$AA?5?$AAp?$AAu?$AAr?$AAe?$AA?5?$AAv?$AAi?$AAr?$AAt?$AAu?$AAa?$AAl?$AA?5?$AAf?$AAu?$AAn?$AAc?$AAt?$AAi?$AAo?$AAn?$AA?5?$AAc@ 40037a80     LIBCMT:crt0msg.obj
 0002:0000aad0       ??_C@_1GK@FHCKBEFA@?$AAR?$AA6?$AA0?$AA2?$AA4?$AA?$AN?$AA?6?$AA?9?$AA?5?$AAn?$AAo?$AAt?$AA?5?$AAe?$AAn?$AAo?$AAu?$AAg?$AAh?$AA?5?$AAs?$AAp?$AAa?$AAc?$AAe?$AA?5?$AAf?$AAo?$AAr?$AA?5?$AA_?$AAo@ 40037ad0     LIBCMT:crt0msg.obj
 0002:0000ab40       ??_C@_1FC@ECHBIFBC@?$AAR?$AA6?$AA0?$AA1?$AA9?$AA?$AN?$AA?6?$AA?9?$AA?5?$AAu?$AAn?$AAa?$AAb?$AAl?$AAe?$AA?5?$AAt?$AAo?$AA?5?$AAo?$AAp?$AAe?$AAn?$AA?5?$AAc?$AAo?$AAn?$AAs?$AAo?$AAl?$AAe?$AA?5@ 40037b40     LIBCMT:crt0msg.obj
 0002:0000ab98       ??_C@_1EC@JIBHAOPH@?$AAR?$AA6?$AA0?$AA1?$AA8?$AA?$AN?$AA?6?$AA?9?$AA?5?$AAu?$AAn?$AAe?$AAx?$AAp?$AAe?$AAc?$AAt?$AAe?$AAd?$AA?5?$AAh?$AAe?$AAa?$AAp?$AA?5?$AAe?$AAr?$AAr?$AAo?$AAr?$AA?$AN?$AA?6@ 40037b98     LIBCMT:crt0msg.obj
 0002:0000abe0       ??_C@_1FK@BEOGODMC@?$AAR?$AA6?$AA0?$AA1?$AA7?$AA?$AN?$AA?6?$AA?9?$AA?5?$AAu?$AAn?$AAe?$AAx?$AAp?$AAe?$AAc?$AAt?$AAe?$AAd?$AA?5?$AAm?$AAu?$AAl?$AAt?$AAi?$AAt?$AAh?$AAr?$AAe?$AAa?$AAd?$AA?5@ 40037be0     LIBCMT:crt0msg.obj
 0002:0000ac40       ??_C@_1FI@LOGNIKDM@?$AAR?$AA6?$AA0?$AA1?$AA6?$AA?$AN?$AA?6?$AA?9?$AA?5?$AAn?$AAo?$AAt?$AA?5?$AAe?$AAn?$AAo?$AAu?$AAg?$AAh?$AA?5?$AAs?$AAp?$AAa?$AAc?$AAe?$AA?5?$AAf?$AAo?$AAr?$AA?5?$AAt?$AAh@ 40037c40     LIBCMT:crt0msg.obj
 0002:0000ac98       ??_C@_1EG@BEHAGFJD@?$AAR?$AA6?$AA0?$AA1?$AA0?$AA?$AN?$AA?6?$AA?9?$AA?5?$AAa?$AAb?$AAo?$AAr?$AAt?$AA?$CI?$AA?$CJ?$AA?5?$AAh?$AAa?$AAs?$AA?5?$AAb?$AAe?$AAe?$AAn?$AA?5?$AAc?$AAa?$AAl?$AAl?$AAe?$AAd@ 40037c98     LIBCMT:crt0msg.obj
 0002:0000ace0       ??_C@_1FI@HONFMGBI@?$AAR?$AA6?$AA0?$AA0?$AA9?$AA?$AN?$AA?6?$AA?9?$AA?5?$AAn?$AAo?$AAt?$AA?5?$AAe?$AAn?$AAo?$AAu?$AAg?$AAh?$AA?5?$AAs?$AAp?$AAa?$AAc?$AAe?$AA?5?$AAf?$AAo?$AAr?$AA?5?$AAe?$AAn@ 40037ce0     LIBCMT:crt0msg.obj
 0002:0000ad38       ??_C@_1FE@LLNEDJMD@?$AAR?$AA6?$AA0?$AA0?$AA8?$AA?$AN?$AA?6?$AA?9?$AA?5?$AAn?$AAo?$AAt?$AA?5?$AAe?$AAn?$AAo?$AAu?$AAg?$AAh?$AA?5?$AAs?$AAp?$AAa?$AAc?$AAe?$AA?5?$AAf?$AAo?$AAr?$AA?5?$AAa?$AAr@ 40037d38     LIBCMT:crt0msg.obj
 0002:0000ad90       ??_C@_1FK@PGACCAFB@?$AAR?$AA6?$AA0?$AA0?$AA2?$AA?$AN?$AA?6?$AA?9?$AA?5?$AAf?$AAl?$AAo?$AAa?$AAt?$AAi?$AAn?$AAg?$AA?5?$AAp?$AAo?$AAi?$AAn?$AAt?$AA?5?$AAs?$AAu?$AAp?$AAp?$AAo?$AAr?$AAt?$AA?5@ 40037d90     LIBCMT:crt0msg.obj
 0002:0000aea0       ??_C@_1EK@MBDPDCGA@?$AAM?$AAi?$AAc?$AAr?$AAo?$AAs?$AAo?$AAf?$AAt?$AA?5?$AAV?$AAi?$AAs?$AAu?$AAa?$AAl?$AA?5?$AAC?$AA?$CL?$AA?$CL?$AA?5?$AAR?$AAu?$AAn?$AAt?$AAi?$AAm?$AAe?$AA?5?$AAL?$AAi?$AAb@ 40037ea0     LIBCMT:crt0msg.obj
 0002:0000aeec       ??_C@_15IABLJNFO@?$AA?6?$AA?6?$AA?$AA@ 40037eec     LIBCMT:crt0msg.obj
 0002:0000aef4       ??_C@_17LGKOMLJ@?$AA?4?$AA?4?$AA?4?$AA?$AA@ 40037ef4     LIBCMT:crt0msg.obj
 0002:0000aefc       ??_C@_1CO@EAEJAADC@?$AA?$DM?$AAp?$AAr?$AAo?$AAg?$AAr?$AAa?$AAm?$AA?5?$AAn?$AAa?$AAm?$AAe?$AA?5?$AAu?$AAn?$AAk?$AAn?$AAo?$AAw?$AAn?$AA?$DO?$AA?$AA@ 40037efc     LIBCMT:crt0msg.obj
 0002:0000af2c       ??_C@_1DE@JNGNBFGO@?$AAR?$AAu?$AAn?$AAt?$AAi?$AAm?$AAe?$AA?5?$AAE?$AAr?$AAr?$AAo?$AAr?$AA?$CB?$AA?6?$AA?6?$AAP?$AAr?$AAo?$AAg?$AAr?$AAa?$AAm?$AA?3?$AA?5?$AA?$AA@ 40037f2c     LIBCMT:crt0msg.obj
 0002:0000af60       __XcptActTab               40037f60     LIBCMT:winxfltr.obj
 0002:0000aff0       __First_FPE_Indx           40037ff0     LIBCMT:winxfltr.obj
 0002:0000aff4       __Num_FPE                  40037ff4     LIBCMT:winxfltr.obj
 0002:0000aff8       __XcptActTabSize           40037ff8     LIBCMT:winxfltr.obj
 0002:0000affc       __XcptActTabCount          40037ffc     LIBCMT:winxfltr.obj
 0002:0000b000       ___newctype                40038000     LIBCMT:ctype.obj
 0002:0000b300       __wctype                   40038300     LIBCMT:ctype.obj
 0002:0000b508       ___newclmap                40038508     LIBCMT:ctype.obj
 0002:0000b688       ___newcumap                40038688     LIBCMT:ctype.obj
 0002:0000b808       ??_C@_0L@KDOEJCKC@_nextafter?$AA@ 40038808     LIBCMT:_fpexcept_.obj
 0002:0000b814       ??_C@_05JGDBENOH@_logb?$AA@ 40038814     LIBCMT:_fpexcept_.obj
 0002:0000b81c       ??_C@_03ONILCKOB@_yn?$AA@  4003881c     LIBCMT:_fpexcept_.obj
 0002:0000b820       ??_C@_03NAKIGLHK@_y1?$AA@  40038820     LIBCMT:_fpexcept_.obj
 0002:0000b824       ??_C@_03MJLDFKDL@_y0?$AA@  40038824     LIBCMT:_fpexcept_.obj
 0002:0000b828       ??_C@_05GKKHEGJL@frexp?$AA@ 40038828     LIBCMT:_fpexcept_.obj
 0002:0000b830       ??_C@_04KEPJIHGP@fmod?$AA@ 40038830     LIBCMT:_fpexcept_.obj
 0002:0000b838       ??_C@_06MEIMCGCF@_hypot?$AA@ 40038838     LIBCMT:_fpexcept_.obj
 0002:0000b840       ??_C@_05KBKMEMPO@_cabs?$AA@ 40038840     LIBCMT:_fpexcept_.obj
 0002:0000b848       ??_C@_05CEJMAHNP@ldexp?$AA@ 40038848     LIBCMT:_fpexcept_.obj
 0002:0000b850       ??_C@_04ODHECPBC@fabs?$AA@ 40038850     LIBCMT:_fpexcept_.obj
 0002:0000b858       ??_C@_04EIAKFFMI@sqrt?$AA@ 40038858     LIBCMT:_fpexcept_.obj
 0002:0000b860       ??_C@_05KNGEOGJB@atan2?$AA@ 40038860     LIBCMT:_fpexcept_.obj
 0002:0000b868       ??_C@_04FJHINJAO@tanh?$AA@ 40038868     LIBCMT:_fpexcept_.obj
 0002:0000b870       ??_C@_04HPJJNFIM@cosh?$AA@ 40038870     LIBCMT:_fpexcept_.obj
 0002:0000b878       ??_C@_04COOMCNPB@sinh?$AA@ 40038878     LIBCMT:_fpexcept_.obj
 0002:0000b880       __atan_table               40038880     LIBCMT:_atan_table_.obj
 0002:0000d090       ___lookuptable_s           4003a090     LIBCMT:outputs.obj
 0002:0000d0f4       ??_C@_0BI@DFKBFLJE@GetProcessWindowStation?$AA@ 4003a0f4     LIBCMT:crtmboxw.obj
 0002:0000d10c       ??_C@_0BK@DEKFELLI@GetUserObjectInformationW?$AA@ 4003a10c     LIBCMT:crtmboxw.obj
 0002:0000d128       ??_C@_0BD@HHGDFDBJ@GetLastActivePopup?$AA@ 4003a128     LIBCMT:crtmboxw.obj
 0002:0000d13c       ??_C@_0BA@HNOPNCHB@GetActiveWindow?$AA@ 4003a13c     LIBCMT:crtmboxw.obj
 0002:0000d14c       ??_C@_0M@DLDCCGNP@MessageBoxW?$AA@ 4003a14c     LIBCMT:crtmboxw.obj
 0002:0000d158       ??_C@_1BG@GOEBHBDC@?$AAU?$AAS?$AAE?$AAR?$AA3?$AA2?$AA?4?$AAD?$AAL?$AAL?$AA?$AA@ 4003a158     LIBCMT:crtmboxw.obj
 0002:0000d170       ??_C@_06IMKFLFPG@1?$CDQNAN?$AA@ 4003a170     LIBCMT:_x10fout_.obj
 0002:0000d178       ??_C@_05DNEBIAHO@1?$CDINF?$AA@ 4003a178     LIBCMT:_x10fout_.obj
 0002:0000d180       ??_C@_05PHHOCPM@1?$CDIND?$AA@ 4003a180     LIBCMT:_x10fout_.obj
 0002:0000d188       ??_C@_06PGGFOGJG@1?$CDSNAN?$AA@ 4003a188     LIBCMT:_x10fout_.obj
 0002:0000d190       ??_C@_1BA@BALFACEM@?$AAC?$AAO?$AAN?$AAO?$AAU?$AAT?$AA$?$AA?$AA@ 4003a190     LIBCMT:initcon.obj
 0002:0000d1a0       __load_config_used         4003a1a0     LIBCMT:loadcfg.obj
 0002:0000d1f0       ___safe_se_handler_table   4003a1f0     <linker-defined>
 0002:0000d1fc       ___rtc_iaa                 4003a1fc     LIBCMT:_initsect_.obj
 0002:0000d200       ___rtc_izz                 4003a200     LIBCMT:_initsect_.obj
 0002:0000d204       ___rtc_taa                 4003a204     LIBCMT:_initsect_.obj
 0002:0000d208       ___rtc_tzz                 4003a208     LIBCMT:_initsect_.obj
 0002:0000d4e4       __IMPORT_DESCRIPTOR_KERNEL32 4003a4e4     kernel32:KERNEL32.dll
 0002:0000d4f8       __NULL_IMPORT_DESCRIPTOR   4003a4f8     kernel32:KERNEL32.dll
 0003:00000000       _animStateStr              4003b000     bg_animation.obj
 0003:00000230       _animBodyPartsStr          4003b230     bg_animation.obj
 0003:00000580       _bg_allies_playerclasses   4003b580     bg_classes.obj
 0003:00000728       _bg_axis_playerclasses     4003b728     bg_classes.obj
 0003:000008d0       _HQMessages                4003b8d0     bg_misc.obj
 0003:00000954       _syringeLoadout            4003b954     bg_misc.obj
 0003:0000097c       _skillNames                4003b97c     bg_misc.obj
 0003:00000998       _medalNames                4003b998     bg_misc.obj
 0003:000009b4       _playerlegsProneMins       4003b9b4     bg_misc.obj
 0003:000009c0       _skillLevels               4003b9c0     bg_misc.obj
 0003:00000ad8       _playerlegsProneMaxs       4003bad8     bg_misc.obj
 0003:00000ae4       _bg_numItems               4003bae4     bg_misc.obj
 0003:00000ae8       _reloadableWeapons         4003bae8     bg_misc.obj
 0003:00000b5c       _numVotesAvailable         4003bb5c     bg_misc.obj
 0003:00000b60       _WeaponTable               4003bb60     bg_misc.obj
 0003:00001c1c       _weapOverheat              4003cc1c     bg_misc.obj
 0003:00001c40       _weapAlts                  4003cc40     bg_misc.obj
 0003:00001d40       _weapTeamConversion        4003cd40     bg_misc.obj
 0003:00001e40       _weaponCanRestrict         4003ce40     bg_misc.obj
 0003:00001e80       _modWeaponTableMP          4003ce80     bg_misc.obj
 0003:00002340       _modFalloffDamage          4003d340     bg_misc.obj
 0003:00002470       _modHeadshotModeWeapon     4003d470     bg_misc.obj
 0003:000025a0       _WP_names                  4003d5a0     bg_misc.obj
 0003:000026a0       _bg_itemlist               4003d6a0     bg_misc.obj
 0003:00004000       _jP_GrenadesPerLevel       4003f000     bg_misc.obj
 0003:00004118       _rankSoundNames_Allies     4003f118     bg_misc.obj
 0003:00004168       _rankSoundNames_Axis       4003f168     bg_misc.obj
 0003:000041b8       _rankNames_Axis            4003f1b8     bg_misc.obj
 0003:00004208       _rankNames_Allies          4003f208     bg_misc.obj
 0003:00004258       _miniRankNames_Axis        4003f258     bg_misc.obj
 0003:000042a8       _miniRankNames_Allies      4003f2a8     bg_misc.obj
 0003:000042f4       _bg_fireteamNames          4003f2f4     bg_misc.obj
 0003:00004310       _OSP_Colortable            4003f310     bg_misc.obj
 0003:000043b8       _armSpeed_LandMine         4003f3b8     bg_misc.obj
 0003:000043e0       _armSpeed_Dynamite         4003f3e0     bg_misc.obj
 0003:00004408       _disarmSpeed_Dynamite      4003f408     bg_misc.obj
 0003:00004430       _disarmSpeed_LandMine      4003f430     bg_misc.obj
 0003:00004458       _artilleryBombs            4003f458     bg_misc.obj
 0003:00004480       _disarmSpeed_Satchel       4003f480     bg_misc.obj
 0003:000044a8       _chargeCost_Repair         4003f4a8     bg_misc.obj
 0003:000044d0       _chargeCost_Construct      4003f4d0     bg_misc.obj
 0003:000044f8       _chargeCost_Landmine       4003f4f8     bg_misc.obj
 0003:00004520       _chargeCost_Dynamite       4003f520     bg_misc.obj
 0003:00004548       _chargeCost_Riflenade      4003f548     bg_misc.obj
 0003:00004570       _chargeCost_Defuse         4003f570     bg_misc.obj
 0003:00004598       _chargeCost_Satchel        4003f598     bg_misc.obj
 0003:000045c0       _chargeCost_Smoke          4003f5c0     bg_misc.obj
 0003:000045e8       _chargeCost_Health         4003f5e8     bg_misc.obj
 0003:00004610       _chargeCost_Ammo           4003f610     bg_misc.obj
 0003:00004638       _chargeCost_Adrenaline     4003f638     bg_misc.obj
 0003:00004660       _chargeCost_Artillery      4003f660     bg_misc.obj
 0003:00004688       _chargeCost_Airstrike      4003f688     bg_misc.obj
 0003:000046b0       _chargeCost_Panzer         4003f6b0     bg_misc.obj
 0003:000046d8       _chargeCost_Bazooka        4003f6d8     bg_misc.obj
 0003:00004700       _chargeCost_Mortar         4003f700     bg_misc.obj
 0003:00004728       _lightWeapon_Spread        4003f728     bg_misc.obj
 0003:00004750       _disguiseTestCost          4003f750     bg_misc.obj
 0003:00004778       _axisDefault               4003f778     q_math.obj
 0003:0000479c       _colorBlack                4003f79c     q_math.obj
 0003:000047ac       _colorRed                  4003f7ac     q_math.obj
 0003:000047bc       _colorGreen                4003f7bc     q_math.obj
 0003:000047cc       _colorBlue                 4003f7cc     q_math.obj
 0003:000047dc       _colorYellow               4003f7dc     q_math.obj
 0003:000047ec       _colorOrange               4003f7ec     q_math.obj
 0003:000047fc       _colorMagenta              4003f7fc     q_math.obj
 0003:0000480c       _colorCyan                 4003f80c     q_math.obj
 0003:0000481c       _colorWhite                4003f81c     q_math.obj
 0003:0000482c       _colorLtGrey               4003f82c     q_math.obj
 0003:0000483c       _colorMdGrey               4003f83c     q_math.obj
 0003:0000484c       _colorDkGrey               4003f84c     q_math.obj
 0003:0000485c       _colorMdRed                4003f85c     q_math.obj
 0003:0000486c       _colorMdGreen              4003f86c     q_math.obj
 0003:0000487c       _colorDkGreen              4003f87c     q_math.obj
 0003:0000488c       _colorMdCyan               4003f88c     q_math.obj
 0003:0000489c       _colorMdYellow             4003f89c     q_math.obj
 0003:000048ac       _colorMdOrange             4003f8ac     q_math.obj
 0003:000048bc       _colorMdBlue               4003f8bc     q_math.obj
 0003:000048cc       _colorPink                 4003f8cc     q_math.obj
 0003:000048dc       _colorCthulhu              4003f8dc     q_math.obj
 0003:000048ec       _clrBrown                  4003f8ec     q_math.obj
 0003:000048fc       _clrBrownDk                4003f8fc     q_math.obj
 0003:0000490c       _clrBrownLine              4003f90c     q_math.obj
 0003:0000491c       _clrBrownLineFull          4003f91c     q_math.obj
 0003:0000492c       _clrBrownTextLt2           4003f92c     q_math.obj
 0003:0000493c       _clrBrownTextLt            4003f93c     q_math.obj
 0003:0000494c       _clrBrownText              4003f94c     q_math.obj
 0003:0000495c       _clrBrownTextDk            4003f95c     q_math.obj
 0003:0000496c       _clrBrownTextDk2           4003f96c     q_math.obj
 0003:00004980       _g_color_table             4003f980     q_math.obj
 0003:00004b80       _bytedirs                  4003fb80     q_math.obj
 0003:00005318       _missiondescriptionTxt     40040318     ui_loadpanel.obj
 0003:0000533c       _missiondescriptionHeaderTxt 4004033c     ui_loadpanel.obj
 0003:00005360       _campaignpheaderTxt        40040360     ui_loadpanel.obj
 0003:00005384       _campaignpTxt              40040384     ui_loadpanel.obj
 0003:000053a8       _loadScreenMeterBackTxt    400403a8     ui_loadpanel.obj
 0003:000053d0       _loadScreenMap             400403d0     ui_loadpanel.obj
 0003:00005420       _loadScreenBack            40040420     ui_loadpanel.obj
 0003:00005470       _loadingPanelText          40040470     ui_loadpanel.obj
 0003:000054c0       _campaignPanelText         400404c0     ui_loadpanel.obj
 0003:00005510       _loadScreenMeterBack       40040510     ui_loadpanel.obj
 0003:00005560       _downloadScreenMeterBack   40040560     ui_loadpanel.obj
 0003:000055b0       _downloadScreenMeterBackText 400405b0     ui_loadpanel.obj
 0003:00005600       _loadpanelButtons          40040600     ui_loadpanel.obj
 0003:00005838       _serverStatusCvars         40040838     ui_main.obj
 0003:00005888       _cvarTable                 40040888     ui_main.obj
 0003:00006774       _cvarTableSize             40041774     ui_main.obj
 0003:0000677c       _scriptCommandCount        4004177c     ui_shared.obj
 0003:00006780       _commandList               40041780     ui_shared.obj
 0003:000070b0       _itemParseKeywords         400420b0     ui_shared.obj
 0003:000074a0       _menuParseKeywords         400424a0     ui_shared.obj
 0003:00007650       __fltused                  40042650     LIBCMT:_fpinit_.obj
 0003:00007654       __ldused                   40042654     LIBCMT:_fpinit_.obj
 0003:000076a0       ___flsindex                400426a0     LIBCMT:tidtable.obj
 0003:000076a4       ___getvalueindex           400426a4     LIBCMT:tidtable.obj
 0003:000076a8       __cfltcvt_tab              400426a8     LIBCMT:cmiscdat.obj
 0003:000076d0       ___initialmbcinfo          400426d0     LIBCMT:mbctype.obj
 0003:000078f0       __mbctype                  400428f0     LIBCMT:mbctype.obj
 0003:000079f8       __mbcasemap                400429f8     LIBCMT:mbctype.obj
 0003:00007af8       ___ptmbcinfo               40042af8     LIBCMT:mbctype.obj
 0003:00007bf0       ___globallocalestatus      40042bf0     LIBCMT:glstatus.obj
 0003:00007bf4       ___clocalestr              40042bf4     LIBCMT:nlsdata2.obj
 0003:00007bf8       ___lc_time_c               40042bf8     LIBCMT:nlsdata2.obj
 0003:00007d60       ___initiallocinfo          40042d60     LIBCMT:nlsdata2.obj
 0003:00007e38       ___ptlocinfo               40042e38     LIBCMT:nlsdata2.obj
 0003:00007e3c       ___initiallocalestructinfo 40042e3c     LIBCMT:nlsdata2.obj
 0003:00007fd0       ___nullstring              40042fd0     LIBCMT:output.obj
 0003:00007fd4       ___wnullstring             40042fd4     LIBCMT:output.obj
 0003:00007fe0       ___security_cookie         40042fe0     LIBCMT:gs_cookie.obj
 0003:00007fe4       ___security_cookie_complement 40042fe4     LIBCMT:gs_cookie.obj
 0003:00008110       ___badioinfo               40043110     LIBCMT:ioinit.obj
 0003:00008150       ___lconv_static_decimal    40043150     LIBCMT:lconv.obj
 0003:00008154       ___lconv_static_W_decimal  40043154     LIBCMT:lconv.obj
 0003:00008158       ___lconv_c                 40043158     LIBCMT:lconv.obj
 0003:000081a8       ___lconv                   400431a8     LIBCMT:lconv.obj
 0003:000081ac       __pctype                   400431ac     LIBCMT:ctype.obj
 0003:000081b0       __pwctype                  400431b0     LIBCMT:ctype.obj
 0003:000081c0       ___mb_cur_max              400431c0     LIBCMT:nlsdata1.obj
 0003:000081c4       ___decimal_point           400431c4     LIBCMT:nlsdata1.obj
 0003:000081c8       ___decimal_point_length    400431c8     LIBCMT:nlsdata1.obj
 0003:000081d0       __matherr_flag             400431d0     LIBCMT:_matherr_.obj
 0003:000082c0       __d_inf                    400432c0     LIBCMT:_util_.obj
 0003:000082c8       __d_ind                    400432c8     LIBCMT:_util_.obj
 0003:000082d0       __d_max                    400432d0     LIBCMT:_util_.obj
 0003:000082d8       __d_min                    400432d8     LIBCMT:_util_.obj
 0003:000082e0       __d_mzero                  400432e0     LIBCMT:_util_.obj
 0003:00008308       __iob                      40043308     LIBCMT:_file.obj
 0003:000085b8       __pow10pos                 400435b8     LIBCMT:_constpow_.obj
 0003:00008718       __pow10neg                 40043718     LIBCMT:_constpow_.obj
 0003:00008874       ___abort_behavior          40043874     LIBCMT:abort.obj
 0003:00008880       __NLG_Destination          40043880     LIBCMT:exsup.obj
 0003:00008890       __confh                    40043890     LIBCMT:initcon.obj
 0003:0005663c       _vec3_origin               4009163c     q_math.obj
 0003:0006dd08       _bg_loadscreeninited       400a8d08     ui_loadpanel.obj
 0003:0007796c       _defaultMenu               400b296c     ui_main.obj
 0003:004d99c8       _g_waitingForKey           405149c8     ui_shared.obj
 0003:004d99cc       _g_editingField            405149cc     ui_shared.obj
 0003:004d99d0       _g_bindItem                405149d0     ui_shared.obj
 0003:004d99d4       _g_editItem                405149d4     ui_shared.obj
 0003:004d99d8       _menuCount                 405149d8     ui_shared.obj
 0003:004d99dc       _scrolltime                405149dc     ui_shared.obj
 0003:004d99e0       _modalMenuCount            405149e0     ui_shared.obj
 0003:004e93fc       ___fastflag                405243fc     LIBCMT:_fpinit_.obj
 0003:004e9400       __umaskval                 40524400     LIBCMT:crt0dat.obj
 0003:004e9404       ___argc                    40524404     LIBCMT:crt0dat.obj
 0003:004e9408       ___argv                    40524408     LIBCMT:crt0dat.obj
 0003:004e940c       ___wargv                   4052440c     LIBCMT:crt0dat.obj
 0003:004e9410       __environ                  40524410     LIBCMT:crt0dat.obj
 0003:004e9414       ___initenv                 40524414     LIBCMT:crt0dat.obj
 0003:004e9418       __wenviron                 40524418     LIBCMT:crt0dat.obj
 0003:004e941c       ___winitenv                4052441c     LIBCMT:crt0dat.obj
 0003:004e9420       __pgmptr                   40524420     LIBCMT:crt0dat.obj
 0003:004e9424       __wpgmptr                  40524424     LIBCMT:crt0dat.obj
 0003:004e9428       __exitflag                 40524428     LIBCMT:crt0dat.obj
 0003:004e942c       __C_Termination_Done       4052442c     LIBCMT:crt0dat.obj
 0003:004e9430       __C_Exit_Done              40524430     LIBCMT:crt0dat.obj
 0003:004e9438       __aenvptr                  40524438     LIBCMT:dllcrt0.obj
 0003:004e943c       __wenvptr                  4052443c     LIBCMT:dllcrt0.obj
 0003:004e9440       ___error_mode              40524440     LIBCMT:dllcrt0.obj
 0003:004e9444       ___app_type                40524444     LIBCMT:dllcrt0.obj
 0003:004e9448       _gpFlsAlloc                40524448     LIBCMT:tidtable.obj
 0003:004e944c       _gpFlsGetValue             4052444c     LIBCMT:tidtable.obj
 0003:004e9450       _gpFlsSetValue             40524450     LIBCMT:tidtable.obj
 0003:004e9454       _gpFlsFree                 40524454     LIBCMT:tidtable.obj
 0003:004e945c       ___mbulinfo                4052445c     LIBCMT:mbctype.obj
 0003:004e9468       ___mbcodepage              40524468     LIBCMT:mbctype.obj
 0003:004e946c       ___ismbcodepage            4052446c     LIBCMT:mbctype.obj
 0003:004e9470       ___mblcid                  40524470     LIBCMT:mbctype.obj
 0003:004e9474       ___locale_changed          40524474     LIBCMT:setlocal.obj
 0003:004e947c       ___pInvalidArgHandler      4052447c     LIBCMT:invarg.obj
 0003:004e95d0       ?__pInconsistency@@3P6AXXZA 405245d0     LIBCMT:hooks.obj
 0003:004e95ec       ___pPurecall               405245ec     LIBCMT:inithelp.obj
 0003:004e95f0       ?_pnhHeap@@3P6AHI@ZA       405245f0     LIBCMT:handler.obj
 0003:004e9c20       __maxwait                  40524c20     LIBCMT:crtheap.obj
 0003:004e9d30       __crtheap                  40524d30     LIBCMT:heapinit.obj
 0003:004e9d34       __outputformat             40524d34     LIBCMT:outputformat.obj
 0003:004e9d38       ___lconv_static_null       40524d38     LIBCMT:lconv.obj
 0003:004e9d3c       ___lconv_static_W_null     40524d3c     LIBCMT:lconv.obj
 0003:004e9d40       __cflush                   40524d40     LIBCMT:_file.obj
 0003:004ea080       __newmode                  40525080     LIBCMT:_newmode.obj
 0003:004ea084       __stdbuf                   40525084     LIBCMT:_sftbuf.obj
 0003:004ea0a0       _itemParseKeywordHash      405250a0     <common>
 0003:004ea8a0       _Menus                     405258a0     <common>
 0003:0057c0a0       _g_nameBind1               405b70a0     <common>
 0003:0057c0c0       _scrollYmenu               405b70c0     <common>
 0003:0057c8e0       _g_nameBind2               405b78e0     <common>
 0003:0057c900       _menuParseKeywordHash      405b7900     <common>
 0003:0057d100       _modalMenuStack            405b8100     <common>
 0003:0057d140       _ui_glCustom               405b8140     <common>
 0003:0057d260       _ui_browserShowEmptyOrFull 405b8260     <common>
 0003:0057d380       _ui_browserShowMaxlives    405b8380     <common>
 0003:0057d4a0       _ui_prevTeam               405b84a0     <common>
 0003:0057d5c0       _ui_serverFilterType       405b85c0     <common>
 0003:0057d6e0       _ui_browserGameType        405b86e0     <common>
 0003:0057d800       _ui_selectedPlayerName     405b8800     <common>
 0003:0057d920       _ui_browserShowPunkBuster  405b8920     <common>
 0003:0057da40       _ui_netSource              405b8a40     <common>
 0003:0057db60       _ui_limboPrevOptions       405b8b60     <common>
 0003:0057dc80       _ui_gameType               405b8c80     <common>
 0003:0057dda0       _ui_userAxisRespawnTime    405b8da0     <common>
 0003:0057dec0       _ui_friendlyFire           405b8ec0     <common>
 0003:0057dfe0       _ui_userAlliedRespawnTime  405b8fe0     <common>
 0003:0057e100       _cl_defaultProfile         405b9100     <common>
 0003:0057e220       _ui_prevWeapon             405b9220     <common>
 0003:0057e340       _ui_selectedPlayer         405b9340     <common>
 0003:0057e460       _ui_Q3Model                405b9460     <common>
 0003:0057e580       _ui_isSpectator            405b9580     <common>
 0003:0057e6a0       _ui_objective              405b96a0     <common>
 0003:0057e7c0       _ui_headModel              405b97c0     <common>
 0003:0057e8e0       _cg_crosshairAlpha         405b98e0     <common>
 0003:0057ea00       _ui_currentCampaign        405b9a00     <common>
 0003:0057eb20       _ui_currentNetMap          405b9b20     <common>
 0003:0057ec40       _ui_mapIndex               405b9c40     <common>
 0003:0057ed60       _ui_browserShowTeamBalanced 405b9d60     <common>
 0003:0057ee80       _ui_profile                405b9e80     <common>
 0003:0057efa0       _ui_browserShowAntilag     405b9fa0     <common>
 0003:0057f0c0       _ui_browserShowWeaponsRestricted 405ba0c0     <common>
 0003:0057f1e0       _ui_campaignIndex          405ba1e0     <common>
 0003:0057f300       _ui_browserSortKey         405ba300     <common>
 0003:0057f420       _ui_limboMode              405ba420     <common>
 0003:0057f540       _ui_browserShowFriendlyFire 405ba540     <common>
 0003:0057f660       _ui_browserNQonly          405ba660     <common>
 0003:0057f780       _ui_browserMaster          405ba780     <common>
 0003:0057f8a0       _ui_currentCampaignCompleted 405ba8a0     <common>
 0003:0057f9c0       _ui_cmd                    405ba9c0     <common>
 0003:0057fae0       _ui_currentMap             405baae0     <common>
 0003:0057fc00       _cg_crosshairColorAlt      405bac00     <common>
 0003:0057fd20       _ui_netGameType            405bad20     <common>
 0003:0057fe40       _cl_bypassMouseInput       405bae40     <common>
 0003:0057ff60       _ui_joinGameType           405baf60     <common>
 0003:00580080       _ui_cdkeychecked           405bb080     <common>
 0003:005801a0       _uiInfo                    405bb1a0     <common>
 0003:005c1960       _ui_clipboardName          405fc960     <common>
 0003:005c1a80       _g_gameType                405fca80     <common>
 0003:005c1ba0       _ui_dedicated              405fcba0     <common>
 0003:005c1cc0       _ui_limboOptions           405fccc0     <common>
 0003:005c1de0       _cl_profile                405fcde0     <common>
 0003:005c1f00       _ui_limboObjective         405fcf00     <common>
 0003:005c2020       _cg_crosshairAlphaAlt      405fd020     <common>
 0003:005c2140       _ui_prevClass              405fd140     <common>
 0003:005c2260       _ui_serverStatusTimeOut    405fd260     <common>
 0003:005c2380       _ui_currentNetCampaign     405fd380     <common>
 0003:005c24a0       _ui_autoredirect           405fd4a0     <common>
 0003:005c25c0       _ui_menuFiles              405fd5c0     <common>
 0003:005c26e0       _ui_blackout               405fd6e0     <common>
 0003:005c2800       _cg_crosshairSize          405fd800     <common>
 0003:005c2920       _cg_crosshairColor         405fd920     <common>
 0003:005c2a40       _ui_browserShowPasswordProtected 405fda40     <common>
 0003:005c2b60       _ui_userTimeLimit          405fdb60     <common>
 0003:005c2c80       _ui_master                 405fdc80     <common>
 0003:005c2da0       _bg_loadscreenfont2        405fdda0     <common>
 0003:005c7e00       _bg_loadscreenfont1        40602e00     <common>
 0003:005cce44       _imgBlingbling             40607e44     <common>
 0003:005cce48       _imgFadeCircle             40607e48     <common>
 0003:005cce4c       _DC                        40607e4c     <common>
 0003:005cce50       _imgFadeToBlack            40607e50     <common>
 0003:005cce60       _weaponStrings             40607e60     <common>
 0003:005cd058       __debugger_hook_dummy      40608058     <common>
 0003:005cd05c       ___piob                    4060805c     <common>
 0003:005cd060       __bufin                    40608060     <common>
 0003:005ce060       __nstream                  40609060     <common>
 0003:005ce064       __nhandle                  40609064     <common>
 0003:005ce080       ___pioinfo                 40609080     <common>
 0003:005ce180       __pDestructExceptionObject 40609180     <common>
 0003:005ce184       ___use_sse2_mathfcns       40609184     <common>
 0003:005ce188       __pmatherr                 40609188     <common>
 0003:005ce18c       ___sse2_available          4060918c     <common>
 0003:005ce190       __acmdln                   40609190     <common>
 0003:005ce194       ___env_initialized         40609194     <common>
 0003:005ce198       ___onexitend               40609198     <common>
 0003:005ce19c       ___onexitbegin             4060919c     <common>
 0003:005ce1a0       ___mbctype_initialized     406091a0     <common>
 0003:005ce1a4       ___dyn_tls_init_callback   406091a4     <common>

 entry point at        0001:00020473

 Static symbols

 0001:00000910       _SkipWhitespace            40001910 f   q_shared.obj
 0001:000010e0       _UI_Cache_f                400020e0 f   ui_atoms.obj
 0001:00001480       _UI_LoadArenasFromFile     40002480 f   ui_gameinfo.obj
 0001:00001af0       _UI_LoadCampaignsFromFile  40002af0 f   ui_gameinfo.obj
 0001:00003d50       _Text_Paint_Limit          40004d50 f   ui_main.obj
 0001:00004650       _UI_DrawHandicap           40005650 f   ui_main.obj
 0001:000046e0       _UI_DrawClanName           400056e0 f   ui_main.obj
 0001:00004720       _UI_DrawGameType           40005720 f   ui_main.obj
 0001:00004760       _UI_TeamIndexFromName      40005760 f   ui_main.obj
 0001:000047b0       _UI_DrawSaveGameShot       400057b0 f   ui_main.obj
 0001:00004800       _UI_DrawClanLogo           40005800 f   ui_main.obj
 0001:000048d0       _UI_DrawClanCinematic      400058d0 f   ui_main.obj
 0001:000049f0       _UI_DrawPreviewCinematic   400059f0 f   ui_main.obj
 0001:00004a90       _UI_DrawTeamName           40005a90 f   ui_main.obj
 0001:00004b20       _UI_DrawEffects            40005b20 f   ui_main.obj
 0001:000050b0       _UI_DrawMapCinematic       400060b0 f   ui_main.obj
 0001:00005250       _UI_DrawCampaignPreview    40006250 f   ui_main.obj
 0001:00005310       _UI_DrawCampaignCinematic  40006310 f   ui_main.obj
 0001:00005410       _UI_DrawCampaignName       40006410 f   ui_main.obj
 0001:000058c0       _UI_DrawCampaignMapDescription 400068c0 f   ui_main.obj
 0001:00005ae0       _UI_DrawCampaignMapPreview 40006ae0 f   ui_main.obj
 0001:00005cb0       _UI_DrawMissionBriefingMap 40006cb0 f   ui_main.obj
 0001:00005d30       _UI_DrawMissionBriefingTitle 40006d30 f   ui_main.obj
 0001:00005da0       _UI_DrawMissionBriefingObjectives 40006da0 f   ui_main.obj
 0001:00005f60       _UI_DrawNetFilter          40006f60 f   ui_main.obj
 0001:00005fc0       _UI_NextOpponent           40006fc0 f   ui_main.obj
 0001:00006020       _UI_PriorOpponent          40007020 f   ui_main.obj
 0001:00006080       _UI_DrawPlayerLogo         40007080 f   ui_main.obj
 0001:00006140       _UI_DrawPlayerLogoMetal    40007140 f   ui_main.obj
 0001:00006200       _UI_DrawPlayerLogoName     40007200 f   ui_main.obj
 0001:000062c0       _UI_DrawOpponentLogo       400072c0 f   ui_main.obj
 0001:00006380       _UI_DrawOpponentLogoMetal  40007380 f   ui_main.obj
 0001:00006440       _UI_DrawOpponentLogoName   40007440 f   ui_main.obj
 0001:00006500       _UI_DrawOpponentName       40007500 f   ui_main.obj
 0001:00006540       _UI_OwnerDrawWidth         40007540 f   ui_main.obj
 0001:00006850       _UI_DrawRedBlue            40007850 f   ui_main.obj
 0001:000068a0       _UI_DrawCrosshair          400078a0 f   ui_main.obj
 0001:000069d0       _UI_BuildPlayerList        400079d0 f   ui_main.obj
 0001:00006c40       _UI_DrawSelectedPlayer     40007c40 f   ui_main.obj
 0001:00006cb0       _UI_DrawServerRefreshDate  40007cb0 f   ui_main.obj
 0001:00006df0       _UI_DrawServerMOTD         40007df0 f   ui_main.obj
 0001:00007000       _UI_DrawKeyBindStatus      40008000 f   ui_main.obj
 0001:000070a0       _UI_ParseGLConfig          400080a0 f   ui_main.obj
 0001:00007130       _UI_OwnerDraw              40008130 f   ui_main.obj
 0001:00007ab0       _UI_Handicap_HandleKey     40008ab0 f   ui_main.obj
 0001:00007b50       _UI_Effects_HandleKey      40008b50 f   ui_main.obj
 0001:00007bc0       _UI_ClanName_HandleKey     40008bc0 f   ui_main.obj
 0001:00007c60       _UI_TeamName_HandleKey     40008c60 f   ui_main.obj
 0001:00007cf0       _UI_TeamMember_HandleKey   40008cf0 f   ui_main.obj
 0001:00007d80       _UI_OpponentName_HandleKey 40008d80 f   ui_main.obj
 0001:00007dc0       _UI_BotName_HandleKey      40008dc0 f   ui_main.obj
 0001:00007e20       _UI_RedBlue_HandleKey      40008e20 f   ui_main.obj
 0001:00007e50       _UI_Crosshair_HandleKey    40008e50 f   ui_main.obj
 0001:00007ec0       _UI_SelectedPlayer_HandleKey 40008ec0 f   ui_main.obj
 0001:00007f70       _UI_GetValue               40008f70 f   ui_main.obj
 0001:00007f80       _UI_ServersQsortCompare    40008f80 f   ui_main.obj
 0001:00008040       _UI_LoadMods               40009040 f   ui_main.obj
 0001:00008120       _UI_LoadProfiles           40009120 f   ui_main.obj
 0001:00008350       _UI_DelSavegame            40009350 f   ui_main.obj
 0001:000083d0       _UI_LoadSavegames          400093d0 f   ui_main.obj
 0001:000084d0       _UI_LoadMovies             400094d0 f   ui_main.obj
 0001:00008590       _UI_LoadDemos              40009590 f   ui_main.obj
 0001:000089d0       _UI_MapCountByGameType     400099d0 f   ui_main.obj
 0001:00008a50       _UI_CampaignCount          40009a50 f   ui_main.obj
 0001:00008a80       _UI_InsertServerIntoDisplayList 40009a80 f   ui_main.obj
 0001:00008ac0       _UI_RemoveServerFromDisplayList 40009ac0 f   ui_main.obj
 0001:00008b10       _UI_BinaryServerInsertion  40009b10 f   ui_main.obj
 0001:00008bb0       _UI_BuildServerDisplayList 40009bb0 f   ui_main.obj
 0001:000091d0       _UI_SortServerStatusInfo   4000a1d0 f   ui_main.obj
 0001:000092c0       _UI_GetServerStatusInfo    4000a2c0 f   ui_main.obj
 0001:000096a0       _stristr                   4000a6a0 f   ui_main.obj
 0001:00009710       _UI_BuildServerStatus      4000a710 f   ui_main.obj
 0001:00009850       _UI_FeederCount            4000a850 f   ui_main.obj
 0001:00009a80       _UI_SelectedMap            4000aa80 f   ui_main.obj
 0001:00009b20       _UI_SelectedCampaign       4000ab20 f   ui_main.obj
 0001:00009b60       _UI_GetIndexFromSelection  4000ab60 f   ui_main.obj
 0001:00009b90       _UI_UpdatePendingPings     4000ab90 f   ui_main.obj
 0001:00009bc0       _UI_FileText               4000abc0 f   ui_main.obj
 0001:0000a520       _UI_FeederItemImage        4000b520 f   ui_main.obj
 0001:0000a770       _UI_FeederSelection        4000b770 f   ui_main.obj
 0001:0000af70       _GameType_Parse            4000bf70 f   ui_main.obj
 0001:0000b120       _UI_ParseGameInfo          4000c120 f   ui_main.obj
 0001:0000b1b0       _UI_Pause                  4000c1b0 f   ui_main.obj
 0001:0000b200       _UI_PlayCinematic          4000c200 f   ui_main.obj
 0001:0000b240       _UI_StopCinematic          4000c240 f   ui_main.obj
 0001:0000b310       _UI_DrawCinematic          4000c310 f   ui_main.obj
 0001:0000b350       _UI_RunCinematicFrame      4000c350 f   ui_main.obj
 0001:0000be60       _UI_StopServerRefresh      4000ce60 f   ui_main.obj
 0001:0000bec0       _UI_DoServerRefresh        4000cec0 f   ui_main.obj
 0001:0000bf60       _UI_StartServerRefresh     4000cf60 f   ui_main.obj
 0001:0000c340       _UI_GameType_HandleKey     4000d340 f   ui_main.obj
 0001:0000c430       _UI_NetFilter_HandleKey    4000d430 f   ui_main.obj
 0001:0000c490       _UI_OwnerDrawHandleKey     4000d490 f   ui_main.obj
 0001:0000c600       _UI_BuildFindPlayerList    4000d600 f   ui_main.obj
 0001:00011570       _hashForString             40012570 f   ui_shared.obj
 0001:00012b70       _UI_GetTeamColor           40013b70 f   ui_shared.obj
 0001:00012b70       _UI_FeederAddItem          40013b70 f   ui_shared.obj
 0001:00014840       _Scroll_Slider_ThumbFunc   40015840 f   ui_shared.obj
 0001:00014aa0       _Window_CloseCinematic     40015aa0 f   ui_shared.obj
 0001:00014ad0       _Menu_CloseCinematics      40015ad0 f   ui_shared.obj
 0001:00014b30       _Display_CloseCinematics   40015b30 f   ui_shared.obj
 0001:00014c40       _Item_CorrectedTextRect    40015c40 f   ui_shared.obj
 0001:000187f0       _Window_CacheContents      400197f0 f   ui_shared.obj
 0001:00018830       _Item_CacheContents        40019830 f   ui_shared.obj
 0001:00018840       _Menu_CacheContents        40019840 f   ui_shared.obj
 0001:000188d0       _Menu_OverActiveItem       400198d0 f   ui_shared.obj
 0001:00019180       _Menu_RunCloseScript       4001a180 f   ui_shared.obj
 0001:0001a6a0       _Scroll_ListBox_AutoFunc   4001b6a0 f   ui_shared.obj
 0001:0001a710       _Scroll_ListBox_ThumbFunc  4001b710 f   ui_shared.obj
 0001:0001fae0       _shortsort                 40020ae0 f   LIBCMT:qsort.obj
 0001:00020080       _doexit                    40021080 f   LIBCMT:crt0dat.obj
 0001:0002037d       ___DllMainCRTStartup       4002137d f   LIBCMT:dllcrt0.obj
 0001:00020560       ?strtoxl@@YAKPAUlocaleinfo_struct@@PBDPAPBDHH@Z 40021560 f   LIBCMT:strtol.obj
 0001:00020e06       __shift                    40021e06 f   LIBCMT:cvt.obj
 0001:00020e4b       __cftoe2_l                 40021e4b f   LIBCMT:cvt.obj
 0001:00021409       __cftof2_l                 40022409 f   LIBCMT:cvt.obj
 0001:000217b0       ?CPtoLCID@@YAHH@Z          400227b0 f   LIBCMT:mbctype.obj
 0001:000217df       ?setSBCS@@YAXPAUthreadmbcinfostruct@@@Z 400227df f   LIBCMT:mbctype.obj
 0001:00021843       ?setSBUpLow@@YAXPAUthreadmbcinfostruct@@@Z 40022843 f   LIBCMT:mbctype.obj
 0001:00021a77       ?getSystemCP@@YAHH@Z       40022a77 f   LIBCMT:mbctype.obj
 0001:000221ed       ?__crtLCMapStringA_stat@@YAHPAUlocaleinfo_struct@@KKPBDHPADHHH@Z 400231ed f   LIBCMT:a_map.obj
 0001:00023030       _write_char                40024030 f   LIBCMT:output.obj
 0001:00023063       _write_string              40024063 f   LIBCMT:output.obj
 0001:00025103       _siglookup                 40026103 f   LIBCMT:winsig.obj
 0001:0002533f       __onexit_nolock            4002633f f   LIBCMT:onexit.obj
 0001:00025eaa       _parse_cmdline             40026eaa f   LIBCMT:stdargv.obj
 0001:00026b07       ?__crtGetStringTypeA_stat@@YAHPAUlocaleinfo_struct@@KPBDHPAGHHH@Z 40027b07 f   LIBCMT:a_str.obj
 0001:00029990       __unwind_handler4          4002a990 f   LIBCMT:exsup4.obj
 0001:00029eec       ?x_ismbbtype_l@@YAHPAUlocaleinfo_struct@@IHH@Z 4002aeec f   LIBCMT:ismbbyte.obj
 0001:0002a84f       __hw_cw                    4002b84f f   LIBCMT:_ieee87_.obj
 0001:0002a8dd       ___hw_cw_sse2              4002b8dd f   LIBCMT:_ieee87_.obj
 0001:0002b102       _flsall                    4002c102 f   LIBCMT:fflush.obj
 0001:0002b210       __unwind_handler           4002c210 f   LIBCMT:exsup.obj
